
../../bin/binary.elf:     file format elf32-littlearm


Disassembly of section .text:

08000000 <get_random>:
 8000000:	b480      	push	{r7}
 8000002:	af00      	add	r7, sp, #0
 8000004:	4b02      	ldr	r3, [pc, #8]	; (8000010 <get_random+0x10>)
 8000006:	681b      	ldr	r3, [r3, #0]
 8000008:	4618      	mov	r0, r3
 800000a:	46bd      	mov	sp, r7
 800000c:	bc80      	pop	{r7}
 800000e:	4770      	bx	lr
 8000010:	20000000 	.word	0x20000000

08000014 <rand32>:
 8000014:	b580      	push	{r7, lr}
 8000016:	af00      	add	r7, sp, #0
 8000018:	f7ff fff2 	bl	8000000 <get_random>
 800001c:	4603      	mov	r3, r0
 800001e:	4618      	mov	r0, r3
 8000020:	bd80      	pop	{r7, pc}
 8000022:	bf00      	nop

08000024 <rand_q>:
 8000024:	b580      	push	{r7, lr}
 8000026:	b084      	sub	sp, #16
 8000028:	af00      	add	r7, sp, #0
 800002a:	6078      	str	r0, [r7, #4]
 800002c:	f7ff fff2 	bl	8000014 <rand32>
 8000030:	60f8      	str	r0, [r7, #12]
 8000032:	68fb      	ldr	r3, [r7, #12]
 8000034:	4a16      	ldr	r2, [pc, #88]	; (8000090 <rand_q+0x6c>)
 8000036:	4293      	cmp	r3, r2
 8000038:	d8f8      	bhi.n	800002c <rand_q+0x8>
 800003a:	68fb      	ldr	r3, [r7, #12]
 800003c:	4a15      	ldr	r2, [pc, #84]	; (8000094 <rand_q+0x70>)
 800003e:	fba2 1203 	umull	r1, r2, r2, r3
 8000042:	0dd2      	lsrs	r2, r2, #23
 8000044:	4914      	ldr	r1, [pc, #80]	; (8000098 <rand_q+0x74>)
 8000046:	fb01 f202 	mul.w	r2, r1, r2
 800004a:	1a9b      	subs	r3, r3, r2
 800004c:	60fb      	str	r3, [r7, #12]
 800004e:	68fb      	ldr	r3, [r7, #12]
 8000050:	4a12      	ldr	r2, [pc, #72]	; (800009c <rand_q+0x78>)
 8000052:	fba2 1203 	umull	r1, r2, r2, r3
 8000056:	1a99      	subs	r1, r3, r2
 8000058:	0849      	lsrs	r1, r1, #1
 800005a:	440a      	add	r2, r1
 800005c:	0ad2      	lsrs	r2, r2, #11
 800005e:	f640 5101 	movw	r1, #3329	; 0xd01
 8000062:	fb01 f202 	mul.w	r2, r1, r2
 8000066:	1a9a      	subs	r2, r3, r2
 8000068:	b212      	sxth	r2, r2
 800006a:	687b      	ldr	r3, [r7, #4]
 800006c:	801a      	strh	r2, [r3, #0]
 800006e:	68fa      	ldr	r2, [r7, #12]
 8000070:	4b0a      	ldr	r3, [pc, #40]	; (800009c <rand_q+0x78>)
 8000072:	fba3 1302 	umull	r1, r3, r3, r2
 8000076:	1ad2      	subs	r2, r2, r3
 8000078:	0852      	lsrs	r2, r2, #1
 800007a:	4413      	add	r3, r2
 800007c:	0ada      	lsrs	r2, r3, #11
 800007e:	687b      	ldr	r3, [r7, #4]
 8000080:	3302      	adds	r3, #2
 8000082:	b212      	sxth	r2, r2
 8000084:	801a      	strh	r2, [r3, #0]
 8000086:	bf00      	nop
 8000088:	3710      	adds	r7, #16
 800008a:	46bd      	mov	sp, r7
 800008c:	bd80      	pop	{r7, pc}
 800008e:	bf00      	nop
 8000090:	ffa24f83 	.word	0xffa24f83
 8000094:	c1c6eadb 	.word	0xc1c6eadb
 8000098:	00a91a01 	.word	0x00a91a01
 800009c:	3afb7681 	.word	0x3afb7681

080000a0 <secadd_constant_bmsk.constprop.0>:
 80000a0:	e92d 4ff0 	stmdb	sp!, {r4, r5, r6, r7, r8, r9, sl, fp, lr}
 80000a4:	4616      	mov	r6, r2
 80000a6:	b089      	sub	sp, #36	; 0x24
 80000a8:	0082      	lsls	r2, r0, #2
 80000aa:	3207      	adds	r2, #7
 80000ac:	af04      	add	r7, sp, #16
 80000ae:	f022 0207 	bic.w	r2, r2, #7
 80000b2:	f8c7 d000 	str.w	sp, [r7]
 80000b6:	ebad 0d02 	sub.w	sp, sp, r2
 80000ba:	f10d 0810 	add.w	r8, sp, #16
 80000be:	ebad 0d02 	sub.w	sp, sp, r2
 80000c2:	f10d 0b10 	add.w	fp, sp, #16
 80000c6:	ebad 0d02 	sub.w	sp, sp, r2
 80000ca:	aa04      	add	r2, sp, #16
 80000cc:	60fa      	str	r2, [r7, #12]
 80000ce:	6bfa      	ldr	r2, [r7, #60]	; 0x3c
 80000d0:	6079      	str	r1, [r7, #4]
 80000d2:	f012 0201 	ands.w	r2, r2, #1
 80000d6:	4681      	mov	r9, r0
 80000d8:	469a      	mov	sl, r3
 80000da:	f040 80a8 	bne.w	800022e <secadd_constant_bmsk.constprop.0+0x18e>
 80000de:	b3b0      	cbz	r0, 800014e <secadd_constant_bmsk.constprop.0+0xae>
 80000e0:	1e43      	subs	r3, r0, #1
 80000e2:	2b05      	cmp	r3, #5
 80000e4:	f3c8 0580 	ubfx	r5, r8, #2, #1
 80000e8:	d915      	bls.n	8000116 <secadd_constant_bmsk.constprop.0+0x76>
 80000ea:	b10d      	cbz	r5, 80000f0 <secadd_constant_bmsk.constprop.0+0x50>
 80000ec:	f8c8 2000 	str.w	r2, [r8]
 80000f0:	eba9 0c05 	sub.w	ip, r9, r5
 80000f4:	ea4f 045c 	mov.w	r4, ip, lsr #1
 80000f8:	eb08 0385 	add.w	r3, r8, r5, lsl #2
 80000fc:	2000      	movs	r0, #0
 80000fe:	2100      	movs	r1, #0
 8000100:	3201      	adds	r2, #1
 8000102:	4294      	cmp	r4, r2
 8000104:	e8e3 0102 	strd	r0, r1, [r3], #8
 8000108:	d1fa      	bne.n	8000100 <secadd_constant_bmsk.constprop.0+0x60>
 800010a:	f02c 0301 	bic.w	r3, ip, #1
 800010e:	459c      	cmp	ip, r3
 8000110:	eb05 0203 	add.w	r2, r5, r3
 8000114:	d01b      	beq.n	800014e <secadd_constant_bmsk.constprop.0+0xae>
 8000116:	1c51      	adds	r1, r2, #1
 8000118:	2300      	movs	r3, #0
 800011a:	4589      	cmp	r9, r1
 800011c:	f848 3022 	str.w	r3, [r8, r2, lsl #2]
 8000120:	d915      	bls.n	800014e <secadd_constant_bmsk.constprop.0+0xae>
 8000122:	f848 3021 	str.w	r3, [r8, r1, lsl #2]
 8000126:	1c91      	adds	r1, r2, #2
 8000128:	4589      	cmp	r9, r1
 800012a:	d910      	bls.n	800014e <secadd_constant_bmsk.constprop.0+0xae>
 800012c:	f848 3021 	str.w	r3, [r8, r1, lsl #2]
 8000130:	1cd1      	adds	r1, r2, #3
 8000132:	4589      	cmp	r9, r1
 8000134:	d90b      	bls.n	800014e <secadd_constant_bmsk.constprop.0+0xae>
 8000136:	f848 3021 	str.w	r3, [r8, r1, lsl #2]
 800013a:	1d11      	adds	r1, r2, #4
 800013c:	4589      	cmp	r9, r1
 800013e:	d906      	bls.n	800014e <secadd_constant_bmsk.constprop.0+0xae>
 8000140:	3205      	adds	r2, #5
 8000142:	4591      	cmp	r9, r2
 8000144:	f848 3021 	str.w	r3, [r8, r1, lsl #2]
 8000148:	d901      	bls.n	800014e <secadd_constant_bmsk.constprop.0+0xae>
 800014a:	f848 3022 	str.w	r3, [r8, r2, lsl #2]
 800014e:	2201      	movs	r2, #1
 8000150:	9200      	str	r2, [sp, #0]
 8000152:	6879      	ldr	r1, [r7, #4]
 8000154:	4653      	mov	r3, sl
 8000156:	4648      	mov	r0, r9
 8000158:	f005 fe7f 	bl	8005e5a <copy_sharing_asm>
 800015c:	6bbb      	ldr	r3, [r7, #56]	; 0x38
 800015e:	eb0a 0583 	add.w	r5, sl, r3, lsl #2
 8000162:	009b      	lsls	r3, r3, #2
 8000164:	60bb      	str	r3, [r7, #8]
 8000166:	687b      	ldr	r3, [r7, #4]
 8000168:	eb03 0a86 	add.w	sl, r3, r6, lsl #2
 800016c:	00b3      	lsls	r3, r6, #2
 800016e:	607b      	str	r3, [r7, #4]
 8000170:	2601      	movs	r6, #1
 8000172:	464b      	mov	r3, r9
 8000174:	4634      	mov	r4, r6
 8000176:	46c1      	mov	r9, r8
 8000178:	4698      	mov	r8, r3
 800017a:	e036      	b.n	80001ea <secadd_constant_bmsk.constprop.0+0x14a>
 800017c:	9402      	str	r4, [sp, #8]
 800017e:	6c3a      	ldr	r2, [r7, #64]	; 0x40
 8000180:	4659      	mov	r1, fp
 8000182:	e9cd 4200 	strd	r4, r2, [sp]
 8000186:	4640      	mov	r0, r8
 8000188:	2201      	movs	r2, #1
 800018a:	f005 fe3c 	bl	8005e06 <my_masked_xor_asm>
 800018e:	e9cd 9401 	strd	r9, r4, [sp, #4]
 8000192:	9400      	str	r4, [sp, #0]
 8000194:	68f9      	ldr	r1, [r7, #12]
 8000196:	462b      	mov	r3, r5
 8000198:	4640      	mov	r0, r8
 800019a:	2201      	movs	r2, #1
 800019c:	f005 fe33 	bl	8005e06 <my_masked_xor_asm>
 80001a0:	465b      	mov	r3, fp
 80001a2:	e9cd 9401 	strd	r9, r4, [sp, #4]
 80001a6:	9400      	str	r4, [sp, #0]
 80001a8:	4651      	mov	r1, sl
 80001aa:	4640      	mov	r0, r8
 80001ac:	2201      	movs	r2, #1
 80001ae:	f005 fe2a 	bl	8005e06 <my_masked_xor_asm>
 80001b2:	2e0b      	cmp	r6, #11
 80001b4:	465b      	mov	r3, fp
 80001b6:	d034      	beq.n	8000222 <secadd_constant_bmsk.constprop.0+0x182>
 80001b8:	9402      	str	r4, [sp, #8]
 80001ba:	68fa      	ldr	r2, [r7, #12]
 80001bc:	4649      	mov	r1, r9
 80001be:	e9cd 4200 	strd	r4, r2, [sp]
 80001c2:	4640      	mov	r0, r8
 80001c4:	2201      	movs	r2, #1
 80001c6:	f005 fd83 	bl	8005cd0 <my_masked_and_asm>
 80001ca:	e9cd 5401 	strd	r5, r4, [sp, #4]
 80001ce:	9400      	str	r4, [sp, #0]
 80001d0:	464b      	mov	r3, r9
 80001d2:	2201      	movs	r2, #1
 80001d4:	4649      	mov	r1, r9
 80001d6:	4640      	mov	r0, r8
 80001d8:	f005 fe15 	bl	8005e06 <my_masked_xor_asm>
 80001dc:	68bb      	ldr	r3, [r7, #8]
 80001de:	3601      	adds	r6, #1
 80001e0:	441d      	add	r5, r3
 80001e2:	687b      	ldr	r3, [r7, #4]
 80001e4:	2e0c      	cmp	r6, #12
 80001e6:	449a      	add	sl, r3
 80001e8:	d01b      	beq.n	8000222 <secadd_constant_bmsk.constprop.0+0x182>
 80001ea:	6bfa      	ldr	r2, [r7, #60]	; 0x3c
 80001ec:	40f2      	lsrs	r2, r6
 80001ee:	f012 0f01 	tst.w	r2, #1
 80001f2:	462b      	mov	r3, r5
 80001f4:	4651      	mov	r1, sl
 80001f6:	f04f 0201 	mov.w	r2, #1
 80001fa:	d1bf      	bne.n	800017c <secadd_constant_bmsk.constprop.0+0xdc>
 80001fc:	464b      	mov	r3, r9
 80001fe:	9501      	str	r5, [sp, #4]
 8000200:	9402      	str	r4, [sp, #8]
 8000202:	9400      	str	r4, [sp, #0]
 8000204:	4640      	mov	r0, r8
 8000206:	f005 fdfe 	bl	8005e06 <my_masked_xor_asm>
 800020a:	2e0b      	cmp	r6, #11
 800020c:	464b      	mov	r3, r9
 800020e:	d008      	beq.n	8000222 <secadd_constant_bmsk.constprop.0+0x182>
 8000210:	e9cd 5401 	strd	r5, r4, [sp, #4]
 8000214:	9400      	str	r4, [sp, #0]
 8000216:	2201      	movs	r2, #1
 8000218:	4649      	mov	r1, r9
 800021a:	4640      	mov	r0, r8
 800021c:	f005 fd58 	bl	8005cd0 <my_masked_and_asm>
 8000220:	e7dc      	b.n	80001dc <secadd_constant_bmsk.constprop.0+0x13c>
 8000222:	f8d7 d000 	ldr.w	sp, [r7]
 8000226:	3714      	adds	r7, #20
 8000228:	46bd      	mov	sp, r7
 800022a:	e8bd 8ff0 	ldmia.w	sp!, {r4, r5, r6, r7, r8, r9, sl, fp, pc}
 800022e:	2401      	movs	r4, #1
 8000230:	6c3a      	ldr	r2, [r7, #64]	; 0x40
 8000232:	9201      	str	r2, [sp, #4]
 8000234:	4641      	mov	r1, r8
 8000236:	4622      	mov	r2, r4
 8000238:	9402      	str	r4, [sp, #8]
 800023a:	9400      	str	r4, [sp, #0]
 800023c:	f005 fd48 	bl	8005cd0 <my_masked_and_asm>
 8000240:	9402      	str	r4, [sp, #8]
 8000242:	6c3b      	ldr	r3, [r7, #64]	; 0x40
 8000244:	e9cd 4300 	strd	r4, r3, [sp]
 8000248:	4622      	mov	r2, r4
 800024a:	6879      	ldr	r1, [r7, #4]
 800024c:	4653      	mov	r3, sl
 800024e:	4648      	mov	r0, r9
 8000250:	f005 fdd9 	bl	8005e06 <my_masked_xor_asm>
 8000254:	e782      	b.n	800015c <secadd_constant_bmsk.constprop.0+0xbc>
 8000256:	bf00      	nop

08000258 <masked_dense2bitslice_opt.constprop.0>:
 8000258:	e92d 4f70 	stmdb	sp!, {r4, r5, r6, r8, r9, sl, fp, lr}
 800025c:	b0bc      	sub	sp, #240	; 0xf0
 800025e:	e9cd 011a 	strd	r0, r1, [sp, #104]	; 0x68
 8000262:	9d45      	ldr	r5, [sp, #276]	; 0x114
 8000264:	2800      	cmp	r0, #0
 8000266:	f000 80ed 	beq.w	8000444 <masked_dense2bitslice_opt.constprop.0+0x1ec>
 800026a:	0092      	lsls	r2, r2, #2
 800026c:	460c      	mov	r4, r1
 800026e:	9219      	str	r2, [sp, #100]	; 0x64
 8000270:	f06f 012b 	mvn.w	r1, #43	; 0x2b
 8000274:	eb03 0243 	add.w	r2, r3, r3, lsl #1
 8000278:	fb01 f303 	mul.w	r3, r1, r3
 800027c:	eb04 1102 	add.w	r1, r4, r2, lsl #4
 8000280:	9118      	str	r1, [sp, #96]	; 0x60
 8000282:	4419      	add	r1, r3
 8000284:	9117      	str	r1, [sp, #92]	; 0x5c
 8000286:	eb01 1102 	add.w	r1, r1, r2, lsl #4
 800028a:	9116      	str	r1, [sp, #88]	; 0x58
 800028c:	4419      	add	r1, r3
 800028e:	9115      	str	r1, [sp, #84]	; 0x54
 8000290:	eb01 1102 	add.w	r1, r1, r2, lsl #4
 8000294:	9114      	str	r1, [sp, #80]	; 0x50
 8000296:	4419      	add	r1, r3
 8000298:	9113      	str	r1, [sp, #76]	; 0x4c
 800029a:	eb01 1102 	add.w	r1, r1, r2, lsl #4
 800029e:	9112      	str	r1, [sp, #72]	; 0x48
 80002a0:	4419      	add	r1, r3
 80002a2:	9111      	str	r1, [sp, #68]	; 0x44
 80002a4:	eb01 1102 	add.w	r1, r1, r2, lsl #4
 80002a8:	9110      	str	r1, [sp, #64]	; 0x40
 80002aa:	4419      	add	r1, r3
 80002ac:	910f      	str	r1, [sp, #60]	; 0x3c
 80002ae:	eb01 1102 	add.w	r1, r1, r2, lsl #4
 80002b2:	910e      	str	r1, [sp, #56]	; 0x38
 80002b4:	4419      	add	r1, r3
 80002b6:	910d      	str	r1, [sp, #52]	; 0x34
 80002b8:	eb01 1102 	add.w	r1, r1, r2, lsl #4
 80002bc:	910c      	str	r1, [sp, #48]	; 0x30
 80002be:	4419      	add	r1, r3
 80002c0:	910b      	str	r1, [sp, #44]	; 0x2c
 80002c2:	eb01 1102 	add.w	r1, r1, r2, lsl #4
 80002c6:	910a      	str	r1, [sp, #40]	; 0x28
 80002c8:	4419      	add	r1, r3
 80002ca:	9109      	str	r1, [sp, #36]	; 0x24
 80002cc:	eb01 1102 	add.w	r1, r1, r2, lsl #4
 80002d0:	9108      	str	r1, [sp, #32]
 80002d2:	4419      	add	r1, r3
 80002d4:	9107      	str	r1, [sp, #28]
 80002d6:	eb01 1102 	add.w	r1, r1, r2, lsl #4
 80002da:	9106      	str	r1, [sp, #24]
 80002dc:	4419      	add	r1, r3
 80002de:	9105      	str	r1, [sp, #20]
 80002e0:	eb01 1102 	add.w	r1, r1, r2, lsl #4
 80002e4:	18cb      	adds	r3, r1, r3
 80002e6:	9303      	str	r3, [sp, #12]
 80002e8:	f04f 0800 	mov.w	r8, #0
 80002ec:	eb03 1302 	add.w	r3, r3, r2, lsl #4
 80002f0:	006e      	lsls	r6, r5, #1
 80002f2:	9104      	str	r1, [sp, #16]
 80002f4:	9302      	str	r3, [sp, #8]
 80002f6:	01ad      	lsls	r5, r5, #6
 80002f8:	46c2      	mov	sl, r8
 80002fa:	ac3b      	add	r4, sp, #236	; 0xec
 80002fc:	9b44      	ldr	r3, [sp, #272]	; 0x110
 80002fe:	a91b      	add	r1, sp, #108	; 0x6c
 8000300:	eb03 034a 	add.w	r3, r3, sl, lsl #1
 8000304:	5f58      	ldrsh	r0, [r3, r5]
 8000306:	f9b3 2000 	ldrsh.w	r2, [r3]
 800030a:	ea42 4200 	orr.w	r2, r2, r0, lsl #16
 800030e:	f841 2f04 	str.w	r2, [r1, #4]!
 8000312:	428c      	cmp	r4, r1
 8000314:	4433      	add	r3, r6
 8000316:	d1f5      	bne.n	8000304 <masked_dense2bitslice_opt.constprop.0+0xac>
 8000318:	f04f 0905 	mov.w	r9, #5
 800031c:	f64f 7cff 	movw	ip, #65535	; 0xffff
 8000320:	2010      	movs	r0, #16
 8000322:	ea6f 0e00 	mvn.w	lr, r0
 8000326:	2200      	movs	r2, #0
 8000328:	9501      	str	r5, [sp, #4]
 800032a:	ab1c      	add	r3, sp, #112	; 0x70
 800032c:	eb00 0b02 	add.w	fp, r0, r2
 8000330:	a91c      	add	r1, sp, #112	; 0x70
 8000332:	f853 3022 	ldr.w	r3, [r3, r2, lsl #2]
 8000336:	f851 102b 	ldr.w	r1, [r1, fp, lsl #2]
 800033a:	40c3      	lsrs	r3, r0
 800033c:	404b      	eors	r3, r1
 800033e:	ad1c      	add	r5, sp, #112	; 0x70
 8000340:	ea03 030c 	and.w	r3, r3, ip
 8000344:	4059      	eors	r1, r3
 8000346:	f845 102b 	str.w	r1, [r5, fp, lsl #2]
 800034a:	f855 1022 	ldr.w	r1, [r5, r2, lsl #2]
 800034e:	4083      	lsls	r3, r0
 8000350:	f10b 0b01 	add.w	fp, fp, #1
 8000354:	404b      	eors	r3, r1
 8000356:	f845 3022 	str.w	r3, [r5, r2, lsl #2]
 800035a:	ea0b 020e 	and.w	r2, fp, lr
 800035e:	2a1f      	cmp	r2, #31
 8000360:	dde3      	ble.n	800032a <masked_dense2bitslice_opt.constprop.0+0xd2>
 8000362:	1040      	asrs	r0, r0, #1
 8000364:	fa0c f300 	lsl.w	r3, ip, r0
 8000368:	f1b9 0901 	subs.w	r9, r9, #1
 800036c:	9d01      	ldr	r5, [sp, #4]
 800036e:	ea8c 0c03 	eor.w	ip, ip, r3
 8000372:	d1d6      	bne.n	8000322 <masked_dense2bitslice_opt.constprop.0+0xca>
 8000374:	e9dd 231b 	ldrd	r2, r3, [sp, #108]	; 0x6c
 8000378:	f842 3008 	str.w	r3, [r2, r8]
 800037c:	9a18      	ldr	r2, [sp, #96]	; 0x60
 800037e:	9b2c      	ldr	r3, [sp, #176]	; 0xb0
 8000380:	f842 3008 	str.w	r3, [r2, r8]
 8000384:	9a17      	ldr	r2, [sp, #92]	; 0x5c
 8000386:	9b1d      	ldr	r3, [sp, #116]	; 0x74
 8000388:	f842 3008 	str.w	r3, [r2, r8]
 800038c:	9a16      	ldr	r2, [sp, #88]	; 0x58
 800038e:	9b2d      	ldr	r3, [sp, #180]	; 0xb4
 8000390:	f842 3008 	str.w	r3, [r2, r8]
 8000394:	9a15      	ldr	r2, [sp, #84]	; 0x54
 8000396:	9b1e      	ldr	r3, [sp, #120]	; 0x78
 8000398:	f842 3008 	str.w	r3, [r2, r8]
 800039c:	9a14      	ldr	r2, [sp, #80]	; 0x50
 800039e:	9b2e      	ldr	r3, [sp, #184]	; 0xb8
 80003a0:	f842 3008 	str.w	r3, [r2, r8]
 80003a4:	9a13      	ldr	r2, [sp, #76]	; 0x4c
 80003a6:	9b1f      	ldr	r3, [sp, #124]	; 0x7c
 80003a8:	f842 3008 	str.w	r3, [r2, r8]
 80003ac:	9a12      	ldr	r2, [sp, #72]	; 0x48
 80003ae:	9b2f      	ldr	r3, [sp, #188]	; 0xbc
 80003b0:	f842 3008 	str.w	r3, [r2, r8]
 80003b4:	9a11      	ldr	r2, [sp, #68]	; 0x44
 80003b6:	9b20      	ldr	r3, [sp, #128]	; 0x80
 80003b8:	f842 3008 	str.w	r3, [r2, r8]
 80003bc:	9a10      	ldr	r2, [sp, #64]	; 0x40
 80003be:	9b30      	ldr	r3, [sp, #192]	; 0xc0
 80003c0:	f842 3008 	str.w	r3, [r2, r8]
 80003c4:	9a0f      	ldr	r2, [sp, #60]	; 0x3c
 80003c6:	9b21      	ldr	r3, [sp, #132]	; 0x84
 80003c8:	f842 3008 	str.w	r3, [r2, r8]
 80003cc:	9a0e      	ldr	r2, [sp, #56]	; 0x38
 80003ce:	9b31      	ldr	r3, [sp, #196]	; 0xc4
 80003d0:	f842 3008 	str.w	r3, [r2, r8]
 80003d4:	9a0d      	ldr	r2, [sp, #52]	; 0x34
 80003d6:	9b22      	ldr	r3, [sp, #136]	; 0x88
 80003d8:	f842 3008 	str.w	r3, [r2, r8]
 80003dc:	9a0c      	ldr	r2, [sp, #48]	; 0x30
 80003de:	9b32      	ldr	r3, [sp, #200]	; 0xc8
 80003e0:	f842 3008 	str.w	r3, [r2, r8]
 80003e4:	9a0b      	ldr	r2, [sp, #44]	; 0x2c
 80003e6:	9b23      	ldr	r3, [sp, #140]	; 0x8c
 80003e8:	f842 3008 	str.w	r3, [r2, r8]
 80003ec:	9a0a      	ldr	r2, [sp, #40]	; 0x28
 80003ee:	9b33      	ldr	r3, [sp, #204]	; 0xcc
 80003f0:	f842 3008 	str.w	r3, [r2, r8]
 80003f4:	9a09      	ldr	r2, [sp, #36]	; 0x24
 80003f6:	9b24      	ldr	r3, [sp, #144]	; 0x90
 80003f8:	f842 3008 	str.w	r3, [r2, r8]
 80003fc:	9a08      	ldr	r2, [sp, #32]
 80003fe:	9b34      	ldr	r3, [sp, #208]	; 0xd0
 8000400:	f842 3008 	str.w	r3, [r2, r8]
 8000404:	9a07      	ldr	r2, [sp, #28]
 8000406:	9b25      	ldr	r3, [sp, #148]	; 0x94
 8000408:	f842 3008 	str.w	r3, [r2, r8]
 800040c:	9a06      	ldr	r2, [sp, #24]
 800040e:	9b35      	ldr	r3, [sp, #212]	; 0xd4
 8000410:	f842 3008 	str.w	r3, [r2, r8]
 8000414:	9a05      	ldr	r2, [sp, #20]
 8000416:	9b26      	ldr	r3, [sp, #152]	; 0x98
 8000418:	f842 3008 	str.w	r3, [r2, r8]
 800041c:	9a04      	ldr	r2, [sp, #16]
 800041e:	9b36      	ldr	r3, [sp, #216]	; 0xd8
 8000420:	f842 3008 	str.w	r3, [r2, r8]
 8000424:	9a03      	ldr	r2, [sp, #12]
 8000426:	9b27      	ldr	r3, [sp, #156]	; 0x9c
 8000428:	f842 3008 	str.w	r3, [r2, r8]
 800042c:	9a02      	ldr	r2, [sp, #8]
 800042e:	9b37      	ldr	r3, [sp, #220]	; 0xdc
 8000430:	f842 3008 	str.w	r3, [r2, r8]
 8000434:	9b19      	ldr	r3, [sp, #100]	; 0x64
 8000436:	4498      	add	r8, r3
 8000438:	9b1a      	ldr	r3, [sp, #104]	; 0x68
 800043a:	f10a 0a01 	add.w	sl, sl, #1
 800043e:	459a      	cmp	sl, r3
 8000440:	f47f af5c 	bne.w	80002fc <masked_dense2bitslice_opt.constprop.0+0xa4>
 8000444:	b03c      	add	sp, #240	; 0xf0
 8000446:	e8bd 8f70 	ldmia.w	sp!, {r4, r5, r6, r8, r9, sl, fp, pc}
 800044a:	bf00      	nop

0800044c <secadd_modp.constprop.0>:
 800044c:	e92d 4ff0 	stmdb	sp!, {r4, r5, r6, r7, r8, r9, sl, fp, lr}
 8000450:	b095      	sub	sp, #84	; 0x54
 8000452:	af04      	add	r7, sp, #16
 8000454:	e9c7 2104 	strd	r2, r1, [r7, #16]
 8000458:	60fb      	str	r3, [r7, #12]
 800045a:	2334      	movs	r3, #52	; 0x34
 800045c:	fb00 f303 	mul.w	r3, r0, r3
 8000460:	3307      	adds	r3, #7
 8000462:	0082      	lsls	r2, r0, #2
 8000464:	f023 0307 	bic.w	r3, r3, #7
 8000468:	1dd1      	adds	r1, r2, #7
 800046a:	ebad 0d03 	sub.w	sp, sp, r3
 800046e:	ad04      	add	r5, sp, #16
 8000470:	ebad 0d03 	sub.w	sp, sp, r3
 8000474:	f021 0307 	bic.w	r3, r1, #7
 8000478:	e9d7 8b1d 	ldrd	r8, fp, [r7, #116]	; 0x74
 800047c:	f8c7 d028 	str.w	sp, [r7, #40]	; 0x28
 8000480:	ae04      	add	r6, sp, #16
 8000482:	ebad 0d03 	sub.w	sp, sp, r3
 8000486:	623e      	str	r6, [r7, #32]
 8000488:	ae04      	add	r6, sp, #16
 800048a:	ebad 0d03 	sub.w	sp, sp, r3
 800048e:	f10d 0910 	add.w	r9, sp, #16
 8000492:	627d      	str	r5, [r7, #36]	; 0x24
 8000494:	ebad 0d03 	sub.w	sp, sp, r3
 8000498:	2501      	movs	r5, #1
 800049a:	f8d7 a068 	ldr.w	sl, [r7, #104]	; 0x68
 800049e:	63fa      	str	r2, [r7, #60]	; 0x3c
 80004a0:	60b9      	str	r1, [r7, #8]
 80004a2:	e9cd 8501 	strd	r8, r5, [sp, #4]
 80004a6:	6efb      	ldr	r3, [r7, #108]	; 0x6c
 80004a8:	9300      	str	r3, [sp, #0]
 80004aa:	4631      	mov	r1, r6
 80004ac:	4653      	mov	r3, sl
 80004ae:	462a      	mov	r2, r5
 80004b0:	4604      	mov	r4, r0
 80004b2:	f005 fc0d 	bl	8005cd0 <my_masked_and_asm>
 80004b6:	e9cd 8501 	strd	r8, r5, [sp, #4]
 80004ba:	6efb      	ldr	r3, [r7, #108]	; 0x6c
 80004bc:	9300      	str	r3, [sp, #0]
 80004be:	6f3b      	ldr	r3, [r7, #112]	; 0x70
 80004c0:	6a79      	ldr	r1, [r7, #36]	; 0x24
 80004c2:	eb08 088b 	add.w	r8, r8, fp, lsl #2
 80004c6:	eb0a 0383 	add.w	r3, sl, r3, lsl #2
 80004ca:	ea4f 0b8b 	mov.w	fp, fp, lsl #2
 80004ce:	4620      	mov	r0, r4
 80004d0:	f8c7 b030 	str.w	fp, [r7, #48]	; 0x30
 80004d4:	61fb      	str	r3, [r7, #28]
 80004d6:	462a      	mov	r2, r5
 80004d8:	4653      	mov	r3, sl
 80004da:	f005 fc94 	bl	8005e06 <my_masked_xor_asm>
 80004de:	e9cd 8501 	strd	r8, r5, [sp, #4]
 80004e2:	f8d7 c06c 	ldr.w	ip, [r7, #108]	; 0x6c
 80004e6:	f8cd c000 	str.w	ip, [sp]
 80004ea:	44c3      	add	fp, r8
 80004ec:	f8d7 801c 	ldr.w	r8, [r7, #28]
 80004f0:	4649      	mov	r1, r9
 80004f2:	4643      	mov	r3, r8
 80004f4:	4620      	mov	r0, r4
 80004f6:	462a      	mov	r2, r5
 80004f8:	f005 fc85 	bl	8005e06 <my_masked_xor_asm>
 80004fc:	e9cd 6501 	strd	r6, r5, [sp, #4]
 8000500:	f10d 0c10 	add.w	ip, sp, #16
 8000504:	6efb      	ldr	r3, [r7, #108]	; 0x6c
 8000506:	9300      	str	r3, [sp, #0]
 8000508:	4661      	mov	r1, ip
 800050a:	4643      	mov	r3, r8
 800050c:	4620      	mov	r0, r4
 800050e:	f8c7 c038 	str.w	ip, [r7, #56]	; 0x38
 8000512:	462a      	mov	r2, r5
 8000514:	f005 fc77 	bl	8005e06 <my_masked_xor_asm>
 8000518:	e9cd 6501 	strd	r6, r5, [sp, #4]
 800051c:	9500      	str	r5, [sp, #0]
 800051e:	6bf8      	ldr	r0, [r7, #60]	; 0x3c
 8000520:	6a79      	ldr	r1, [r7, #36]	; 0x24
 8000522:	4401      	add	r1, r0
 8000524:	1808      	adds	r0, r1, r0
 8000526:	464b      	mov	r3, r9
 8000528:	462a      	mov	r2, r5
 800052a:	61b8      	str	r0, [r7, #24]
 800052c:	4620      	mov	r0, r4
 800052e:	f005 fc6a 	bl	8005e06 <my_masked_xor_asm>
 8000532:	6f3b      	ldr	r3, [r7, #112]	; 0x70
 8000534:	4642      	mov	r2, r8
 8000536:	eb0a 03c3 	add.w	r3, sl, r3, lsl #3
 800053a:	1a9b      	subs	r3, r3, r2
 800053c:	62fb      	str	r3, [r7, #44]	; 0x2c
 800053e:	6f3b      	ldr	r3, [r7, #112]	; 0x70
 8000540:	f8d7 a018 	ldr.w	sl, [r7, #24]
 8000544:	009b      	lsls	r3, r3, #2
 8000546:	607b      	str	r3, [r7, #4]
 8000548:	230a      	movs	r3, #10
 800054a:	637b      	str	r3, [r7, #52]	; 0x34
 800054c:	4623      	mov	r3, r4
 800054e:	465c      	mov	r4, fp
 8000550:	46cb      	mov	fp, r9
 8000552:	46b1      	mov	r9, r6
 8000554:	4646      	mov	r6, r8
 8000556:	4698      	mov	r8, r3
 8000558:	9502      	str	r5, [sp, #8]
 800055a:	6bbb      	ldr	r3, [r7, #56]	; 0x38
 800055c:	2201      	movs	r2, #1
 800055e:	e9cd 5300 	strd	r5, r3, [sp]
 8000562:	4649      	mov	r1, r9
 8000564:	465b      	mov	r3, fp
 8000566:	4640      	mov	r0, r8
 8000568:	f005 fbb2 	bl	8005cd0 <my_masked_and_asm>
 800056c:	9601      	str	r6, [sp, #4]
 800056e:	6efa      	ldr	r2, [r7, #108]	; 0x6c
 8000570:	9202      	str	r2, [sp, #8]
 8000572:	6afa      	ldr	r2, [r7, #44]	; 0x2c
 8000574:	9500      	str	r5, [sp, #0]
 8000576:	4416      	add	r6, r2
 8000578:	464b      	mov	r3, r9
 800057a:	2201      	movs	r2, #1
 800057c:	4649      	mov	r1, r9
 800057e:	4640      	mov	r0, r8
 8000580:	f005 fc41 	bl	8005e06 <my_masked_xor_asm>
 8000584:	e9cd 4501 	strd	r4, r5, [sp, #4]
 8000588:	6efa      	ldr	r2, [r7, #108]	; 0x6c
 800058a:	9200      	str	r2, [sp, #0]
 800058c:	6b3a      	ldr	r2, [r7, #48]	; 0x30
 800058e:	4633      	mov	r3, r6
 8000590:	4659      	mov	r1, fp
 8000592:	4640      	mov	r0, r8
 8000594:	4414      	add	r4, r2
 8000596:	2201      	movs	r2, #1
 8000598:	f005 fc35 	bl	8005e06 <my_masked_xor_asm>
 800059c:	e9cd 9501 	strd	r9, r5, [sp, #4]
 80005a0:	6efa      	ldr	r2, [r7, #108]	; 0x6c
 80005a2:	9200      	str	r2, [sp, #0]
 80005a4:	6bb9      	ldr	r1, [r7, #56]	; 0x38
 80005a6:	4633      	mov	r3, r6
 80005a8:	2201      	movs	r2, #1
 80005aa:	4640      	mov	r0, r8
 80005ac:	f005 fc2b 	bl	8005e06 <my_masked_xor_asm>
 80005b0:	e9cd 9501 	strd	r9, r5, [sp, #4]
 80005b4:	9500      	str	r5, [sp, #0]
 80005b6:	6bfb      	ldr	r3, [r7, #60]	; 0x3c
 80005b8:	4651      	mov	r1, sl
 80005ba:	2201      	movs	r2, #1
 80005bc:	449a      	add	sl, r3
 80005be:	4640      	mov	r0, r8
 80005c0:	465b      	mov	r3, fp
 80005c2:	f005 fc20 	bl	8005e06 <my_masked_xor_asm>
 80005c6:	6b7b      	ldr	r3, [r7, #52]	; 0x34
 80005c8:	3b01      	subs	r3, #1
 80005ca:	637b      	str	r3, [r7, #52]	; 0x34
 80005cc:	d1c4      	bne.n	8000558 <secadd_modp.constprop.0+0x10c>
 80005ce:	6bbb      	ldr	r3, [r7, #56]	; 0x38
 80005d0:	9301      	str	r3, [sp, #4]
 80005d2:	6f3b      	ldr	r3, [r7, #112]	; 0x70
 80005d4:	4644      	mov	r4, r8
 80005d6:	f8d7 8004 	ldr.w	r8, [r7, #4]
 80005da:	4498      	add	r8, r3
 80005dc:	69fb      	ldr	r3, [r7, #28]
 80005de:	9502      	str	r5, [sp, #8]
 80005e0:	eb03 08c8 	add.w	r8, r3, r8, lsl #3
 80005e4:	4649      	mov	r1, r9
 80005e6:	9500      	str	r5, [sp, #0]
 80005e8:	465b      	mov	r3, fp
 80005ea:	2201      	movs	r2, #1
 80005ec:	4620      	mov	r0, r4
 80005ee:	f005 fb6f 	bl	8005cd0 <my_masked_and_asm>
 80005f2:	6efb      	ldr	r3, [r7, #108]	; 0x6c
 80005f4:	9500      	str	r5, [sp, #0]
 80005f6:	e9cd 8301 	strd	r8, r3, [sp, #4]
 80005fa:	6bfa      	ldr	r2, [r7, #60]	; 0x3c
 80005fc:	1916      	adds	r6, r2, r4
 80005fe:	69ba      	ldr	r2, [r7, #24]
 8000600:	eb02 08c6 	add.w	r8, r2, r6, lsl #3
 8000604:	eb04 0244 	add.w	r2, r4, r4, lsl #1
 8000608:	0112      	lsls	r2, r2, #4
 800060a:	464b      	mov	r3, r9
 800060c:	62fa      	str	r2, [r7, #44]	; 0x2c
 800060e:	4641      	mov	r1, r8
 8000610:	2201      	movs	r2, #1
 8000612:	4620      	mov	r0, r4
 8000614:	f005 fbf7 	bl	8005e06 <my_masked_xor_asm>
 8000618:	68bb      	ldr	r3, [r7, #8]
 800061a:	f8d7 d028 	ldr.w	sp, [r7, #40]	; 0x28
 800061e:	f023 0307 	bic.w	r3, r3, #7
 8000622:	ebad 0d03 	sub.w	sp, sp, r3
 8000626:	f10d 0910 	add.w	r9, sp, #16
 800062a:	ebad 0d03 	sub.w	sp, sp, r3
 800062e:	f10d 0a10 	add.w	sl, sp, #16
 8000632:	ebad 0d03 	sub.w	sp, sp, r3
 8000636:	697b      	ldr	r3, [r7, #20]
 8000638:	f5c3 5200 	rsb	r2, r3, #8192	; 0x2000
 800063c:	63ba      	str	r2, [r7, #56]	; 0x38
 800063e:	aa04      	add	r2, sp, #16
 8000640:	633a      	str	r2, [r7, #48]	; 0x30
 8000642:	f013 0201 	ands.w	r2, r3, #1
 8000646:	f040 80c3 	bne.w	80007d0 <secadd_modp.constprop.0+0x384>
 800064a:	b3c4      	cbz	r4, 80006be <secadd_modp.constprop.0+0x272>
 800064c:	1e63      	subs	r3, r4, #1
 800064e:	2b05      	cmp	r3, #5
 8000650:	f3c9 0580 	ubfx	r5, r9, #2, #1
 8000654:	d917      	bls.n	8000686 <secadd_modp.constprop.0+0x23a>
 8000656:	6b7b      	ldr	r3, [r7, #52]	; 0x34
 8000658:	b115      	cbz	r5, 8000660 <secadd_modp.constprop.0+0x214>
 800065a:	f8c9 3000 	str.w	r3, [r9]
 800065e:	462b      	mov	r3, r5
 8000660:	eba4 0c05 	sub.w	ip, r4, r5
 8000664:	ea4f 065c 	mov.w	r6, ip, lsr #1
 8000668:	eb09 0585 	add.w	r5, r9, r5, lsl #2
 800066c:	2000      	movs	r0, #0
 800066e:	2100      	movs	r1, #0
 8000670:	3201      	adds	r2, #1
 8000672:	4296      	cmp	r6, r2
 8000674:	e8e5 0102 	strd	r0, r1, [r5], #8
 8000678:	d1fa      	bne.n	8000670 <secadd_modp.constprop.0+0x224>
 800067a:	f02c 0101 	bic.w	r1, ip, #1
 800067e:	458c      	cmp	ip, r1
 8000680:	eb03 0201 	add.w	r2, r3, r1
 8000684:	d01b      	beq.n	80006be <secadd_modp.constprop.0+0x272>
 8000686:	1c51      	adds	r1, r2, #1
 8000688:	2300      	movs	r3, #0
 800068a:	428c      	cmp	r4, r1
 800068c:	f849 3022 	str.w	r3, [r9, r2, lsl #2]
 8000690:	d915      	bls.n	80006be <secadd_modp.constprop.0+0x272>
 8000692:	f849 3021 	str.w	r3, [r9, r1, lsl #2]
 8000696:	1c91      	adds	r1, r2, #2
 8000698:	428c      	cmp	r4, r1
 800069a:	d910      	bls.n	80006be <secadd_modp.constprop.0+0x272>
 800069c:	f849 3021 	str.w	r3, [r9, r1, lsl #2]
 80006a0:	1cd1      	adds	r1, r2, #3
 80006a2:	428c      	cmp	r4, r1
 80006a4:	d90b      	bls.n	80006be <secadd_modp.constprop.0+0x272>
 80006a6:	f849 3021 	str.w	r3, [r9, r1, lsl #2]
 80006aa:	1d11      	adds	r1, r2, #4
 80006ac:	428c      	cmp	r4, r1
 80006ae:	d906      	bls.n	80006be <secadd_modp.constprop.0+0x272>
 80006b0:	3205      	adds	r2, #5
 80006b2:	4294      	cmp	r4, r2
 80006b4:	f849 3021 	str.w	r3, [r9, r1, lsl #2]
 80006b8:	d901      	bls.n	80006be <secadd_modp.constprop.0+0x272>
 80006ba:	f849 3022 	str.w	r3, [r9, r2, lsl #2]
 80006be:	2201      	movs	r2, #1
 80006c0:	6a7b      	ldr	r3, [r7, #36]	; 0x24
 80006c2:	9200      	str	r2, [sp, #0]
 80006c4:	6a39      	ldr	r1, [r7, #32]
 80006c6:	4620      	mov	r0, r4
 80006c8:	f005 fbc7 	bl	8005e5a <copy_sharing_asm>
 80006cc:	6a3b      	ldr	r3, [r7, #32]
 80006ce:	6bfa      	ldr	r2, [r7, #60]	; 0x3c
 80006d0:	f06f 062b 	mvn.w	r6, #43	; 0x2b
 80006d4:	fb06 8604 	mla	r6, r6, r4, r8
 80006d8:	eb03 0b02 	add.w	fp, r3, r2
 80006dc:	f04f 0801 	mov.w	r8, #1
 80006e0:	4623      	mov	r3, r4
 80006e2:	4645      	mov	r5, r8
 80006e4:	464c      	mov	r4, r9
 80006e6:	4699      	mov	r9, r3
 80006e8:	e03d      	b.n	8000766 <secadd_modp.constprop.0+0x31a>
 80006ea:	9500      	str	r5, [sp, #0]
 80006ec:	f005 fbb5 	bl	8005e5a <copy_sharing_asm>
 80006f0:	6b39      	ldr	r1, [r7, #48]	; 0x30
 80006f2:	9500      	str	r5, [sp, #0]
 80006f4:	4633      	mov	r3, r6
 80006f6:	4648      	mov	r0, r9
 80006f8:	2201      	movs	r2, #1
 80006fa:	e9cd 4501 	strd	r4, r5, [sp, #4]
 80006fe:	f005 fb82 	bl	8005e06 <my_masked_xor_asm>
 8000702:	4653      	mov	r3, sl
 8000704:	4659      	mov	r1, fp
 8000706:	2201      	movs	r2, #1
 8000708:	e9cd 4501 	strd	r4, r5, [sp, #4]
 800070c:	4648      	mov	r0, r9
 800070e:	9500      	str	r5, [sp, #0]
 8000710:	f005 fb79 	bl	8005e06 <my_masked_xor_asm>
 8000714:	f8da 2000 	ldr.w	r2, [sl]
 8000718:	f8db 3000 	ldr.w	r3, [fp]
 800071c:	43d1      	mvns	r1, r2
 800071e:	f1b8 0f0c 	cmp.w	r8, #12
 8000722:	ea6f 0203 	mvn.w	r2, r3
 8000726:	f8ca 1000 	str.w	r1, [sl]
 800072a:	4653      	mov	r3, sl
 800072c:	f8cb 2000 	str.w	r2, [fp]
 8000730:	d03b      	beq.n	80007aa <secadd_modp.constprop.0+0x35e>
 8000732:	9502      	str	r5, [sp, #8]
 8000734:	6b3a      	ldr	r2, [r7, #48]	; 0x30
 8000736:	4621      	mov	r1, r4
 8000738:	e9cd 5200 	strd	r5, r2, [sp]
 800073c:	4648      	mov	r0, r9
 800073e:	2201      	movs	r2, #1
 8000740:	f005 fac6 	bl	8005cd0 <my_masked_and_asm>
 8000744:	e9cd 6501 	strd	r6, r5, [sp, #4]
 8000748:	9500      	str	r5, [sp, #0]
 800074a:	4623      	mov	r3, r4
 800074c:	2201      	movs	r2, #1
 800074e:	4621      	mov	r1, r4
 8000750:	4648      	mov	r0, r9
 8000752:	f005 fb58 	bl	8005e06 <my_masked_xor_asm>
 8000756:	6bfb      	ldr	r3, [r7, #60]	; 0x3c
 8000758:	f108 0801 	add.w	r8, r8, #1
 800075c:	f1b8 0f0d 	cmp.w	r8, #13
 8000760:	441e      	add	r6, r3
 8000762:	449b      	add	fp, r3
 8000764:	d021      	beq.n	80007aa <secadd_modp.constprop.0+0x35e>
 8000766:	f8d7 c038 	ldr.w	ip, [r7, #56]	; 0x38
 800076a:	fa2c fc08 	lsr.w	ip, ip, r8
 800076e:	f01c 0f01 	tst.w	ip, #1
 8000772:	4633      	mov	r3, r6
 8000774:	4651      	mov	r1, sl
 8000776:	4648      	mov	r0, r9
 8000778:	f04f 0201 	mov.w	r2, #1
 800077c:	d1b5      	bne.n	80006ea <secadd_modp.constprop.0+0x29e>
 800077e:	4659      	mov	r1, fp
 8000780:	4623      	mov	r3, r4
 8000782:	2201      	movs	r2, #1
 8000784:	9601      	str	r6, [sp, #4]
 8000786:	9502      	str	r5, [sp, #8]
 8000788:	9500      	str	r5, [sp, #0]
 800078a:	f005 fb3c 	bl	8005e06 <my_masked_xor_asm>
 800078e:	f1b8 0f0c 	cmp.w	r8, #12
 8000792:	4623      	mov	r3, r4
 8000794:	f04f 0201 	mov.w	r2, #1
 8000798:	4621      	mov	r1, r4
 800079a:	d006      	beq.n	80007aa <secadd_modp.constprop.0+0x35e>
 800079c:	e9cd 6501 	strd	r6, r5, [sp, #4]
 80007a0:	9500      	str	r5, [sp, #0]
 80007a2:	4648      	mov	r0, r9
 80007a4:	f005 fa94 	bl	8005cd0 <my_masked_and_asm>
 80007a8:	e7d5      	b.n	8000756 <secadd_modp.constprop.0+0x30a>
 80007aa:	6a3a      	ldr	r2, [r7, #32]
 80007ac:	6afb      	ldr	r3, [r7, #44]	; 0x2c
 80007ae:	f8d7 d028 	ldr.w	sp, [r7, #40]	; 0x28
 80007b2:	4413      	add	r3, r2
 80007b4:	9302      	str	r3, [sp, #8]
 80007b6:	697b      	ldr	r3, [r7, #20]
 80007b8:	e9cd 9300 	strd	r9, r3, [sp]
 80007bc:	4648      	mov	r0, r9
 80007be:	4613      	mov	r3, r2
 80007c0:	e9d7 2103 	ldrd	r2, r1, [r7, #12]
 80007c4:	f7ff fc6c 	bl	80000a0 <secadd_constant_bmsk.constprop.0>
 80007c8:	3744      	adds	r7, #68	; 0x44
 80007ca:	46bd      	mov	sp, r7
 80007cc:	e8bd 8ff0 	ldmia.w	sp!, {r4, r5, r6, r7, r8, r9, sl, fp, pc}
 80007d0:	b1dc      	cbz	r4, 800080a <secadd_modp.constprop.0+0x3be>
 80007d2:	6a7a      	ldr	r2, [r7, #36]	; 0x24
 80007d4:	ea49 0302 	orr.w	r3, r9, r2
 80007d8:	0759      	lsls	r1, r3, #29
 80007da:	d122      	bne.n	8000822 <secadd_modp.constprop.0+0x3d6>
 80007dc:	1e63      	subs	r3, r4, #1
 80007de:	2b0a      	cmp	r3, #10
 80007e0:	d91f      	bls.n	8000822 <secadd_modp.constprop.0+0x3d6>
 80007e2:	0865      	lsrs	r5, r4, #1
 80007e4:	eb09 05c5 	add.w	r5, r9, r5, lsl #3
 80007e8:	3a08      	subs	r2, #8
 80007ea:	464b      	mov	r3, r9
 80007ec:	e9f2 0102 	ldrd	r0, r1, [r2, #8]!
 80007f0:	e8e3 0102 	strd	r0, r1, [r3], #8
 80007f4:	42ab      	cmp	r3, r5
 80007f6:	d1f9      	bne.n	80007ec <secadd_modp.constprop.0+0x3a0>
 80007f8:	07e2      	lsls	r2, r4, #31
 80007fa:	f024 0301 	bic.w	r3, r4, #1
 80007fe:	d504      	bpl.n	800080a <secadd_modp.constprop.0+0x3be>
 8000800:	6a7a      	ldr	r2, [r7, #36]	; 0x24
 8000802:	f852 2023 	ldr.w	r2, [r2, r3, lsl #2]
 8000806:	f849 2023 	str.w	r2, [r9, r3, lsl #2]
 800080a:	2201      	movs	r2, #1
 800080c:	6a7b      	ldr	r3, [r7, #36]	; 0x24
 800080e:	9200      	str	r2, [sp, #0]
 8000810:	6a3d      	ldr	r5, [r7, #32]
 8000812:	4620      	mov	r0, r4
 8000814:	4629      	mov	r1, r5
 8000816:	f005 fb20 	bl	8005e5a <copy_sharing_asm>
 800081a:	682b      	ldr	r3, [r5, #0]
 800081c:	43db      	mvns	r3, r3
 800081e:	602b      	str	r3, [r5, #0]
 8000820:	e754      	b.n	80006cc <secadd_modp.constprop.0+0x280>
 8000822:	6bfb      	ldr	r3, [r7, #60]	; 0x3c
 8000824:	1f18      	subs	r0, r3, #4
 8000826:	6a7b      	ldr	r3, [r7, #36]	; 0x24
 8000828:	f1a9 0204 	sub.w	r2, r9, #4
 800082c:	4418      	add	r0, r3
 800082e:	3b04      	subs	r3, #4
 8000830:	f853 1f04 	ldr.w	r1, [r3, #4]!
 8000834:	f842 1f04 	str.w	r1, [r2, #4]!
 8000838:	4283      	cmp	r3, r0
 800083a:	d1f9      	bne.n	8000830 <secadd_modp.constprop.0+0x3e4>
 800083c:	e7e5      	b.n	800080a <secadd_modp.constprop.0+0x3be>
 800083e:	bf00      	nop

08000840 <seca2b_modp.constprop.0>:
 8000840:	e92d 4ff0 	stmdb	sp!, {r4, r5, r6, r7, r8, r9, sl, fp, lr}
 8000844:	b099      	sub	sp, #100	; 0x64
 8000846:	af04      	add	r7, sp, #16
 8000848:	2801      	cmp	r0, #1
 800084a:	4683      	mov	fp, r0
 800084c:	6179      	str	r1, [r7, #20]
 800084e:	62fa      	str	r2, [r7, #44]	; 0x2c
 8000850:	61fb      	str	r3, [r7, #28]
 8000852:	f000 81c6 	beq.w	8000be2 <seca2b_modp.constprop.0+0x3a2>
 8000856:	4668      	mov	r0, sp
 8000858:	ea4f 045b 	mov.w	r4, fp, lsr #1
 800085c:	60f8      	str	r0, [r7, #12]
 800085e:	4620      	mov	r0, r4
 8000860:	f7ff ffee 	bl	8000840 <seca2b_modp.constprop.0>
 8000864:	6afb      	ldr	r3, [r7, #44]	; 0x2c
 8000866:	697d      	ldr	r5, [r7, #20]
 8000868:	eb03 0384 	add.w	r3, r3, r4, lsl #2
 800086c:	ebab 005b 	sub.w	r0, fp, fp, lsr #1
 8000870:	461a      	mov	r2, r3
 8000872:	627b      	str	r3, [r7, #36]	; 0x24
 8000874:	4629      	mov	r1, r5
 8000876:	69fb      	ldr	r3, [r7, #28]
 8000878:	6338      	str	r0, [r7, #48]	; 0x30
 800087a:	f7ff ffe1 	bl	8000840 <seca2b_modp.constprop.0>
 800087e:	2334      	movs	r3, #52	; 0x34
 8000880:	fb03 f30b 	mul.w	r3, r3, fp
 8000884:	3307      	adds	r3, #7
 8000886:	f023 0307 	bic.w	r3, r3, #7
 800088a:	ebad 0d03 	sub.w	sp, sp, r3
 800088e:	aa04      	add	r2, sp, #16
 8000890:	00a1      	lsls	r1, r4, #2
 8000892:	ebad 0d03 	sub.w	sp, sp, r3
 8000896:	64ba      	str	r2, [r7, #72]	; 0x48
 8000898:	1dca      	adds	r2, r1, #7
 800089a:	f022 0207 	bic.w	r2, r2, #7
 800089e:	a804      	add	r0, sp, #16
 80008a0:	ebad 0d03 	sub.w	sp, sp, r3
 80008a4:	ab04      	add	r3, sp, #16
 80008a6:	f8c7 d020 	str.w	sp, [r7, #32]
 80008aa:	ebad 0d02 	sub.w	sp, sp, r2
 80008ae:	f10d 0a10 	add.w	sl, sp, #16
 80008b2:	ebad 0d02 	sub.w	sp, sp, r2
 80008b6:	61bb      	str	r3, [r7, #24]
 80008b8:	ab04      	add	r3, sp, #16
 80008ba:	637b      	str	r3, [r7, #52]	; 0x34
 80008bc:	ebad 0d02 	sub.w	sp, sp, r2
 80008c0:	f5c5 5300 	rsb	r3, r5, #8192	; 0x2000
 80008c4:	647b      	str	r3, [r7, #68]	; 0x44
 80008c6:	ab04      	add	r3, sp, #16
 80008c8:	643b      	str	r3, [r7, #64]	; 0x40
 80008ca:	f015 0301 	ands.w	r3, r5, #1
 80008ce:	63b8      	str	r0, [r7, #56]	; 0x38
 80008d0:	f000 818b 	beq.w	8000bea <seca2b_modp.constprop.0+0x3aa>
 80008d4:	2c00      	cmp	r4, #0
 80008d6:	f000 82e4 	beq.w	8000ea2 <seca2b_modp.constprop.0+0x662>
 80008da:	6afb      	ldr	r3, [r7, #44]	; 0x2c
 80008dc:	ea43 030a 	orr.w	r3, r3, sl
 80008e0:	f013 0f07 	tst.w	r3, #7
 80008e4:	f104 33ff 	add.w	r3, r4, #4294967295	; 0xffffffff
 80008e8:	62bb      	str	r3, [r7, #40]	; 0x28
 80008ea:	f040 82ca 	bne.w	8000e82 <seca2b_modp.constprop.0+0x642>
 80008ee:	2b0a      	cmp	r3, #10
 80008f0:	f240 82c7 	bls.w	8000e82 <seca2b_modp.constprop.0+0x642>
 80008f4:	6afb      	ldr	r3, [r7, #44]	; 0x2c
 80008f6:	ea4f 059b 	mov.w	r5, fp, lsr #2
 80008fa:	f1a3 0208 	sub.w	r2, r3, #8
 80008fe:	eb0a 06c5 	add.w	r6, sl, r5, lsl #3
 8000902:	4653      	mov	r3, sl
 8000904:	e9f2 0102 	ldrd	r0, r1, [r2, #8]!
 8000908:	e8e3 0102 	strd	r0, r1, [r3], #8
 800090c:	42b3      	cmp	r3, r6
 800090e:	d1f9      	bne.n	8000904 <seca2b_modp.constprop.0+0xc4>
 8000910:	ebb4 0f45 	cmp.w	r4, r5, lsl #1
 8000914:	ea4f 0345 	mov.w	r3, r5, lsl #1
 8000918:	d004      	beq.n	8000924 <seca2b_modp.constprop.0+0xe4>
 800091a:	6afa      	ldr	r2, [r7, #44]	; 0x2c
 800091c:	f852 2023 	ldr.w	r2, [r2, r3, lsl #2]
 8000920:	f84a 2023 	str.w	r2, [sl, r3, lsl #2]
 8000924:	2201      	movs	r2, #1
 8000926:	9200      	str	r2, [sp, #0]
 8000928:	6cbd      	ldr	r5, [r7, #72]	; 0x48
 800092a:	6afb      	ldr	r3, [r7, #44]	; 0x2c
 800092c:	4629      	mov	r1, r5
 800092e:	4620      	mov	r0, r4
 8000930:	f005 fa93 	bl	8005e5a <copy_sharing_asm>
 8000934:	682b      	ldr	r3, [r5, #0]
 8000936:	43db      	mvns	r3, r3
 8000938:	602b      	str	r3, [r5, #0]
 800093a:	6cbb      	ldr	r3, [r7, #72]	; 0x48
 800093c:	f8c7 b008 	str.w	fp, [r7, #8]
 8000940:	eb03 098b 	add.w	r9, r3, fp, lsl #2
 8000944:	232c      	movs	r3, #44	; 0x2c
 8000946:	fb03 f30b 	mul.w	r3, r3, fp
 800094a:	607b      	str	r3, [r7, #4]
 800094c:	ea4f 038b 	mov.w	r3, fp, lsl #2
 8000950:	64fb      	str	r3, [r7, #76]	; 0x4c
 8000952:	69fb      	ldr	r3, [r7, #28]
 8000954:	f8c7 9010 	str.w	r9, [r7, #16]
 8000958:	009a      	lsls	r2, r3, #2
 800095a:	63fa      	str	r2, [r7, #60]	; 0x3c
 800095c:	6afa      	ldr	r2, [r7, #44]	; 0x2c
 800095e:	2601      	movs	r6, #1
 8000960:	eb02 0883 	add.w	r8, r2, r3, lsl #2
 8000964:	46a3      	mov	fp, r4
 8000966:	4635      	mov	r5, r6
 8000968:	4644      	mov	r4, r8
 800096a:	f8d7 8034 	ldr.w	r8, [r7, #52]	; 0x34
 800096e:	e03f      	b.n	80009f0 <seca2b_modp.constprop.0+0x1b0>
 8000970:	4641      	mov	r1, r8
 8000972:	4658      	mov	r0, fp
 8000974:	9500      	str	r5, [sp, #0]
 8000976:	f005 fa70 	bl	8005e5a <copy_sharing_asm>
 800097a:	e9cd a501 	strd	sl, r5, [sp, #4]
 800097e:	9500      	str	r5, [sp, #0]
 8000980:	6c39      	ldr	r1, [r7, #64]	; 0x40
 8000982:	4623      	mov	r3, r4
 8000984:	4658      	mov	r0, fp
 8000986:	2201      	movs	r2, #1
 8000988:	f005 fa3d 	bl	8005e06 <my_masked_xor_asm>
 800098c:	4643      	mov	r3, r8
 800098e:	2201      	movs	r2, #1
 8000990:	e9cd a501 	strd	sl, r5, [sp, #4]
 8000994:	9500      	str	r5, [sp, #0]
 8000996:	4649      	mov	r1, r9
 8000998:	4658      	mov	r0, fp
 800099a:	f005 fa34 	bl	8005e06 <my_masked_xor_asm>
 800099e:	f8d8 2000 	ldr.w	r2, [r8]
 80009a2:	43d2      	mvns	r2, r2
 80009a4:	f8c8 2000 	str.w	r2, [r8]
 80009a8:	f8d9 2000 	ldr.w	r2, [r9]
 80009ac:	2e0b      	cmp	r6, #11
 80009ae:	ea6f 0202 	mvn.w	r2, r2
 80009b2:	4643      	mov	r3, r8
 80009b4:	f8c9 2000 	str.w	r2, [r9]
 80009b8:	f000 8243 	beq.w	8000e42 <seca2b_modp.constprop.0+0x602>
 80009bc:	9502      	str	r5, [sp, #8]
 80009be:	6c3a      	ldr	r2, [r7, #64]	; 0x40
 80009c0:	4651      	mov	r1, sl
 80009c2:	e9cd 5200 	strd	r5, r2, [sp]
 80009c6:	4658      	mov	r0, fp
 80009c8:	2201      	movs	r2, #1
 80009ca:	f005 f981 	bl	8005cd0 <my_masked_and_asm>
 80009ce:	e9cd 4501 	strd	r4, r5, [sp, #4]
 80009d2:	9500      	str	r5, [sp, #0]
 80009d4:	4653      	mov	r3, sl
 80009d6:	2201      	movs	r2, #1
 80009d8:	4651      	mov	r1, sl
 80009da:	4658      	mov	r0, fp
 80009dc:	f005 fa13 	bl	8005e06 <my_masked_xor_asm>
 80009e0:	6bfb      	ldr	r3, [r7, #60]	; 0x3c
 80009e2:	3601      	adds	r6, #1
 80009e4:	441c      	add	r4, r3
 80009e6:	6cfb      	ldr	r3, [r7, #76]	; 0x4c
 80009e8:	2e0c      	cmp	r6, #12
 80009ea:	4499      	add	r9, r3
 80009ec:	f000 8141 	beq.w	8000c72 <seca2b_modp.constprop.0+0x432>
 80009f0:	6c79      	ldr	r1, [r7, #68]	; 0x44
 80009f2:	40f1      	lsrs	r1, r6
 80009f4:	f011 0f01 	tst.w	r1, #1
 80009f8:	4623      	mov	r3, r4
 80009fa:	f04f 0201 	mov.w	r2, #1
 80009fe:	4649      	mov	r1, r9
 8000a00:	d1b6      	bne.n	8000970 <seca2b_modp.constprop.0+0x130>
 8000a02:	4653      	mov	r3, sl
 8000a04:	9401      	str	r4, [sp, #4]
 8000a06:	2201      	movs	r2, #1
 8000a08:	9502      	str	r5, [sp, #8]
 8000a0a:	9500      	str	r5, [sp, #0]
 8000a0c:	4658      	mov	r0, fp
 8000a0e:	f005 f9fa 	bl	8005e06 <my_masked_xor_asm>
 8000a12:	2e0b      	cmp	r6, #11
 8000a14:	4653      	mov	r3, sl
 8000a16:	f000 81fd 	beq.w	8000e14 <seca2b_modp.constprop.0+0x5d4>
 8000a1a:	e9cd 4501 	strd	r4, r5, [sp, #4]
 8000a1e:	9500      	str	r5, [sp, #0]
 8000a20:	2201      	movs	r2, #1
 8000a22:	4651      	mov	r1, sl
 8000a24:	4658      	mov	r0, fp
 8000a26:	f005 f953 	bl	8005cd0 <my_masked_and_asm>
 8000a2a:	e7d9      	b.n	80009e0 <seca2b_modp.constprop.0+0x1a0>
 8000a2c:	6b7b      	ldr	r3, [r7, #52]	; 0x34
 8000a2e:	6bba      	ldr	r2, [r7, #56]	; 0x38
 8000a30:	6cb9      	ldr	r1, [r7, #72]	; 0x48
 8000a32:	18e3      	adds	r3, r4, r3
 8000a34:	eb02 0383 	add.w	r3, r2, r3, lsl #2
 8000a38:	1962      	adds	r2, r4, r5
 8000a3a:	eb01 0282 	add.w	r2, r1, r2, lsl #2
 8000a3e:	ea43 0102 	orr.w	r1, r3, r2
 8000a42:	0749      	lsls	r1, r1, #29
 8000a44:	f040 81db 	bne.w	8000dfe <seca2b_modp.constprop.0+0x5be>
 8000a48:	f10b 31ff 	add.w	r1, fp, #4294967295	; 0xffffffff
 8000a4c:	1b09      	subs	r1, r1, r4
 8000a4e:	290c      	cmp	r1, #12
 8000a50:	f240 81d5 	bls.w	8000dfe <seca2b_modp.constprop.0+0x5be>
 8000a54:	6b39      	ldr	r1, [r7, #48]	; 0x30
 8000a56:	3b08      	subs	r3, #8
 8000a58:	ea4f 0c51 	mov.w	ip, r1, lsr #1
 8000a5c:	2600      	movs	r6, #0
 8000a5e:	2000      	movs	r0, #0
 8000a60:	2100      	movs	r1, #0
 8000a62:	3601      	adds	r6, #1
 8000a64:	45b4      	cmp	ip, r6
 8000a66:	e9e3 0102 	strd	r0, r1, [r3, #8]!
 8000a6a:	e8e2 0102 	strd	r0, r1, [r2], #8
 8000a6e:	d1f8      	bne.n	8000a62 <seca2b_modp.constprop.0+0x222>
 8000a70:	6b3a      	ldr	r2, [r7, #48]	; 0x30
 8000a72:	f022 0301 	bic.w	r3, r2, #1
 8000a76:	429a      	cmp	r2, r3
 8000a78:	441c      	add	r4, r3
 8000a7a:	d009      	beq.n	8000a90 <seca2b_modp.constprop.0+0x250>
 8000a7c:	6b7b      	ldr	r3, [r7, #52]	; 0x34
 8000a7e:	6bb9      	ldr	r1, [r7, #56]	; 0x38
 8000a80:	4423      	add	r3, r4
 8000a82:	2200      	movs	r2, #0
 8000a84:	f841 2023 	str.w	r2, [r1, r3, lsl #2]
 8000a88:	442c      	add	r4, r5
 8000a8a:	6cbb      	ldr	r3, [r7, #72]	; 0x48
 8000a8c:	f843 2024 	str.w	r2, [r3, r4, lsl #2]
 8000a90:	6cfd      	ldr	r5, [r7, #76]	; 0x4c
 8000a92:	f8c7 d034 	str.w	sp, [r7, #52]	; 0x34
 8000a96:	1deb      	adds	r3, r5, #7
 8000a98:	f023 0307 	bic.w	r3, r3, #7
 8000a9c:	ebad 0d03 	sub.w	sp, sp, r3
 8000aa0:	ae04      	add	r6, sp, #16
 8000aa2:	ebad 0d03 	sub.w	sp, sp, r3
 8000aa6:	f10d 0810 	add.w	r8, sp, #16
 8000aaa:	ebad 0d03 	sub.w	sp, sp, r3
 8000aae:	2401      	movs	r4, #1
 8000ab0:	f8d7 9048 	ldr.w	r9, [r7, #72]	; 0x48
 8000ab4:	f8cd 9004 	str.w	r9, [sp, #4]
 8000ab8:	9402      	str	r4, [sp, #8]
 8000aba:	9400      	str	r4, [sp, #0]
 8000abc:	f8d7 a038 	ldr.w	sl, [r7, #56]	; 0x38
 8000ac0:	4658      	mov	r0, fp
 8000ac2:	4653      	mov	r3, sl
 8000ac4:	4622      	mov	r2, r4
 8000ac6:	4631      	mov	r1, r6
 8000ac8:	f005 f902 	bl	8005cd0 <my_masked_and_asm>
 8000acc:	e9cd 9401 	strd	r9, r4, [sp, #4]
 8000ad0:	9400      	str	r4, [sp, #0]
 8000ad2:	4653      	mov	r3, sl
 8000ad4:	4658      	mov	r0, fp
 8000ad6:	69b9      	ldr	r1, [r7, #24]
 8000ad8:	64fd      	str	r5, [r7, #76]	; 0x4c
 8000ada:	f8c7 a038 	str.w	sl, [r7, #56]	; 0x38
 8000ade:	4622      	mov	r2, r4
 8000ae0:	195d      	adds	r5, r3, r5
 8000ae2:	f005 f990 	bl	8005e06 <my_masked_xor_asm>
 8000ae6:	9402      	str	r4, [sp, #8]
 8000ae8:	f8d7 c010 	ldr.w	ip, [r7, #16]
 8000aec:	e9cd 4c00 	strd	r4, ip, [sp]
 8000af0:	f8d7 904c 	ldr.w	r9, [r7, #76]	; 0x4c
 8000af4:	4641      	mov	r1, r8
 8000af6:	4658      	mov	r0, fp
 8000af8:	462b      	mov	r3, r5
 8000afa:	4622      	mov	r2, r4
 8000afc:	eb0c 0a09 	add.w	sl, ip, r9
 8000b00:	f005 f981 	bl	8005e06 <my_masked_xor_asm>
 8000b04:	a804      	add	r0, sp, #16
 8000b06:	4601      	mov	r1, r0
 8000b08:	e9cd 6401 	strd	r6, r4, [sp, #4]
 8000b0c:	9400      	str	r4, [sp, #0]
 8000b0e:	462b      	mov	r3, r5
 8000b10:	64b8      	str	r0, [r7, #72]	; 0x48
 8000b12:	4622      	mov	r2, r4
 8000b14:	4658      	mov	r0, fp
 8000b16:	f005 f976 	bl	8005e06 <my_masked_xor_asm>
 8000b1a:	e9cd 6401 	strd	r6, r4, [sp, #4]
 8000b1e:	9400      	str	r4, [sp, #0]
 8000b20:	69ba      	ldr	r2, [r7, #24]
 8000b22:	4648      	mov	r0, r9
 8000b24:	1811      	adds	r1, r2, r0
 8000b26:	1808      	adds	r0, r1, r0
 8000b28:	4643      	mov	r3, r8
 8000b2a:	63f8      	str	r0, [r7, #60]	; 0x3c
 8000b2c:	4622      	mov	r2, r4
 8000b2e:	4658      	mov	r0, fp
 8000b30:	f005 f969 	bl	8005e06 <my_masked_xor_asm>
 8000b34:	6bbb      	ldr	r3, [r7, #56]	; 0x38
 8000b36:	f8d7 903c 	ldr.w	r9, [r7, #60]	; 0x3c
 8000b3a:	eb03 03cb 	add.w	r3, r3, fp, lsl #3
 8000b3e:	1b5b      	subs	r3, r3, r5
 8000b40:	643b      	str	r3, [r7, #64]	; 0x40
 8000b42:	230b      	movs	r3, #11
 8000b44:	647b      	str	r3, [r7, #68]	; 0x44
 8000b46:	465b      	mov	r3, fp
 8000b48:	46c3      	mov	fp, r8
 8000b4a:	4698      	mov	r8, r3
 8000b4c:	9402      	str	r4, [sp, #8]
 8000b4e:	6cbb      	ldr	r3, [r7, #72]	; 0x48
 8000b50:	2201      	movs	r2, #1
 8000b52:	e9cd 4300 	strd	r4, r3, [sp]
 8000b56:	4631      	mov	r1, r6
 8000b58:	465b      	mov	r3, fp
 8000b5a:	4640      	mov	r0, r8
 8000b5c:	f005 f8b8 	bl	8005cd0 <my_masked_and_asm>
 8000b60:	e9cd 5401 	strd	r5, r4, [sp, #4]
 8000b64:	6c3a      	ldr	r2, [r7, #64]	; 0x40
 8000b66:	9400      	str	r4, [sp, #0]
 8000b68:	4415      	add	r5, r2
 8000b6a:	4633      	mov	r3, r6
 8000b6c:	2201      	movs	r2, #1
 8000b6e:	4631      	mov	r1, r6
 8000b70:	4640      	mov	r0, r8
 8000b72:	f005 f948 	bl	8005e06 <my_masked_xor_asm>
 8000b76:	e9cd a401 	strd	sl, r4, [sp, #4]
 8000b7a:	9400      	str	r4, [sp, #0]
 8000b7c:	6cfa      	ldr	r2, [r7, #76]	; 0x4c
 8000b7e:	462b      	mov	r3, r5
 8000b80:	4659      	mov	r1, fp
 8000b82:	4640      	mov	r0, r8
 8000b84:	4492      	add	sl, r2
 8000b86:	2201      	movs	r2, #1
 8000b88:	f005 f93d 	bl	8005e06 <my_masked_xor_asm>
 8000b8c:	e9cd 6401 	strd	r6, r4, [sp, #4]
 8000b90:	9400      	str	r4, [sp, #0]
 8000b92:	6cb9      	ldr	r1, [r7, #72]	; 0x48
 8000b94:	462b      	mov	r3, r5
 8000b96:	2201      	movs	r2, #1
 8000b98:	4640      	mov	r0, r8
 8000b9a:	f005 f934 	bl	8005e06 <my_masked_xor_asm>
 8000b9e:	e9cd 6401 	strd	r6, r4, [sp, #4]
 8000ba2:	9400      	str	r4, [sp, #0]
 8000ba4:	6cfa      	ldr	r2, [r7, #76]	; 0x4c
 8000ba6:	4649      	mov	r1, r9
 8000ba8:	465b      	mov	r3, fp
 8000baa:	4491      	add	r9, r2
 8000bac:	4640      	mov	r0, r8
 8000bae:	2201      	movs	r2, #1
 8000bb0:	f005 f929 	bl	8005e06 <my_masked_xor_asm>
 8000bb4:	6c7b      	ldr	r3, [r7, #68]	; 0x44
 8000bb6:	3b01      	subs	r3, #1
 8000bb8:	647b      	str	r3, [r7, #68]	; 0x44
 8000bba:	d1c7      	bne.n	8000b4c <seca2b_modp.constprop.0+0x30c>
 8000bbc:	6cfb      	ldr	r3, [r7, #76]	; 0x4c
 8000bbe:	6bfa      	ldr	r2, [r7, #60]	; 0x3c
 8000bc0:	f8d7 d034 	ldr.w	sp, [r7, #52]	; 0x34
 8000bc4:	4443      	add	r3, r8
 8000bc6:	eb02 03c3 	add.w	r3, r2, r3, lsl #3
 8000bca:	9302      	str	r3, [sp, #8]
 8000bcc:	697b      	ldr	r3, [r7, #20]
 8000bce:	e9cd 8300 	strd	r8, r3, [sp]
 8000bd2:	4640      	mov	r0, r8
 8000bd4:	e9d7 3206 	ldrd	r3, r2, [r7, #24]
 8000bd8:	6af9      	ldr	r1, [r7, #44]	; 0x2c
 8000bda:	f7ff fa61 	bl	80000a0 <secadd_constant_bmsk.constprop.0>
 8000bde:	f8d7 d00c 	ldr.w	sp, [r7, #12]
 8000be2:	3754      	adds	r7, #84	; 0x54
 8000be4:	46bd      	mov	sp, r7
 8000be6:	e8bd 8ff0 	ldmia.w	sp!, {r4, r5, r6, r7, r8, r9, sl, fp, pc}
 8000bea:	2c00      	cmp	r4, #0
 8000bec:	f000 8155 	beq.w	8000e9a <seca2b_modp.constprop.0+0x65a>
 8000bf0:	1e62      	subs	r2, r4, #1
 8000bf2:	2a05      	cmp	r2, #5
 8000bf4:	62ba      	str	r2, [r7, #40]	; 0x28
 8000bf6:	f3ca 0c80 	ubfx	ip, sl, #2, #1
 8000bfa:	d916      	bls.n	8000c2a <seca2b_modp.constprop.0+0x3ea>
 8000bfc:	f1bc 0f00 	cmp.w	ip, #0
 8000c00:	d001      	beq.n	8000c06 <seca2b_modp.constprop.0+0x3c6>
 8000c02:	f8ca 3000 	str.w	r3, [sl]
 8000c06:	eba4 060c 	sub.w	r6, r4, ip
 8000c0a:	0875      	lsrs	r5, r6, #1
 8000c0c:	eb0a 028c 	add.w	r2, sl, ip, lsl #2
 8000c10:	2000      	movs	r0, #0
 8000c12:	2100      	movs	r1, #0
 8000c14:	3301      	adds	r3, #1
 8000c16:	429d      	cmp	r5, r3
 8000c18:	e8e2 0102 	strd	r0, r1, [r2], #8
 8000c1c:	d1fa      	bne.n	8000c14 <seca2b_modp.constprop.0+0x3d4>
 8000c1e:	f026 0201 	bic.w	r2, r6, #1
 8000c22:	4296      	cmp	r6, r2
 8000c24:	eb0c 0302 	add.w	r3, ip, r2
 8000c28:	d01b      	beq.n	8000c62 <seca2b_modp.constprop.0+0x422>
 8000c2a:	1c59      	adds	r1, r3, #1
 8000c2c:	2200      	movs	r2, #0
 8000c2e:	428c      	cmp	r4, r1
 8000c30:	f84a 2023 	str.w	r2, [sl, r3, lsl #2]
 8000c34:	d915      	bls.n	8000c62 <seca2b_modp.constprop.0+0x422>
 8000c36:	f84a 2021 	str.w	r2, [sl, r1, lsl #2]
 8000c3a:	1c99      	adds	r1, r3, #2
 8000c3c:	428c      	cmp	r4, r1
 8000c3e:	d910      	bls.n	8000c62 <seca2b_modp.constprop.0+0x422>
 8000c40:	f84a 2021 	str.w	r2, [sl, r1, lsl #2]
 8000c44:	1cd9      	adds	r1, r3, #3
 8000c46:	428c      	cmp	r4, r1
 8000c48:	d90b      	bls.n	8000c62 <seca2b_modp.constprop.0+0x422>
 8000c4a:	f84a 2021 	str.w	r2, [sl, r1, lsl #2]
 8000c4e:	1d19      	adds	r1, r3, #4
 8000c50:	428c      	cmp	r4, r1
 8000c52:	d906      	bls.n	8000c62 <seca2b_modp.constprop.0+0x422>
 8000c54:	3305      	adds	r3, #5
 8000c56:	429c      	cmp	r4, r3
 8000c58:	f84a 2021 	str.w	r2, [sl, r1, lsl #2]
 8000c5c:	d901      	bls.n	8000c62 <seca2b_modp.constprop.0+0x422>
 8000c5e:	f84a 2023 	str.w	r2, [sl, r3, lsl #2]
 8000c62:	2201      	movs	r2, #1
 8000c64:	9200      	str	r2, [sp, #0]
 8000c66:	6afb      	ldr	r3, [r7, #44]	; 0x2c
 8000c68:	6cb9      	ldr	r1, [r7, #72]	; 0x48
 8000c6a:	4620      	mov	r0, r4
 8000c6c:	f005 f8f5 	bl	8005e5a <copy_sharing_asm>
 8000c70:	e663      	b.n	800093a <seca2b_modp.constprop.0+0xfa>
 8000c72:	465c      	mov	r4, fp
 8000c74:	f8d7 b008 	ldr.w	fp, [r7, #8]
 8000c78:	f8d7 d020 	ldr.w	sp, [r7, #32]
 8000c7c:	6a7b      	ldr	r3, [r7, #36]	; 0x24
 8000c7e:	f8d7 8038 	ldr.w	r8, [r7, #56]	; 0x38
 8000c82:	643c      	str	r4, [r7, #64]	; 0x40
 8000c84:	eb0b 024b 	add.w	r2, fp, fp, lsl #1
 8000c88:	0092      	lsls	r2, r2, #2
 8000c8a:	637a      	str	r2, [r7, #52]	; 0x34
 8000c8c:	6b3a      	ldr	r2, [r7, #48]	; 0x30
 8000c8e:	2500      	movs	r5, #0
 8000c90:	3a01      	subs	r2, #1
 8000c92:	647d      	str	r5, [r7, #68]	; 0x44
 8000c94:	623a      	str	r2, [r7, #32]
 8000c96:	6c7a      	ldr	r2, [r7, #68]	; 0x44
 8000c98:	2a0c      	cmp	r2, #12
 8000c9a:	462e      	mov	r6, r5
 8000c9c:	f04f 0900 	mov.w	r9, #0
 8000ca0:	f04f 0a00 	mov.w	sl, #0
 8000ca4:	f040 809c 	bne.w	8000de0 <seca2b_modp.constprop.0+0x5a0>
 8000ca8:	2c00      	cmp	r4, #0
 8000caa:	d03d      	beq.n	8000d28 <seca2b_modp.constprop.0+0x4e8>
 8000cac:	6aba      	ldr	r2, [r7, #40]	; 0x28
 8000cae:	eb08 0085 	add.w	r0, r8, r5, lsl #2
 8000cb2:	2a05      	cmp	r2, #5
 8000cb4:	f3c0 0080 	ubfx	r0, r0, #2, #1
 8000cb8:	f240 809f 	bls.w	8000dfa <seca2b_modp.constprop.0+0x5ba>
 8000cbc:	b108      	cbz	r0, 8000cc2 <seca2b_modp.constprop.0+0x482>
 8000cbe:	f848 6025 	str.w	r6, [r8, r5, lsl #2]
 8000cc2:	eba4 0e00 	sub.w	lr, r4, r0
 8000cc6:	1941      	adds	r1, r0, r5
 8000cc8:	eb08 0181 	add.w	r1, r8, r1, lsl #2
 8000ccc:	ea4f 0c5e 	mov.w	ip, lr, lsr #1
 8000cd0:	2200      	movs	r2, #0
 8000cd2:	3201      	adds	r2, #1
 8000cd4:	4594      	cmp	ip, r2
 8000cd6:	e8e1 9a02 	strd	r9, sl, [r1], #8
 8000cda:	d1fa      	bne.n	8000cd2 <seca2b_modp.constprop.0+0x492>
 8000cdc:	f02e 0201 	bic.w	r2, lr, #1
 8000ce0:	4596      	cmp	lr, r2
 8000ce2:	4410      	add	r0, r2
 8000ce4:	d020      	beq.n	8000d28 <seca2b_modp.constprop.0+0x4e8>
 8000ce6:	1942      	adds	r2, r0, r5
 8000ce8:	f848 6022 	str.w	r6, [r8, r2, lsl #2]
 8000cec:	1c42      	adds	r2, r0, #1
 8000cee:	4294      	cmp	r4, r2
 8000cf0:	d91a      	bls.n	8000d28 <seca2b_modp.constprop.0+0x4e8>
 8000cf2:	442a      	add	r2, r5
 8000cf4:	f848 6022 	str.w	r6, [r8, r2, lsl #2]
 8000cf8:	1c82      	adds	r2, r0, #2
 8000cfa:	4294      	cmp	r4, r2
 8000cfc:	d914      	bls.n	8000d28 <seca2b_modp.constprop.0+0x4e8>
 8000cfe:	442a      	add	r2, r5
 8000d00:	f848 6022 	str.w	r6, [r8, r2, lsl #2]
 8000d04:	1cc2      	adds	r2, r0, #3
 8000d06:	4294      	cmp	r4, r2
 8000d08:	d90e      	bls.n	8000d28 <seca2b_modp.constprop.0+0x4e8>
 8000d0a:	442a      	add	r2, r5
 8000d0c:	f848 6022 	str.w	r6, [r8, r2, lsl #2]
 8000d10:	1d02      	adds	r2, r0, #4
 8000d12:	4294      	cmp	r4, r2
 8000d14:	d908      	bls.n	8000d28 <seca2b_modp.constprop.0+0x4e8>
 8000d16:	442a      	add	r2, r5
 8000d18:	3005      	adds	r0, #5
 8000d1a:	4284      	cmp	r4, r0
 8000d1c:	f848 6022 	str.w	r6, [r8, r2, lsl #2]
 8000d20:	d902      	bls.n	8000d28 <seca2b_modp.constprop.0+0x4e8>
 8000d22:	4428      	add	r0, r5
 8000d24:	f848 6020 	str.w	r6, [r8, r0, lsl #2]
 8000d28:	45a3      	cmp	fp, r4
 8000d2a:	d949      	bls.n	8000dc0 <seca2b_modp.constprop.0+0x580>
 8000d2c:	6c7a      	ldr	r2, [r7, #68]	; 0x44
 8000d2e:	2a0c      	cmp	r2, #12
 8000d30:	f43f ae7c 	beq.w	8000a2c <seca2b_modp.constprop.0+0x1ec>
 8000d34:	6cb8      	ldr	r0, [r7, #72]	; 0x48
 8000d36:	f8d7 c040 	ldr.w	ip, [r7, #64]	; 0x40
 8000d3a:	6a39      	ldr	r1, [r7, #32]
 8000d3c:	eb00 028c 	add.w	r2, r0, ip, lsl #2
 8000d40:	2905      	cmp	r1, #5
 8000d42:	f3c2 0280 	ubfx	r2, r2, #2, #1
 8000d46:	d963      	bls.n	8000e10 <seca2b_modp.constprop.0+0x5d0>
 8000d48:	2a00      	cmp	r2, #0
 8000d4a:	d054      	beq.n	8000df6 <seca2b_modp.constprop.0+0x5b6>
 8000d4c:	f840 602c 	str.w	r6, [r0, ip, lsl #2]
 8000d50:	1c60      	adds	r0, r4, #1
 8000d52:	6b39      	ldr	r1, [r7, #48]	; 0x30
 8000d54:	eba1 0e02 	sub.w	lr, r1, r2
 8000d58:	6c39      	ldr	r1, [r7, #64]	; 0x40
 8000d5a:	440a      	add	r2, r1
 8000d5c:	6cb9      	ldr	r1, [r7, #72]	; 0x48
 8000d5e:	ea4f 0c5e 	mov.w	ip, lr, lsr #1
 8000d62:	eb01 0282 	add.w	r2, r1, r2, lsl #2
 8000d66:	2100      	movs	r1, #0
 8000d68:	3101      	adds	r1, #1
 8000d6a:	458c      	cmp	ip, r1
 8000d6c:	e8e2 9a02 	strd	r9, sl, [r2], #8
 8000d70:	d1fa      	bne.n	8000d68 <seca2b_modp.constprop.0+0x528>
 8000d72:	f02e 0201 	bic.w	r2, lr, #1
 8000d76:	4596      	cmp	lr, r2
 8000d78:	4410      	add	r0, r2
 8000d7a:	d021      	beq.n	8000dc0 <seca2b_modp.constprop.0+0x580>
 8000d7c:	1942      	adds	r2, r0, r5
 8000d7e:	6cb9      	ldr	r1, [r7, #72]	; 0x48
 8000d80:	f841 6022 	str.w	r6, [r1, r2, lsl #2]
 8000d84:	1c42      	adds	r2, r0, #1
 8000d86:	4593      	cmp	fp, r2
 8000d88:	d91a      	bls.n	8000dc0 <seca2b_modp.constprop.0+0x580>
 8000d8a:	442a      	add	r2, r5
 8000d8c:	f841 6022 	str.w	r6, [r1, r2, lsl #2]
 8000d90:	1c82      	adds	r2, r0, #2
 8000d92:	4593      	cmp	fp, r2
 8000d94:	d914      	bls.n	8000dc0 <seca2b_modp.constprop.0+0x580>
 8000d96:	442a      	add	r2, r5
 8000d98:	f841 6022 	str.w	r6, [r1, r2, lsl #2]
 8000d9c:	1cc2      	adds	r2, r0, #3
 8000d9e:	4593      	cmp	fp, r2
 8000da0:	d90e      	bls.n	8000dc0 <seca2b_modp.constprop.0+0x580>
 8000da2:	442a      	add	r2, r5
 8000da4:	f841 6022 	str.w	r6, [r1, r2, lsl #2]
 8000da8:	1d02      	adds	r2, r0, #4
 8000daa:	4593      	cmp	fp, r2
 8000dac:	d908      	bls.n	8000dc0 <seca2b_modp.constprop.0+0x580>
 8000dae:	442a      	add	r2, r5
 8000db0:	3005      	adds	r0, #5
 8000db2:	4583      	cmp	fp, r0
 8000db4:	f841 6022 	str.w	r6, [r1, r2, lsl #2]
 8000db8:	d902      	bls.n	8000dc0 <seca2b_modp.constprop.0+0x580>
 8000dba:	4428      	add	r0, r5
 8000dbc:	f841 6020 	str.w	r6, [r1, r0, lsl #2]
 8000dc0:	6c39      	ldr	r1, [r7, #64]	; 0x40
 8000dc2:	6c7a      	ldr	r2, [r7, #68]	; 0x44
 8000dc4:	4459      	add	r1, fp
 8000dc6:	3201      	adds	r2, #1
 8000dc8:	6439      	str	r1, [r7, #64]	; 0x40
 8000dca:	6bf9      	ldr	r1, [r7, #60]	; 0x3c
 8000dcc:	647a      	str	r2, [r7, #68]	; 0x44
 8000dce:	2a0d      	cmp	r2, #13
 8000dd0:	445d      	add	r5, fp
 8000dd2:	440b      	add	r3, r1
 8000dd4:	f43f ae5c 	beq.w	8000a90 <seca2b_modp.constprop.0+0x250>
 8000dd8:	6c7a      	ldr	r2, [r7, #68]	; 0x44
 8000dda:	2a0c      	cmp	r2, #12
 8000ddc:	f43f af64 	beq.w	8000ca8 <seca2b_modp.constprop.0+0x468>
 8000de0:	2201      	movs	r2, #1
 8000de2:	9200      	str	r2, [sp, #0]
 8000de4:	6c39      	ldr	r1, [r7, #64]	; 0x40
 8000de6:	627b      	str	r3, [r7, #36]	; 0x24
 8000de8:	6b38      	ldr	r0, [r7, #48]	; 0x30
 8000dea:	eb08 0181 	add.w	r1, r8, r1, lsl #2
 8000dee:	f005 f834 	bl	8005e5a <copy_sharing_asm>
 8000df2:	6a7b      	ldr	r3, [r7, #36]	; 0x24
 8000df4:	e758      	b.n	8000ca8 <seca2b_modp.constprop.0+0x468>
 8000df6:	4620      	mov	r0, r4
 8000df8:	e7ab      	b.n	8000d52 <seca2b_modp.constprop.0+0x512>
 8000dfa:	2000      	movs	r0, #0
 8000dfc:	e773      	b.n	8000ce6 <seca2b_modp.constprop.0+0x4a6>
 8000dfe:	2100      	movs	r1, #0
 8000e00:	3401      	adds	r4, #1
 8000e02:	45a3      	cmp	fp, r4
 8000e04:	f843 1b04 	str.w	r1, [r3], #4
 8000e08:	f842 1b04 	str.w	r1, [r2], #4
 8000e0c:	d1f8      	bne.n	8000e00 <seca2b_modp.constprop.0+0x5c0>
 8000e0e:	e63f      	b.n	8000a90 <seca2b_modp.constprop.0+0x250>
 8000e10:	4620      	mov	r0, r4
 8000e12:	e7b3      	b.n	8000d7c <seca2b_modp.constprop.0+0x53c>
 8000e14:	46a0      	mov	r8, r4
 8000e16:	465c      	mov	r4, fp
 8000e18:	f8d7 b008 	ldr.w	fp, [r7, #8]
 8000e1c:	9500      	str	r5, [sp, #0]
 8000e1e:	e9cd 8501 	strd	r8, r5, [sp, #4]
 8000e22:	693d      	ldr	r5, [r7, #16]
 8000e24:	687e      	ldr	r6, [r7, #4]
 8000e26:	2201      	movs	r2, #1
 8000e28:	19a9      	adds	r1, r5, r6
 8000e2a:	4620      	mov	r0, r4
 8000e2c:	f004 ff50 	bl	8005cd0 <my_masked_and_asm>
 8000e30:	6c7b      	ldr	r3, [r7, #68]	; 0x44
 8000e32:	59aa      	ldr	r2, [r5, r6]
 8000e34:	f343 3300 	sbfx	r3, r3, #12, #1
 8000e38:	4053      	eors	r3, r2
 8000e3a:	51ab      	str	r3, [r5, r6]
 8000e3c:	f8d7 d020 	ldr.w	sp, [r7, #32]
 8000e40:	e71c      	b.n	8000c7c <seca2b_modp.constprop.0+0x43c>
 8000e42:	6c3b      	ldr	r3, [r7, #64]	; 0x40
 8000e44:	46a0      	mov	r8, r4
 8000e46:	465c      	mov	r4, fp
 8000e48:	f8d7 b008 	ldr.w	fp, [r7, #8]
 8000e4c:	9301      	str	r3, [sp, #4]
 8000e4e:	6b7b      	ldr	r3, [r7, #52]	; 0x34
 8000e50:	9502      	str	r5, [sp, #8]
 8000e52:	9500      	str	r5, [sp, #0]
 8000e54:	2201      	movs	r2, #1
 8000e56:	4651      	mov	r1, sl
 8000e58:	4620      	mov	r0, r4
 8000e5a:	f004 ff39 	bl	8005cd0 <my_masked_and_asm>
 8000e5e:	e9cd 8501 	strd	r8, r5, [sp, #4]
 8000e62:	9500      	str	r5, [sp, #0]
 8000e64:	693d      	ldr	r5, [r7, #16]
 8000e66:	687e      	ldr	r6, [r7, #4]
 8000e68:	4653      	mov	r3, sl
 8000e6a:	2201      	movs	r2, #1
 8000e6c:	19a9      	adds	r1, r5, r6
 8000e6e:	4620      	mov	r0, r4
 8000e70:	f004 ffc9 	bl	8005e06 <my_masked_xor_asm>
 8000e74:	6c7b      	ldr	r3, [r7, #68]	; 0x44
 8000e76:	f343 3200 	sbfx	r2, r3, #12, #1
 8000e7a:	59ab      	ldr	r3, [r5, r6]
 8000e7c:	4053      	eors	r3, r2
 8000e7e:	51ab      	str	r3, [r5, r6]
 8000e80:	e7dc      	b.n	8000e3c <seca2b_modp.constprop.0+0x5fc>
 8000e82:	6afb      	ldr	r3, [r7, #44]	; 0x2c
 8000e84:	3b04      	subs	r3, #4
 8000e86:	4419      	add	r1, r3
 8000e88:	f1aa 0204 	sub.w	r2, sl, #4
 8000e8c:	f853 0f04 	ldr.w	r0, [r3, #4]!
 8000e90:	f842 0f04 	str.w	r0, [r2, #4]!
 8000e94:	428b      	cmp	r3, r1
 8000e96:	d1f9      	bne.n	8000e8c <seca2b_modp.constprop.0+0x64c>
 8000e98:	e544      	b.n	8000924 <seca2b_modp.constprop.0+0xe4>
 8000e9a:	f04f 33ff 	mov.w	r3, #4294967295	; 0xffffffff
 8000e9e:	62bb      	str	r3, [r7, #40]	; 0x28
 8000ea0:	e6df      	b.n	8000c62 <seca2b_modp.constprop.0+0x422>
 8000ea2:	f04f 33ff 	mov.w	r3, #4294967295	; 0xffffffff
 8000ea6:	62bb      	str	r3, [r7, #40]	; 0x28
 8000ea8:	e53c      	b.n	8000924 <seca2b_modp.constprop.0+0xe4>
 8000eaa:	bf00      	nop

08000eac <initialize_local>:
 8000eac:	b982      	cbnz	r2, 8000ed0 <initialize_local+0x24>
 8000eae:	b500      	push	{lr}
 8000eb0:	3802      	subs	r0, #2
 8000eb2:	f101 0e01 	add.w	lr, r1, #1
 8000eb6:	f811 c012 	ldrb.w	ip, [r1, r2, lsl #1]
 8000eba:	f81e 3012 	ldrb.w	r3, [lr, r2, lsl #1]
 8000ebe:	3201      	adds	r2, #1
 8000ec0:	ea43 230c 	orr.w	r3, r3, ip, lsl #8
 8000ec4:	2a20      	cmp	r2, #32
 8000ec6:	f820 3f02 	strh.w	r3, [r0, #2]!
 8000eca:	d1f4      	bne.n	8000eb6 <initialize_local+0xa>
 8000ecc:	f85d fb04 	ldr.w	pc, [sp], #4
 8000ed0:	1e82      	subs	r2, r0, #2
 8000ed2:	303e      	adds	r0, #62	; 0x3e
 8000ed4:	f891 c040 	ldrb.w	ip, [r1, #64]	; 0x40
 8000ed8:	f891 3041 	ldrb.w	r3, [r1, #65]	; 0x41
 8000edc:	ea43 230c 	orr.w	r3, r3, ip, lsl #8
 8000ee0:	f822 3f02 	strh.w	r3, [r2, #2]!
 8000ee4:	4282      	cmp	r2, r0
 8000ee6:	f101 0102 	add.w	r1, r1, #2
 8000eea:	d1f3      	bne.n	8000ed4 <initialize_local+0x28>
 8000eec:	4770      	bx	lr
 8000eee:	bf00      	nop

08000ef0 <initialize_local_reverse>:
 8000ef0:	3902      	subs	r1, #2
 8000ef2:	2300      	movs	r3, #0
 8000ef4:	f100 0c01 	add.w	ip, r0, #1
 8000ef8:	f931 2f02 	ldrsh.w	r2, [r1, #2]!
 8000efc:	1212      	asrs	r2, r2, #8
 8000efe:	f800 2013 	strb.w	r2, [r0, r3, lsl #1]
 8000f02:	880a      	ldrh	r2, [r1, #0]
 8000f04:	f80c 2013 	strb.w	r2, [ip, r3, lsl #1]
 8000f08:	3301      	adds	r3, #1
 8000f0a:	2b80      	cmp	r3, #128	; 0x80
 8000f0c:	d1f4      	bne.n	8000ef8 <initialize_local_reverse+0x8>
 8000f0e:	4770      	bx	lr

08000f10 <RefreshIOS_rec.part.0>:
 8000f10:	e92d 4778 	stmdb	sp!, {r3, r4, r5, r6, r8, r9, sl, lr}
 8000f14:	ea4f 0851 	mov.w	r8, r1, lsr #1
 8000f18:	f1b8 0f01 	cmp.w	r8, #1
 8000f1c:	460c      	mov	r4, r1
 8000f1e:	4615      	mov	r5, r2
 8000f20:	461e      	mov	r6, r3
 8000f22:	d03e      	beq.n	8000fa2 <RefreshIOS_rec.part.0+0x92>
 8000f24:	f1b8 0f02 	cmp.w	r8, #2
 8000f28:	4681      	mov	r9, r0
 8000f2a:	d02a      	beq.n	8000f82 <RefreshIOS_rec.part.0+0x72>
 8000f2c:	4641      	mov	r1, r8
 8000f2e:	f7ff ffef 	bl	8000f10 <RefreshIOS_rec.part.0>
 8000f32:	eba4 0108 	sub.w	r1, r4, r8
 8000f36:	2901      	cmp	r1, #1
 8000f38:	d00a      	beq.n	8000f50 <RefreshIOS_rec.part.0+0x40>
 8000f3a:	ea4f 0a86 	mov.w	sl, r6, lsl #2
 8000f3e:	fb0a 5408 	mla	r4, sl, r8, r5
 8000f42:	2902      	cmp	r1, #2
 8000f44:	d033      	beq.n	8000fae <RefreshIOS_rec.part.0+0x9e>
 8000f46:	4622      	mov	r2, r4
 8000f48:	4648      	mov	r0, r9
 8000f4a:	4633      	mov	r3, r6
 8000f4c:	f7ff ffe0 	bl	8000f10 <RefreshIOS_rec.part.0>
 8000f50:	f1b8 0f00 	cmp.w	r8, #0
 8000f54:	d013      	beq.n	8000f7e <RefreshIOS_rec.part.0+0x6e>
 8000f56:	00b6      	lsls	r6, r6, #2
 8000f58:	2400      	movs	r4, #0
 8000f5a:	fb06 5a08 	mla	sl, r6, r8, r5
 8000f5e:	46a1      	mov	r9, r4
 8000f60:	f7ff f84e 	bl	8000000 <get_random>
 8000f64:	592b      	ldr	r3, [r5, r4]
 8000f66:	4043      	eors	r3, r0
 8000f68:	512b      	str	r3, [r5, r4]
 8000f6a:	f85a 3004 	ldr.w	r3, [sl, r4]
 8000f6e:	f109 0901 	add.w	r9, r9, #1
 8000f72:	4058      	eors	r0, r3
 8000f74:	45c8      	cmp	r8, r9
 8000f76:	f84a 0004 	str.w	r0, [sl, r4]
 8000f7a:	4434      	add	r4, r6
 8000f7c:	d8f0      	bhi.n	8000f60 <RefreshIOS_rec.part.0+0x50>
 8000f7e:	e8bd 8778 	ldmia.w	sp!, {r3, r4, r5, r6, r8, r9, sl, pc}
 8000f82:	f7ff f83d 	bl	8000000 <get_random>
 8000f86:	682b      	ldr	r3, [r5, #0]
 8000f88:	4043      	eors	r3, r0
 8000f8a:	602b      	str	r3, [r5, #0]
 8000f8c:	f855 3026 	ldr.w	r3, [r5, r6, lsl #2]
 8000f90:	4058      	eors	r0, r3
 8000f92:	1ea1      	subs	r1, r4, #2
 8000f94:	f845 0026 	str.w	r0, [r5, r6, lsl #2]
 8000f98:	eb05 04c6 	add.w	r4, r5, r6, lsl #3
 8000f9c:	ea4f 0a86 	mov.w	sl, r6, lsl #2
 8000fa0:	e7cf      	b.n	8000f42 <RefreshIOS_rec.part.0+0x32>
 8000fa2:	2902      	cmp	r1, #2
 8000fa4:	d0d7      	beq.n	8000f56 <RefreshIOS_rec.part.0+0x46>
 8000fa6:	ea4f 0a83 	mov.w	sl, r3, lsl #2
 8000faa:	eb02 0483 	add.w	r4, r2, r3, lsl #2
 8000fae:	f7ff f827 	bl	8000000 <get_random>
 8000fb2:	6823      	ldr	r3, [r4, #0]
 8000fb4:	4043      	eors	r3, r0
 8000fb6:	6023      	str	r3, [r4, #0]
 8000fb8:	f854 300a 	ldr.w	r3, [r4, sl]
 8000fbc:	4058      	eors	r0, r3
 8000fbe:	f844 000a 	str.w	r0, [r4, sl]
 8000fc2:	e7c5      	b.n	8000f50 <RefreshIOS_rec.part.0+0x40>

08000fc4 <transpose32>:
 8000fc4:	b570      	push	{r4, r5, r6, lr}
 8000fc6:	f04f 0c10 	mov.w	ip, #16
 8000fca:	2505      	movs	r5, #5
 8000fcc:	f64f 7eff 	movw	lr, #65535	; 0xffff
 8000fd0:	ea6f 040c 	mvn.w	r4, ip
 8000fd4:	2200      	movs	r2, #0
 8000fd6:	eb0c 0102 	add.w	r1, ip, r2
 8000fda:	f850 3022 	ldr.w	r3, [r0, r2, lsl #2]
 8000fde:	f850 6021 	ldr.w	r6, [r0, r1, lsl #2]
 8000fe2:	fa23 f30c 	lsr.w	r3, r3, ip
 8000fe6:	4073      	eors	r3, r6
 8000fe8:	ea03 030e 	and.w	r3, r3, lr
 8000fec:	405e      	eors	r6, r3
 8000fee:	f840 6021 	str.w	r6, [r0, r1, lsl #2]
 8000ff2:	f850 6022 	ldr.w	r6, [r0, r2, lsl #2]
 8000ff6:	fa03 f30c 	lsl.w	r3, r3, ip
 8000ffa:	3101      	adds	r1, #1
 8000ffc:	4073      	eors	r3, r6
 8000ffe:	f840 3022 	str.w	r3, [r0, r2, lsl #2]
 8001002:	ea01 0204 	and.w	r2, r1, r4
 8001006:	2a1f      	cmp	r2, #31
 8001008:	dde5      	ble.n	8000fd6 <transpose32+0x12>
 800100a:	ea4f 0c6c 	mov.w	ip, ip, asr #1
 800100e:	fa0e f30c 	lsl.w	r3, lr, ip
 8001012:	3d01      	subs	r5, #1
 8001014:	ea8e 0e03 	eor.w	lr, lr, r3
 8001018:	d1da      	bne.n	8000fd0 <transpose32+0xc>
 800101a:	bd70      	pop	{r4, r5, r6, pc}

0800101c <masked_dense2bitslice_opt>:
 800101c:	e92d 4f70 	stmdb	sp!, {r4, r5, r6, r8, r9, sl, fp, lr}
 8001020:	b0c0      	sub	sp, #256	; 0x100
 8001022:	4690      	mov	r8, r2
 8001024:	9308      	str	r3, [sp, #32]
 8001026:	9105      	str	r1, [sp, #20]
 8001028:	9b4b      	ldr	r3, [sp, #300]	; 0x12c
 800102a:	9007      	str	r0, [sp, #28]
 800102c:	2800      	cmp	r0, #0
 800102e:	f000 80f3 	beq.w	8001218 <masked_dense2bitslice_opt+0x1fc>
 8001032:	2b01      	cmp	r3, #1
 8001034:	f040 8164 	bne.w	8001300 <masked_dense2bitslice_opt+0x2e4>
 8001038:	9a48      	ldr	r2, [sp, #288]	; 0x120
 800103a:	3a01      	subs	r2, #1
 800103c:	bf18      	it	ne
 800103e:	2201      	movne	r2, #1
 8001040:	2a00      	cmp	r2, #0
 8001042:	f040 815d 	bne.w	8001300 <masked_dense2bitslice_opt+0x2e4>
 8001046:	9b49      	ldr	r3, [sp, #292]	; 0x124
 8001048:	9203      	str	r2, [sp, #12]
 800104a:	3b02      	subs	r3, #2
 800104c:	930a      	str	r3, [sp, #40]	; 0x28
 800104e:	9b05      	ldr	r3, [sp, #20]
 8001050:	9206      	str	r2, [sp, #24]
 8001052:	f023 0001 	bic.w	r0, r3, #1
 8001056:	a940      	add	r1, sp, #256	; 0x100
 8001058:	f100 0910 	add.w	r9, r0, #16
 800105c:	eb01 0989 	add.w	r9, r1, r9, lsl #2
 8001060:	9908      	ldr	r1, [sp, #32]
 8001062:	900c      	str	r0, [sp, #48]	; 0x30
 8001064:	0089      	lsls	r1, r1, #2
 8001066:	9109      	str	r1, [sp, #36]	; 0x24
 8001068:	0099      	lsls	r1, r3, #2
 800106a:	910e      	str	r1, [sp, #56]	; 0x38
 800106c:	eb08 0183 	add.w	r1, r8, r3, lsl #2
 8001070:	9102      	str	r1, [sp, #8]
 8001072:	f108 0138 	add.w	r1, r8, #56	; 0x38
 8001076:	9104      	str	r1, [sp, #16]
 8001078:	0859      	lsrs	r1, r3, #1
 800107a:	910d      	str	r1, [sp, #52]	; 0x34
 800107c:	ac40      	add	r4, sp, #256	; 0x100
 800107e:	1819      	adds	r1, r3, r0
 8001080:	3b01      	subs	r3, #1
 8001082:	930b      	str	r3, [sp, #44]	; 0x2c
 8001084:	eb04 0380 	add.w	r3, r4, r0, lsl #2
 8001088:	9100      	str	r1, [sp, #0]
 800108a:	4616      	mov	r6, r2
 800108c:	a920      	add	r1, sp, #128	; 0x80
 800108e:	9301      	str	r3, [sp, #4]
 8001090:	9b0a      	ldr	r3, [sp, #40]	; 0x28
 8001092:	9a03      	ldr	r2, [sp, #12]
 8001094:	4608      	mov	r0, r1
 8001096:	eb03 0342 	add.w	r3, r3, r2, lsl #1
 800109a:	f9b3 5042 	ldrsh.w	r5, [r3, #66]	; 0x42
 800109e:	f9b3 2002 	ldrsh.w	r2, [r3, #2]
 80010a2:	ea42 4205 	orr.w	r2, r2, r5, lsl #16
 80010a6:	f840 2b04 	str.w	r2, [r0], #4
 80010aa:	42a0      	cmp	r0, r4
 80010ac:	f103 0302 	add.w	r3, r3, #2
 80010b0:	d1f3      	bne.n	800109a <masked_dense2bitslice_opt+0x7e>
 80010b2:	f04f 0a05 	mov.w	sl, #5
 80010b6:	f64f 7cff 	movw	ip, #65535	; 0xffff
 80010ba:	2510      	movs	r5, #16
 80010bc:	ea6f 0e05 	mvn.w	lr, r5
 80010c0:	2200      	movs	r2, #0
 80010c2:	eb02 0b05 	add.w	fp, r2, r5
 80010c6:	f851 3022 	ldr.w	r3, [r1, r2, lsl #2]
 80010ca:	f851 002b 	ldr.w	r0, [r1, fp, lsl #2]
 80010ce:	40eb      	lsrs	r3, r5
 80010d0:	4043      	eors	r3, r0
 80010d2:	ea03 030c 	and.w	r3, r3, ip
 80010d6:	4058      	eors	r0, r3
 80010d8:	f841 002b 	str.w	r0, [r1, fp, lsl #2]
 80010dc:	f851 0022 	ldr.w	r0, [r1, r2, lsl #2]
 80010e0:	40ab      	lsls	r3, r5
 80010e2:	f10b 0b01 	add.w	fp, fp, #1
 80010e6:	4043      	eors	r3, r0
 80010e8:	f841 3022 	str.w	r3, [r1, r2, lsl #2]
 80010ec:	ea0b 020e 	and.w	r2, fp, lr
 80010f0:	2a1f      	cmp	r2, #31
 80010f2:	dde6      	ble.n	80010c2 <masked_dense2bitslice_opt+0xa6>
 80010f4:	106d      	asrs	r5, r5, #1
 80010f6:	fa0c f305 	lsl.w	r3, ip, r5
 80010fa:	f1ba 0a01 	subs.w	sl, sl, #1
 80010fe:	ea8c 0c03 	eor.w	ip, ip, r3
 8001102:	d1db      	bne.n	80010bc <masked_dense2bitslice_opt+0xa0>
 8001104:	9a05      	ldr	r2, [sp, #20]
 8001106:	2a00      	cmp	r2, #0
 8001108:	d072      	beq.n	80011f0 <masked_dense2bitslice_opt+0x1d4>
 800110a:	9d0b      	ldr	r5, [sp, #44]	; 0x2c
 800110c:	00b3      	lsls	r3, r6, #2
 800110e:	4432      	add	r2, r6
 8001110:	3304      	adds	r3, #4
 8001112:	0092      	lsls	r2, r2, #2
 8001114:	429a      	cmp	r2, r3
 8001116:	bf18      	it	ne
 8001118:	2d05      	cmpne	r5, #5
 800111a:	eb08 0086 	add.w	r0, r8, r6, lsl #2
 800111e:	d97e      	bls.n	800121e <masked_dense2bitslice_opt+0x202>
 8001120:	9d02      	ldr	r5, [sp, #8]
 8001122:	ea45 0300 	orr.w	r3, r5, r0
 8001126:	075b      	lsls	r3, r3, #29
 8001128:	d179      	bne.n	800121e <masked_dense2bitslice_opt+0x202>
 800112a:	e9dd 2320 	ldrd	r2, r3, [sp, #128]	; 0x80
 800112e:	e9c0 2300 	strd	r2, r3, [r0]
 8001132:	e9dd 2330 	ldrd	r2, r3, [sp, #192]	; 0xc0
 8001136:	980d      	ldr	r0, [sp, #52]	; 0x34
 8001138:	2801      	cmp	r0, #1
 800113a:	e9c5 2300 	strd	r2, r3, [r5]
 800113e:	d947      	bls.n	80011d0 <masked_dense2bitslice_opt+0x1b4>
 8001140:	e9dd 2322 	ldrd	r2, r3, [sp, #136]	; 0x88
 8001144:	f8dd c010 	ldr.w	ip, [sp, #16]
 8001148:	e94c 230c 	strd	r2, r3, [ip, #-48]	; 0x30
 800114c:	e9dd 2332 	ldrd	r2, r3, [sp, #200]	; 0xc8
 8001150:	2802      	cmp	r0, #2
 8001152:	e9c5 2302 	strd	r2, r3, [r5, #8]
 8001156:	d03b      	beq.n	80011d0 <masked_dense2bitslice_opt+0x1b4>
 8001158:	e9dd 2324 	ldrd	r2, r3, [sp, #144]	; 0x90
 800115c:	e94c 230a 	strd	r2, r3, [ip, #-40]	; 0x28
 8001160:	e9dd 2334 	ldrd	r2, r3, [sp, #208]	; 0xd0
 8001164:	2803      	cmp	r0, #3
 8001166:	e9c5 2304 	strd	r2, r3, [r5, #16]
 800116a:	d031      	beq.n	80011d0 <masked_dense2bitslice_opt+0x1b4>
 800116c:	e9dd 2326 	ldrd	r2, r3, [sp, #152]	; 0x98
 8001170:	e94c 2308 	strd	r2, r3, [ip, #-32]
 8001174:	e9dd 2336 	ldrd	r2, r3, [sp, #216]	; 0xd8
 8001178:	2804      	cmp	r0, #4
 800117a:	e9c5 2306 	strd	r2, r3, [r5, #24]
 800117e:	d027      	beq.n	80011d0 <masked_dense2bitslice_opt+0x1b4>
 8001180:	e9dd 2328 	ldrd	r2, r3, [sp, #160]	; 0xa0
 8001184:	e94c 2306 	strd	r2, r3, [ip, #-24]
 8001188:	e9dd 2338 	ldrd	r2, r3, [sp, #224]	; 0xe0
 800118c:	2805      	cmp	r0, #5
 800118e:	e9c5 2308 	strd	r2, r3, [r5, #32]
 8001192:	d01d      	beq.n	80011d0 <masked_dense2bitslice_opt+0x1b4>
 8001194:	e9dd 232a 	ldrd	r2, r3, [sp, #168]	; 0xa8
 8001198:	e94c 2304 	strd	r2, r3, [ip, #-16]
 800119c:	e9dd 233a 	ldrd	r2, r3, [sp, #232]	; 0xe8
 80011a0:	2806      	cmp	r0, #6
 80011a2:	e9c5 230a 	strd	r2, r3, [r5, #40]	; 0x28
 80011a6:	d013      	beq.n	80011d0 <masked_dense2bitslice_opt+0x1b4>
 80011a8:	e9dd ab2c 	ldrd	sl, fp, [sp, #176]	; 0xb0
 80011ac:	e94c ab02 	strd	sl, fp, [ip, #-8]
 80011b0:	e9dd ab3c 	ldrd	sl, fp, [sp, #240]	; 0xf0
 80011b4:	9b0e      	ldr	r3, [sp, #56]	; 0x38
 80011b6:	2807      	cmp	r0, #7
 80011b8:	e9c5 ab0c 	strd	sl, fp, [r5, #48]	; 0x30
 80011bc:	4463      	add	r3, ip
 80011be:	d007      	beq.n	80011d0 <masked_dense2bitslice_opt+0x1b4>
 80011c0:	e9dd ab2e 	ldrd	sl, fp, [sp, #184]	; 0xb8
 80011c4:	e9cc ab00 	strd	sl, fp, [ip]
 80011c8:	e9dd ab3e 	ldrd	sl, fp, [sp, #248]	; 0xf8
 80011cc:	e9c3 ab00 	strd	sl, fp, [r3]
 80011d0:	9a05      	ldr	r2, [sp, #20]
 80011d2:	9b0c      	ldr	r3, [sp, #48]	; 0x30
 80011d4:	429a      	cmp	r2, r3
 80011d6:	d00b      	beq.n	80011f0 <masked_dense2bitslice_opt+0x1d4>
 80011d8:	199a      	adds	r2, r3, r6
 80011da:	9801      	ldr	r0, [sp, #4]
 80011dc:	9b00      	ldr	r3, [sp, #0]
 80011de:	f850 0c80 	ldr.w	r0, [r0, #-128]
 80011e2:	f848 0022 	str.w	r0, [r8, r2, lsl #2]
 80011e6:	4433      	add	r3, r6
 80011e8:	f859 2c80 	ldr.w	r2, [r9, #-128]
 80011ec:	f848 2023 	str.w	r2, [r8, r3, lsl #2]
 80011f0:	9809      	ldr	r0, [sp, #36]	; 0x24
 80011f2:	9a02      	ldr	r2, [sp, #8]
 80011f4:	9b06      	ldr	r3, [sp, #24]
 80011f6:	4402      	add	r2, r0
 80011f8:	9202      	str	r2, [sp, #8]
 80011fa:	9a08      	ldr	r2, [sp, #32]
 80011fc:	4416      	add	r6, r2
 80011fe:	9a04      	ldr	r2, [sp, #16]
 8001200:	4402      	add	r2, r0
 8001202:	9204      	str	r2, [sp, #16]
 8001204:	984a      	ldr	r0, [sp, #296]	; 0x128
 8001206:	9a03      	ldr	r2, [sp, #12]
 8001208:	4402      	add	r2, r0
 800120a:	9203      	str	r2, [sp, #12]
 800120c:	9a07      	ldr	r2, [sp, #28]
 800120e:	3301      	adds	r3, #1
 8001210:	429a      	cmp	r2, r3
 8001212:	9306      	str	r3, [sp, #24]
 8001214:	f47f af3c 	bne.w	8001090 <masked_dense2bitslice_opt+0x74>
 8001218:	b040      	add	sp, #256	; 0x100
 800121a:	e8bd 8f70 	ldmia.w	sp!, {r4, r5, r6, r8, r9, sl, fp, pc}
 800121e:	9804      	ldr	r0, [sp, #16]
 8001220:	9a05      	ldr	r2, [sp, #20]
 8001222:	9b20      	ldr	r3, [sp, #128]	; 0x80
 8001224:	9d02      	ldr	r5, [sp, #8]
 8001226:	f840 3c38 	str.w	r3, [r0, #-56]
 800122a:	2a01      	cmp	r2, #1
 800122c:	9b30      	ldr	r3, [sp, #192]	; 0xc0
 800122e:	602b      	str	r3, [r5, #0]
 8001230:	d0de      	beq.n	80011f0 <masked_dense2bitslice_opt+0x1d4>
 8001232:	9b21      	ldr	r3, [sp, #132]	; 0x84
 8001234:	f840 3c34 	str.w	r3, [r0, #-52]
 8001238:	2a02      	cmp	r2, #2
 800123a:	9b31      	ldr	r3, [sp, #196]	; 0xc4
 800123c:	606b      	str	r3, [r5, #4]
 800123e:	d0d7      	beq.n	80011f0 <masked_dense2bitslice_opt+0x1d4>
 8001240:	9b22      	ldr	r3, [sp, #136]	; 0x88
 8001242:	f840 3c30 	str.w	r3, [r0, #-48]
 8001246:	2a03      	cmp	r2, #3
 8001248:	9b32      	ldr	r3, [sp, #200]	; 0xc8
 800124a:	60ab      	str	r3, [r5, #8]
 800124c:	d0d0      	beq.n	80011f0 <masked_dense2bitslice_opt+0x1d4>
 800124e:	9b23      	ldr	r3, [sp, #140]	; 0x8c
 8001250:	f840 3c2c 	str.w	r3, [r0, #-44]
 8001254:	2a04      	cmp	r2, #4
 8001256:	9b33      	ldr	r3, [sp, #204]	; 0xcc
 8001258:	60eb      	str	r3, [r5, #12]
 800125a:	d0c9      	beq.n	80011f0 <masked_dense2bitslice_opt+0x1d4>
 800125c:	9b24      	ldr	r3, [sp, #144]	; 0x90
 800125e:	f840 3c28 	str.w	r3, [r0, #-40]
 8001262:	2a05      	cmp	r2, #5
 8001264:	9b34      	ldr	r3, [sp, #208]	; 0xd0
 8001266:	612b      	str	r3, [r5, #16]
 8001268:	d0c2      	beq.n	80011f0 <masked_dense2bitslice_opt+0x1d4>
 800126a:	9b25      	ldr	r3, [sp, #148]	; 0x94
 800126c:	f840 3c24 	str.w	r3, [r0, #-36]
 8001270:	2a06      	cmp	r2, #6
 8001272:	9b35      	ldr	r3, [sp, #212]	; 0xd4
 8001274:	616b      	str	r3, [r5, #20]
 8001276:	d0bb      	beq.n	80011f0 <masked_dense2bitslice_opt+0x1d4>
 8001278:	9b26      	ldr	r3, [sp, #152]	; 0x98
 800127a:	f840 3c20 	str.w	r3, [r0, #-32]
 800127e:	2a07      	cmp	r2, #7
 8001280:	9b36      	ldr	r3, [sp, #216]	; 0xd8
 8001282:	61ab      	str	r3, [r5, #24]
 8001284:	d0b4      	beq.n	80011f0 <masked_dense2bitslice_opt+0x1d4>
 8001286:	9b27      	ldr	r3, [sp, #156]	; 0x9c
 8001288:	f840 3c1c 	str.w	r3, [r0, #-28]
 800128c:	2a08      	cmp	r2, #8
 800128e:	9b37      	ldr	r3, [sp, #220]	; 0xdc
 8001290:	61eb      	str	r3, [r5, #28]
 8001292:	d0ad      	beq.n	80011f0 <masked_dense2bitslice_opt+0x1d4>
 8001294:	9b28      	ldr	r3, [sp, #160]	; 0xa0
 8001296:	f840 3c18 	str.w	r3, [r0, #-24]
 800129a:	2a09      	cmp	r2, #9
 800129c:	9b38      	ldr	r3, [sp, #224]	; 0xe0
 800129e:	622b      	str	r3, [r5, #32]
 80012a0:	d0a6      	beq.n	80011f0 <masked_dense2bitslice_opt+0x1d4>
 80012a2:	9b29      	ldr	r3, [sp, #164]	; 0xa4
 80012a4:	f840 3c14 	str.w	r3, [r0, #-20]
 80012a8:	2a0a      	cmp	r2, #10
 80012aa:	9b39      	ldr	r3, [sp, #228]	; 0xe4
 80012ac:	626b      	str	r3, [r5, #36]	; 0x24
 80012ae:	d09f      	beq.n	80011f0 <masked_dense2bitslice_opt+0x1d4>
 80012b0:	9b2a      	ldr	r3, [sp, #168]	; 0xa8
 80012b2:	f840 3c10 	str.w	r3, [r0, #-16]
 80012b6:	2a0b      	cmp	r2, #11
 80012b8:	9b3a      	ldr	r3, [sp, #232]	; 0xe8
 80012ba:	62ab      	str	r3, [r5, #40]	; 0x28
 80012bc:	d098      	beq.n	80011f0 <masked_dense2bitslice_opt+0x1d4>
 80012be:	9b2b      	ldr	r3, [sp, #172]	; 0xac
 80012c0:	f840 3c0c 	str.w	r3, [r0, #-12]
 80012c4:	2a0c      	cmp	r2, #12
 80012c6:	9b3b      	ldr	r3, [sp, #236]	; 0xec
 80012c8:	62eb      	str	r3, [r5, #44]	; 0x2c
 80012ca:	d091      	beq.n	80011f0 <masked_dense2bitslice_opt+0x1d4>
 80012cc:	9b2c      	ldr	r3, [sp, #176]	; 0xb0
 80012ce:	f840 3c08 	str.w	r3, [r0, #-8]
 80012d2:	2a0d      	cmp	r2, #13
 80012d4:	9b3c      	ldr	r3, [sp, #240]	; 0xf0
 80012d6:	632b      	str	r3, [r5, #48]	; 0x30
 80012d8:	d08a      	beq.n	80011f0 <masked_dense2bitslice_opt+0x1d4>
 80012da:	9b2d      	ldr	r3, [sp, #180]	; 0xb4
 80012dc:	f840 3c04 	str.w	r3, [r0, #-4]
 80012e0:	2a0e      	cmp	r2, #14
 80012e2:	9b3d      	ldr	r3, [sp, #244]	; 0xf4
 80012e4:	636b      	str	r3, [r5, #52]	; 0x34
 80012e6:	d083      	beq.n	80011f0 <masked_dense2bitslice_opt+0x1d4>
 80012e8:	9b2e      	ldr	r3, [sp, #184]	; 0xb8
 80012ea:	6003      	str	r3, [r0, #0]
 80012ec:	2a0f      	cmp	r2, #15
 80012ee:	9b3e      	ldr	r3, [sp, #248]	; 0xf8
 80012f0:	63ab      	str	r3, [r5, #56]	; 0x38
 80012f2:	f43f af7d 	beq.w	80011f0 <masked_dense2bitslice_opt+0x1d4>
 80012f6:	9b2f      	ldr	r3, [sp, #188]	; 0xbc
 80012f8:	6043      	str	r3, [r0, #4]
 80012fa:	9b3f      	ldr	r3, [sp, #252]	; 0xfc
 80012fc:	63eb      	str	r3, [r5, #60]	; 0x3c
 80012fe:	e777      	b.n	80011f0 <masked_dense2bitslice_opt+0x1d4>
 8001300:	9a08      	ldr	r2, [sp, #32]
 8001302:	f8dd c120 	ldr.w	ip, [sp, #288]	; 0x120
 8001306:	0092      	lsls	r2, r2, #2
 8001308:	9203      	str	r2, [sp, #12]
 800130a:	9a48      	ldr	r2, [sp, #288]	; 0x120
 800130c:	0090      	lsls	r0, r2, #2
 800130e:	eb02 0442 	add.w	r4, r2, r2, lsl #1
 8001312:	1881      	adds	r1, r0, r2
 8001314:	ebc2 02c2 	rsb	r2, r2, r2, lsl #3
 8001318:	4615      	mov	r5, r2
 800131a:	920e      	str	r2, [sp, #56]	; 0x38
 800131c:	9a48      	ldr	r2, [sp, #288]	; 0x120
 800131e:	9006      	str	r0, [sp, #24]
 8001320:	eb02 06c2 	add.w	r6, r2, r2, lsl #3
 8001324:	222c      	movs	r2, #44	; 0x2c
 8001326:	fb02 f20c 	mul.w	r2, r2, ip
 800132a:	9213      	str	r2, [sp, #76]	; 0x4c
 800132c:	2234      	movs	r2, #52	; 0x34
 800132e:	fb02 f20c 	mul.w	r2, r2, ip
 8001332:	9214      	str	r2, [sp, #80]	; 0x50
 8001334:	9a05      	ldr	r2, [sp, #20]
 8001336:	910a      	str	r1, [sp, #40]	; 0x28
 8001338:	fb00 8202 	mla	r2, r0, r2, r8
 800133c:	9848      	ldr	r0, [sp, #288]	; 0x120
 800133e:	9408      	str	r4, [sp, #32]
 8001340:	0040      	lsls	r0, r0, #1
 8001342:	9004      	str	r0, [sp, #16]
 8001344:	00a0      	lsls	r0, r4, #2
 8001346:	900b      	str	r0, [sp, #44]	; 0x2c
 8001348:	9848      	ldr	r0, [sp, #288]	; 0x120
 800134a:	960f      	str	r6, [sp, #60]	; 0x3c
 800134c:	0100      	lsls	r0, r0, #4
 800134e:	9009      	str	r0, [sp, #36]	; 0x24
 8001350:	0088      	lsls	r0, r1, #2
 8001352:	900c      	str	r0, [sp, #48]	; 0x30
 8001354:	0060      	lsls	r0, r4, #1
 8001356:	9015      	str	r0, [sp, #84]	; 0x54
 8001358:	00e0      	lsls	r0, r4, #3
 800135a:	9016      	str	r0, [sp, #88]	; 0x58
 800135c:	9848      	ldr	r0, [sp, #288]	; 0x120
 800135e:	9201      	str	r2, [sp, #4]
 8001360:	00c0      	lsls	r0, r0, #3
 8001362:	9017      	str	r0, [sp, #92]	; 0x5c
 8001364:	00a8      	lsls	r0, r5, #2
 8001366:	9018      	str	r0, [sp, #96]	; 0x60
 8001368:	9848      	ldr	r0, [sp, #288]	; 0x120
 800136a:	0140      	lsls	r0, r0, #5
 800136c:	9010      	str	r0, [sp, #64]	; 0x40
 800136e:	00b0      	lsls	r0, r6, #2
 8001370:	9019      	str	r0, [sp, #100]	; 0x64
 8001372:	0048      	lsls	r0, r1, #1
 8001374:	ebcc 1e0c 	rsb	lr, ip, ip, lsl #4
 8001378:	f04f 0900 	mov.w	r9, #0
 800137c:	901a      	str	r0, [sp, #104]	; 0x68
 800137e:	00c8      	lsls	r0, r1, #3
 8001380:	f8cd e034 	str.w	lr, [sp, #52]	; 0x34
 8001384:	f8cd 9000 	str.w	r9, [sp]
 8001388:	901b      	str	r0, [sp, #108]	; 0x6c
 800138a:	9848      	ldr	r0, [sp, #288]	; 0x120
 800138c:	f8cd 9008 	str.w	r9, [sp, #8]
 8001390:	46c3      	mov	fp, r8
 8001392:	ea4f 1c83 	mov.w	ip, r3, lsl #6
 8001396:	ea4f 0843 	mov.w	r8, r3, lsl #1
 800139a:	eb00 0384 	add.w	r3, r0, r4, lsl #2
 800139e:	9312      	str	r3, [sp, #72]	; 0x48
 80013a0:	006b      	lsls	r3, r5, #1
 80013a2:	931d      	str	r3, [sp, #116]	; 0x74
 80013a4:	00eb      	lsls	r3, r5, #3
 80013a6:	eb00 0141 	add.w	r1, r0, r1, lsl #1
 80013aa:	931e      	str	r3, [sp, #120]	; 0x78
 80013ac:	4673      	mov	r3, lr
 80013ae:	9111      	str	r1, [sp, #68]	; 0x44
 80013b0:	009b      	lsls	r3, r3, #2
 80013b2:	0121      	lsls	r1, r4, #4
 80013b4:	911c      	str	r1, [sp, #112]	; 0x70
 80013b6:	931f      	str	r3, [sp, #124]	; 0x7c
 80013b8:	f10d 0efc 	add.w	lr, sp, #252	; 0xfc
 80013bc:	a920      	add	r1, sp, #128	; 0x80
 80013be:	9b49      	ldr	r3, [sp, #292]	; 0x124
 80013c0:	9a00      	ldr	r2, [sp, #0]
 80013c2:	a81f      	add	r0, sp, #124	; 0x7c
 80013c4:	eb03 0342 	add.w	r3, r3, r2, lsl #1
 80013c8:	f933 400c 	ldrsh.w	r4, [r3, ip]
 80013cc:	f9b3 2000 	ldrsh.w	r2, [r3]
 80013d0:	ea42 4204 	orr.w	r2, r2, r4, lsl #16
 80013d4:	f840 2f04 	str.w	r2, [r0, #4]!
 80013d8:	4570      	cmp	r0, lr
 80013da:	4443      	add	r3, r8
 80013dc:	d1f4      	bne.n	80013c8 <masked_dense2bitslice_opt+0x3ac>
 80013de:	f04f 0905 	mov.w	r9, #5
 80013e2:	f64f 75ff 	movw	r5, #65535	; 0xffff
 80013e6:	2410      	movs	r4, #16
 80013e8:	43e6      	mvns	r6, r4
 80013ea:	2200      	movs	r2, #0
 80013ec:	18a0      	adds	r0, r4, r2
 80013ee:	f851 3022 	ldr.w	r3, [r1, r2, lsl #2]
 80013f2:	f851 a020 	ldr.w	sl, [r1, r0, lsl #2]
 80013f6:	40e3      	lsrs	r3, r4
 80013f8:	ea83 030a 	eor.w	r3, r3, sl
 80013fc:	402b      	ands	r3, r5
 80013fe:	ea8a 0a03 	eor.w	sl, sl, r3
 8001402:	f841 a020 	str.w	sl, [r1, r0, lsl #2]
 8001406:	f100 0a01 	add.w	sl, r0, #1
 800140a:	f851 0022 	ldr.w	r0, [r1, r2, lsl #2]
 800140e:	40a3      	lsls	r3, r4
 8001410:	4043      	eors	r3, r0
 8001412:	f841 3022 	str.w	r3, [r1, r2, lsl #2]
 8001416:	ea0a 0206 	and.w	r2, sl, r6
 800141a:	2a1f      	cmp	r2, #31
 800141c:	dde6      	ble.n	80013ec <masked_dense2bitslice_opt+0x3d0>
 800141e:	1064      	asrs	r4, r4, #1
 8001420:	fa05 f304 	lsl.w	r3, r5, r4
 8001424:	f1b9 0901 	subs.w	r9, r9, #1
 8001428:	ea85 0503 	eor.w	r5, r5, r3
 800142c:	d1dc      	bne.n	80013e8 <masked_dense2bitslice_opt+0x3cc>
 800142e:	9b05      	ldr	r3, [sp, #20]
 8001430:	2b00      	cmp	r3, #0
 8001432:	f000 809c 	beq.w	800156e <masked_dense2bitslice_opt+0x552>
 8001436:	461a      	mov	r2, r3
 8001438:	9801      	ldr	r0, [sp, #4]
 800143a:	9b20      	ldr	r3, [sp, #128]	; 0x80
 800143c:	f8cb 3000 	str.w	r3, [fp]
 8001440:	2a01      	cmp	r2, #1
 8001442:	9b30      	ldr	r3, [sp, #192]	; 0xc0
 8001444:	6003      	str	r3, [r0, #0]
 8001446:	f000 8092 	beq.w	800156e <masked_dense2bitslice_opt+0x552>
 800144a:	9c48      	ldr	r4, [sp, #288]	; 0x120
 800144c:	9b21      	ldr	r3, [sp, #132]	; 0x84
 800144e:	f84b 3024 	str.w	r3, [fp, r4, lsl #2]
 8001452:	2a02      	cmp	r2, #2
 8001454:	9b31      	ldr	r3, [sp, #196]	; 0xc4
 8001456:	f840 3024 	str.w	r3, [r0, r4, lsl #2]
 800145a:	f000 8088 	beq.w	800156e <masked_dense2bitslice_opt+0x552>
 800145e:	9b22      	ldr	r3, [sp, #136]	; 0x88
 8001460:	f84b 3034 	str.w	r3, [fp, r4, lsl #3]
 8001464:	9c04      	ldr	r4, [sp, #16]
 8001466:	9b32      	ldr	r3, [sp, #200]	; 0xc8
 8001468:	f840 3024 	str.w	r3, [r0, r4, lsl #2]
 800146c:	2a03      	cmp	r2, #3
 800146e:	d07e      	beq.n	800156e <masked_dense2bitslice_opt+0x552>
 8001470:	9c0b      	ldr	r4, [sp, #44]	; 0x2c
 8001472:	9b23      	ldr	r3, [sp, #140]	; 0x8c
 8001474:	9d08      	ldr	r5, [sp, #32]
 8001476:	f84b 3004 	str.w	r3, [fp, r4]
 800147a:	2a04      	cmp	r2, #4
 800147c:	9b33      	ldr	r3, [sp, #204]	; 0xcc
 800147e:	f840 3025 	str.w	r3, [r0, r5, lsl #2]
 8001482:	d074      	beq.n	800156e <masked_dense2bitslice_opt+0x552>
 8001484:	9d09      	ldr	r5, [sp, #36]	; 0x24
 8001486:	9b24      	ldr	r3, [sp, #144]	; 0x90
 8001488:	f84b 3005 	str.w	r3, [fp, r5]
 800148c:	9d06      	ldr	r5, [sp, #24]
 800148e:	9b34      	ldr	r3, [sp, #208]	; 0xd0
 8001490:	f840 3025 	str.w	r3, [r0, r5, lsl #2]
 8001494:	2a05      	cmp	r2, #5
 8001496:	d06a      	beq.n	800156e <masked_dense2bitslice_opt+0x552>
 8001498:	9d0c      	ldr	r5, [sp, #48]	; 0x30
 800149a:	9b25      	ldr	r3, [sp, #148]	; 0x94
 800149c:	f84b 3005 	str.w	r3, [fp, r5]
 80014a0:	9d0a      	ldr	r5, [sp, #40]	; 0x28
 80014a2:	9b35      	ldr	r3, [sp, #212]	; 0xd4
 80014a4:	f840 3025 	str.w	r3, [r0, r5, lsl #2]
 80014a8:	2a06      	cmp	r2, #6
 80014aa:	d060      	beq.n	800156e <masked_dense2bitslice_opt+0x552>
 80014ac:	9d16      	ldr	r5, [sp, #88]	; 0x58
 80014ae:	9b26      	ldr	r3, [sp, #152]	; 0x98
 80014b0:	f84b 3005 	str.w	r3, [fp, r5]
 80014b4:	9d15      	ldr	r5, [sp, #84]	; 0x54
 80014b6:	9b36      	ldr	r3, [sp, #216]	; 0xd8
 80014b8:	f840 3025 	str.w	r3, [r0, r5, lsl #2]
 80014bc:	2a07      	cmp	r2, #7
 80014be:	d056      	beq.n	800156e <masked_dense2bitslice_opt+0x552>
 80014c0:	9d18      	ldr	r5, [sp, #96]	; 0x60
 80014c2:	9b27      	ldr	r3, [sp, #156]	; 0x9c
 80014c4:	f84b 3005 	str.w	r3, [fp, r5]
 80014c8:	9d0e      	ldr	r5, [sp, #56]	; 0x38
 80014ca:	9b37      	ldr	r3, [sp, #220]	; 0xdc
 80014cc:	f840 3025 	str.w	r3, [r0, r5, lsl #2]
 80014d0:	2a08      	cmp	r2, #8
 80014d2:	d04c      	beq.n	800156e <masked_dense2bitslice_opt+0x552>
 80014d4:	9d10      	ldr	r5, [sp, #64]	; 0x40
 80014d6:	9b28      	ldr	r3, [sp, #160]	; 0xa0
 80014d8:	f84b 3005 	str.w	r3, [fp, r5]
 80014dc:	9d17      	ldr	r5, [sp, #92]	; 0x5c
 80014de:	9b38      	ldr	r3, [sp, #224]	; 0xe0
 80014e0:	f840 3025 	str.w	r3, [r0, r5, lsl #2]
 80014e4:	2a09      	cmp	r2, #9
 80014e6:	d042      	beq.n	800156e <masked_dense2bitslice_opt+0x552>
 80014e8:	9d19      	ldr	r5, [sp, #100]	; 0x64
 80014ea:	9b29      	ldr	r3, [sp, #164]	; 0xa4
 80014ec:	f84b 3005 	str.w	r3, [fp, r5]
 80014f0:	9d0f      	ldr	r5, [sp, #60]	; 0x3c
 80014f2:	9b39      	ldr	r3, [sp, #228]	; 0xe4
 80014f4:	f840 3025 	str.w	r3, [r0, r5, lsl #2]
 80014f8:	2a0a      	cmp	r2, #10
 80014fa:	d038      	beq.n	800156e <masked_dense2bitslice_opt+0x552>
 80014fc:	9d1b      	ldr	r5, [sp, #108]	; 0x6c
 80014fe:	9b2a      	ldr	r3, [sp, #168]	; 0xa8
 8001500:	f84b 3005 	str.w	r3, [fp, r5]
 8001504:	9d1a      	ldr	r5, [sp, #104]	; 0x68
 8001506:	9b3a      	ldr	r3, [sp, #232]	; 0xe8
 8001508:	f840 3025 	str.w	r3, [r0, r5, lsl #2]
 800150c:	2a0b      	cmp	r2, #11
 800150e:	d02e      	beq.n	800156e <masked_dense2bitslice_opt+0x552>
 8001510:	9d13      	ldr	r5, [sp, #76]	; 0x4c
 8001512:	9b2b      	ldr	r3, [sp, #172]	; 0xac
 8001514:	f84b 3005 	str.w	r3, [fp, r5]
 8001518:	9d11      	ldr	r5, [sp, #68]	; 0x44
 800151a:	9b3b      	ldr	r3, [sp, #236]	; 0xec
 800151c:	f840 3025 	str.w	r3, [r0, r5, lsl #2]
 8001520:	2a0c      	cmp	r2, #12
 8001522:	d024      	beq.n	800156e <masked_dense2bitslice_opt+0x552>
 8001524:	9d1c      	ldr	r5, [sp, #112]	; 0x70
 8001526:	9b2c      	ldr	r3, [sp, #176]	; 0xb0
 8001528:	f84b 3005 	str.w	r3, [fp, r5]
 800152c:	2a0d      	cmp	r2, #13
 800152e:	9b3c      	ldr	r3, [sp, #240]	; 0xf0
 8001530:	f840 3024 	str.w	r3, [r0, r4, lsl #2]
 8001534:	d01b      	beq.n	800156e <masked_dense2bitslice_opt+0x552>
 8001536:	9c14      	ldr	r4, [sp, #80]	; 0x50
 8001538:	9b2d      	ldr	r3, [sp, #180]	; 0xb4
 800153a:	f84b 3004 	str.w	r3, [fp, r4]
 800153e:	9c12      	ldr	r4, [sp, #72]	; 0x48
 8001540:	9b3d      	ldr	r3, [sp, #244]	; 0xf4
 8001542:	f840 3024 	str.w	r3, [r0, r4, lsl #2]
 8001546:	2a0e      	cmp	r2, #14
 8001548:	d011      	beq.n	800156e <masked_dense2bitslice_opt+0x552>
 800154a:	9c1e      	ldr	r4, [sp, #120]	; 0x78
 800154c:	9b2e      	ldr	r3, [sp, #184]	; 0xb8
 800154e:	f84b 3004 	str.w	r3, [fp, r4]
 8001552:	9c1d      	ldr	r4, [sp, #116]	; 0x74
 8001554:	9b3e      	ldr	r3, [sp, #248]	; 0xf8
 8001556:	f840 3024 	str.w	r3, [r0, r4, lsl #2]
 800155a:	2a0f      	cmp	r2, #15
 800155c:	d007      	beq.n	800156e <masked_dense2bitslice_opt+0x552>
 800155e:	9a1f      	ldr	r2, [sp, #124]	; 0x7c
 8001560:	9b2f      	ldr	r3, [sp, #188]	; 0xbc
 8001562:	f84b 3002 	str.w	r3, [fp, r2]
 8001566:	9a0d      	ldr	r2, [sp, #52]	; 0x34
 8001568:	9b3f      	ldr	r3, [sp, #252]	; 0xfc
 800156a:	f840 3022 	str.w	r3, [r0, r2, lsl #2]
 800156e:	9a03      	ldr	r2, [sp, #12]
 8001570:	9801      	ldr	r0, [sp, #4]
 8001572:	9b02      	ldr	r3, [sp, #8]
 8001574:	4410      	add	r0, r2
 8001576:	4493      	add	fp, r2
 8001578:	9001      	str	r0, [sp, #4]
 800157a:	9a00      	ldr	r2, [sp, #0]
 800157c:	984a      	ldr	r0, [sp, #296]	; 0x128
 800157e:	4402      	add	r2, r0
 8001580:	9200      	str	r2, [sp, #0]
 8001582:	9a07      	ldr	r2, [sp, #28]
 8001584:	3301      	adds	r3, #1
 8001586:	429a      	cmp	r2, r3
 8001588:	9302      	str	r3, [sp, #8]
 800158a:	f47f af18 	bne.w	80013be <masked_dense2bitslice_opt+0x3a2>
 800158e:	b040      	add	sp, #256	; 0x100
 8001590:	e8bd 8f70 	ldmia.w	sp!, {r4, r5, r6, r8, r9, sl, fp, pc}

08001594 <masked_bitslice2dense_opt>:
 8001594:	e92d 4f70 	stmdb	sp!, {r4, r5, r6, r8, r9, sl, fp, lr}
 8001598:	b0e0      	sub	sp, #384	; 0x180
 800159a:	9c68      	ldr	r4, [sp, #416]	; 0x1a0
 800159c:	9105      	str	r1, [sp, #20]
 800159e:	920b      	str	r2, [sp, #44]	; 0x2c
 80015a0:	9309      	str	r3, [sp, #36]	; 0x24
 80015a2:	9008      	str	r0, [sp, #32]
 80015a4:	2800      	cmp	r0, #0
 80015a6:	f000 8195 	beq.w	80018d4 <masked_bitslice2dense_opt+0x340>
 80015aa:	9b6b      	ldr	r3, [sp, #428]	; 0x1ac
 80015ac:	2b01      	cmp	r3, #1
 80015ae:	f040 8308 	bne.w	8001bc2 <masked_bitslice2dense_opt+0x62e>
 80015b2:	1e63      	subs	r3, r4, #1
 80015b4:	bf18      	it	ne
 80015b6:	2301      	movne	r3, #1
 80015b8:	2b00      	cmp	r3, #0
 80015ba:	f040 8302 	bne.w	8001bc2 <masked_bitslice2dense_opt+0x62e>
 80015be:	4698      	mov	r8, r3
 80015c0:	9b0b      	ldr	r3, [sp, #44]	; 0x2c
 80015c2:	f8dd a1a4 	ldr.w	sl, [sp, #420]	; 0x1a4
 80015c6:	3b02      	subs	r3, #2
 80015c8:	930d      	str	r3, [sp, #52]	; 0x34
 80015ca:	008b      	lsls	r3, r1, #2
 80015cc:	9316      	str	r3, [sp, #88]	; 0x58
 80015ce:	aa40      	add	r2, sp, #256	; 0x100
 80015d0:	3340      	adds	r3, #64	; 0x40
 80015d2:	18d0      	adds	r0, r2, r3
 80015d4:	f1c1 030f 	rsb	r3, r1, #15
 80015d8:	1c4c      	adds	r4, r1, #1
 80015da:	2b0c      	cmp	r3, #12
 80015dc:	eb02 0681 	add.w	r6, r2, r1, lsl #2
 80015e0:	460d      	mov	r5, r1
 80015e2:	bf88      	it	hi
 80015e4:	2301      	movhi	r3, #1
 80015e6:	ea40 0106 	orr.w	r1, r0, r6
 80015ea:	bf98      	it	ls
 80015ec:	2300      	movls	r3, #0
 80015ee:	2c10      	cmp	r4, #16
 80015f0:	bf88      	it	hi
 80015f2:	2300      	movhi	r3, #0
 80015f4:	f011 0f04 	tst.w	r1, #4
 80015f8:	f003 0301 	and.w	r3, r3, #1
 80015fc:	bf18      	it	ne
 80015fe:	2300      	movne	r3, #0
 8001600:	930b      	str	r3, [sp, #44]	; 0x2c
 8001602:	2c10      	cmp	r4, #16
 8001604:	f1c5 0310 	rsb	r3, r5, #16
 8001608:	4629      	mov	r1, r5
 800160a:	bf94      	ite	ls
 800160c:	4619      	movls	r1, r3
 800160e:	2101      	movhi	r1, #1
 8001610:	900f      	str	r0, [sp, #60]	; 0x3c
 8001612:	462b      	mov	r3, r5
 8001614:	f021 0001 	bic.w	r0, r1, #1
 8001618:	9610      	str	r6, [sp, #64]	; 0x40
 800161a:	9415      	str	r4, [sp, #84]	; 0x54
 800161c:	460e      	mov	r6, r1
 800161e:	462c      	mov	r4, r5
 8001620:	910e      	str	r1, [sp, #56]	; 0x38
 8001622:	9011      	str	r0, [sp, #68]	; 0x44
 8001624:	f025 0101 	bic.w	r1, r5, #1
 8001628:	1828      	adds	r0, r5, r0
 800162a:	3311      	adds	r3, #17
 800162c:	ad60      	add	r5, sp, #384	; 0x180
 800162e:	eb05 0383 	add.w	r3, r5, r3, lsl #2
 8001632:	931c      	str	r3, [sp, #112]	; 0x70
 8001634:	4623      	mov	r3, r4
 8001636:	3312      	adds	r3, #18
 8001638:	eb05 0383 	add.w	r3, r5, r3, lsl #2
 800163c:	931d      	str	r3, [sp, #116]	; 0x74
 800163e:	4623      	mov	r3, r4
 8001640:	4625      	mov	r5, r4
 8001642:	3313      	adds	r3, #19
 8001644:	ac60      	add	r4, sp, #384	; 0x180
 8001646:	eb04 0383 	add.w	r3, r4, r3, lsl #2
 800164a:	9c6a      	ldr	r4, [sp, #424]	; 0x1a8
 800164c:	9114      	str	r1, [sp, #80]	; 0x50
 800164e:	00a4      	lsls	r4, r4, #2
 8001650:	940c      	str	r4, [sp, #48]	; 0x30
 8001652:	086c      	lsrs	r4, r5, #1
 8001654:	9413      	str	r4, [sp, #76]	; 0x4c
 8001656:	186c      	adds	r4, r5, r1
 8001658:	3110      	adds	r1, #16
 800165a:	9104      	str	r1, [sp, #16]
 800165c:	f105 0110 	add.w	r1, r5, #16
 8001660:	911a      	str	r1, [sp, #104]	; 0x68
 8001662:	0871      	lsrs	r1, r6, #1
 8001664:	9112      	str	r1, [sp, #72]	; 0x48
 8001666:	f100 0110 	add.w	r1, r0, #16
 800166a:	9102      	str	r1, [sp, #8]
 800166c:	1ca9      	adds	r1, r5, #2
 800166e:	911b      	str	r1, [sp, #108]	; 0x6c
 8001670:	1ce9      	adds	r1, r5, #3
 8001672:	9119      	str	r1, [sp, #100]	; 0x64
 8001674:	1d29      	adds	r1, r5, #4
 8001676:	9117      	str	r1, [sp, #92]	; 0x5c
 8001678:	1d69      	adds	r1, r5, #5
 800167a:	9118      	str	r1, [sp, #96]	; 0x60
 800167c:	1da9      	adds	r1, r5, #6
 800167e:	911f      	str	r1, [sp, #124]	; 0x7c
 8001680:	1de9      	adds	r1, r5, #7
 8001682:	9120      	str	r1, [sp, #128]	; 0x80
 8001684:	f105 0108 	add.w	r1, r5, #8
 8001688:	9121      	str	r1, [sp, #132]	; 0x84
 800168a:	f105 0109 	add.w	r1, r5, #9
 800168e:	9122      	str	r1, [sp, #136]	; 0x88
 8001690:	f105 010a 	add.w	r1, r5, #10
 8001694:	9123      	str	r1, [sp, #140]	; 0x8c
 8001696:	f105 010b 	add.w	r1, r5, #11
 800169a:	931e      	str	r3, [sp, #120]	; 0x78
 800169c:	9001      	str	r0, [sp, #4]
 800169e:	462b      	mov	r3, r5
 80016a0:	9403      	str	r4, [sp, #12]
 80016a2:	9124      	str	r1, [sp, #144]	; 0x90
 80016a4:	f105 010c 	add.w	r1, r5, #12
 80016a8:	330f      	adds	r3, #15
 80016aa:	9125      	str	r1, [sp, #148]	; 0x94
 80016ac:	e9cd 8806 	strd	r8, r8, [sp, #24]
 80016b0:	f105 010d 	add.w	r1, r5, #13
 80016b4:	9126      	str	r1, [sp, #152]	; 0x98
 80016b6:	9328      	str	r3, [sp, #160]	; 0xa0
 80016b8:	f105 010e 	add.w	r1, r5, #14
 80016bc:	ab3f      	add	r3, sp, #252	; 0xfc
 80016be:	eb0a 0985 	add.w	r9, sl, r5, lsl #2
 80016c2:	9127      	str	r1, [sp, #156]	; 0x9c
 80016c4:	930a      	str	r3, [sp, #40]	; 0x28
 80016c6:	ad5f      	add	r5, sp, #380	; 0x17c
 80016c8:	9905      	ldr	r1, [sp, #20]
 80016ca:	2900      	cmp	r1, #0
 80016cc:	f000 8272 	beq.w	8001bb4 <masked_bitslice2dense_opt+0x620>
 80016d0:	ea4a 0309 	orr.w	r3, sl, r9
 80016d4:	075b      	lsls	r3, r3, #29
 80016d6:	f040 8100 	bne.w	80018da <masked_bitslice2dense_opt+0x346>
 80016da:	1e4b      	subs	r3, r1, #1
 80016dc:	2b05      	cmp	r3, #5
 80016de:	f240 80fc 	bls.w	80018da <masked_bitslice2dense_opt+0x346>
 80016e2:	e9da 0100 	ldrd	r0, r1, [sl]
 80016e6:	9b13      	ldr	r3, [sp, #76]	; 0x4c
 80016e8:	e9cd 0140 	strd	r0, r1, [sp, #256]	; 0x100
 80016ec:	e9d9 0100 	ldrd	r0, r1, [r9]
 80016f0:	2b01      	cmp	r3, #1
 80016f2:	e9cd 0150 	strd	r0, r1, [sp, #320]	; 0x140
 80016f6:	d943      	bls.n	8001780 <masked_bitslice2dense_opt+0x1ec>
 80016f8:	e9da 0102 	ldrd	r0, r1, [sl, #8]
 80016fc:	e9cd 0142 	strd	r0, r1, [sp, #264]	; 0x108
 8001700:	e9d9 0102 	ldrd	r0, r1, [r9, #8]
 8001704:	2b02      	cmp	r3, #2
 8001706:	e9cd 0152 	strd	r0, r1, [sp, #328]	; 0x148
 800170a:	d039      	beq.n	8001780 <masked_bitslice2dense_opt+0x1ec>
 800170c:	e9da 0104 	ldrd	r0, r1, [sl, #16]
 8001710:	e9cd 0144 	strd	r0, r1, [sp, #272]	; 0x110
 8001714:	e9d9 0104 	ldrd	r0, r1, [r9, #16]
 8001718:	2b03      	cmp	r3, #3
 800171a:	e9cd 0154 	strd	r0, r1, [sp, #336]	; 0x150
 800171e:	d02f      	beq.n	8001780 <masked_bitslice2dense_opt+0x1ec>
 8001720:	e9da 0106 	ldrd	r0, r1, [sl, #24]
 8001724:	e9cd 0146 	strd	r0, r1, [sp, #280]	; 0x118
 8001728:	e9d9 0106 	ldrd	r0, r1, [r9, #24]
 800172c:	2b04      	cmp	r3, #4
 800172e:	e9cd 0156 	strd	r0, r1, [sp, #344]	; 0x158
 8001732:	d025      	beq.n	8001780 <masked_bitslice2dense_opt+0x1ec>
 8001734:	e9da 0108 	ldrd	r0, r1, [sl, #32]
 8001738:	e9cd 0148 	strd	r0, r1, [sp, #288]	; 0x120
 800173c:	e9d9 0108 	ldrd	r0, r1, [r9, #32]
 8001740:	2b05      	cmp	r3, #5
 8001742:	e9cd 0158 	strd	r0, r1, [sp, #352]	; 0x160
 8001746:	d01b      	beq.n	8001780 <masked_bitslice2dense_opt+0x1ec>
 8001748:	e9da 010a 	ldrd	r0, r1, [sl, #40]	; 0x28
 800174c:	e9cd 014a 	strd	r0, r1, [sp, #296]	; 0x128
 8001750:	e9d9 010a 	ldrd	r0, r1, [r9, #40]	; 0x28
 8001754:	2b06      	cmp	r3, #6
 8001756:	e9cd 015a 	strd	r0, r1, [sp, #360]	; 0x168
 800175a:	d011      	beq.n	8001780 <masked_bitslice2dense_opt+0x1ec>
 800175c:	e9da 010c 	ldrd	r0, r1, [sl, #48]	; 0x30
 8001760:	e9cd 014c 	strd	r0, r1, [sp, #304]	; 0x130
 8001764:	e9d9 010c 	ldrd	r0, r1, [r9, #48]	; 0x30
 8001768:	2b07      	cmp	r3, #7
 800176a:	e9cd 015c 	strd	r0, r1, [sp, #368]	; 0x170
 800176e:	d007      	beq.n	8001780 <masked_bitslice2dense_opt+0x1ec>
 8001770:	e9da 010e 	ldrd	r0, r1, [sl, #56]	; 0x38
 8001774:	e9cd 014e 	strd	r0, r1, [sp, #312]	; 0x138
 8001778:	e9d9 010e 	ldrd	r0, r1, [r9, #56]	; 0x38
 800177c:	e9cd 015e 	strd	r0, r1, [sp, #376]	; 0x178
 8001780:	9b05      	ldr	r3, [sp, #20]
 8001782:	9914      	ldr	r1, [sp, #80]	; 0x50
 8001784:	428b      	cmp	r3, r1
 8001786:	d013      	beq.n	80017b0 <masked_bitslice2dense_opt+0x21c>
 8001788:	eb01 0308 	add.w	r3, r1, r8
 800178c:	9869      	ldr	r0, [sp, #420]	; 0x1a4
 800178e:	9c69      	ldr	r4, [sp, #420]	; 0x1a4
 8001790:	f850 0023 	ldr.w	r0, [r0, r3, lsl #2]
 8001794:	9b03      	ldr	r3, [sp, #12]
 8001796:	4443      	add	r3, r8
 8001798:	f854 3023 	ldr.w	r3, [r4, r3, lsl #2]
 800179c:	ac60      	add	r4, sp, #384	; 0x180
 800179e:	eb04 0181 	add.w	r1, r4, r1, lsl #2
 80017a2:	f841 0c80 	str.w	r0, [r1, #-128]
 80017a6:	9804      	ldr	r0, [sp, #16]
 80017a8:	eb04 0180 	add.w	r1, r4, r0, lsl #2
 80017ac:	f841 3c80 	str.w	r3, [r1, #-128]
 80017b0:	9b05      	ldr	r3, [sp, #20]
 80017b2:	2b0f      	cmp	r3, #15
 80017b4:	d847      	bhi.n	8001846 <masked_bitslice2dense_opt+0x2b2>
 80017b6:	9b0b      	ldr	r3, [sp, #44]	; 0x2c
 80017b8:	2b00      	cmp	r3, #0
 80017ba:	f000 811d 	beq.w	80019f8 <masked_bitslice2dense_opt+0x464>
 80017be:	9b12      	ldr	r3, [sp, #72]	; 0x48
 80017c0:	9c10      	ldr	r4, [sp, #64]	; 0x40
 80017c2:	9e0f      	ldr	r6, [sp, #60]	; 0x3c
 80017c4:	2000      	movs	r0, #0
 80017c6:	2100      	movs	r1, #0
 80017c8:	2b01      	cmp	r3, #1
 80017ca:	e9c4 0100 	strd	r0, r1, [r4]
 80017ce:	e9c6 0100 	strd	r0, r1, [r6]
 80017d2:	d927      	bls.n	8001824 <masked_bitslice2dense_opt+0x290>
 80017d4:	2b02      	cmp	r3, #2
 80017d6:	e9c4 0102 	strd	r0, r1, [r4, #8]
 80017da:	e9c6 0102 	strd	r0, r1, [r6, #8]
 80017de:	d021      	beq.n	8001824 <masked_bitslice2dense_opt+0x290>
 80017e0:	2b03      	cmp	r3, #3
 80017e2:	e9c4 0104 	strd	r0, r1, [r4, #16]
 80017e6:	e9c6 0104 	strd	r0, r1, [r6, #16]
 80017ea:	d01b      	beq.n	8001824 <masked_bitslice2dense_opt+0x290>
 80017ec:	2b04      	cmp	r3, #4
 80017ee:	e9c4 0106 	strd	r0, r1, [r4, #24]
 80017f2:	e9c6 0106 	strd	r0, r1, [r6, #24]
 80017f6:	d015      	beq.n	8001824 <masked_bitslice2dense_opt+0x290>
 80017f8:	2b05      	cmp	r3, #5
 80017fa:	e9c4 0108 	strd	r0, r1, [r4, #32]
 80017fe:	e9c6 0108 	strd	r0, r1, [r6, #32]
 8001802:	d00f      	beq.n	8001824 <masked_bitslice2dense_opt+0x290>
 8001804:	2b06      	cmp	r3, #6
 8001806:	e9c4 010a 	strd	r0, r1, [r4, #40]	; 0x28
 800180a:	e9c6 010a 	strd	r0, r1, [r6, #40]	; 0x28
 800180e:	d009      	beq.n	8001824 <masked_bitslice2dense_opt+0x290>
 8001810:	2b07      	cmp	r3, #7
 8001812:	e9c4 010c 	strd	r0, r1, [r4, #48]	; 0x30
 8001816:	e9c6 010c 	strd	r0, r1, [r6, #48]	; 0x30
 800181a:	d003      	beq.n	8001824 <masked_bitslice2dense_opt+0x290>
 800181c:	e9c4 010e 	strd	r0, r1, [r4, #56]	; 0x38
 8001820:	e9c6 010e 	strd	r0, r1, [r6, #56]	; 0x38
 8001824:	9b0e      	ldr	r3, [sp, #56]	; 0x38
 8001826:	9911      	ldr	r1, [sp, #68]	; 0x44
 8001828:	428b      	cmp	r3, r1
 800182a:	d00c      	beq.n	8001846 <masked_bitslice2dense_opt+0x2b2>
 800182c:	9801      	ldr	r0, [sp, #4]
 800182e:	ab60      	add	r3, sp, #384	; 0x180
 8001830:	eb03 0380 	add.w	r3, r3, r0, lsl #2
 8001834:	2100      	movs	r1, #0
 8001836:	9802      	ldr	r0, [sp, #8]
 8001838:	f843 1c80 	str.w	r1, [r3, #-128]
 800183c:	ab60      	add	r3, sp, #384	; 0x180
 800183e:	eb03 0380 	add.w	r3, r3, r0, lsl #2
 8001842:	f843 1c80 	str.w	r1, [r3, #-128]
 8001846:	f04f 0e05 	mov.w	lr, #5
 800184a:	f64f 76ff 	movw	r6, #65535	; 0xffff
 800184e:	2410      	movs	r4, #16
 8001850:	ea6f 0c04 	mvn.w	ip, r4
 8001854:	2100      	movs	r1, #0
 8001856:	eb01 0b04 	add.w	fp, r1, r4
 800185a:	f852 3021 	ldr.w	r3, [r2, r1, lsl #2]
 800185e:	f852 002b 	ldr.w	r0, [r2, fp, lsl #2]
 8001862:	40e3      	lsrs	r3, r4
 8001864:	4043      	eors	r3, r0
 8001866:	4033      	ands	r3, r6
 8001868:	4058      	eors	r0, r3
 800186a:	f842 002b 	str.w	r0, [r2, fp, lsl #2]
 800186e:	f852 0021 	ldr.w	r0, [r2, r1, lsl #2]
 8001872:	40a3      	lsls	r3, r4
 8001874:	f10b 0b01 	add.w	fp, fp, #1
 8001878:	4043      	eors	r3, r0
 800187a:	f842 3021 	str.w	r3, [r2, r1, lsl #2]
 800187e:	ea0b 010c 	and.w	r1, fp, ip
 8001882:	291f      	cmp	r1, #31
 8001884:	dde7      	ble.n	8001856 <masked_bitslice2dense_opt+0x2c2>
 8001886:	1064      	asrs	r4, r4, #1
 8001888:	fa06 f304 	lsl.w	r3, r6, r4
 800188c:	f1be 0e01 	subs.w	lr, lr, #1
 8001890:	ea86 0603 	eor.w	r6, r6, r3
 8001894:	d1dc      	bne.n	8001850 <masked_bitslice2dense_opt+0x2bc>
 8001896:	9b0d      	ldr	r3, [sp, #52]	; 0x34
 8001898:	9906      	ldr	r1, [sp, #24]
 800189a:	980a      	ldr	r0, [sp, #40]	; 0x28
 800189c:	eb03 0141 	add.w	r1, r3, r1, lsl #1
 80018a0:	f850 3f04 	ldr.w	r3, [r0, #4]!
 80018a4:	f821 3f02 	strh.w	r3, [r1, #2]!
 80018a8:	42a8      	cmp	r0, r5
 80018aa:	ea4f 4313 	mov.w	r3, r3, lsr #16
 80018ae:	f8a1 3040 	strh.w	r3, [r1, #64]	; 0x40
 80018b2:	d1f5      	bne.n	80018a0 <masked_bitslice2dense_opt+0x30c>
 80018b4:	9906      	ldr	r1, [sp, #24]
 80018b6:	9809      	ldr	r0, [sp, #36]	; 0x24
 80018b8:	9b07      	ldr	r3, [sp, #28]
 80018ba:	4401      	add	r1, r0
 80018bc:	9106      	str	r1, [sp, #24]
 80018be:	990c      	ldr	r1, [sp, #48]	; 0x30
 80018c0:	448a      	add	sl, r1
 80018c2:	4489      	add	r9, r1
 80018c4:	996a      	ldr	r1, [sp, #424]	; 0x1a8
 80018c6:	4488      	add	r8, r1
 80018c8:	9908      	ldr	r1, [sp, #32]
 80018ca:	3301      	adds	r3, #1
 80018cc:	4299      	cmp	r1, r3
 80018ce:	9307      	str	r3, [sp, #28]
 80018d0:	f47f aefa 	bne.w	80016c8 <masked_bitslice2dense_opt+0x134>
 80018d4:	b060      	add	sp, #384	; 0x180
 80018d6:	e8bd 8f70 	ldmia.w	sp!, {r4, r5, r6, r8, r9, sl, fp, pc}
 80018da:	9905      	ldr	r1, [sp, #20]
 80018dc:	f8da 3000 	ldr.w	r3, [sl]
 80018e0:	9340      	str	r3, [sp, #256]	; 0x100
 80018e2:	2901      	cmp	r1, #1
 80018e4:	f8d9 3000 	ldr.w	r3, [r9]
 80018e8:	9350      	str	r3, [sp, #320]	; 0x140
 80018ea:	f43f af64 	beq.w	80017b6 <masked_bitslice2dense_opt+0x222>
 80018ee:	f8da 3004 	ldr.w	r3, [sl, #4]
 80018f2:	9341      	str	r3, [sp, #260]	; 0x104
 80018f4:	2902      	cmp	r1, #2
 80018f6:	f8d9 3004 	ldr.w	r3, [r9, #4]
 80018fa:	9351      	str	r3, [sp, #324]	; 0x144
 80018fc:	f43f af5b 	beq.w	80017b6 <masked_bitslice2dense_opt+0x222>
 8001900:	f8da 3008 	ldr.w	r3, [sl, #8]
 8001904:	9342      	str	r3, [sp, #264]	; 0x108
 8001906:	2903      	cmp	r1, #3
 8001908:	f8d9 3008 	ldr.w	r3, [r9, #8]
 800190c:	9352      	str	r3, [sp, #328]	; 0x148
 800190e:	f43f af52 	beq.w	80017b6 <masked_bitslice2dense_opt+0x222>
 8001912:	f8da 300c 	ldr.w	r3, [sl, #12]
 8001916:	9343      	str	r3, [sp, #268]	; 0x10c
 8001918:	2904      	cmp	r1, #4
 800191a:	f8d9 300c 	ldr.w	r3, [r9, #12]
 800191e:	9353      	str	r3, [sp, #332]	; 0x14c
 8001920:	f43f af49 	beq.w	80017b6 <masked_bitslice2dense_opt+0x222>
 8001924:	f8da 3010 	ldr.w	r3, [sl, #16]
 8001928:	9344      	str	r3, [sp, #272]	; 0x110
 800192a:	2905      	cmp	r1, #5
 800192c:	f8d9 3010 	ldr.w	r3, [r9, #16]
 8001930:	9354      	str	r3, [sp, #336]	; 0x150
 8001932:	f43f af40 	beq.w	80017b6 <masked_bitslice2dense_opt+0x222>
 8001936:	f8da 3014 	ldr.w	r3, [sl, #20]
 800193a:	9345      	str	r3, [sp, #276]	; 0x114
 800193c:	2906      	cmp	r1, #6
 800193e:	f8d9 3014 	ldr.w	r3, [r9, #20]
 8001942:	9355      	str	r3, [sp, #340]	; 0x154
 8001944:	f43f af37 	beq.w	80017b6 <masked_bitslice2dense_opt+0x222>
 8001948:	f8da 3018 	ldr.w	r3, [sl, #24]
 800194c:	9346      	str	r3, [sp, #280]	; 0x118
 800194e:	2907      	cmp	r1, #7
 8001950:	f8d9 3018 	ldr.w	r3, [r9, #24]
 8001954:	9356      	str	r3, [sp, #344]	; 0x158
 8001956:	f43f af2e 	beq.w	80017b6 <masked_bitslice2dense_opt+0x222>
 800195a:	f8da 301c 	ldr.w	r3, [sl, #28]
 800195e:	9347      	str	r3, [sp, #284]	; 0x11c
 8001960:	2908      	cmp	r1, #8
 8001962:	f8d9 301c 	ldr.w	r3, [r9, #28]
 8001966:	9357      	str	r3, [sp, #348]	; 0x15c
 8001968:	f43f af25 	beq.w	80017b6 <masked_bitslice2dense_opt+0x222>
 800196c:	f8da 3020 	ldr.w	r3, [sl, #32]
 8001970:	9348      	str	r3, [sp, #288]	; 0x120
 8001972:	2909      	cmp	r1, #9
 8001974:	f8d9 3020 	ldr.w	r3, [r9, #32]
 8001978:	9358      	str	r3, [sp, #352]	; 0x160
 800197a:	f43f af1c 	beq.w	80017b6 <masked_bitslice2dense_opt+0x222>
 800197e:	f8da 3024 	ldr.w	r3, [sl, #36]	; 0x24
 8001982:	9349      	str	r3, [sp, #292]	; 0x124
 8001984:	290a      	cmp	r1, #10
 8001986:	f8d9 3024 	ldr.w	r3, [r9, #36]	; 0x24
 800198a:	9359      	str	r3, [sp, #356]	; 0x164
 800198c:	f43f af13 	beq.w	80017b6 <masked_bitslice2dense_opt+0x222>
 8001990:	f8da 3028 	ldr.w	r3, [sl, #40]	; 0x28
 8001994:	934a      	str	r3, [sp, #296]	; 0x128
 8001996:	290b      	cmp	r1, #11
 8001998:	f8d9 3028 	ldr.w	r3, [r9, #40]	; 0x28
 800199c:	935a      	str	r3, [sp, #360]	; 0x168
 800199e:	f43f af0a 	beq.w	80017b6 <masked_bitslice2dense_opt+0x222>
 80019a2:	f8da 302c 	ldr.w	r3, [sl, #44]	; 0x2c
 80019a6:	934b      	str	r3, [sp, #300]	; 0x12c
 80019a8:	290c      	cmp	r1, #12
 80019aa:	f8d9 302c 	ldr.w	r3, [r9, #44]	; 0x2c
 80019ae:	935b      	str	r3, [sp, #364]	; 0x16c
 80019b0:	f43f af01 	beq.w	80017b6 <masked_bitslice2dense_opt+0x222>
 80019b4:	f8da 3030 	ldr.w	r3, [sl, #48]	; 0x30
 80019b8:	934c      	str	r3, [sp, #304]	; 0x130
 80019ba:	290d      	cmp	r1, #13
 80019bc:	f8d9 3030 	ldr.w	r3, [r9, #48]	; 0x30
 80019c0:	935c      	str	r3, [sp, #368]	; 0x170
 80019c2:	f43f aef8 	beq.w	80017b6 <masked_bitslice2dense_opt+0x222>
 80019c6:	f8da 3034 	ldr.w	r3, [sl, #52]	; 0x34
 80019ca:	934d      	str	r3, [sp, #308]	; 0x134
 80019cc:	290e      	cmp	r1, #14
 80019ce:	f8d9 3034 	ldr.w	r3, [r9, #52]	; 0x34
 80019d2:	935d      	str	r3, [sp, #372]	; 0x174
 80019d4:	f43f aeef 	beq.w	80017b6 <masked_bitslice2dense_opt+0x222>
 80019d8:	f8da 3038 	ldr.w	r3, [sl, #56]	; 0x38
 80019dc:	934e      	str	r3, [sp, #312]	; 0x138
 80019de:	290f      	cmp	r1, #15
 80019e0:	f8d9 3038 	ldr.w	r3, [r9, #56]	; 0x38
 80019e4:	935e      	str	r3, [sp, #376]	; 0x178
 80019e6:	f43f aee6 	beq.w	80017b6 <masked_bitslice2dense_opt+0x222>
 80019ea:	f8da 303c 	ldr.w	r3, [sl, #60]	; 0x3c
 80019ee:	934f      	str	r3, [sp, #316]	; 0x13c
 80019f0:	f8d9 303c 	ldr.w	r3, [r9, #60]	; 0x3c
 80019f4:	935f      	str	r3, [sp, #380]	; 0x17c
 80019f6:	e726      	b.n	8001846 <masked_bitslice2dense_opt+0x2b2>
 80019f8:	4619      	mov	r1, r3
 80019fa:	9b16      	ldr	r3, [sp, #88]	; 0x58
 80019fc:	981a      	ldr	r0, [sp, #104]	; 0x68
 80019fe:	f503 73c0 	add.w	r3, r3, #384	; 0x180
 8001a02:	446b      	add	r3, sp
 8001a04:	f843 1c80 	str.w	r1, [r3, #-128]
 8001a08:	ab60      	add	r3, sp, #384	; 0x180
 8001a0a:	eb03 0380 	add.w	r3, r3, r0, lsl #2
 8001a0e:	f843 1c80 	str.w	r1, [r3, #-128]
 8001a12:	9b15      	ldr	r3, [sp, #84]	; 0x54
 8001a14:	2b0f      	cmp	r3, #15
 8001a16:	f63f af16 	bhi.w	8001846 <masked_bitslice2dense_opt+0x2b2>
 8001a1a:	9815      	ldr	r0, [sp, #84]	; 0x54
 8001a1c:	a960      	add	r1, sp, #384	; 0x180
 8001a1e:	eb01 0180 	add.w	r1, r1, r0, lsl #2
 8001a22:	2300      	movs	r3, #0
 8001a24:	f841 3c80 	str.w	r3, [r1, #-128]
 8001a28:	991c      	ldr	r1, [sp, #112]	; 0x70
 8001a2a:	f841 3c80 	str.w	r3, [r1, #-128]
 8001a2e:	991b      	ldr	r1, [sp, #108]	; 0x6c
 8001a30:	290f      	cmp	r1, #15
 8001a32:	f63f af08 	bhi.w	8001846 <masked_bitslice2dense_opt+0x2b2>
 8001a36:	a860      	add	r0, sp, #384	; 0x180
 8001a38:	eb00 0181 	add.w	r1, r0, r1, lsl #2
 8001a3c:	f841 3c80 	str.w	r3, [r1, #-128]
 8001a40:	991d      	ldr	r1, [sp, #116]	; 0x74
 8001a42:	f841 3c80 	str.w	r3, [r1, #-128]
 8001a46:	9919      	ldr	r1, [sp, #100]	; 0x64
 8001a48:	290f      	cmp	r1, #15
 8001a4a:	f63f aefc 	bhi.w	8001846 <masked_bitslice2dense_opt+0x2b2>
 8001a4e:	eb00 0181 	add.w	r1, r0, r1, lsl #2
 8001a52:	9817      	ldr	r0, [sp, #92]	; 0x5c
 8001a54:	f841 3c80 	str.w	r3, [r1, #-128]
 8001a58:	991e      	ldr	r1, [sp, #120]	; 0x78
 8001a5a:	280f      	cmp	r0, #15
 8001a5c:	f841 3c80 	str.w	r3, [r1, #-128]
 8001a60:	f63f aef1 	bhi.w	8001846 <masked_bitslice2dense_opt+0x2b2>
 8001a64:	ae60      	add	r6, sp, #384	; 0x180
 8001a66:	eb06 0080 	add.w	r0, r6, r0, lsl #2
 8001a6a:	9c05      	ldr	r4, [sp, #20]
 8001a6c:	f840 3c80 	str.w	r3, [r0, #-128]
 8001a70:	f104 0114 	add.w	r1, r4, #20
 8001a74:	9818      	ldr	r0, [sp, #96]	; 0x60
 8001a76:	eb06 0181 	add.w	r1, r6, r1, lsl #2
 8001a7a:	280f      	cmp	r0, #15
 8001a7c:	f841 3c80 	str.w	r3, [r1, #-128]
 8001a80:	f63f aee1 	bhi.w	8001846 <masked_bitslice2dense_opt+0x2b2>
 8001a84:	eb06 0080 	add.w	r0, r6, r0, lsl #2
 8001a88:	f104 0115 	add.w	r1, r4, #21
 8001a8c:	f840 3c80 	str.w	r3, [r0, #-128]
 8001a90:	981f      	ldr	r0, [sp, #124]	; 0x7c
 8001a92:	eb06 0181 	add.w	r1, r6, r1, lsl #2
 8001a96:	280f      	cmp	r0, #15
 8001a98:	f841 3c80 	str.w	r3, [r1, #-128]
 8001a9c:	f63f aed3 	bhi.w	8001846 <masked_bitslice2dense_opt+0x2b2>
 8001aa0:	eb06 0080 	add.w	r0, r6, r0, lsl #2
 8001aa4:	f104 0116 	add.w	r1, r4, #22
 8001aa8:	f840 3c80 	str.w	r3, [r0, #-128]
 8001aac:	9820      	ldr	r0, [sp, #128]	; 0x80
 8001aae:	eb06 0181 	add.w	r1, r6, r1, lsl #2
 8001ab2:	280f      	cmp	r0, #15
 8001ab4:	f841 3c80 	str.w	r3, [r1, #-128]
 8001ab8:	f63f aec5 	bhi.w	8001846 <masked_bitslice2dense_opt+0x2b2>
 8001abc:	eb06 0080 	add.w	r0, r6, r0, lsl #2
 8001ac0:	f104 0117 	add.w	r1, r4, #23
 8001ac4:	f840 3c80 	str.w	r3, [r0, #-128]
 8001ac8:	9821      	ldr	r0, [sp, #132]	; 0x84
 8001aca:	eb06 0181 	add.w	r1, r6, r1, lsl #2
 8001ace:	280f      	cmp	r0, #15
 8001ad0:	f841 3c80 	str.w	r3, [r1, #-128]
 8001ad4:	f63f aeb7 	bhi.w	8001846 <masked_bitslice2dense_opt+0x2b2>
 8001ad8:	eb06 0080 	add.w	r0, r6, r0, lsl #2
 8001adc:	f104 0118 	add.w	r1, r4, #24
 8001ae0:	f840 3c80 	str.w	r3, [r0, #-128]
 8001ae4:	9822      	ldr	r0, [sp, #136]	; 0x88
 8001ae6:	eb06 0181 	add.w	r1, r6, r1, lsl #2
 8001aea:	280f      	cmp	r0, #15
 8001aec:	f841 3c80 	str.w	r3, [r1, #-128]
 8001af0:	f63f aea9 	bhi.w	8001846 <masked_bitslice2dense_opt+0x2b2>
 8001af4:	eb06 0080 	add.w	r0, r6, r0, lsl #2
 8001af8:	f104 0119 	add.w	r1, r4, #25
 8001afc:	f840 3c80 	str.w	r3, [r0, #-128]
 8001b00:	9823      	ldr	r0, [sp, #140]	; 0x8c
 8001b02:	eb06 0181 	add.w	r1, r6, r1, lsl #2
 8001b06:	280f      	cmp	r0, #15
 8001b08:	f841 3c80 	str.w	r3, [r1, #-128]
 8001b0c:	f63f ae9b 	bhi.w	8001846 <masked_bitslice2dense_opt+0x2b2>
 8001b10:	eb06 0080 	add.w	r0, r6, r0, lsl #2
 8001b14:	f104 011a 	add.w	r1, r4, #26
 8001b18:	f840 3c80 	str.w	r3, [r0, #-128]
 8001b1c:	9824      	ldr	r0, [sp, #144]	; 0x90
 8001b1e:	eb06 0181 	add.w	r1, r6, r1, lsl #2
 8001b22:	280f      	cmp	r0, #15
 8001b24:	f841 3c80 	str.w	r3, [r1, #-128]
 8001b28:	f63f ae8d 	bhi.w	8001846 <masked_bitslice2dense_opt+0x2b2>
 8001b2c:	eb06 0080 	add.w	r0, r6, r0, lsl #2
 8001b30:	2300      	movs	r3, #0
 8001b32:	f840 3c80 	str.w	r3, [r0, #-128]
 8001b36:	f104 011b 	add.w	r1, r4, #27
 8001b3a:	9825      	ldr	r0, [sp, #148]	; 0x94
 8001b3c:	eb06 0181 	add.w	r1, r6, r1, lsl #2
 8001b40:	280f      	cmp	r0, #15
 8001b42:	f841 3c80 	str.w	r3, [r1, #-128]
 8001b46:	f63f ae7e 	bhi.w	8001846 <masked_bitslice2dense_opt+0x2b2>
 8001b4a:	eb06 0080 	add.w	r0, r6, r0, lsl #2
 8001b4e:	f104 011c 	add.w	r1, r4, #28
 8001b52:	f840 3c80 	str.w	r3, [r0, #-128]
 8001b56:	9826      	ldr	r0, [sp, #152]	; 0x98
 8001b58:	eb06 0181 	add.w	r1, r6, r1, lsl #2
 8001b5c:	280f      	cmp	r0, #15
 8001b5e:	f841 3c80 	str.w	r3, [r1, #-128]
 8001b62:	f63f ae70 	bhi.w	8001846 <masked_bitslice2dense_opt+0x2b2>
 8001b66:	eb06 0080 	add.w	r0, r6, r0, lsl #2
 8001b6a:	f104 011d 	add.w	r1, r4, #29
 8001b6e:	f840 3c80 	str.w	r3, [r0, #-128]
 8001b72:	9827      	ldr	r0, [sp, #156]	; 0x9c
 8001b74:	eb06 0181 	add.w	r1, r6, r1, lsl #2
 8001b78:	280f      	cmp	r0, #15
 8001b7a:	f841 3c80 	str.w	r3, [r1, #-128]
 8001b7e:	f63f ae62 	bhi.w	8001846 <masked_bitslice2dense_opt+0x2b2>
 8001b82:	eb06 0080 	add.w	r0, r6, r0, lsl #2
 8001b86:	f104 011e 	add.w	r1, r4, #30
 8001b8a:	f840 3c80 	str.w	r3, [r0, #-128]
 8001b8e:	9828      	ldr	r0, [sp, #160]	; 0xa0
 8001b90:	eb06 0181 	add.w	r1, r6, r1, lsl #2
 8001b94:	280f      	cmp	r0, #15
 8001b96:	f841 3c80 	str.w	r3, [r1, #-128]
 8001b9a:	f63f ae54 	bhi.w	8001846 <masked_bitslice2dense_opt+0x2b2>
 8001b9e:	f104 011f 	add.w	r1, r4, #31
 8001ba2:	eb06 0181 	add.w	r1, r6, r1, lsl #2
 8001ba6:	eb06 0080 	add.w	r0, r6, r0, lsl #2
 8001baa:	f840 3c80 	str.w	r3, [r0, #-128]
 8001bae:	f841 3c80 	str.w	r3, [r1, #-128]
 8001bb2:	e648      	b.n	8001846 <masked_bitslice2dense_opt+0x2b2>
 8001bb4:	9b0b      	ldr	r3, [sp, #44]	; 0x2c
 8001bb6:	2b00      	cmp	r3, #0
 8001bb8:	f47f ae01 	bne.w	80017be <masked_bitslice2dense_opt+0x22a>
 8001bbc:	9340      	str	r3, [sp, #256]	; 0x100
 8001bbe:	9350      	str	r3, [sp, #320]	; 0x140
 8001bc0:	e72b      	b.n	8001a1a <masked_bitslice2dense_opt+0x486>
 8001bc2:	e9dd b369 	ldrd	fp, r3, [sp, #420]	; 0x1a4
 8001bc6:	9e05      	ldr	r6, [sp, #20]
 8001bc8:	009b      	lsls	r3, r3, #2
 8001bca:	930c      	str	r3, [sp, #48]	; 0x30
 8001bcc:	00b3      	lsls	r3, r6, #2
 8001bce:	9316      	str	r3, [sp, #88]	; 0x58
 8001bd0:	aa40      	add	r2, sp, #256	; 0x100
 8001bd2:	3340      	adds	r3, #64	; 0x40
 8001bd4:	18d0      	adds	r0, r2, r3
 8001bd6:	f1c6 030f 	rsb	r3, r6, #15
 8001bda:	1c75      	adds	r5, r6, #1
 8001bdc:	2b0c      	cmp	r3, #12
 8001bde:	eb02 0c86 	add.w	ip, r2, r6, lsl #2
 8001be2:	ea4c 0100 	orr.w	r1, ip, r0
 8001be6:	bf8c      	ite	hi
 8001be8:	2301      	movhi	r3, #1
 8001bea:	2300      	movls	r3, #0
 8001bec:	2d10      	cmp	r5, #16
 8001bee:	bf88      	it	hi
 8001bf0:	2300      	movhi	r3, #0
 8001bf2:	f011 0f04 	tst.w	r1, #4
 8001bf6:	f003 0301 	and.w	r3, r3, #1
 8001bfa:	900e      	str	r0, [sp, #56]	; 0x38
 8001bfc:	bf18      	it	ne
 8001bfe:	2300      	movne	r3, #0
 8001c00:	986b      	ldr	r0, [sp, #428]	; 0x1ac
 8001c02:	9307      	str	r3, [sp, #28]
 8001c04:	2d10      	cmp	r5, #16
 8001c06:	f1c6 0310 	rsb	r3, r6, #16
 8001c0a:	bf88      	it	hi
 8001c0c:	2301      	movhi	r3, #1
 8001c0e:	469e      	mov	lr, r3
 8001c10:	f8cd c034 	str.w	ip, [sp, #52]	; 0x34
 8001c14:	9518      	str	r5, [sp, #96]	; 0x60
 8001c16:	46b4      	mov	ip, r6
 8001c18:	0085      	lsls	r5, r0, #2
 8001c1a:	f023 0601 	bic.w	r6, r3, #1
 8001c1e:	930f      	str	r3, [sp, #60]	; 0x3c
 8001c20:	4603      	mov	r3, r0
 8001c22:	18e9      	adds	r1, r5, r3
 8001c24:	ebc3 0ac3 	rsb	sl, r3, r3, lsl #3
 8001c28:	46b0      	mov	r8, r6
 8001c2a:	9611      	str	r6, [sp, #68]	; 0x44
 8001c2c:	461e      	mov	r6, r3
 8001c2e:	eb03 03c3 	add.w	r3, r3, r3, lsl #3
 8001c32:	931b      	str	r3, [sp, #108]	; 0x6c
 8001c34:	232c      	movs	r3, #44	; 0x2c
 8001c36:	fb03 f606 	mul.w	r6, r3, r6
 8001c3a:	961f      	str	r6, [sp, #124]	; 0x7c
 8001c3c:	9e6b      	ldr	r6, [sp, #428]	; 0x1ac
 8001c3e:	9515      	str	r5, [sp, #84]	; 0x54
 8001c40:	2334      	movs	r3, #52	; 0x34
 8001c42:	fb03 f606 	mul.w	r6, r3, r6
 8001c46:	9620      	str	r6, [sp, #128]	; 0x80
 8001c48:	9e6b      	ldr	r6, [sp, #428]	; 0x1ac
 8001c4a:	911a      	str	r1, [sp, #104]	; 0x68
 8001c4c:	ebc6 1306 	rsb	r3, r6, r6, lsl #4
 8001c50:	9314      	str	r3, [sp, #80]	; 0x50
 8001c52:	4646      	mov	r6, r8
 8001c54:	4663      	mov	r3, ip
 8001c56:	f04f 0c00 	mov.w	ip, #0
 8001c5a:	199e      	adds	r6, r3, r6
 8001c5c:	f8cd c00c 	str.w	ip, [sp, #12]
 8001c60:	f50d 78c0 	add.w	r8, sp, #384	; 0x180
 8001c64:	469c      	mov	ip, r3
 8001c66:	3312      	adds	r3, #18
 8001c68:	eb08 0883 	add.w	r8, r8, r3, lsl #2
 8001c6c:	4663      	mov	r3, ip
 8001c6e:	f8cd 80f4 	str.w	r8, [sp, #244]	; 0xf4
 8001c72:	3313      	adds	r3, #19
 8001c74:	f50d 78c0 	add.w	r8, sp, #384	; 0x180
 8001c78:	eb08 0883 	add.w	r8, r8, r3, lsl #2
 8001c7c:	fb05 b90c 	mla	r9, r5, ip, fp
 8001c80:	4663      	mov	r3, ip
 8001c82:	9d6b      	ldr	r5, [sp, #428]	; 0x1ac
 8001c84:	f8cd 80f8 	str.w	r8, [sp, #248]	; 0xf8
 8001c88:	3314      	adds	r3, #20
 8001c8a:	f50d 78c0 	add.w	r8, sp, #384	; 0x180
 8001c8e:	eb08 0883 	add.w	r8, r8, r3, lsl #2
 8001c92:	006d      	lsls	r5, r5, #1
 8001c94:	4663      	mov	r3, ip
 8001c96:	eb00 0040 	add.w	r0, r0, r0, lsl #1
 8001c9a:	9512      	str	r5, [sp, #72]	; 0x48
 8001c9c:	1c9d      	adds	r5, r3, #2
 8001c9e:	9519      	str	r5, [sp, #100]	; 0x64
 8001ca0:	0085      	lsls	r5, r0, #2
 8001ca2:	951c      	str	r5, [sp, #112]	; 0x70
 8001ca4:	1cdd      	adds	r5, r3, #3
 8001ca6:	9523      	str	r5, [sp, #140]	; 0x8c
 8001ca8:	9d6b      	ldr	r5, [sp, #428]	; 0x1ac
 8001caa:	f8cd a09c 	str.w	sl, [sp, #156]	; 0x9c
 8001cae:	012d      	lsls	r5, r5, #4
 8001cb0:	f8cd 80fc 	str.w	r8, [sp, #252]	; 0xfc
 8001cb4:	9602      	str	r6, [sp, #8]
 8001cb6:	9517      	str	r5, [sp, #92]	; 0x5c
 8001cb8:	1d1d      	adds	r5, r3, #4
 8001cba:	9524      	str	r5, [sp, #144]	; 0x90
 8001cbc:	008d      	lsls	r5, r1, #2
 8001cbe:	951d      	str	r5, [sp, #116]	; 0x74
 8001cc0:	1d5d      	adds	r5, r3, #5
 8001cc2:	9525      	str	r5, [sp, #148]	; 0x94
 8001cc4:	0045      	lsls	r5, r0, #1
 8001cc6:	9532      	str	r5, [sp, #200]	; 0xc8
 8001cc8:	00c5      	lsls	r5, r0, #3
 8001cca:	9533      	str	r5, [sp, #204]	; 0xcc
 8001ccc:	1d9d      	adds	r5, r3, #6
 8001cce:	9526      	str	r5, [sp, #152]	; 0x98
 8001cd0:	9d6b      	ldr	r5, [sp, #428]	; 0x1ac
 8001cd2:	9013      	str	r0, [sp, #76]	; 0x4c
 8001cd4:	00ed      	lsls	r5, r5, #3
 8001cd6:	9534      	str	r5, [sp, #208]	; 0xd0
 8001cd8:	4655      	mov	r5, sl
 8001cda:	00a8      	lsls	r0, r5, #2
 8001cdc:	9035      	str	r0, [sp, #212]	; 0xd4
 8001cde:	1dd8      	adds	r0, r3, #7
 8001ce0:	9028      	str	r0, [sp, #160]	; 0xa0
 8001ce2:	986b      	ldr	r0, [sp, #428]	; 0x1ac
 8001ce4:	0140      	lsls	r0, r0, #5
 8001ce6:	9022      	str	r0, [sp, #136]	; 0x88
 8001ce8:	981b      	ldr	r0, [sp, #108]	; 0x6c
 8001cea:	0080      	lsls	r0, r0, #2
 8001cec:	9036      	str	r0, [sp, #216]	; 0xd8
 8001cee:	f10c 0009 	add.w	r0, ip, #9
 8001cf2:	902a      	str	r0, [sp, #168]	; 0xa8
 8001cf4:	0048      	lsls	r0, r1, #1
 8001cf6:	9037      	str	r0, [sp, #220]	; 0xdc
 8001cf8:	00c8      	lsls	r0, r1, #3
 8001cfa:	9038      	str	r0, [sp, #224]	; 0xe0
 8001cfc:	f10c 000a 	add.w	r0, ip, #10
 8001d00:	902b      	str	r0, [sp, #172]	; 0xac
 8001d02:	986b      	ldr	r0, [sp, #428]	; 0x1ac
 8001d04:	eb00 0141 	add.w	r1, r0, r1, lsl #1
 8001d08:	9813      	ldr	r0, [sp, #76]	; 0x4c
 8001d0a:	912c      	str	r1, [sp, #176]	; 0xb0
 8001d0c:	f10c 010b 	add.w	r1, ip, #11
 8001d10:	912d      	str	r1, [sp, #180]	; 0xb4
 8001d12:	0101      	lsls	r1, r0, #4
 8001d14:	9139      	str	r1, [sp, #228]	; 0xe4
 8001d16:	f10c 010c 	add.w	r1, ip, #12
 8001d1a:	912e      	str	r1, [sp, #184]	; 0xb8
 8001d1c:	996b      	ldr	r1, [sp, #428]	; 0x1ac
 8001d1e:	eb01 0180 	add.w	r1, r1, r0, lsl #2
 8001d22:	912f      	str	r1, [sp, #188]	; 0xbc
 8001d24:	f10c 010d 	add.w	r1, ip, #13
 8001d28:	9130      	str	r1, [sp, #192]	; 0xc0
 8001d2a:	0069      	lsls	r1, r5, #1
 8001d2c:	913a      	str	r1, [sp, #232]	; 0xe8
 8001d2e:	00e9      	lsls	r1, r5, #3
 8001d30:	f10c 0808 	add.w	r8, ip, #8
 8001d34:	913b      	str	r1, [sp, #236]	; 0xec
 8001d36:	f10c 010e 	add.w	r1, ip, #14
 8001d3a:	f8cd 80a4 	str.w	r8, [sp, #164]	; 0xa4
 8001d3e:	9131      	str	r1, [sp, #196]	; 0xc4
 8001d40:	9b14      	ldr	r3, [sp, #80]	; 0x50
 8001d42:	009b      	lsls	r3, r3, #2
 8001d44:	933c      	str	r3, [sp, #240]	; 0xf0
 8001d46:	f10c 030f 	add.w	r3, ip, #15
 8001d4a:	931e      	str	r3, [sp, #120]	; 0x78
 8001d4c:	f10c 0310 	add.w	r3, ip, #16
 8001d50:	9321      	str	r3, [sp, #132]	; 0x84
 8001d52:	4673      	mov	r3, lr
 8001d54:	085b      	lsrs	r3, r3, #1
 8001d56:	9310      	str	r3, [sp, #64]	; 0x40
 8001d58:	f106 0310 	add.w	r3, r6, #16
 8001d5c:	9301      	str	r3, [sp, #4]
 8001d5e:	ab3f      	add	r3, sp, #252	; 0xfc
 8001d60:	930a      	str	r3, [sp, #40]	; 0x28
 8001d62:	9b05      	ldr	r3, [sp, #20]
 8001d64:	f04f 0c00 	mov.w	ip, #0
 8001d68:	ea4f 0844 	mov.w	r8, r4, lsl #1
 8001d6c:	ea4f 1e84 	mov.w	lr, r4, lsl #6
 8001d70:	f8cd c010 	str.w	ip, [sp, #16]
 8001d74:	ad5f      	add	r5, sp, #380	; 0x17c
 8001d76:	46da      	mov	sl, fp
 8001d78:	2b00      	cmp	r3, #0
 8001d7a:	f000 80f2 	beq.w	8001f62 <masked_bitslice2dense_opt+0x9ce>
 8001d7e:	4619      	mov	r1, r3
 8001d80:	f8da 3000 	ldr.w	r3, [sl]
 8001d84:	9340      	str	r3, [sp, #256]	; 0x100
 8001d86:	2901      	cmp	r1, #1
 8001d88:	f8d9 3000 	ldr.w	r3, [r9]
 8001d8c:	9350      	str	r3, [sp, #320]	; 0x140
 8001d8e:	f000 80f5 	beq.w	8001f7c <masked_bitslice2dense_opt+0x9e8>
 8001d92:	9b6b      	ldr	r3, [sp, #428]	; 0x1ac
 8001d94:	f85a 3023 	ldr.w	r3, [sl, r3, lsl #2]
 8001d98:	9341      	str	r3, [sp, #260]	; 0x104
 8001d9a:	9b6b      	ldr	r3, [sp, #428]	; 0x1ac
 8001d9c:	2902      	cmp	r1, #2
 8001d9e:	f859 3023 	ldr.w	r3, [r9, r3, lsl #2]
 8001da2:	9351      	str	r3, [sp, #324]	; 0x144
 8001da4:	f000 80ea 	beq.w	8001f7c <masked_bitslice2dense_opt+0x9e8>
 8001da8:	9b6b      	ldr	r3, [sp, #428]	; 0x1ac
 8001daa:	f85a 3033 	ldr.w	r3, [sl, r3, lsl #3]
 8001dae:	9342      	str	r3, [sp, #264]	; 0x108
 8001db0:	9b12      	ldr	r3, [sp, #72]	; 0x48
 8001db2:	2903      	cmp	r1, #3
 8001db4:	f859 3023 	ldr.w	r3, [r9, r3, lsl #2]
 8001db8:	9352      	str	r3, [sp, #328]	; 0x148
 8001dba:	f000 80df 	beq.w	8001f7c <masked_bitslice2dense_opt+0x9e8>
 8001dbe:	981c      	ldr	r0, [sp, #112]	; 0x70
 8001dc0:	f85a 3000 	ldr.w	r3, [sl, r0]
 8001dc4:	9343      	str	r3, [sp, #268]	; 0x10c
 8001dc6:	9b13      	ldr	r3, [sp, #76]	; 0x4c
 8001dc8:	2904      	cmp	r1, #4
 8001dca:	f859 3023 	ldr.w	r3, [r9, r3, lsl #2]
 8001dce:	9353      	str	r3, [sp, #332]	; 0x14c
 8001dd0:	f000 80d4 	beq.w	8001f7c <masked_bitslice2dense_opt+0x9e8>
 8001dd4:	9b17      	ldr	r3, [sp, #92]	; 0x5c
 8001dd6:	f85a 3003 	ldr.w	r3, [sl, r3]
 8001dda:	9344      	str	r3, [sp, #272]	; 0x110
 8001ddc:	9b15      	ldr	r3, [sp, #84]	; 0x54
 8001dde:	2905      	cmp	r1, #5
 8001de0:	f859 3023 	ldr.w	r3, [r9, r3, lsl #2]
 8001de4:	9354      	str	r3, [sp, #336]	; 0x150
 8001de6:	f000 80c9 	beq.w	8001f7c <masked_bitslice2dense_opt+0x9e8>
 8001dea:	9b1d      	ldr	r3, [sp, #116]	; 0x74
 8001dec:	f85a 3003 	ldr.w	r3, [sl, r3]
 8001df0:	9345      	str	r3, [sp, #276]	; 0x114
 8001df2:	9b1a      	ldr	r3, [sp, #104]	; 0x68
 8001df4:	2906      	cmp	r1, #6
 8001df6:	f859 3023 	ldr.w	r3, [r9, r3, lsl #2]
 8001dfa:	9355      	str	r3, [sp, #340]	; 0x154
 8001dfc:	f000 80be 	beq.w	8001f7c <masked_bitslice2dense_opt+0x9e8>
 8001e00:	9b33      	ldr	r3, [sp, #204]	; 0xcc
 8001e02:	f85a 3003 	ldr.w	r3, [sl, r3]
 8001e06:	9346      	str	r3, [sp, #280]	; 0x118
 8001e08:	9b32      	ldr	r3, [sp, #200]	; 0xc8
 8001e0a:	2907      	cmp	r1, #7
 8001e0c:	f859 3023 	ldr.w	r3, [r9, r3, lsl #2]
 8001e10:	9356      	str	r3, [sp, #344]	; 0x158
 8001e12:	f000 80b3 	beq.w	8001f7c <masked_bitslice2dense_opt+0x9e8>
 8001e16:	9b35      	ldr	r3, [sp, #212]	; 0xd4
 8001e18:	f85a 3003 	ldr.w	r3, [sl, r3]
 8001e1c:	9347      	str	r3, [sp, #284]	; 0x11c
 8001e1e:	9b27      	ldr	r3, [sp, #156]	; 0x9c
 8001e20:	2908      	cmp	r1, #8
 8001e22:	f859 3023 	ldr.w	r3, [r9, r3, lsl #2]
 8001e26:	9357      	str	r3, [sp, #348]	; 0x15c
 8001e28:	f000 80a8 	beq.w	8001f7c <masked_bitslice2dense_opt+0x9e8>
 8001e2c:	9b22      	ldr	r3, [sp, #136]	; 0x88
 8001e2e:	f85a 3003 	ldr.w	r3, [sl, r3]
 8001e32:	9348      	str	r3, [sp, #288]	; 0x120
 8001e34:	9b34      	ldr	r3, [sp, #208]	; 0xd0
 8001e36:	2909      	cmp	r1, #9
 8001e38:	f859 3023 	ldr.w	r3, [r9, r3, lsl #2]
 8001e3c:	9358      	str	r3, [sp, #352]	; 0x160
 8001e3e:	f000 809d 	beq.w	8001f7c <masked_bitslice2dense_opt+0x9e8>
 8001e42:	9b36      	ldr	r3, [sp, #216]	; 0xd8
 8001e44:	f85a 3003 	ldr.w	r3, [sl, r3]
 8001e48:	9349      	str	r3, [sp, #292]	; 0x124
 8001e4a:	9b1b      	ldr	r3, [sp, #108]	; 0x6c
 8001e4c:	290a      	cmp	r1, #10
 8001e4e:	f859 3023 	ldr.w	r3, [r9, r3, lsl #2]
 8001e52:	9359      	str	r3, [sp, #356]	; 0x164
 8001e54:	f000 8092 	beq.w	8001f7c <masked_bitslice2dense_opt+0x9e8>
 8001e58:	9b38      	ldr	r3, [sp, #224]	; 0xe0
 8001e5a:	f85a 3003 	ldr.w	r3, [sl, r3]
 8001e5e:	934a      	str	r3, [sp, #296]	; 0x128
 8001e60:	9b37      	ldr	r3, [sp, #220]	; 0xdc
 8001e62:	290b      	cmp	r1, #11
 8001e64:	f859 3023 	ldr.w	r3, [r9, r3, lsl #2]
 8001e68:	935a      	str	r3, [sp, #360]	; 0x168
 8001e6a:	f000 8087 	beq.w	8001f7c <masked_bitslice2dense_opt+0x9e8>
 8001e6e:	9b1f      	ldr	r3, [sp, #124]	; 0x7c
 8001e70:	f85a 3003 	ldr.w	r3, [sl, r3]
 8001e74:	934b      	str	r3, [sp, #300]	; 0x12c
 8001e76:	9b2c      	ldr	r3, [sp, #176]	; 0xb0
 8001e78:	290c      	cmp	r1, #12
 8001e7a:	f859 3023 	ldr.w	r3, [r9, r3, lsl #2]
 8001e7e:	935b      	str	r3, [sp, #364]	; 0x16c
 8001e80:	d07c      	beq.n	8001f7c <masked_bitslice2dense_opt+0x9e8>
 8001e82:	9b39      	ldr	r3, [sp, #228]	; 0xe4
 8001e84:	f85a 3003 	ldr.w	r3, [sl, r3]
 8001e88:	934c      	str	r3, [sp, #304]	; 0x130
 8001e8a:	290d      	cmp	r1, #13
 8001e8c:	f859 3020 	ldr.w	r3, [r9, r0, lsl #2]
 8001e90:	935c      	str	r3, [sp, #368]	; 0x170
 8001e92:	d073      	beq.n	8001f7c <masked_bitslice2dense_opt+0x9e8>
 8001e94:	9b20      	ldr	r3, [sp, #128]	; 0x80
 8001e96:	f85a 3003 	ldr.w	r3, [sl, r3]
 8001e9a:	934d      	str	r3, [sp, #308]	; 0x134
 8001e9c:	9b2f      	ldr	r3, [sp, #188]	; 0xbc
 8001e9e:	290e      	cmp	r1, #14
 8001ea0:	f859 3023 	ldr.w	r3, [r9, r3, lsl #2]
 8001ea4:	935d      	str	r3, [sp, #372]	; 0x174
 8001ea6:	d069      	beq.n	8001f7c <masked_bitslice2dense_opt+0x9e8>
 8001ea8:	9b3b      	ldr	r3, [sp, #236]	; 0xec
 8001eaa:	f85a 3003 	ldr.w	r3, [sl, r3]
 8001eae:	934e      	str	r3, [sp, #312]	; 0x138
 8001eb0:	9b3a      	ldr	r3, [sp, #232]	; 0xe8
 8001eb2:	290f      	cmp	r1, #15
 8001eb4:	f859 3023 	ldr.w	r3, [r9, r3, lsl #2]
 8001eb8:	935e      	str	r3, [sp, #376]	; 0x178
 8001eba:	d05f      	beq.n	8001f7c <masked_bitslice2dense_opt+0x9e8>
 8001ebc:	9b3c      	ldr	r3, [sp, #240]	; 0xf0
 8001ebe:	f85a 3003 	ldr.w	r3, [sl, r3]
 8001ec2:	934f      	str	r3, [sp, #316]	; 0x13c
 8001ec4:	9b14      	ldr	r3, [sp, #80]	; 0x50
 8001ec6:	f859 3023 	ldr.w	r3, [r9, r3, lsl #2]
 8001eca:	935f      	str	r3, [sp, #380]	; 0x17c
 8001ecc:	2305      	movs	r3, #5
 8001ece:	46c3      	mov	fp, r8
 8001ed0:	f64f 76ff 	movw	r6, #65535	; 0xffff
 8001ed4:	2410      	movs	r4, #16
 8001ed6:	4698      	mov	r8, r3
 8001ed8:	9506      	str	r5, [sp, #24]
 8001eda:	ea6f 0c04 	mvn.w	ip, r4
 8001ede:	2100      	movs	r1, #0
 8001ee0:	1860      	adds	r0, r4, r1
 8001ee2:	f852 3021 	ldr.w	r3, [r2, r1, lsl #2]
 8001ee6:	f852 5020 	ldr.w	r5, [r2, r0, lsl #2]
 8001eea:	40e3      	lsrs	r3, r4
 8001eec:	406b      	eors	r3, r5
 8001eee:	4033      	ands	r3, r6
 8001ef0:	405d      	eors	r5, r3
 8001ef2:	f842 5020 	str.w	r5, [r2, r0, lsl #2]
 8001ef6:	1c45      	adds	r5, r0, #1
 8001ef8:	f852 0021 	ldr.w	r0, [r2, r1, lsl #2]
 8001efc:	40a3      	lsls	r3, r4
 8001efe:	4043      	eors	r3, r0
 8001f00:	f842 3021 	str.w	r3, [r2, r1, lsl #2]
 8001f04:	ea05 010c 	and.w	r1, r5, ip
 8001f08:	291f      	cmp	r1, #31
 8001f0a:	dde9      	ble.n	8001ee0 <masked_bitslice2dense_opt+0x94c>
 8001f0c:	1064      	asrs	r4, r4, #1
 8001f0e:	fa06 f304 	lsl.w	r3, r6, r4
 8001f12:	f1b8 0801 	subs.w	r8, r8, #1
 8001f16:	ea86 0603 	eor.w	r6, r6, r3
 8001f1a:	d1de      	bne.n	8001eda <masked_bitslice2dense_opt+0x946>
 8001f1c:	e9dd 030a 	ldrd	r0, r3, [sp, #40]	; 0x28
 8001f20:	9903      	ldr	r1, [sp, #12]
 8001f22:	9d06      	ldr	r5, [sp, #24]
 8001f24:	46d8      	mov	r8, fp
 8001f26:	eb03 0141 	add.w	r1, r3, r1, lsl #1
 8001f2a:	f850 3f04 	ldr.w	r3, [r0, #4]!
 8001f2e:	800b      	strh	r3, [r1, #0]
 8001f30:	42a8      	cmp	r0, r5
 8001f32:	ea4f 4313 	mov.w	r3, r3, lsr #16
 8001f36:	f821 300e 	strh.w	r3, [r1, lr]
 8001f3a:	4441      	add	r1, r8
 8001f3c:	d1f5      	bne.n	8001f2a <masked_bitslice2dense_opt+0x996>
 8001f3e:	9903      	ldr	r1, [sp, #12]
 8001f40:	9809      	ldr	r0, [sp, #36]	; 0x24
 8001f42:	9b04      	ldr	r3, [sp, #16]
 8001f44:	4401      	add	r1, r0
 8001f46:	9103      	str	r1, [sp, #12]
 8001f48:	990c      	ldr	r1, [sp, #48]	; 0x30
 8001f4a:	448a      	add	sl, r1
 8001f4c:	4489      	add	r9, r1
 8001f4e:	9908      	ldr	r1, [sp, #32]
 8001f50:	3301      	adds	r3, #1
 8001f52:	4299      	cmp	r1, r3
 8001f54:	9304      	str	r3, [sp, #16]
 8001f56:	f43f acbd 	beq.w	80018d4 <masked_bitslice2dense_opt+0x340>
 8001f5a:	9b05      	ldr	r3, [sp, #20]
 8001f5c:	2b00      	cmp	r3, #0
 8001f5e:	f47f af0e 	bne.w	8001d7e <masked_bitslice2dense_opt+0x7ea>
 8001f62:	9b07      	ldr	r3, [sp, #28]
 8001f64:	b96b      	cbnz	r3, 8001f82 <masked_bitslice2dense_opt+0x9ee>
 8001f66:	9818      	ldr	r0, [sp, #96]	; 0x60
 8001f68:	9340      	str	r3, [sp, #256]	; 0x100
 8001f6a:	4619      	mov	r1, r3
 8001f6c:	9350      	str	r3, [sp, #320]	; 0x140
 8001f6e:	ab60      	add	r3, sp, #384	; 0x180
 8001f70:	eb03 0380 	add.w	r3, r3, r0, lsl #2
 8001f74:	f843 1c80 	str.w	r1, [r3, #-128]
 8001f78:	9151      	str	r1, [sp, #324]	; 0x144
 8001f7a:	e068      	b.n	800204e <masked_bitslice2dense_opt+0xaba>
 8001f7c:	9b07      	ldr	r3, [sp, #28]
 8001f7e:	2b00      	cmp	r3, #0
 8001f80:	d045      	beq.n	800200e <masked_bitslice2dense_opt+0xa7a>
 8001f82:	9b10      	ldr	r3, [sp, #64]	; 0x40
 8001f84:	9c0d      	ldr	r4, [sp, #52]	; 0x34
 8001f86:	9e0e      	ldr	r6, [sp, #56]	; 0x38
 8001f88:	2000      	movs	r0, #0
 8001f8a:	2100      	movs	r1, #0
 8001f8c:	2b01      	cmp	r3, #1
 8001f8e:	e9c4 0100 	strd	r0, r1, [r4]
 8001f92:	e9c6 0100 	strd	r0, r1, [r6]
 8001f96:	d927      	bls.n	8001fe8 <masked_bitslice2dense_opt+0xa54>
 8001f98:	2b02      	cmp	r3, #2
 8001f9a:	e9c4 0102 	strd	r0, r1, [r4, #8]
 8001f9e:	e9c6 0102 	strd	r0, r1, [r6, #8]
 8001fa2:	d021      	beq.n	8001fe8 <masked_bitslice2dense_opt+0xa54>
 8001fa4:	2b03      	cmp	r3, #3
 8001fa6:	e9c4 0104 	strd	r0, r1, [r4, #16]
 8001faa:	e9c6 0104 	strd	r0, r1, [r6, #16]
 8001fae:	d01b      	beq.n	8001fe8 <masked_bitslice2dense_opt+0xa54>
 8001fb0:	2b04      	cmp	r3, #4
 8001fb2:	e9c4 0106 	strd	r0, r1, [r4, #24]
 8001fb6:	e9c6 0106 	strd	r0, r1, [r6, #24]
 8001fba:	d015      	beq.n	8001fe8 <masked_bitslice2dense_opt+0xa54>
 8001fbc:	2b05      	cmp	r3, #5
 8001fbe:	e9c4 0108 	strd	r0, r1, [r4, #32]
 8001fc2:	e9c6 0108 	strd	r0, r1, [r6, #32]
 8001fc6:	d00f      	beq.n	8001fe8 <masked_bitslice2dense_opt+0xa54>
 8001fc8:	2b06      	cmp	r3, #6
 8001fca:	e9c4 010a 	strd	r0, r1, [r4, #40]	; 0x28
 8001fce:	e9c6 010a 	strd	r0, r1, [r6, #40]	; 0x28
 8001fd2:	d009      	beq.n	8001fe8 <masked_bitslice2dense_opt+0xa54>
 8001fd4:	2b07      	cmp	r3, #7
 8001fd6:	e9c4 010c 	strd	r0, r1, [r4, #48]	; 0x30
 8001fda:	e9c6 010c 	strd	r0, r1, [r6, #48]	; 0x30
 8001fde:	d003      	beq.n	8001fe8 <masked_bitslice2dense_opt+0xa54>
 8001fe0:	e9c4 010e 	strd	r0, r1, [r4, #56]	; 0x38
 8001fe4:	e9c6 010e 	strd	r0, r1, [r6, #56]	; 0x38
 8001fe8:	9b0f      	ldr	r3, [sp, #60]	; 0x3c
 8001fea:	9911      	ldr	r1, [sp, #68]	; 0x44
 8001fec:	428b      	cmp	r3, r1
 8001fee:	f43f af6d 	beq.w	8001ecc <masked_bitslice2dense_opt+0x938>
 8001ff2:	9802      	ldr	r0, [sp, #8]
 8001ff4:	ab60      	add	r3, sp, #384	; 0x180
 8001ff6:	eb03 0380 	add.w	r3, r3, r0, lsl #2
 8001ffa:	2100      	movs	r1, #0
 8001ffc:	9801      	ldr	r0, [sp, #4]
 8001ffe:	f843 1c80 	str.w	r1, [r3, #-128]
 8002002:	ab60      	add	r3, sp, #384	; 0x180
 8002004:	eb03 0380 	add.w	r3, r3, r0, lsl #2
 8002008:	f843 1c80 	str.w	r1, [r3, #-128]
 800200c:	e75e      	b.n	8001ecc <masked_bitslice2dense_opt+0x938>
 800200e:	4619      	mov	r1, r3
 8002010:	9b16      	ldr	r3, [sp, #88]	; 0x58
 8002012:	9821      	ldr	r0, [sp, #132]	; 0x84
 8002014:	f503 73c0 	add.w	r3, r3, #384	; 0x180
 8002018:	446b      	add	r3, sp
 800201a:	f843 1c80 	str.w	r1, [r3, #-128]
 800201e:	ab60      	add	r3, sp, #384	; 0x180
 8002020:	eb03 0380 	add.w	r3, r3, r0, lsl #2
 8002024:	f843 1c80 	str.w	r1, [r3, #-128]
 8002028:	9b18      	ldr	r3, [sp, #96]	; 0x60
 800202a:	2b0f      	cmp	r3, #15
 800202c:	f63f af4e 	bhi.w	8001ecc <masked_bitslice2dense_opt+0x938>
 8002030:	a860      	add	r0, sp, #384	; 0x180
 8002032:	eb00 0383 	add.w	r3, r0, r3, lsl #2
 8002036:	f843 1c80 	str.w	r1, [r3, #-128]
 800203a:	4603      	mov	r3, r0
 800203c:	9805      	ldr	r0, [sp, #20]
 800203e:	eb03 0380 	add.w	r3, r3, r0, lsl #2
 8002042:	f843 1c3c 	str.w	r1, [r3, #-60]
 8002046:	9b19      	ldr	r3, [sp, #100]	; 0x64
 8002048:	2b0f      	cmp	r3, #15
 800204a:	f63f af3f 	bhi.w	8001ecc <masked_bitslice2dense_opt+0x938>
 800204e:	9819      	ldr	r0, [sp, #100]	; 0x64
 8002050:	a960      	add	r1, sp, #384	; 0x180
 8002052:	eb01 0180 	add.w	r1, r1, r0, lsl #2
 8002056:	2300      	movs	r3, #0
 8002058:	f841 3c80 	str.w	r3, [r1, #-128]
 800205c:	993d      	ldr	r1, [sp, #244]	; 0xf4
 800205e:	f841 3c80 	str.w	r3, [r1, #-128]
 8002062:	9923      	ldr	r1, [sp, #140]	; 0x8c
 8002064:	290f      	cmp	r1, #15
 8002066:	f63f af31 	bhi.w	8001ecc <masked_bitslice2dense_opt+0x938>
 800206a:	a860      	add	r0, sp, #384	; 0x180
 800206c:	eb00 0181 	add.w	r1, r0, r1, lsl #2
 8002070:	f841 3c80 	str.w	r3, [r1, #-128]
 8002074:	993e      	ldr	r1, [sp, #248]	; 0xf8
 8002076:	f841 3c80 	str.w	r3, [r1, #-128]
 800207a:	9924      	ldr	r1, [sp, #144]	; 0x90
 800207c:	290f      	cmp	r1, #15
 800207e:	f63f af25 	bhi.w	8001ecc <masked_bitslice2dense_opt+0x938>
 8002082:	eb00 0181 	add.w	r1, r0, r1, lsl #2
 8002086:	9825      	ldr	r0, [sp, #148]	; 0x94
 8002088:	f841 3c80 	str.w	r3, [r1, #-128]
 800208c:	993f      	ldr	r1, [sp, #252]	; 0xfc
 800208e:	280f      	cmp	r0, #15
 8002090:	f841 3c80 	str.w	r3, [r1, #-128]
 8002094:	f63f af1a 	bhi.w	8001ecc <masked_bitslice2dense_opt+0x938>
 8002098:	ae60      	add	r6, sp, #384	; 0x180
 800209a:	eb06 0080 	add.w	r0, r6, r0, lsl #2
 800209e:	9c05      	ldr	r4, [sp, #20]
 80020a0:	f840 3c80 	str.w	r3, [r0, #-128]
 80020a4:	f104 0115 	add.w	r1, r4, #21
 80020a8:	9826      	ldr	r0, [sp, #152]	; 0x98
 80020aa:	eb06 0181 	add.w	r1, r6, r1, lsl #2
 80020ae:	280f      	cmp	r0, #15
 80020b0:	f841 3c80 	str.w	r3, [r1, #-128]
 80020b4:	f63f af0a 	bhi.w	8001ecc <masked_bitslice2dense_opt+0x938>
 80020b8:	eb06 0080 	add.w	r0, r6, r0, lsl #2
 80020bc:	f104 0116 	add.w	r1, r4, #22
 80020c0:	f840 3c80 	str.w	r3, [r0, #-128]
 80020c4:	9828      	ldr	r0, [sp, #160]	; 0xa0
 80020c6:	eb06 0181 	add.w	r1, r6, r1, lsl #2
 80020ca:	280f      	cmp	r0, #15
 80020cc:	f841 3c80 	str.w	r3, [r1, #-128]
 80020d0:	f63f aefc 	bhi.w	8001ecc <masked_bitslice2dense_opt+0x938>
 80020d4:	eb06 0080 	add.w	r0, r6, r0, lsl #2
 80020d8:	f104 0117 	add.w	r1, r4, #23
 80020dc:	f840 3c80 	str.w	r3, [r0, #-128]
 80020e0:	9829      	ldr	r0, [sp, #164]	; 0xa4
 80020e2:	eb06 0181 	add.w	r1, r6, r1, lsl #2
 80020e6:	280f      	cmp	r0, #15
 80020e8:	f841 3c80 	str.w	r3, [r1, #-128]
 80020ec:	f63f aeee 	bhi.w	8001ecc <masked_bitslice2dense_opt+0x938>
 80020f0:	eb06 0080 	add.w	r0, r6, r0, lsl #2
 80020f4:	f104 0118 	add.w	r1, r4, #24
 80020f8:	f840 3c80 	str.w	r3, [r0, #-128]
 80020fc:	982a      	ldr	r0, [sp, #168]	; 0xa8
 80020fe:	eb06 0181 	add.w	r1, r6, r1, lsl #2
 8002102:	280f      	cmp	r0, #15
 8002104:	f841 3c80 	str.w	r3, [r1, #-128]
 8002108:	f63f aee0 	bhi.w	8001ecc <masked_bitslice2dense_opt+0x938>
 800210c:	eb06 0080 	add.w	r0, r6, r0, lsl #2
 8002110:	f104 0119 	add.w	r1, r4, #25
 8002114:	f840 3c80 	str.w	r3, [r0, #-128]
 8002118:	982b      	ldr	r0, [sp, #172]	; 0xac
 800211a:	eb06 0181 	add.w	r1, r6, r1, lsl #2
 800211e:	280f      	cmp	r0, #15
 8002120:	f841 3c80 	str.w	r3, [r1, #-128]
 8002124:	f63f aed2 	bhi.w	8001ecc <masked_bitslice2dense_opt+0x938>
 8002128:	eb06 0080 	add.w	r0, r6, r0, lsl #2
 800212c:	f104 011a 	add.w	r1, r4, #26
 8002130:	f840 3c80 	str.w	r3, [r0, #-128]
 8002134:	982d      	ldr	r0, [sp, #180]	; 0xb4
 8002136:	eb06 0181 	add.w	r1, r6, r1, lsl #2
 800213a:	280f      	cmp	r0, #15
 800213c:	f841 3c80 	str.w	r3, [r1, #-128]
 8002140:	f63f aec4 	bhi.w	8001ecc <masked_bitslice2dense_opt+0x938>
 8002144:	eb06 0080 	add.w	r0, r6, r0, lsl #2
 8002148:	f104 011b 	add.w	r1, r4, #27
 800214c:	f840 3c80 	str.w	r3, [r0, #-128]
 8002150:	982e      	ldr	r0, [sp, #184]	; 0xb8
 8002152:	eb06 0181 	add.w	r1, r6, r1, lsl #2
 8002156:	280f      	cmp	r0, #15
 8002158:	f841 3c80 	str.w	r3, [r1, #-128]
 800215c:	f63f aeb6 	bhi.w	8001ecc <masked_bitslice2dense_opt+0x938>
 8002160:	eb06 0080 	add.w	r0, r6, r0, lsl #2
 8002164:	2300      	movs	r3, #0
 8002166:	f840 3c80 	str.w	r3, [r0, #-128]
 800216a:	f104 011c 	add.w	r1, r4, #28
 800216e:	9830      	ldr	r0, [sp, #192]	; 0xc0
 8002170:	eb06 0181 	add.w	r1, r6, r1, lsl #2
 8002174:	280f      	cmp	r0, #15
 8002176:	f841 3c80 	str.w	r3, [r1, #-128]
 800217a:	f63f aea7 	bhi.w	8001ecc <masked_bitslice2dense_opt+0x938>
 800217e:	eb06 0080 	add.w	r0, r6, r0, lsl #2
 8002182:	f104 011d 	add.w	r1, r4, #29
 8002186:	f840 3c80 	str.w	r3, [r0, #-128]
 800218a:	9831      	ldr	r0, [sp, #196]	; 0xc4
 800218c:	eb06 0181 	add.w	r1, r6, r1, lsl #2
 8002190:	280f      	cmp	r0, #15
 8002192:	f841 3c80 	str.w	r3, [r1, #-128]
 8002196:	f63f ae99 	bhi.w	8001ecc <masked_bitslice2dense_opt+0x938>
 800219a:	eb06 0080 	add.w	r0, r6, r0, lsl #2
 800219e:	f104 011e 	add.w	r1, r4, #30
 80021a2:	f840 3c80 	str.w	r3, [r0, #-128]
 80021a6:	981e      	ldr	r0, [sp, #120]	; 0x78
 80021a8:	eb06 0181 	add.w	r1, r6, r1, lsl #2
 80021ac:	280f      	cmp	r0, #15
 80021ae:	f841 3c80 	str.w	r3, [r1, #-128]
 80021b2:	f63f ae8b 	bhi.w	8001ecc <masked_bitslice2dense_opt+0x938>
 80021b6:	f104 011f 	add.w	r1, r4, #31
 80021ba:	eb06 0181 	add.w	r1, r6, r1, lsl #2
 80021be:	eb06 0080 	add.w	r0, r6, r0, lsl #2
 80021c2:	f840 3c80 	str.w	r3, [r0, #-128]
 80021c6:	f841 3c80 	str.w	r3, [r1, #-128]
 80021ca:	e67f      	b.n	8001ecc <masked_bitslice2dense_opt+0x938>

080021cc <secadd_constant>:
 80021cc:	e92d 4ff0 	stmdb	sp!, {r4, r5, r6, r7, r8, r9, sl, fp, lr}
 80021d0:	b08d      	sub	sp, #52	; 0x34
 80021d2:	af04      	add	r7, sp, #16
 80021d4:	e9c7 3201 	strd	r3, r2, [r7, #4]
 80021d8:	0082      	lsls	r2, r0, #2
 80021da:	1dd3      	adds	r3, r2, #7
 80021dc:	f023 0307 	bic.w	r3, r3, #7
 80021e0:	f8c7 d000 	str.w	sp, [r7]
 80021e4:	ebad 0d03 	sub.w	sp, sp, r3
 80021e8:	f10d 0810 	add.w	r8, sp, #16
 80021ec:	ebad 0d03 	sub.w	sp, sp, r3
 80021f0:	f10d 0a10 	add.w	sl, sp, #16
 80021f4:	ebad 0d03 	sub.w	sp, sp, r3
 80021f8:	ab04      	add	r3, sp, #16
 80021fa:	617b      	str	r3, [r7, #20]
 80021fc:	6dfb      	ldr	r3, [r7, #92]	; 0x5c
 80021fe:	f8d7 9050 	ldr.w	r9, [r7, #80]	; 0x50
 8002202:	61f9      	str	r1, [r7, #28]
 8002204:	f013 0301 	ands.w	r3, r3, #1
 8002208:	4683      	mov	fp, r0
 800220a:	f040 8102 	bne.w	8002412 <secadd_constant+0x246>
 800220e:	b3b0      	cbz	r0, 800227e <secadd_constant+0xb2>
 8002210:	1e42      	subs	r2, r0, #1
 8002212:	2a05      	cmp	r2, #5
 8002214:	f3c8 0680 	ubfx	r6, r8, #2, #1
 8002218:	d915      	bls.n	8002246 <secadd_constant+0x7a>
 800221a:	b10e      	cbz	r6, 8002220 <secadd_constant+0x54>
 800221c:	f8c8 3000 	str.w	r3, [r8]
 8002220:	ebab 0c06 	sub.w	ip, fp, r6
 8002224:	ea4f 015c 	mov.w	r1, ip, lsr #1
 8002228:	eb08 0286 	add.w	r2, r8, r6, lsl #2
 800222c:	2400      	movs	r4, #0
 800222e:	2500      	movs	r5, #0
 8002230:	3301      	adds	r3, #1
 8002232:	4299      	cmp	r1, r3
 8002234:	e8e2 4502 	strd	r4, r5, [r2], #8
 8002238:	d1fa      	bne.n	8002230 <secadd_constant+0x64>
 800223a:	f02c 0201 	bic.w	r2, ip, #1
 800223e:	4594      	cmp	ip, r2
 8002240:	eb06 0302 	add.w	r3, r6, r2
 8002244:	d01b      	beq.n	800227e <secadd_constant+0xb2>
 8002246:	1c59      	adds	r1, r3, #1
 8002248:	2200      	movs	r2, #0
 800224a:	458b      	cmp	fp, r1
 800224c:	f848 2023 	str.w	r2, [r8, r3, lsl #2]
 8002250:	d915      	bls.n	800227e <secadd_constant+0xb2>
 8002252:	f848 2021 	str.w	r2, [r8, r1, lsl #2]
 8002256:	1c99      	adds	r1, r3, #2
 8002258:	458b      	cmp	fp, r1
 800225a:	d910      	bls.n	800227e <secadd_constant+0xb2>
 800225c:	f848 2021 	str.w	r2, [r8, r1, lsl #2]
 8002260:	1cd9      	adds	r1, r3, #3
 8002262:	458b      	cmp	fp, r1
 8002264:	d90b      	bls.n	800227e <secadd_constant+0xb2>
 8002266:	f848 2021 	str.w	r2, [r8, r1, lsl #2]
 800226a:	1d19      	adds	r1, r3, #4
 800226c:	458b      	cmp	fp, r1
 800226e:	d906      	bls.n	800227e <secadd_constant+0xb2>
 8002270:	3305      	adds	r3, #5
 8002272:	459b      	cmp	fp, r3
 8002274:	f848 2021 	str.w	r2, [r8, r1, lsl #2]
 8002278:	d901      	bls.n	800227e <secadd_constant+0xb2>
 800227a:	f848 2023 	str.w	r2, [r8, r3, lsl #2]
 800227e:	6d7b      	ldr	r3, [r7, #84]	; 0x54
 8002280:	9300      	str	r3, [sp, #0]
 8002282:	6cba      	ldr	r2, [r7, #72]	; 0x48
 8002284:	6879      	ldr	r1, [r7, #4]
 8002286:	464b      	mov	r3, r9
 8002288:	4658      	mov	r0, fp
 800228a:	f003 fde6 	bl	8005e5a <copy_sharing_asm>
 800228e:	69fb      	ldr	r3, [r7, #28]
 8002290:	2b01      	cmp	r3, #1
 8002292:	f240 8097 	bls.w	80023c4 <secadd_constant+0x1f8>
 8002296:	6dbb      	ldr	r3, [r7, #88]	; 0x58
 8002298:	6cfa      	ldr	r2, [r7, #76]	; 0x4c
 800229a:	eb09 0583 	add.w	r5, r9, r3, lsl #2
 800229e:	009b      	lsls	r3, r3, #2
 80022a0:	60fb      	str	r3, [r7, #12]
 80022a2:	69fb      	ldr	r3, [r7, #28]
 80022a4:	3b01      	subs	r3, #1
 80022a6:	61bb      	str	r3, [r7, #24]
 80022a8:	6cfb      	ldr	r3, [r7, #76]	; 0x4c
 80022aa:	009b      	lsls	r3, r3, #2
 80022ac:	613b      	str	r3, [r7, #16]
 80022ae:	687b      	ldr	r3, [r7, #4]
 80022b0:	2401      	movs	r4, #1
 80022b2:	eb03 0982 	add.w	r9, r3, r2, lsl #2
 80022b6:	4626      	mov	r6, r4
 80022b8:	e042      	b.n	8002340 <secadd_constant+0x174>
 80022ba:	6d7a      	ldr	r2, [r7, #84]	; 0x54
 80022bc:	9200      	str	r2, [sp, #0]
 80022be:	4651      	mov	r1, sl
 80022c0:	4658      	mov	r0, fp
 80022c2:	2201      	movs	r2, #1
 80022c4:	f003 fdc9 	bl	8005e5a <copy_sharing_asm>
 80022c8:	e9cd 8601 	strd	r8, r6, [sp, #4]
 80022cc:	6d7b      	ldr	r3, [r7, #84]	; 0x54
 80022ce:	9300      	str	r3, [sp, #0]
 80022d0:	6979      	ldr	r1, [r7, #20]
 80022d2:	462b      	mov	r3, r5
 80022d4:	4658      	mov	r0, fp
 80022d6:	2201      	movs	r2, #1
 80022d8:	f003 fd95 	bl	8005e06 <my_masked_xor_asm>
 80022dc:	e9cd 8601 	strd	r8, r6, [sp, #4]
 80022e0:	9600      	str	r6, [sp, #0]
 80022e2:	6cba      	ldr	r2, [r7, #72]	; 0x48
 80022e4:	4653      	mov	r3, sl
 80022e6:	4649      	mov	r1, r9
 80022e8:	4658      	mov	r0, fp
 80022ea:	f003 fd8c 	bl	8005e06 <my_masked_xor_asm>
 80022ee:	f8da 2000 	ldr.w	r2, [sl]
 80022f2:	43d2      	mvns	r2, r2
 80022f4:	f8ca 2000 	str.w	r2, [sl]
 80022f8:	f8d9 2000 	ldr.w	r2, [r9]
 80022fc:	43d2      	mvns	r2, r2
 80022fe:	f8c9 2000 	str.w	r2, [r9]
 8002302:	69ba      	ldr	r2, [r7, #24]
 8002304:	4294      	cmp	r4, r2
 8002306:	4653      	mov	r3, sl
 8002308:	d036      	beq.n	8002378 <secadd_constant+0x1ac>
 800230a:	9602      	str	r6, [sp, #8]
 800230c:	697a      	ldr	r2, [r7, #20]
 800230e:	4641      	mov	r1, r8
 8002310:	e9cd 6200 	strd	r6, r2, [sp]
 8002314:	4658      	mov	r0, fp
 8002316:	2201      	movs	r2, #1
 8002318:	f003 fcda 	bl	8005cd0 <my_masked_and_asm>
 800231c:	6d7b      	ldr	r3, [r7, #84]	; 0x54
 800231e:	9600      	str	r6, [sp, #0]
 8002320:	e9cd 5301 	strd	r5, r3, [sp, #4]
 8002324:	2201      	movs	r2, #1
 8002326:	4643      	mov	r3, r8
 8002328:	4641      	mov	r1, r8
 800232a:	4658      	mov	r0, fp
 800232c:	f003 fd6b 	bl	8005e06 <my_masked_xor_asm>
 8002330:	68fb      	ldr	r3, [r7, #12]
 8002332:	441d      	add	r5, r3
 8002334:	693b      	ldr	r3, [r7, #16]
 8002336:	4499      	add	r9, r3
 8002338:	69fb      	ldr	r3, [r7, #28]
 800233a:	3401      	adds	r4, #1
 800233c:	42a3      	cmp	r3, r4
 800233e:	d041      	beq.n	80023c4 <secadd_constant+0x1f8>
 8002340:	6dfa      	ldr	r2, [r7, #92]	; 0x5c
 8002342:	40e2      	lsrs	r2, r4
 8002344:	07d2      	lsls	r2, r2, #31
 8002346:	462b      	mov	r3, r5
 8002348:	d4b7      	bmi.n	80022ba <secadd_constant+0xee>
 800234a:	9501      	str	r5, [sp, #4]
 800234c:	9602      	str	r6, [sp, #8]
 800234e:	9600      	str	r6, [sp, #0]
 8002350:	4643      	mov	r3, r8
 8002352:	6cba      	ldr	r2, [r7, #72]	; 0x48
 8002354:	4649      	mov	r1, r9
 8002356:	4658      	mov	r0, fp
 8002358:	f003 fd55 	bl	8005e06 <my_masked_xor_asm>
 800235c:	69bb      	ldr	r3, [r7, #24]
 800235e:	429c      	cmp	r4, r3
 8002360:	4643      	mov	r3, r8
 8002362:	d035      	beq.n	80023d0 <secadd_constant+0x204>
 8002364:	9501      	str	r5, [sp, #4]
 8002366:	6d7a      	ldr	r2, [r7, #84]	; 0x54
 8002368:	9202      	str	r2, [sp, #8]
 800236a:	9600      	str	r6, [sp, #0]
 800236c:	2201      	movs	r2, #1
 800236e:	4641      	mov	r1, r8
 8002370:	4658      	mov	r0, fp
 8002372:	f003 fcad 	bl	8005cd0 <my_masked_and_asm>
 8002376:	e7db      	b.n	8002330 <secadd_constant+0x164>
 8002378:	68bb      	ldr	r3, [r7, #8]
 800237a:	1e5a      	subs	r2, r3, #1
 800237c:	42a2      	cmp	r2, r4
 800237e:	d021      	beq.n	80023c4 <secadd_constant+0x1f8>
 8002380:	697b      	ldr	r3, [r7, #20]
 8002382:	9301      	str	r3, [sp, #4]
 8002384:	69fb      	ldr	r3, [r7, #28]
 8002386:	693c      	ldr	r4, [r7, #16]
 8002388:	9602      	str	r6, [sp, #8]
 800238a:	fb03 f404 	mul.w	r4, r3, r4
 800238e:	2201      	movs	r2, #1
 8002390:	4653      	mov	r3, sl
 8002392:	4641      	mov	r1, r8
 8002394:	4658      	mov	r0, fp
 8002396:	9600      	str	r6, [sp, #0]
 8002398:	f003 fc9a 	bl	8005cd0 <my_masked_and_asm>
 800239c:	6d7a      	ldr	r2, [r7, #84]	; 0x54
 800239e:	9600      	str	r6, [sp, #0]
 80023a0:	e9cd 5201 	strd	r5, r2, [sp, #4]
 80023a4:	687d      	ldr	r5, [r7, #4]
 80023a6:	6cba      	ldr	r2, [r7, #72]	; 0x48
 80023a8:	4629      	mov	r1, r5
 80023aa:	4643      	mov	r3, r8
 80023ac:	4421      	add	r1, r4
 80023ae:	4658      	mov	r0, fp
 80023b0:	f003 fd29 	bl	8005e06 <my_masked_xor_asm>
 80023b4:	6dfa      	ldr	r2, [r7, #92]	; 0x5c
 80023b6:	69f9      	ldr	r1, [r7, #28]
 80023b8:	592b      	ldr	r3, [r5, r4]
 80023ba:	40ca      	lsrs	r2, r1
 80023bc:	f342 0200 	sbfx	r2, r2, #0, #1
 80023c0:	4053      	eors	r3, r2
 80023c2:	512b      	str	r3, [r5, r4]
 80023c4:	f8d7 d000 	ldr.w	sp, [r7]
 80023c8:	3724      	adds	r7, #36	; 0x24
 80023ca:	46bd      	mov	sp, r7
 80023cc:	e8bd 8ff0 	ldmia.w	sp!, {r4, r5, r6, r7, r8, r9, sl, fp, pc}
 80023d0:	68bb      	ldr	r3, [r7, #8]
 80023d2:	1e5a      	subs	r2, r3, #1
 80023d4:	42a2      	cmp	r2, r4
 80023d6:	d0f5      	beq.n	80023c4 <secadd_constant+0x1f8>
 80023d8:	6d7b      	ldr	r3, [r7, #84]	; 0x54
 80023da:	9600      	str	r6, [sp, #0]
 80023dc:	e9cd 5301 	strd	r5, r3, [sp, #4]
 80023e0:	687e      	ldr	r6, [r7, #4]
 80023e2:	69fd      	ldr	r5, [r7, #28]
 80023e4:	693c      	ldr	r4, [r7, #16]
 80023e6:	6cba      	ldr	r2, [r7, #72]	; 0x48
 80023e8:	fb05 f404 	mul.w	r4, r5, r4
 80023ec:	4631      	mov	r1, r6
 80023ee:	4643      	mov	r3, r8
 80023f0:	4658      	mov	r0, fp
 80023f2:	4421      	add	r1, r4
 80023f4:	f003 fc6c 	bl	8005cd0 <my_masked_and_asm>
 80023f8:	6dfb      	ldr	r3, [r7, #92]	; 0x5c
 80023fa:	5932      	ldr	r2, [r6, r4]
 80023fc:	40eb      	lsrs	r3, r5
 80023fe:	f343 0300 	sbfx	r3, r3, #0, #1
 8002402:	4053      	eors	r3, r2
 8002404:	5133      	str	r3, [r6, r4]
 8002406:	f8d7 d000 	ldr.w	sp, [r7]
 800240a:	3724      	adds	r7, #36	; 0x24
 800240c:	46bd      	mov	sp, r7
 800240e:	e8bd 8ff0 	ldmia.w	sp!, {r4, r5, r6, r7, r8, r9, sl, fp, pc}
 8002412:	b1f8      	cbz	r0, 8002454 <secadd_constant+0x288>
 8002414:	6d7b      	ldr	r3, [r7, #84]	; 0x54
 8002416:	2b01      	cmp	r3, #1
 8002418:	d129      	bne.n	800246e <secadd_constant+0x2a2>
 800241a:	ea48 0309 	orr.w	r3, r8, r9
 800241e:	0759      	lsls	r1, r3, #29
 8002420:	d132      	bne.n	8002488 <secadd_constant+0x2bc>
 8002422:	1e43      	subs	r3, r0, #1
 8002424:	2b0a      	cmp	r3, #10
 8002426:	d92f      	bls.n	8002488 <secadd_constant+0x2bc>
 8002428:	0841      	lsrs	r1, r0, #1
 800242a:	eb08 01c1 	add.w	r1, r8, r1, lsl #3
 800242e:	f1a9 0208 	sub.w	r2, r9, #8
 8002432:	4643      	mov	r3, r8
 8002434:	460c      	mov	r4, r1
 8002436:	e9f2 0102 	ldrd	r0, r1, [r2, #8]!
 800243a:	e8e3 0102 	strd	r0, r1, [r3], #8
 800243e:	42a3      	cmp	r3, r4
 8002440:	d1f9      	bne.n	8002436 <secadd_constant+0x26a>
 8002442:	f01b 0f01 	tst.w	fp, #1
 8002446:	f02b 0301 	bic.w	r3, fp, #1
 800244a:	d003      	beq.n	8002454 <secadd_constant+0x288>
 800244c:	f859 2023 	ldr.w	r2, [r9, r3, lsl #2]
 8002450:	f848 2023 	str.w	r2, [r8, r3, lsl #2]
 8002454:	6d7b      	ldr	r3, [r7, #84]	; 0x54
 8002456:	9300      	str	r3, [sp, #0]
 8002458:	687c      	ldr	r4, [r7, #4]
 800245a:	6cba      	ldr	r2, [r7, #72]	; 0x48
 800245c:	464b      	mov	r3, r9
 800245e:	4621      	mov	r1, r4
 8002460:	4658      	mov	r0, fp
 8002462:	f003 fcfa 	bl	8005e5a <copy_sharing_asm>
 8002466:	6823      	ldr	r3, [r4, #0]
 8002468:	43db      	mvns	r3, r3
 800246a:	6023      	str	r3, [r4, #0]
 800246c:	e70f      	b.n	800228e <secadd_constant+0xc2>
 800246e:	009c      	lsls	r4, r3, #2
 8002470:	464a      	mov	r2, r9
 8002472:	f1a8 0104 	sub.w	r1, r8, #4
 8002476:	2300      	movs	r3, #0
 8002478:	3301      	adds	r3, #1
 800247a:	6810      	ldr	r0, [r2, #0]
 800247c:	f841 0f04 	str.w	r0, [r1, #4]!
 8002480:	459b      	cmp	fp, r3
 8002482:	4422      	add	r2, r4
 8002484:	d1f8      	bne.n	8002478 <secadd_constant+0x2ac>
 8002486:	e7e5      	b.n	8002454 <secadd_constant+0x288>
 8002488:	f1a9 0304 	sub.w	r3, r9, #4
 800248c:	441a      	add	r2, r3
 800248e:	f1a8 0104 	sub.w	r1, r8, #4
 8002492:	f853 0f04 	ldr.w	r0, [r3, #4]!
 8002496:	f841 0f04 	str.w	r0, [r1, #4]!
 800249a:	4293      	cmp	r3, r2
 800249c:	d1f9      	bne.n	8002492 <secadd_constant+0x2c6>
 800249e:	e7d9      	b.n	8002454 <secadd_constant+0x288>

080024a0 <secadd>:
 80024a0:	e92d 4ff0 	stmdb	sp!, {r4, r5, r6, r7, r8, r9, sl, fp, lr}
 80024a4:	b08f      	sub	sp, #60	; 0x3c
 80024a6:	af04      	add	r7, sp, #16
 80024a8:	4605      	mov	r5, r0
 80024aa:	607b      	str	r3, [r7, #4]
 80024ac:	0083      	lsls	r3, r0, #2
 80024ae:	3307      	adds	r3, #7
 80024b0:	f023 0307 	bic.w	r3, r3, #7
 80024b4:	ebad 0d03 	sub.w	sp, sp, r3
 80024b8:	f10d 0810 	add.w	r8, sp, #16
 80024bc:	ebad 0d03 	sub.w	sp, sp, r3
 80024c0:	f10d 0b10 	add.w	fp, sp, #16
 80024c4:	ebad 0d03 	sub.w	sp, sp, r3
 80024c8:	6dbe      	ldr	r6, [r7, #88]	; 0x58
 80024ca:	60ba      	str	r2, [r7, #8]
 80024cc:	6dfa      	ldr	r2, [r7, #92]	; 0x5c
 80024ce:	6e7c      	ldr	r4, [r7, #100]	; 0x64
 80024d0:	9200      	str	r2, [sp, #0]
 80024d2:	6eba      	ldr	r2, [r7, #104]	; 0x68
 80024d4:	61f9      	str	r1, [r7, #28]
 80024d6:	9202      	str	r2, [sp, #8]
 80024d8:	4633      	mov	r3, r6
 80024da:	2201      	movs	r2, #1
 80024dc:	4641      	mov	r1, r8
 80024de:	9401      	str	r4, [sp, #4]
 80024e0:	f8d7 a054 	ldr.w	sl, [r7, #84]	; 0x54
 80024e4:	f8d7 9060 	ldr.w	r9, [r7, #96]	; 0x60
 80024e8:	f003 fbf2 	bl	8005cd0 <my_masked_and_asm>
 80024ec:	6eba      	ldr	r2, [r7, #104]	; 0x68
 80024ee:	6879      	ldr	r1, [r7, #4]
 80024f0:	e9cd 4201 	strd	r4, r2, [sp, #4]
 80024f4:	6dfa      	ldr	r2, [r7, #92]	; 0x5c
 80024f6:	9200      	str	r2, [sp, #0]
 80024f8:	4633      	mov	r3, r6
 80024fa:	f10d 0c10 	add.w	ip, sp, #16
 80024fe:	6d3a      	ldr	r2, [r7, #80]	; 0x50
 8002500:	f8c7 c020 	str.w	ip, [r7, #32]
 8002504:	4628      	mov	r0, r5
 8002506:	f003 fc7e 	bl	8005e06 <my_masked_xor_asm>
 800250a:	69fb      	ldr	r3, [r7, #28]
 800250c:	2b01      	cmp	r3, #1
 800250e:	d975      	bls.n	80025fc <secadd+0x15c>
 8002510:	ea4f 0289 	mov.w	r2, r9, lsl #2
 8002514:	60fa      	str	r2, [r7, #12]
 8002516:	6efa      	ldr	r2, [r7, #108]	; 0x6c
 8002518:	eb04 0282 	add.w	r2, r4, r2, lsl #2
 800251c:	627a      	str	r2, [r7, #36]	; 0x24
 800251e:	6efa      	ldr	r2, [r7, #108]	; 0x6c
 8002520:	0092      	lsls	r2, r2, #2
 8002522:	617a      	str	r2, [r7, #20]
 8002524:	1e5a      	subs	r2, r3, #1
 8002526:	687b      	ldr	r3, [r7, #4]
 8002528:	613a      	str	r2, [r7, #16]
 800252a:	eb06 0689 	add.w	r6, r6, r9, lsl #2
 800252e:	ea4f 028a 	mov.w	r2, sl, lsl #2
 8002532:	f04f 0901 	mov.w	r9, #1
 8002536:	61ba      	str	r2, [r7, #24]
 8002538:	eb03 0a8a 	add.w	sl, r3, sl, lsl #2
 800253c:	464c      	mov	r4, r9
 800253e:	e01a      	b.n	8002576 <secadd+0xd6>
 8002540:	6a3b      	ldr	r3, [r7, #32]
 8002542:	9402      	str	r4, [sp, #8]
 8002544:	e9cd 4300 	strd	r4, r3, [sp]
 8002548:	2201      	movs	r2, #1
 800254a:	465b      	mov	r3, fp
 800254c:	4641      	mov	r1, r8
 800254e:	4628      	mov	r0, r5
 8002550:	f003 fbbe 	bl	8005cd0 <my_masked_and_asm>
 8002554:	6dfb      	ldr	r3, [r7, #92]	; 0x5c
 8002556:	9302      	str	r3, [sp, #8]
 8002558:	68fb      	ldr	r3, [r7, #12]
 800255a:	9601      	str	r6, [sp, #4]
 800255c:	9400      	str	r4, [sp, #0]
 800255e:	441e      	add	r6, r3
 8002560:	2201      	movs	r2, #1
 8002562:	4643      	mov	r3, r8
 8002564:	4641      	mov	r1, r8
 8002566:	4628      	mov	r0, r5
 8002568:	f003 fc4d 	bl	8005e06 <my_masked_xor_asm>
 800256c:	69fb      	ldr	r3, [r7, #28]
 800256e:	f109 0901 	add.w	r9, r9, #1
 8002572:	454b      	cmp	r3, r9
 8002574:	d042      	beq.n	80025fc <secadd+0x15c>
 8002576:	6eba      	ldr	r2, [r7, #104]	; 0x68
 8002578:	9202      	str	r2, [sp, #8]
 800257a:	6dfa      	ldr	r2, [r7, #92]	; 0x5c
 800257c:	6a7b      	ldr	r3, [r7, #36]	; 0x24
 800257e:	9200      	str	r2, [sp, #0]
 8002580:	697a      	ldr	r2, [r7, #20]
 8002582:	9301      	str	r3, [sp, #4]
 8002584:	4413      	add	r3, r2
 8002586:	627b      	str	r3, [r7, #36]	; 0x24
 8002588:	2201      	movs	r2, #1
 800258a:	4633      	mov	r3, r6
 800258c:	4659      	mov	r1, fp
 800258e:	4628      	mov	r0, r5
 8002590:	f003 fc39 	bl	8005e06 <my_masked_xor_asm>
 8002594:	6dfb      	ldr	r3, [r7, #92]	; 0x5c
 8002596:	6a39      	ldr	r1, [r7, #32]
 8002598:	9300      	str	r3, [sp, #0]
 800259a:	2201      	movs	r2, #1
 800259c:	4633      	mov	r3, r6
 800259e:	4628      	mov	r0, r5
 80025a0:	e9cd 8401 	strd	r8, r4, [sp, #4]
 80025a4:	f003 fc2f 	bl	8005e06 <my_masked_xor_asm>
 80025a8:	69bb      	ldr	r3, [r7, #24]
 80025aa:	6d3a      	ldr	r2, [r7, #80]	; 0x50
 80025ac:	9400      	str	r4, [sp, #0]
 80025ae:	4651      	mov	r1, sl
 80025b0:	e9cd 8401 	strd	r8, r4, [sp, #4]
 80025b4:	449a      	add	sl, r3
 80025b6:	4628      	mov	r0, r5
 80025b8:	465b      	mov	r3, fp
 80025ba:	f003 fc24 	bl	8005e06 <my_masked_xor_asm>
 80025be:	693b      	ldr	r3, [r7, #16]
 80025c0:	4599      	cmp	r9, r3
 80025c2:	d1bd      	bne.n	8002540 <secadd+0xa0>
 80025c4:	68bb      	ldr	r3, [r7, #8]
 80025c6:	1e5a      	subs	r2, r3, #1
 80025c8:	454a      	cmp	r2, r9
 80025ca:	d017      	beq.n	80025fc <secadd+0x15c>
 80025cc:	6a3b      	ldr	r3, [r7, #32]
 80025ce:	9301      	str	r3, [sp, #4]
 80025d0:	4641      	mov	r1, r8
 80025d2:	465b      	mov	r3, fp
 80025d4:	4628      	mov	r0, r5
 80025d6:	2201      	movs	r2, #1
 80025d8:	9402      	str	r4, [sp, #8]
 80025da:	9400      	str	r4, [sp, #0]
 80025dc:	f003 fb78 	bl	8005cd0 <my_masked_and_asm>
 80025e0:	e9d7 2106 	ldrd	r2, r1, [r7, #24]
 80025e4:	687b      	ldr	r3, [r7, #4]
 80025e6:	9400      	str	r4, [sp, #0]
 80025e8:	fb01 3102 	mla	r1, r1, r2, r3
 80025ec:	6dfb      	ldr	r3, [r7, #92]	; 0x5c
 80025ee:	6d3a      	ldr	r2, [r7, #80]	; 0x50
 80025f0:	e9cd 6301 	strd	r6, r3, [sp, #4]
 80025f4:	4628      	mov	r0, r5
 80025f6:	4643      	mov	r3, r8
 80025f8:	f003 fc05 	bl	8005e06 <my_masked_xor_asm>
 80025fc:	372c      	adds	r7, #44	; 0x2c
 80025fe:	46bd      	mov	sp, r7
 8002600:	e8bd 8ff0 	ldmia.w	sp!, {r4, r5, r6, r7, r8, r9, sl, fp, pc}

08002604 <secadd_constant_bmsk>:
 8002604:	e92d 4ff0 	stmdb	sp!, {r4, r5, r6, r7, r8, r9, sl, fp, lr}
 8002608:	b08d      	sub	sp, #52	; 0x34
 800260a:	af04      	add	r7, sp, #16
 800260c:	e9c7 3201 	strd	r3, r2, [r7, #4]
 8002610:	0083      	lsls	r3, r0, #2
 8002612:	3307      	adds	r3, #7
 8002614:	f023 0307 	bic.w	r3, r3, #7
 8002618:	f8c7 d000 	str.w	sp, [r7]
 800261c:	ebad 0d03 	sub.w	sp, sp, r3
 8002620:	f10d 0810 	add.w	r8, sp, #16
 8002624:	ebad 0d03 	sub.w	sp, sp, r3
 8002628:	f10d 0b10 	add.w	fp, sp, #16
 800262c:	ebad 0d03 	sub.w	sp, sp, r3
 8002630:	ab04      	add	r3, sp, #16
 8002632:	617b      	str	r3, [r7, #20]
 8002634:	6dfb      	ldr	r3, [r7, #92]	; 0x5c
 8002636:	f8d7 a050 	ldr.w	sl, [r7, #80]	; 0x50
 800263a:	61f9      	str	r1, [r7, #28]
 800263c:	f013 0301 	ands.w	r3, r3, #1
 8002640:	4681      	mov	r9, r0
 8002642:	f040 80f1 	bne.w	8002828 <secadd_constant_bmsk+0x224>
 8002646:	b3a8      	cbz	r0, 80026b4 <secadd_constant_bmsk+0xb0>
 8002648:	1e42      	subs	r2, r0, #1
 800264a:	2a05      	cmp	r2, #5
 800264c:	f3c8 0580 	ubfx	r5, r8, #2, #1
 8002650:	d914      	bls.n	800267c <secadd_constant_bmsk+0x78>
 8002652:	b10d      	cbz	r5, 8002658 <secadd_constant_bmsk+0x54>
 8002654:	f8c8 3000 	str.w	r3, [r8]
 8002658:	eba9 0605 	sub.w	r6, r9, r5
 800265c:	0874      	lsrs	r4, r6, #1
 800265e:	eb08 0285 	add.w	r2, r8, r5, lsl #2
 8002662:	2000      	movs	r0, #0
 8002664:	2100      	movs	r1, #0
 8002666:	3301      	adds	r3, #1
 8002668:	429c      	cmp	r4, r3
 800266a:	e8e2 0102 	strd	r0, r1, [r2], #8
 800266e:	d1fa      	bne.n	8002666 <secadd_constant_bmsk+0x62>
 8002670:	f026 0201 	bic.w	r2, r6, #1
 8002674:	4296      	cmp	r6, r2
 8002676:	eb05 0302 	add.w	r3, r5, r2
 800267a:	d01b      	beq.n	80026b4 <secadd_constant_bmsk+0xb0>
 800267c:	1c59      	adds	r1, r3, #1
 800267e:	2200      	movs	r2, #0
 8002680:	4589      	cmp	r9, r1
 8002682:	f848 2023 	str.w	r2, [r8, r3, lsl #2]
 8002686:	d915      	bls.n	80026b4 <secadd_constant_bmsk+0xb0>
 8002688:	f848 2021 	str.w	r2, [r8, r1, lsl #2]
 800268c:	1c99      	adds	r1, r3, #2
 800268e:	4589      	cmp	r9, r1
 8002690:	d910      	bls.n	80026b4 <secadd_constant_bmsk+0xb0>
 8002692:	f848 2021 	str.w	r2, [r8, r1, lsl #2]
 8002696:	1cd9      	adds	r1, r3, #3
 8002698:	4589      	cmp	r9, r1
 800269a:	d90b      	bls.n	80026b4 <secadd_constant_bmsk+0xb0>
 800269c:	f848 2021 	str.w	r2, [r8, r1, lsl #2]
 80026a0:	1d19      	adds	r1, r3, #4
 80026a2:	4589      	cmp	r9, r1
 80026a4:	d906      	bls.n	80026b4 <secadd_constant_bmsk+0xb0>
 80026a6:	3305      	adds	r3, #5
 80026a8:	4599      	cmp	r9, r3
 80026aa:	f848 2021 	str.w	r2, [r8, r1, lsl #2]
 80026ae:	d901      	bls.n	80026b4 <secadd_constant_bmsk+0xb0>
 80026b0:	f848 2023 	str.w	r2, [r8, r3, lsl #2]
 80026b4:	6d7b      	ldr	r3, [r7, #84]	; 0x54
 80026b6:	9300      	str	r3, [sp, #0]
 80026b8:	6cba      	ldr	r2, [r7, #72]	; 0x48
 80026ba:	6879      	ldr	r1, [r7, #4]
 80026bc:	4653      	mov	r3, sl
 80026be:	4648      	mov	r0, r9
 80026c0:	f003 fbcb 	bl	8005e5a <copy_sharing_asm>
 80026c4:	69fb      	ldr	r3, [r7, #28]
 80026c6:	2b01      	cmp	r3, #1
 80026c8:	f240 808f 	bls.w	80027ea <secadd_constant_bmsk+0x1e6>
 80026cc:	6dbb      	ldr	r3, [r7, #88]	; 0x58
 80026ce:	6cfa      	ldr	r2, [r7, #76]	; 0x4c
 80026d0:	eb0a 0583 	add.w	r5, sl, r3, lsl #2
 80026d4:	009b      	lsls	r3, r3, #2
 80026d6:	60fb      	str	r3, [r7, #12]
 80026d8:	69fb      	ldr	r3, [r7, #28]
 80026da:	3b01      	subs	r3, #1
 80026dc:	61bb      	str	r3, [r7, #24]
 80026de:	6cfb      	ldr	r3, [r7, #76]	; 0x4c
 80026e0:	009b      	lsls	r3, r3, #2
 80026e2:	613b      	str	r3, [r7, #16]
 80026e4:	687b      	ldr	r3, [r7, #4]
 80026e6:	2401      	movs	r4, #1
 80026e8:	eb03 0a82 	add.w	sl, r3, r2, lsl #2
 80026ec:	464b      	mov	r3, r9
 80026ee:	4626      	mov	r6, r4
 80026f0:	46c1      	mov	r9, r8
 80026f2:	46d8      	mov	r8, fp
 80026f4:	469b      	mov	fp, r3
 80026f6:	e03d      	b.n	8002774 <secadd_constant_bmsk+0x170>
 80026f8:	6e7b      	ldr	r3, [r7, #100]	; 0x64
 80026fa:	9302      	str	r3, [sp, #8]
 80026fc:	6e3b      	ldr	r3, [r7, #96]	; 0x60
 80026fe:	9301      	str	r3, [sp, #4]
 8002700:	6d7b      	ldr	r3, [r7, #84]	; 0x54
 8002702:	9300      	str	r3, [sp, #0]
 8002704:	4641      	mov	r1, r8
 8002706:	462b      	mov	r3, r5
 8002708:	4658      	mov	r0, fp
 800270a:	2201      	movs	r2, #1
 800270c:	f003 fb7b 	bl	8005e06 <my_masked_xor_asm>
 8002710:	e9cd 9601 	strd	r9, r6, [sp, #4]
 8002714:	6d7b      	ldr	r3, [r7, #84]	; 0x54
 8002716:	9300      	str	r3, [sp, #0]
 8002718:	6979      	ldr	r1, [r7, #20]
 800271a:	462b      	mov	r3, r5
 800271c:	4658      	mov	r0, fp
 800271e:	2201      	movs	r2, #1
 8002720:	f003 fb71 	bl	8005e06 <my_masked_xor_asm>
 8002724:	e9cd 9601 	strd	r9, r6, [sp, #4]
 8002728:	9600      	str	r6, [sp, #0]
 800272a:	4643      	mov	r3, r8
 800272c:	6cba      	ldr	r2, [r7, #72]	; 0x48
 800272e:	4651      	mov	r1, sl
 8002730:	4658      	mov	r0, fp
 8002732:	f003 fb68 	bl	8005e06 <my_masked_xor_asm>
 8002736:	69bb      	ldr	r3, [r7, #24]
 8002738:	429c      	cmp	r4, r3
 800273a:	d036      	beq.n	80027aa <secadd_constant_bmsk+0x1a6>
 800273c:	9602      	str	r6, [sp, #8]
 800273e:	697b      	ldr	r3, [r7, #20]
 8002740:	4649      	mov	r1, r9
 8002742:	e9cd 6300 	strd	r6, r3, [sp]
 8002746:	4658      	mov	r0, fp
 8002748:	4643      	mov	r3, r8
 800274a:	2201      	movs	r2, #1
 800274c:	f003 fac0 	bl	8005cd0 <my_masked_and_asm>
 8002750:	6d7b      	ldr	r3, [r7, #84]	; 0x54
 8002752:	9600      	str	r6, [sp, #0]
 8002754:	e9cd 5301 	strd	r5, r3, [sp, #4]
 8002758:	2201      	movs	r2, #1
 800275a:	464b      	mov	r3, r9
 800275c:	4649      	mov	r1, r9
 800275e:	4658      	mov	r0, fp
 8002760:	f003 fb51 	bl	8005e06 <my_masked_xor_asm>
 8002764:	68fb      	ldr	r3, [r7, #12]
 8002766:	441d      	add	r5, r3
 8002768:	693b      	ldr	r3, [r7, #16]
 800276a:	449a      	add	sl, r3
 800276c:	69fb      	ldr	r3, [r7, #28]
 800276e:	3401      	adds	r4, #1
 8002770:	42a3      	cmp	r3, r4
 8002772:	d03a      	beq.n	80027ea <secadd_constant_bmsk+0x1e6>
 8002774:	6dfb      	ldr	r3, [r7, #92]	; 0x5c
 8002776:	40e3      	lsrs	r3, r4
 8002778:	07db      	lsls	r3, r3, #31
 800277a:	d4bd      	bmi.n	80026f8 <secadd_constant_bmsk+0xf4>
 800277c:	e9cd 5601 	strd	r5, r6, [sp, #4]
 8002780:	9600      	str	r6, [sp, #0]
 8002782:	464b      	mov	r3, r9
 8002784:	6cba      	ldr	r2, [r7, #72]	; 0x48
 8002786:	4651      	mov	r1, sl
 8002788:	4658      	mov	r0, fp
 800278a:	f003 fb3c 	bl	8005e06 <my_masked_xor_asm>
 800278e:	69bb      	ldr	r3, [r7, #24]
 8002790:	429c      	cmp	r4, r3
 8002792:	d030      	beq.n	80027f6 <secadd_constant_bmsk+0x1f2>
 8002794:	9501      	str	r5, [sp, #4]
 8002796:	6d7b      	ldr	r3, [r7, #84]	; 0x54
 8002798:	9302      	str	r3, [sp, #8]
 800279a:	9600      	str	r6, [sp, #0]
 800279c:	464b      	mov	r3, r9
 800279e:	2201      	movs	r2, #1
 80027a0:	4649      	mov	r1, r9
 80027a2:	4658      	mov	r0, fp
 80027a4:	f003 fa94 	bl	8005cd0 <my_masked_and_asm>
 80027a8:	e7dc      	b.n	8002764 <secadd_constant_bmsk+0x160>
 80027aa:	465b      	mov	r3, fp
 80027ac:	46c3      	mov	fp, r8
 80027ae:	46c8      	mov	r8, r9
 80027b0:	4699      	mov	r9, r3
 80027b2:	68bb      	ldr	r3, [r7, #8]
 80027b4:	1e5a      	subs	r2, r3, #1
 80027b6:	42a2      	cmp	r2, r4
 80027b8:	d017      	beq.n	80027ea <secadd_constant_bmsk+0x1e6>
 80027ba:	697b      	ldr	r3, [r7, #20]
 80027bc:	9301      	str	r3, [sp, #4]
 80027be:	4641      	mov	r1, r8
 80027c0:	465b      	mov	r3, fp
 80027c2:	4648      	mov	r0, r9
 80027c4:	2201      	movs	r2, #1
 80027c6:	9602      	str	r6, [sp, #8]
 80027c8:	9600      	str	r6, [sp, #0]
 80027ca:	f003 fa81 	bl	8005cd0 <my_masked_and_asm>
 80027ce:	687b      	ldr	r3, [r7, #4]
 80027d0:	69fa      	ldr	r2, [r7, #28]
 80027d2:	6939      	ldr	r1, [r7, #16]
 80027d4:	fb01 3102 	mla	r1, r1, r2, r3
 80027d8:	6d7b      	ldr	r3, [r7, #84]	; 0x54
 80027da:	9600      	str	r6, [sp, #0]
 80027dc:	e9cd 5301 	strd	r5, r3, [sp, #4]
 80027e0:	4648      	mov	r0, r9
 80027e2:	6cba      	ldr	r2, [r7, #72]	; 0x48
 80027e4:	4643      	mov	r3, r8
 80027e6:	f003 fb0e 	bl	8005e06 <my_masked_xor_asm>
 80027ea:	f8d7 d000 	ldr.w	sp, [r7]
 80027ee:	3724      	adds	r7, #36	; 0x24
 80027f0:	46bd      	mov	sp, r7
 80027f2:	e8bd 8ff0 	ldmia.w	sp!, {r4, r5, r6, r7, r8, r9, sl, fp, pc}
 80027f6:	68bb      	ldr	r3, [r7, #8]
 80027f8:	1e5a      	subs	r2, r3, #1
 80027fa:	42a2      	cmp	r2, r4
 80027fc:	46c8      	mov	r8, r9
 80027fe:	d0f4      	beq.n	80027ea <secadd_constant_bmsk+0x1e6>
 8002800:	687b      	ldr	r3, [r7, #4]
 8002802:	69fa      	ldr	r2, [r7, #28]
 8002804:	6939      	ldr	r1, [r7, #16]
 8002806:	fb01 3102 	mla	r1, r1, r2, r3
 800280a:	6d7b      	ldr	r3, [r7, #84]	; 0x54
 800280c:	9600      	str	r6, [sp, #0]
 800280e:	e9cd 5301 	strd	r5, r3, [sp, #4]
 8002812:	4658      	mov	r0, fp
 8002814:	6cba      	ldr	r2, [r7, #72]	; 0x48
 8002816:	4643      	mov	r3, r8
 8002818:	f003 fa5a 	bl	8005cd0 <my_masked_and_asm>
 800281c:	f8d7 d000 	ldr.w	sp, [r7]
 8002820:	3724      	adds	r7, #36	; 0x24
 8002822:	46bd      	mov	sp, r7
 8002824:	e8bd 8ff0 	ldmia.w	sp!, {r4, r5, r6, r7, r8, r9, sl, fp, pc}
 8002828:	6e7b      	ldr	r3, [r7, #100]	; 0x64
 800282a:	9302      	str	r3, [sp, #8]
 800282c:	6e3b      	ldr	r3, [r7, #96]	; 0x60
 800282e:	9301      	str	r3, [sp, #4]
 8002830:	6d7b      	ldr	r3, [r7, #84]	; 0x54
 8002832:	9300      	str	r3, [sp, #0]
 8002834:	4641      	mov	r1, r8
 8002836:	4653      	mov	r3, sl
 8002838:	2201      	movs	r2, #1
 800283a:	f003 fa49 	bl	8005cd0 <my_masked_and_asm>
 800283e:	6e7b      	ldr	r3, [r7, #100]	; 0x64
 8002840:	9302      	str	r3, [sp, #8]
 8002842:	6e3b      	ldr	r3, [r7, #96]	; 0x60
 8002844:	9301      	str	r3, [sp, #4]
 8002846:	6d7b      	ldr	r3, [r7, #84]	; 0x54
 8002848:	9300      	str	r3, [sp, #0]
 800284a:	6cba      	ldr	r2, [r7, #72]	; 0x48
 800284c:	6879      	ldr	r1, [r7, #4]
 800284e:	4653      	mov	r3, sl
 8002850:	4648      	mov	r0, r9
 8002852:	f003 fad8 	bl	8005e06 <my_masked_xor_asm>
 8002856:	e735      	b.n	80026c4 <secadd_constant_bmsk+0xc0>

08002858 <secadd_modp>:
 8002858:	e92d 4ff0 	stmdb	sp!, {r4, r5, r6, r7, r8, r9, sl, fp, lr}
 800285c:	b091      	sub	sp, #68	; 0x44
 800285e:	af08      	add	r7, sp, #32
 8002860:	e9c7 3200 	strd	r3, r2, [r7]
 8002864:	fb01 0300 	mla	r3, r1, r0, r0
 8002868:	009b      	lsls	r3, r3, #2
 800286a:	3307      	adds	r3, #7
 800286c:	f023 0307 	bic.w	r3, r3, #7
 8002870:	4691      	mov	r9, r2
 8002872:	ebad 0d03 	sub.w	sp, sp, r3
 8002876:	e9d7 5217 	ldrd	r5, r2, [r7, #92]	; 0x5c
 800287a:	f10d 0820 	add.w	r8, sp, #32
 800287e:	ebad 0d03 	sub.w	sp, sp, r3
 8002882:	6e7b      	ldr	r3, [r7, #100]	; 0x64
 8002884:	61f9      	str	r1, [r7, #28]
 8002886:	e9cd 2306 	strd	r2, r3, [sp, #24]
 800288a:	9505      	str	r5, [sp, #20]
 800288c:	6dbb      	ldr	r3, [r7, #88]	; 0x58
 800288e:	9304      	str	r3, [sp, #16]
 8002890:	6d7b      	ldr	r3, [r7, #84]	; 0x54
 8002892:	9303      	str	r3, [sp, #12]
 8002894:	6d3b      	ldr	r3, [r7, #80]	; 0x50
 8002896:	1c4e      	adds	r6, r1, #1
 8002898:	2401      	movs	r4, #1
 800289a:	e9cd 0301 	strd	r0, r3, [sp, #4]
 800289e:	9400      	str	r4, [sp, #0]
 80028a0:	4643      	mov	r3, r8
 80028a2:	4632      	mov	r2, r6
 80028a4:	4682      	mov	sl, r0
 80028a6:	40b4      	lsls	r4, r6
 80028a8:	f7ff fdfa 	bl	80024a0 <secadd>
 80028ac:	464b      	mov	r3, r9
 80028ae:	1ae2      	subs	r2, r4, r3
 80028b0:	ea4f 038a 	mov.w	r3, sl, lsl #2
 80028b4:	61bb      	str	r3, [r7, #24]
 80028b6:	3307      	adds	r3, #7
 80028b8:	f023 0307 	bic.w	r3, r3, #7
 80028bc:	a908      	add	r1, sp, #32
 80028be:	f8c7 d00c 	str.w	sp, [r7, #12]
 80028c2:	ebad 0d03 	sub.w	sp, sp, r3
 80028c6:	f10d 0920 	add.w	r9, sp, #32
 80028ca:	ebad 0d03 	sub.w	sp, sp, r3
 80028ce:	f10d 0b20 	add.w	fp, sp, #32
 80028d2:	ebad 0d03 	sub.w	sp, sp, r3
 80028d6:	ab08      	add	r3, sp, #32
 80028d8:	613b      	str	r3, [r7, #16]
 80028da:	f012 0301 	ands.w	r3, r2, #1
 80028de:	617a      	str	r2, [r7, #20]
 80028e0:	60b9      	str	r1, [r7, #8]
 80028e2:	f040 80ca 	bne.w	8002a7a <secadd_modp+0x222>
 80028e6:	f1ba 0f00 	cmp.w	sl, #0
 80028ea:	d037      	beq.n	800295c <secadd_modp+0x104>
 80028ec:	f10a 32ff 	add.w	r2, sl, #4294967295	; 0xffffffff
 80028f0:	2a05      	cmp	r2, #5
 80028f2:	f3c9 0580 	ubfx	r5, r9, #2, #1
 80028f6:	d915      	bls.n	8002924 <secadd_modp+0xcc>
 80028f8:	b10d      	cbz	r5, 80028fe <secadd_modp+0xa6>
 80028fa:	f8c9 3000 	str.w	r3, [r9]
 80028fe:	ebaa 0c05 	sub.w	ip, sl, r5
 8002902:	ea4f 045c 	mov.w	r4, ip, lsr #1
 8002906:	eb09 0285 	add.w	r2, r9, r5, lsl #2
 800290a:	2000      	movs	r0, #0
 800290c:	2100      	movs	r1, #0
 800290e:	3301      	adds	r3, #1
 8002910:	429c      	cmp	r4, r3
 8002912:	e8e2 0102 	strd	r0, r1, [r2], #8
 8002916:	d1fa      	bne.n	800290e <secadd_modp+0xb6>
 8002918:	f02c 0201 	bic.w	r2, ip, #1
 800291c:	4594      	cmp	ip, r2
 800291e:	eb05 0302 	add.w	r3, r5, r2
 8002922:	d01b      	beq.n	800295c <secadd_modp+0x104>
 8002924:	1c59      	adds	r1, r3, #1
 8002926:	2200      	movs	r2, #0
 8002928:	458a      	cmp	sl, r1
 800292a:	f849 2023 	str.w	r2, [r9, r3, lsl #2]
 800292e:	d915      	bls.n	800295c <secadd_modp+0x104>
 8002930:	f849 2021 	str.w	r2, [r9, r1, lsl #2]
 8002934:	1c99      	adds	r1, r3, #2
 8002936:	458a      	cmp	sl, r1
 8002938:	d910      	bls.n	800295c <secadd_modp+0x104>
 800293a:	f849 2021 	str.w	r2, [r9, r1, lsl #2]
 800293e:	1cd9      	adds	r1, r3, #3
 8002940:	458a      	cmp	sl, r1
 8002942:	d90b      	bls.n	800295c <secadd_modp+0x104>
 8002944:	f849 2021 	str.w	r2, [r9, r1, lsl #2]
 8002948:	1d19      	adds	r1, r3, #4
 800294a:	458a      	cmp	sl, r1
 800294c:	d906      	bls.n	800295c <secadd_modp+0x104>
 800294e:	3305      	adds	r3, #5
 8002950:	459a      	cmp	sl, r3
 8002952:	f849 2021 	str.w	r2, [r9, r1, lsl #2]
 8002956:	d901      	bls.n	800295c <secadd_modp+0x104>
 8002958:	f849 2023 	str.w	r2, [r9, r3, lsl #2]
 800295c:	2201      	movs	r2, #1
 800295e:	9200      	str	r2, [sp, #0]
 8002960:	68b9      	ldr	r1, [r7, #8]
 8002962:	4643      	mov	r3, r8
 8002964:	4650      	mov	r0, sl
 8002966:	f003 fa78 	bl	8005e5a <copy_sharing_asm>
 800296a:	2e01      	cmp	r6, #1
 800296c:	d968      	bls.n	8002a40 <secadd_modp+0x1e8>
 800296e:	69bb      	ldr	r3, [r7, #24]
 8002970:	68ba      	ldr	r2, [r7, #8]
 8002972:	2601      	movs	r6, #1
 8002974:	eb08 0503 	add.w	r5, r8, r3
 8002978:	4634      	mov	r4, r6
 800297a:	eb02 0803 	add.w	r8, r2, r3
 800297e:	e040      	b.n	8002a02 <secadd_modp+0x1aa>
 8002980:	4659      	mov	r1, fp
 8002982:	4650      	mov	r0, sl
 8002984:	9400      	str	r4, [sp, #0]
 8002986:	f003 fa68 	bl	8005e5a <copy_sharing_asm>
 800298a:	e9cd 9401 	strd	r9, r4, [sp, #4]
 800298e:	9400      	str	r4, [sp, #0]
 8002990:	6939      	ldr	r1, [r7, #16]
 8002992:	462b      	mov	r3, r5
 8002994:	2201      	movs	r2, #1
 8002996:	4650      	mov	r0, sl
 8002998:	f003 fa35 	bl	8005e06 <my_masked_xor_asm>
 800299c:	465b      	mov	r3, fp
 800299e:	2201      	movs	r2, #1
 80029a0:	4641      	mov	r1, r8
 80029a2:	4650      	mov	r0, sl
 80029a4:	e9cd 9401 	strd	r9, r4, [sp, #4]
 80029a8:	9400      	str	r4, [sp, #0]
 80029aa:	f003 fa2c 	bl	8005e06 <my_masked_xor_asm>
 80029ae:	f8db 2000 	ldr.w	r2, [fp]
 80029b2:	f8d8 3000 	ldr.w	r3, [r8]
 80029b6:	69f8      	ldr	r0, [r7, #28]
 80029b8:	43d1      	mvns	r1, r2
 80029ba:	42b0      	cmp	r0, r6
 80029bc:	ea6f 0203 	mvn.w	r2, r3
 80029c0:	f8cb 1000 	str.w	r1, [fp]
 80029c4:	465b      	mov	r3, fp
 80029c6:	f8c8 2000 	str.w	r2, [r8]
 80029ca:	d039      	beq.n	8002a40 <secadd_modp+0x1e8>
 80029cc:	9402      	str	r4, [sp, #8]
 80029ce:	693a      	ldr	r2, [r7, #16]
 80029d0:	4649      	mov	r1, r9
 80029d2:	e9cd 4200 	strd	r4, r2, [sp]
 80029d6:	4650      	mov	r0, sl
 80029d8:	2201      	movs	r2, #1
 80029da:	f003 f979 	bl	8005cd0 <my_masked_and_asm>
 80029de:	e9cd 5401 	strd	r5, r4, [sp, #4]
 80029e2:	9400      	str	r4, [sp, #0]
 80029e4:	464b      	mov	r3, r9
 80029e6:	2201      	movs	r2, #1
 80029e8:	4649      	mov	r1, r9
 80029ea:	4650      	mov	r0, sl
 80029ec:	f003 fa0b 	bl	8005e06 <my_masked_xor_asm>
 80029f0:	69ba      	ldr	r2, [r7, #24]
 80029f2:	4415      	add	r5, r2
 80029f4:	4490      	add	r8, r2
 80029f6:	69fa      	ldr	r2, [r7, #28]
 80029f8:	42b2      	cmp	r2, r6
 80029fa:	f106 0301 	add.w	r3, r6, #1
 80029fe:	d01f      	beq.n	8002a40 <secadd_modp+0x1e8>
 8002a00:	461e      	mov	r6, r3
 8002a02:	6979      	ldr	r1, [r7, #20]
 8002a04:	40f1      	lsrs	r1, r6
 8002a06:	f011 0f01 	tst.w	r1, #1
 8002a0a:	462b      	mov	r3, r5
 8002a0c:	f04f 0201 	mov.w	r2, #1
 8002a10:	4641      	mov	r1, r8
 8002a12:	d1b5      	bne.n	8002980 <secadd_modp+0x128>
 8002a14:	464b      	mov	r3, r9
 8002a16:	2201      	movs	r2, #1
 8002a18:	9501      	str	r5, [sp, #4]
 8002a1a:	9402      	str	r4, [sp, #8]
 8002a1c:	9400      	str	r4, [sp, #0]
 8002a1e:	4650      	mov	r0, sl
 8002a20:	f003 f9f1 	bl	8005e06 <my_masked_xor_asm>
 8002a24:	69fb      	ldr	r3, [r7, #28]
 8002a26:	42b3      	cmp	r3, r6
 8002a28:	f04f 0201 	mov.w	r2, #1
 8002a2c:	464b      	mov	r3, r9
 8002a2e:	d007      	beq.n	8002a40 <secadd_modp+0x1e8>
 8002a30:	e9cd 5401 	strd	r5, r4, [sp, #4]
 8002a34:	9400      	str	r4, [sp, #0]
 8002a36:	4649      	mov	r1, r9
 8002a38:	4650      	mov	r0, sl
 8002a3a:	f003 f949 	bl	8005cd0 <my_masked_and_asm>
 8002a3e:	e7d7      	b.n	80029f0 <secadd_modp+0x198>
 8002a40:	f8d7 d00c 	ldr.w	sp, [r7, #12]
 8002a44:	687b      	ldr	r3, [r7, #4]
 8002a46:	e9cd a304 	strd	sl, r3, [sp, #16]
 8002a4a:	68bc      	ldr	r4, [r7, #8]
 8002a4c:	9402      	str	r4, [sp, #8]
 8002a4e:	6cfb      	ldr	r3, [r7, #76]	; 0x4c
 8002a50:	9301      	str	r3, [sp, #4]
 8002a52:	6cbb      	ldr	r3, [r7, #72]	; 0x48
 8002a54:	9300      	str	r3, [sp, #0]
 8002a56:	69fa      	ldr	r2, [r7, #28]
 8002a58:	683b      	ldr	r3, [r7, #0]
 8002a5a:	fb02 f00a 	mul.w	r0, r2, sl
 8002a5e:	eb04 0080 	add.w	r0, r4, r0, lsl #2
 8002a62:	2401      	movs	r4, #1
 8002a64:	9006      	str	r0, [sp, #24]
 8002a66:	4611      	mov	r1, r2
 8002a68:	4650      	mov	r0, sl
 8002a6a:	9407      	str	r4, [sp, #28]
 8002a6c:	9403      	str	r4, [sp, #12]
 8002a6e:	f7ff fdc9 	bl	8002604 <secadd_constant_bmsk>
 8002a72:	3724      	adds	r7, #36	; 0x24
 8002a74:	46bd      	mov	sp, r7
 8002a76:	e8bd 8ff0 	ldmia.w	sp!, {r4, r5, r6, r7, r8, r9, sl, fp, pc}
 8002a7a:	f1ba 0f00 	cmp.w	sl, #0
 8002a7e:	d01d      	beq.n	8002abc <secadd_modp+0x264>
 8002a80:	ea48 0309 	orr.w	r3, r8, r9
 8002a84:	075b      	lsls	r3, r3, #29
 8002a86:	d125      	bne.n	8002ad4 <secadd_modp+0x27c>
 8002a88:	f10a 33ff 	add.w	r3, sl, #4294967295	; 0xffffffff
 8002a8c:	2b0a      	cmp	r3, #10
 8002a8e:	d921      	bls.n	8002ad4 <secadd_modp+0x27c>
 8002a90:	ea4f 045a 	mov.w	r4, sl, lsr #1
 8002a94:	eb09 04c4 	add.w	r4, r9, r4, lsl #3
 8002a98:	f1a8 0008 	sub.w	r0, r8, #8
 8002a9c:	4649      	mov	r1, r9
 8002a9e:	e9f0 2302 	ldrd	r2, r3, [r0, #8]!
 8002aa2:	e8e1 2302 	strd	r2, r3, [r1], #8
 8002aa6:	42a1      	cmp	r1, r4
 8002aa8:	d1f9      	bne.n	8002a9e <secadd_modp+0x246>
 8002aaa:	f01a 0f01 	tst.w	sl, #1
 8002aae:	f02a 0301 	bic.w	r3, sl, #1
 8002ab2:	d003      	beq.n	8002abc <secadd_modp+0x264>
 8002ab4:	f858 2023 	ldr.w	r2, [r8, r3, lsl #2]
 8002ab8:	f849 2023 	str.w	r2, [r9, r3, lsl #2]
 8002abc:	2201      	movs	r2, #1
 8002abe:	9200      	str	r2, [sp, #0]
 8002ac0:	68bc      	ldr	r4, [r7, #8]
 8002ac2:	4643      	mov	r3, r8
 8002ac4:	4621      	mov	r1, r4
 8002ac6:	4650      	mov	r0, sl
 8002ac8:	f003 f9c7 	bl	8005e5a <copy_sharing_asm>
 8002acc:	6823      	ldr	r3, [r4, #0]
 8002ace:	43db      	mvns	r3, r3
 8002ad0:	6023      	str	r3, [r4, #0]
 8002ad2:	e74a      	b.n	800296a <secadd_modp+0x112>
 8002ad4:	69bb      	ldr	r3, [r7, #24]
 8002ad6:	1f18      	subs	r0, r3, #4
 8002ad8:	4440      	add	r0, r8
 8002ada:	f1a8 0304 	sub.w	r3, r8, #4
 8002ade:	f1a9 0204 	sub.w	r2, r9, #4
 8002ae2:	f853 1f04 	ldr.w	r1, [r3, #4]!
 8002ae6:	f842 1f04 	str.w	r1, [r2, #4]!
 8002aea:	4283      	cmp	r3, r0
 8002aec:	d1f9      	bne.n	8002ae2 <secadd_modp+0x28a>
 8002aee:	e7e5      	b.n	8002abc <secadd_modp+0x264>

08002af0 <seca2b_modp>:
 8002af0:	e92d 4ff0 	stmdb	sp!, {r4, r5, r6, r7, r8, r9, sl, fp, lr}
 8002af4:	b09b      	sub	sp, #108	; 0x6c
 8002af6:	af08      	add	r7, sp, #32
 8002af8:	2801      	cmp	r0, #1
 8002afa:	e9c7 3206 	strd	r3, r2, [r7, #24]
 8002afe:	4680      	mov	r8, r0
 8002b00:	63b9      	str	r1, [r7, #56]	; 0x38
 8002b02:	f000 816e 	beq.w	8002de2 <seca2b_modp+0x2f2>
 8002b06:	4668      	mov	r0, sp
 8002b08:	6038      	str	r0, [r7, #0]
 8002b0a:	6f78      	ldr	r0, [r7, #116]	; 0x74
 8002b0c:	9001      	str	r0, [sp, #4]
 8002b0e:	6f38      	ldr	r0, [r7, #112]	; 0x70
 8002b10:	9000      	str	r0, [sp, #0]
 8002b12:	ea4f 0958 	mov.w	r9, r8, lsr #1
 8002b16:	4648      	mov	r0, r9
 8002b18:	f7ff ffea 	bl	8002af0 <seca2b_modp>
 8002b1c:	6f7b      	ldr	r3, [r7, #116]	; 0x74
 8002b1e:	9301      	str	r3, [sp, #4]
 8002b20:	6f3b      	ldr	r3, [r7, #112]	; 0x70
 8002b22:	9300      	str	r3, [sp, #0]
 8002b24:	6f3b      	ldr	r3, [r7, #112]	; 0x70
 8002b26:	6bb9      	ldr	r1, [r7, #56]	; 0x38
 8002b28:	f8d7 a018 	ldr.w	sl, [r7, #24]
 8002b2c:	69fa      	ldr	r2, [r7, #28]
 8002b2e:	fb03 f409 	mul.w	r4, r3, r9
 8002b32:	1c4d      	adds	r5, r1, #1
 8002b34:	eba8 0058 	sub.w	r0, r8, r8, lsr #1
 8002b38:	eb0a 0484 	add.w	r4, sl, r4, lsl #2
 8002b3c:	60fd      	str	r5, [r7, #12]
 8002b3e:	6338      	str	r0, [r7, #48]	; 0x30
 8002b40:	4623      	mov	r3, r4
 8002b42:	468b      	mov	fp, r1
 8002b44:	f7ff ffd4 	bl	8002af0 <seca2b_modp>
 8002b48:	00ab      	lsls	r3, r5, #2
 8002b4a:	607b      	str	r3, [r7, #4]
 8002b4c:	fb03 f308 	mul.w	r3, r3, r8
 8002b50:	3307      	adds	r3, #7
 8002b52:	f023 0307 	bic.w	r3, r3, #7
 8002b56:	ebad 0d03 	sub.w	sp, sp, r3
 8002b5a:	4628      	mov	r0, r5
 8002b5c:	ad08      	add	r5, sp, #32
 8002b5e:	ebad 0d03 	sub.w	sp, sp, r3
 8002b62:	ae08      	add	r6, sp, #32
 8002b64:	ebad 0d03 	sub.w	sp, sp, r3
 8002b68:	6f7b      	ldr	r3, [r7, #116]	; 0x74
 8002b6a:	63fd      	str	r5, [r7, #60]	; 0x3c
 8002b6c:	9304      	str	r3, [sp, #16]
 8002b6e:	6f3b      	ldr	r3, [r7, #112]	; 0x70
 8002b70:	2201      	movs	r2, #1
 8002b72:	e9cd a302 	strd	sl, r3, [sp, #8]
 8002b76:	e9cd 2800 	strd	r2, r8, [sp]
 8002b7a:	fa02 f300 	lsl.w	r3, r2, r0
 8002b7e:	69fa      	ldr	r2, [r7, #28]
 8002b80:	f10d 0c20 	add.w	ip, sp, #32
 8002b84:	1a9b      	subs	r3, r3, r2
 8002b86:	9305      	str	r3, [sp, #20]
 8002b88:	4602      	mov	r2, r0
 8002b8a:	462b      	mov	r3, r5
 8002b8c:	4659      	mov	r1, fp
 8002b8e:	4605      	mov	r5, r0
 8002b90:	f8c7 c008 	str.w	ip, [r7, #8]
 8002b94:	4648      	mov	r0, r9
 8002b96:	f7ff fb19 	bl	80021cc <secadd_constant>
 8002b9a:	2d00      	cmp	r5, #0
 8002b9c:	f000 80f6 	beq.w	8002d8c <seca2b_modp+0x29c>
 8002ba0:	6f79      	ldr	r1, [r7, #116]	; 0x74
 8002ba2:	6b3a      	ldr	r2, [r7, #48]	; 0x30
 8002ba4:	0089      	lsls	r1, r1, #2
 8002ba6:	4623      	mov	r3, r4
 8002ba8:	2400      	movs	r4, #0
 8002baa:	e9c7 4910 	strd	r4, r9, [r7, #64]	; 0x40
 8002bae:	62f9      	str	r1, [r7, #44]	; 0x2c
 8002bb0:	f109 31ff 	add.w	r1, r9, #4294967295	; 0xffffffff
 8002bb4:	f022 0001 	bic.w	r0, r2, #1
 8002bb8:	62b9      	str	r1, [r7, #40]	; 0x28
 8002bba:	0851      	lsrs	r1, r2, #1
 8002bbc:	6179      	str	r1, [r7, #20]
 8002bbe:	3a01      	subs	r2, #1
 8002bc0:	eb09 0100 	add.w	r1, r9, r0
 8002bc4:	6379      	str	r1, [r7, #52]	; 0x34
 8002bc6:	627a      	str	r2, [r7, #36]	; 0x24
 8002bc8:	6c39      	ldr	r1, [r7, #64]	; 0x40
 8002bca:	6bba      	ldr	r2, [r7, #56]	; 0x38
 8002bcc:	6138      	str	r0, [r7, #16]
 8002bce:	428a      	cmp	r2, r1
 8002bd0:	4625      	mov	r5, r4
 8002bd2:	f04f 0a00 	mov.w	sl, #0
 8002bd6:	f04f 0b00 	mov.w	fp, #0
 8002bda:	f200 80a2 	bhi.w	8002d22 <seca2b_modp+0x232>
 8002bde:	f1b9 0f00 	cmp.w	r9, #0
 8002be2:	d03d      	beq.n	8002c60 <seca2b_modp+0x170>
 8002be4:	6aba      	ldr	r2, [r7, #40]	; 0x28
 8002be6:	eb06 0084 	add.w	r0, r6, r4, lsl #2
 8002bea:	2a05      	cmp	r2, #5
 8002bec:	f3c0 0080 	ubfx	r0, r0, #2, #1
 8002bf0:	f240 80fd 	bls.w	8002dee <seca2b_modp+0x2fe>
 8002bf4:	b108      	cbz	r0, 8002bfa <seca2b_modp+0x10a>
 8002bf6:	f846 5024 	str.w	r5, [r6, r4, lsl #2]
 8002bfa:	eba9 0e00 	sub.w	lr, r9, r0
 8002bfe:	1821      	adds	r1, r4, r0
 8002c00:	eb06 0181 	add.w	r1, r6, r1, lsl #2
 8002c04:	ea4f 0c5e 	mov.w	ip, lr, lsr #1
 8002c08:	2200      	movs	r2, #0
 8002c0a:	3201      	adds	r2, #1
 8002c0c:	4562      	cmp	r2, ip
 8002c0e:	e8e1 ab02 	strd	sl, fp, [r1], #8
 8002c12:	d1fa      	bne.n	8002c0a <seca2b_modp+0x11a>
 8002c14:	f02e 0201 	bic.w	r2, lr, #1
 8002c18:	4596      	cmp	lr, r2
 8002c1a:	4410      	add	r0, r2
 8002c1c:	d020      	beq.n	8002c60 <seca2b_modp+0x170>
 8002c1e:	1822      	adds	r2, r4, r0
 8002c20:	f846 5022 	str.w	r5, [r6, r2, lsl #2]
 8002c24:	1c42      	adds	r2, r0, #1
 8002c26:	4591      	cmp	r9, r2
 8002c28:	d91a      	bls.n	8002c60 <seca2b_modp+0x170>
 8002c2a:	4422      	add	r2, r4
 8002c2c:	f846 5022 	str.w	r5, [r6, r2, lsl #2]
 8002c30:	1c82      	adds	r2, r0, #2
 8002c32:	4591      	cmp	r9, r2
 8002c34:	d914      	bls.n	8002c60 <seca2b_modp+0x170>
 8002c36:	4422      	add	r2, r4
 8002c38:	f846 5022 	str.w	r5, [r6, r2, lsl #2]
 8002c3c:	1cc2      	adds	r2, r0, #3
 8002c3e:	4591      	cmp	r9, r2
 8002c40:	d90e      	bls.n	8002c60 <seca2b_modp+0x170>
 8002c42:	4422      	add	r2, r4
 8002c44:	f846 5022 	str.w	r5, [r6, r2, lsl #2]
 8002c48:	1d02      	adds	r2, r0, #4
 8002c4a:	4591      	cmp	r9, r2
 8002c4c:	d908      	bls.n	8002c60 <seca2b_modp+0x170>
 8002c4e:	4422      	add	r2, r4
 8002c50:	3005      	adds	r0, #5
 8002c52:	4581      	cmp	r9, r0
 8002c54:	f846 5022 	str.w	r5, [r6, r2, lsl #2]
 8002c58:	d902      	bls.n	8002c60 <seca2b_modp+0x170>
 8002c5a:	4420      	add	r0, r4
 8002c5c:	f846 5020 	str.w	r5, [r6, r0, lsl #2]
 8002c60:	45c1      	cmp	r9, r8
 8002c62:	d24c      	bcs.n	8002cfe <seca2b_modp+0x20e>
 8002c64:	6bba      	ldr	r2, [r7, #56]	; 0x38
 8002c66:	6c39      	ldr	r1, [r7, #64]	; 0x40
 8002c68:	428a      	cmp	r2, r1
 8002c6a:	d966      	bls.n	8002d3a <seca2b_modp+0x24a>
 8002c6c:	6bf8      	ldr	r0, [r7, #60]	; 0x3c
 8002c6e:	f8d7 c044 	ldr.w	ip, [r7, #68]	; 0x44
 8002c72:	6a79      	ldr	r1, [r7, #36]	; 0x24
 8002c74:	eb00 028c 	add.w	r2, r0, ip, lsl #2
 8002c78:	2905      	cmp	r1, #5
 8002c7a:	f3c2 0280 	ubfx	r2, r2, #2, #1
 8002c7e:	f240 80c2 	bls.w	8002e06 <seca2b_modp+0x316>
 8002c82:	2a00      	cmp	r2, #0
 8002c84:	f000 80b1 	beq.w	8002dea <seca2b_modp+0x2fa>
 8002c88:	f840 502c 	str.w	r5, [r0, ip, lsl #2]
 8002c8c:	f109 0001 	add.w	r0, r9, #1
 8002c90:	6b39      	ldr	r1, [r7, #48]	; 0x30
 8002c92:	eba1 0e02 	sub.w	lr, r1, r2
 8002c96:	6c79      	ldr	r1, [r7, #68]	; 0x44
 8002c98:	440a      	add	r2, r1
 8002c9a:	6bf9      	ldr	r1, [r7, #60]	; 0x3c
 8002c9c:	ea4f 0c5e 	mov.w	ip, lr, lsr #1
 8002ca0:	eb01 0282 	add.w	r2, r1, r2, lsl #2
 8002ca4:	2100      	movs	r1, #0
 8002ca6:	3101      	adds	r1, #1
 8002ca8:	4561      	cmp	r1, ip
 8002caa:	e8e2 ab02 	strd	sl, fp, [r2], #8
 8002cae:	d1fa      	bne.n	8002ca6 <seca2b_modp+0x1b6>
 8002cb0:	f02e 0201 	bic.w	r2, lr, #1
 8002cb4:	4596      	cmp	lr, r2
 8002cb6:	4410      	add	r0, r2
 8002cb8:	d021      	beq.n	8002cfe <seca2b_modp+0x20e>
 8002cba:	1902      	adds	r2, r0, r4
 8002cbc:	6bf9      	ldr	r1, [r7, #60]	; 0x3c
 8002cbe:	f841 5022 	str.w	r5, [r1, r2, lsl #2]
 8002cc2:	1c42      	adds	r2, r0, #1
 8002cc4:	4590      	cmp	r8, r2
 8002cc6:	d91a      	bls.n	8002cfe <seca2b_modp+0x20e>
 8002cc8:	4422      	add	r2, r4
 8002cca:	f841 5022 	str.w	r5, [r1, r2, lsl #2]
 8002cce:	1c82      	adds	r2, r0, #2
 8002cd0:	4590      	cmp	r8, r2
 8002cd2:	d914      	bls.n	8002cfe <seca2b_modp+0x20e>
 8002cd4:	4422      	add	r2, r4
 8002cd6:	f841 5022 	str.w	r5, [r1, r2, lsl #2]
 8002cda:	1cc2      	adds	r2, r0, #3
 8002cdc:	4590      	cmp	r8, r2
 8002cde:	d90e      	bls.n	8002cfe <seca2b_modp+0x20e>
 8002ce0:	4422      	add	r2, r4
 8002ce2:	f841 5022 	str.w	r5, [r1, r2, lsl #2]
 8002ce6:	1d02      	adds	r2, r0, #4
 8002ce8:	4590      	cmp	r8, r2
 8002cea:	d908      	bls.n	8002cfe <seca2b_modp+0x20e>
 8002cec:	4422      	add	r2, r4
 8002cee:	3005      	adds	r0, #5
 8002cf0:	4580      	cmp	r8, r0
 8002cf2:	f841 5022 	str.w	r5, [r1, r2, lsl #2]
 8002cf6:	d902      	bls.n	8002cfe <seca2b_modp+0x20e>
 8002cf8:	4420      	add	r0, r4
 8002cfa:	f841 5020 	str.w	r5, [r1, r0, lsl #2]
 8002cfe:	6c7a      	ldr	r2, [r7, #68]	; 0x44
 8002d00:	6c39      	ldr	r1, [r7, #64]	; 0x40
 8002d02:	6bb8      	ldr	r0, [r7, #56]	; 0x38
 8002d04:	4442      	add	r2, r8
 8002d06:	647a      	str	r2, [r7, #68]	; 0x44
 8002d08:	6afa      	ldr	r2, [r7, #44]	; 0x2c
 8002d0a:	4288      	cmp	r0, r1
 8002d0c:	4413      	add	r3, r2
 8002d0e:	4444      	add	r4, r8
 8002d10:	f101 0201 	add.w	r2, r1, #1
 8002d14:	d03a      	beq.n	8002d8c <seca2b_modp+0x29c>
 8002d16:	643a      	str	r2, [r7, #64]	; 0x40
 8002d18:	6c39      	ldr	r1, [r7, #64]	; 0x40
 8002d1a:	4602      	mov	r2, r0
 8002d1c:	428a      	cmp	r2, r1
 8002d1e:	f67f af5e 	bls.w	8002bde <seca2b_modp+0xee>
 8002d22:	6f3a      	ldr	r2, [r7, #112]	; 0x70
 8002d24:	9200      	str	r2, [sp, #0]
 8002d26:	6c79      	ldr	r1, [r7, #68]	; 0x44
 8002d28:	623b      	str	r3, [r7, #32]
 8002d2a:	6b38      	ldr	r0, [r7, #48]	; 0x30
 8002d2c:	2201      	movs	r2, #1
 8002d2e:	eb06 0181 	add.w	r1, r6, r1, lsl #2
 8002d32:	f003 f892 	bl	8005e5a <copy_sharing_asm>
 8002d36:	6a3b      	ldr	r3, [r7, #32]
 8002d38:	e751      	b.n	8002bde <seca2b_modp+0xee>
 8002d3a:	6c78      	ldr	r0, [r7, #68]	; 0x44
 8002d3c:	6bfa      	ldr	r2, [r7, #60]	; 0x3c
 8002d3e:	eb06 0180 	add.w	r1, r6, r0, lsl #2
 8002d42:	eb02 0280 	add.w	r2, r2, r0, lsl #2
 8002d46:	ea41 0c02 	orr.w	ip, r1, r2
 8002d4a:	f01c 0f07 	tst.w	ip, #7
 8002d4e:	ea4f 0e80 	mov.w	lr, r0, lsl #2
 8002d52:	623a      	str	r2, [r7, #32]
 8002d54:	d14d      	bne.n	8002df2 <seca2b_modp+0x302>
 8002d56:	6a78      	ldr	r0, [r7, #36]	; 0x24
 8002d58:	280c      	cmp	r0, #12
 8002d5a:	d94a      	bls.n	8002df2 <seca2b_modp+0x302>
 8002d5c:	f1a6 0108 	sub.w	r1, r6, #8
 8002d60:	6978      	ldr	r0, [r7, #20]
 8002d62:	448e      	add	lr, r1
 8002d64:	2100      	movs	r1, #0
 8002d66:	3101      	adds	r1, #1
 8002d68:	4281      	cmp	r1, r0
 8002d6a:	e9ee ab02 	strd	sl, fp, [lr, #8]!
 8002d6e:	e8e2 ab02 	strd	sl, fp, [r2], #8
 8002d72:	d1f8      	bne.n	8002d66 <seca2b_modp+0x276>
 8002d74:	6b3a      	ldr	r2, [r7, #48]	; 0x30
 8002d76:	6939      	ldr	r1, [r7, #16]
 8002d78:	428a      	cmp	r2, r1
 8002d7a:	d0c0      	beq.n	8002cfe <seca2b_modp+0x20e>
 8002d7c:	6b7a      	ldr	r2, [r7, #52]	; 0x34
 8002d7e:	6bf9      	ldr	r1, [r7, #60]	; 0x3c
 8002d80:	4422      	add	r2, r4
 8002d82:	f846 5022 	str.w	r5, [r6, r2, lsl #2]
 8002d86:	f841 5022 	str.w	r5, [r1, r2, lsl #2]
 8002d8a:	e7b8      	b.n	8002cfe <seca2b_modp+0x20e>
 8002d8c:	6bfb      	ldr	r3, [r7, #60]	; 0x3c
 8002d8e:	9305      	str	r3, [sp, #20]
 8002d90:	2401      	movs	r4, #1
 8002d92:	9602      	str	r6, [sp, #8]
 8002d94:	f8cd 801c 	str.w	r8, [sp, #28]
 8002d98:	f8cd 8010 	str.w	r8, [sp, #16]
 8002d9c:	f8cd 8004 	str.w	r8, [sp, #4]
 8002da0:	9406      	str	r4, [sp, #24]
 8002da2:	9403      	str	r4, [sp, #12]
 8002da4:	9400      	str	r4, [sp, #0]
 8002da6:	68bd      	ldr	r5, [r7, #8]
 8002da8:	68fa      	ldr	r2, [r7, #12]
 8002daa:	462b      	mov	r3, r5
 8002dac:	4611      	mov	r1, r2
 8002dae:	4640      	mov	r0, r8
 8002db0:	f7ff fb76 	bl	80024a0 <secadd>
 8002db4:	69fb      	ldr	r3, [r7, #28]
 8002db6:	9305      	str	r3, [sp, #20]
 8002db8:	6f7b      	ldr	r3, [r7, #116]	; 0x74
 8002dba:	9301      	str	r3, [sp, #4]
 8002dbc:	6f3b      	ldr	r3, [r7, #112]	; 0x70
 8002dbe:	9300      	str	r3, [sp, #0]
 8002dc0:	687b      	ldr	r3, [r7, #4]
 8002dc2:	9502      	str	r5, [sp, #8]
 8002dc4:	3b04      	subs	r3, #4
 8002dc6:	fb08 5303 	mla	r3, r8, r3, r5
 8002dca:	e9cd 3406 	strd	r3, r4, [sp, #24]
 8002dce:	e9cd 4803 	strd	r4, r8, [sp, #12]
 8002dd2:	6bba      	ldr	r2, [r7, #56]	; 0x38
 8002dd4:	69bb      	ldr	r3, [r7, #24]
 8002dd6:	4611      	mov	r1, r2
 8002dd8:	4640      	mov	r0, r8
 8002dda:	f7ff fc13 	bl	8002604 <secadd_constant_bmsk>
 8002dde:	f8d7 d000 	ldr.w	sp, [r7]
 8002de2:	374c      	adds	r7, #76	; 0x4c
 8002de4:	46bd      	mov	sp, r7
 8002de6:	e8bd 8ff0 	ldmia.w	sp!, {r4, r5, r6, r7, r8, r9, sl, fp, pc}
 8002dea:	4648      	mov	r0, r9
 8002dec:	e750      	b.n	8002c90 <seca2b_modp+0x1a0>
 8002dee:	2000      	movs	r0, #0
 8002df0:	e715      	b.n	8002c1e <seca2b_modp+0x12e>
 8002df2:	6a38      	ldr	r0, [r7, #32]
 8002df4:	464a      	mov	r2, r9
 8002df6:	3201      	adds	r2, #1
 8002df8:	4590      	cmp	r8, r2
 8002dfa:	f841 5b04 	str.w	r5, [r1], #4
 8002dfe:	f840 5b04 	str.w	r5, [r0], #4
 8002e02:	d1f8      	bne.n	8002df6 <seca2b_modp+0x306>
 8002e04:	e77b      	b.n	8002cfe <seca2b_modp+0x20e>
 8002e06:	4648      	mov	r0, r9
 8002e08:	e757      	b.n	8002cba <seca2b_modp+0x1ca>
 8002e0a:	bf00      	nop

08002e0c <RefreshIOS_rec>:
 8002e0c:	2901      	cmp	r1, #1
 8002e0e:	d011      	beq.n	8002e34 <RefreshIOS_rec+0x28>
 8002e10:	2902      	cmp	r1, #2
 8002e12:	d001      	beq.n	8002e18 <RefreshIOS_rec+0xc>
 8002e14:	f7fe b87c 	b.w	8000f10 <RefreshIOS_rec.part.0>
 8002e18:	b570      	push	{r4, r5, r6, lr}
 8002e1a:	4615      	mov	r5, r2
 8002e1c:	461c      	mov	r4, r3
 8002e1e:	f7fd f8ef 	bl	8000000 <get_random>
 8002e22:	682b      	ldr	r3, [r5, #0]
 8002e24:	4043      	eors	r3, r0
 8002e26:	602b      	str	r3, [r5, #0]
 8002e28:	f855 3024 	ldr.w	r3, [r5, r4, lsl #2]
 8002e2c:	4058      	eors	r0, r3
 8002e2e:	f845 0024 	str.w	r0, [r5, r4, lsl #2]
 8002e32:	bd70      	pop	{r4, r5, r6, pc}
 8002e34:	4770      	bx	lr
 8002e36:	bf00      	nop

08002e38 <cipher>:
 8002e38:	e92d 4ff0 	stmdb	sp!, {r4, r5, r6, r7, r8, r9, sl, fp, lr}
 8002e3c:	b0df      	sub	sp, #380	; 0x17c
 8002e3e:	466c      	mov	r4, sp
 8002e40:	eba4 14c0 	sub.w	r4, r4, r0, lsl #7
 8002e44:	af06      	add	r7, sp, #24
 8002e46:	46a5      	mov	sp, r4
 8002e48:	eba4 14c0 	sub.w	r4, r4, r0, lsl #7
 8002e4c:	f10d 0918 	add.w	r9, sp, #24
 8002e50:	46a5      	mov	sp, r4
 8002e52:	e9c7 324d 	strd	r3, r2, [r7, #308]	; 0x134
 8002e56:	f8c7 0124 	str.w	r0, [r7, #292]	; 0x124
 8002e5a:	4602      	mov	r2, r0
 8002e5c:	eb00 0340 	add.w	r3, r0, r0, lsl #1
 8002e60:	4668      	mov	r0, sp
 8002e62:	eba0 1043 	sub.w	r0, r0, r3, lsl #5
 8002e66:	f10d 0818 	add.w	r8, sp, #24
 8002e6a:	4685      	mov	sp, r0
 8002e6c:	a806      	add	r0, sp, #24
 8002e6e:	f8c7 013c 	str.w	r0, [r7, #316]	; 0x13c
 8002e72:	4668      	mov	r0, sp
 8002e74:	eba0 1343 	sub.w	r3, r0, r3, lsl #5
 8002e78:	469d      	mov	sp, r3
 8002e7a:	a806      	add	r0, sp, #24
 8002e7c:	4613      	mov	r3, r2
 8002e7e:	f8c7 014c 	str.w	r0, [r7, #332]	; 0x14c
 8002e82:	0052      	lsls	r2, r2, #1
 8002e84:	1e58      	subs	r0, r3, #1
 8002e86:	f8c7 112c 	str.w	r1, [r7, #300]	; 0x12c
 8002e8a:	f8c7 2130 	str.w	r2, [r7, #304]	; 0x130
 8002e8e:	f8c7 0140 	str.w	r0, [r7, #320]	; 0x140
 8002e92:	f001 843b 	beq.w	800470c <cipher+0x18d4>
 8002e96:	ea4f 0b83 	mov.w	fp, r3, lsl #2
 8002e9a:	fa1f fa81 	uxth.w	sl, r1
 8002e9e:	f8c7 2144 	str.w	r2, [r7, #324]	; 0x144
 8002ea2:	eb09 1183 	add.w	r1, r9, r3, lsl #6
 8002ea6:	2200      	movs	r2, #0
 8002ea8:	f8c7 2148 	str.w	r2, [r7, #328]	; 0x148
 8002eac:	eb08 1383 	add.w	r3, r8, r3, lsl #6
 8002eb0:	465a      	mov	r2, fp
 8002eb2:	468b      	mov	fp, r1
 8002eb4:	f8d7 1148 	ldr.w	r1, [r7, #328]	; 0x148
 8002eb8:	f8d7 4144 	ldr.w	r4, [r7, #324]	; 0x144
 8002ebc:	004d      	lsls	r5, r1, #1
 8002ebe:	2610      	movs	r6, #16
 8002ec0:	f507 70ae 	add.w	r0, r7, #348	; 0x15c
 8002ec4:	e9c7 2354 	strd	r2, r3, [r7, #336]	; 0x150
 8002ec8:	f7fd f8ac 	bl	8000024 <rand_q>
 8002ecc:	f9b7 115c 	ldrsh.w	r1, [r7, #348]	; 0x15c
 8002ed0:	f829 1005 	strh.w	r1, [r9, r5]
 8002ed4:	ebaa 0101 	sub.w	r1, sl, r1
 8002ed8:	f828 1005 	strh.w	r1, [r8, r5]
 8002edc:	f9b7 115e 	ldrsh.w	r1, [r7, #350]	; 0x15e
 8002ee0:	f829 1004 	strh.w	r1, [r9, r4]
 8002ee4:	ebaa 0101 	sub.w	r1, sl, r1
 8002ee8:	f828 1004 	strh.w	r1, [r8, r4]
 8002eec:	f507 70ae 	add.w	r0, r7, #348	; 0x15c
 8002ef0:	f7fd f898 	bl	8000024 <rand_q>
 8002ef4:	f9b7 115c 	ldrsh.w	r1, [r7, #348]	; 0x15c
 8002ef8:	f8d7 3154 	ldr.w	r3, [r7, #340]	; 0x154
 8002efc:	f82b 1005 	strh.w	r1, [fp, r5]
 8002f00:	ebaa 0101 	sub.w	r1, sl, r1
 8002f04:	5359      	strh	r1, [r3, r5]
 8002f06:	f9b7 115e 	ldrsh.w	r1, [r7, #350]	; 0x15e
 8002f0a:	f8d7 2150 	ldr.w	r2, [r7, #336]	; 0x150
 8002f0e:	f82b 1004 	strh.w	r1, [fp, r4]
 8002f12:	3e01      	subs	r6, #1
 8002f14:	ebaa 0101 	sub.w	r1, sl, r1
 8002f18:	5319      	strh	r1, [r3, r4]
 8002f1a:	4415      	add	r5, r2
 8002f1c:	4414      	add	r4, r2
 8002f1e:	d1cf      	bne.n	8002ec0 <cipher+0x88>
 8002f20:	f8d7 0144 	ldr.w	r0, [r7, #324]	; 0x144
 8002f24:	f8d7 1148 	ldr.w	r1, [r7, #328]	; 0x148
 8002f28:	3002      	adds	r0, #2
 8002f2a:	f8c7 0144 	str.w	r0, [r7, #324]	; 0x144
 8002f2e:	f8d7 0140 	ldr.w	r0, [r7, #320]	; 0x140
 8002f32:	3101      	adds	r1, #1
 8002f34:	4281      	cmp	r1, r0
 8002f36:	f8c7 1148 	str.w	r1, [r7, #328]	; 0x148
 8002f3a:	d1bb      	bne.n	8002eb4 <cipher+0x7c>
 8002f3c:	f8cd 8000 	str.w	r8, [sp]
 8002f40:	f8d7 5124 	ldr.w	r5, [r7, #292]	; 0x124
 8002f44:	9501      	str	r5, [sp, #4]
 8002f46:	f8d7 413c 	ldr.w	r4, [r7, #316]	; 0x13c
 8002f4a:	f8d7 8140 	ldr.w	r8, [r7, #320]	; 0x140
 8002f4e:	4693      	mov	fp, r2
 8002f50:	462b      	mov	r3, r5
 8002f52:	2201      	movs	r2, #1
 8002f54:	4621      	mov	r1, r4
 8002f56:	4640      	mov	r0, r8
 8002f58:	f7fd f97e 	bl	8000258 <masked_dense2bitslice_opt.constprop.0>
 8002f5c:	f8d7 1130 	ldr.w	r1, [r7, #304]	; 0x130
 8002f60:	f844 6028 	str.w	r6, [r4, r8, lsl #2]
 8002f64:	194b      	adds	r3, r1, r5
 8002f66:	eb0b 0205 	add.w	r2, fp, r5
 8002f6a:	eb05 0242 	add.w	r2, r5, r2, lsl #1
 8002f6e:	eb05 0183 	add.w	r1, r5, r3, lsl #2
 8002f72:	1a88      	subs	r0, r1, r2
 8002f74:	3901      	subs	r1, #1
 8002f76:	f844 6021 	str.w	r6, [r4, r1, lsl #2]
 8002f7a:	eb00 0183 	add.w	r1, r0, r3, lsl #2
 8002f7e:	3801      	subs	r0, #1
 8002f80:	f844 6020 	str.w	r6, [r4, r0, lsl #2]
 8002f84:	1a88      	subs	r0, r1, r2
 8002f86:	3901      	subs	r1, #1
 8002f88:	f844 6021 	str.w	r6, [r4, r1, lsl #2]
 8002f8c:	eb00 0183 	add.w	r1, r0, r3, lsl #2
 8002f90:	3801      	subs	r0, #1
 8002f92:	f844 6020 	str.w	r6, [r4, r0, lsl #2]
 8002f96:	1a88      	subs	r0, r1, r2
 8002f98:	3901      	subs	r1, #1
 8002f9a:	f844 6021 	str.w	r6, [r4, r1, lsl #2]
 8002f9e:	eb00 0183 	add.w	r1, r0, r3, lsl #2
 8002fa2:	3801      	subs	r0, #1
 8002fa4:	f844 6020 	str.w	r6, [r4, r0, lsl #2]
 8002fa8:	1a88      	subs	r0, r1, r2
 8002faa:	3901      	subs	r1, #1
 8002fac:	f844 6021 	str.w	r6, [r4, r1, lsl #2]
 8002fb0:	eb00 0183 	add.w	r1, r0, r3, lsl #2
 8002fb4:	3801      	subs	r0, #1
 8002fb6:	f844 6020 	str.w	r6, [r4, r0, lsl #2]
 8002fba:	1a88      	subs	r0, r1, r2
 8002fbc:	3901      	subs	r1, #1
 8002fbe:	f844 6021 	str.w	r6, [r4, r1, lsl #2]
 8002fc2:	eb00 0183 	add.w	r1, r0, r3, lsl #2
 8002fc6:	3801      	subs	r0, #1
 8002fc8:	f844 6020 	str.w	r6, [r4, r0, lsl #2]
 8002fcc:	1a88      	subs	r0, r1, r2
 8002fce:	3901      	subs	r1, #1
 8002fd0:	f844 6021 	str.w	r6, [r4, r1, lsl #2]
 8002fd4:	eb00 0183 	add.w	r1, r0, r3, lsl #2
 8002fd8:	3801      	subs	r0, #1
 8002fda:	f844 6020 	str.w	r6, [r4, r0, lsl #2]
 8002fde:	1a88      	subs	r0, r1, r2
 8002fe0:	3901      	subs	r1, #1
 8002fe2:	f844 6021 	str.w	r6, [r4, r1, lsl #2]
 8002fe6:	eb00 0183 	add.w	r1, r0, r3, lsl #2
 8002fea:	3801      	subs	r0, #1
 8002fec:	f844 6020 	str.w	r6, [r4, r0, lsl #2]
 8002ff0:	1a88      	subs	r0, r1, r2
 8002ff2:	3901      	subs	r1, #1
 8002ff4:	f844 6021 	str.w	r6, [r4, r1, lsl #2]
 8002ff8:	eb00 0183 	add.w	r1, r0, r3, lsl #2
 8002ffc:	3801      	subs	r0, #1
 8002ffe:	f844 6020 	str.w	r6, [r4, r0, lsl #2]
 8003002:	1a88      	subs	r0, r1, r2
 8003004:	3901      	subs	r1, #1
 8003006:	f844 6021 	str.w	r6, [r4, r1, lsl #2]
 800300a:	eb00 0183 	add.w	r1, r0, r3, lsl #2
 800300e:	3801      	subs	r0, #1
 8003010:	f844 6020 	str.w	r6, [r4, r0, lsl #2]
 8003014:	1a88      	subs	r0, r1, r2
 8003016:	3901      	subs	r1, #1
 8003018:	f844 6021 	str.w	r6, [r4, r1, lsl #2]
 800301c:	eb00 0183 	add.w	r1, r0, r3, lsl #2
 8003020:	1a8a      	subs	r2, r1, r2
 8003022:	eb02 0383 	add.w	r3, r2, r3, lsl #2
 8003026:	3b01      	subs	r3, #1
 8003028:	3801      	subs	r0, #1
 800302a:	3901      	subs	r1, #1
 800302c:	3a01      	subs	r2, #1
 800302e:	f844 6020 	str.w	r6, [r4, r0, lsl #2]
 8003032:	f844 6021 	str.w	r6, [r4, r1, lsl #2]
 8003036:	f844 6022 	str.w	r6, [r4, r2, lsl #2]
 800303a:	f844 6023 	str.w	r6, [r4, r3, lsl #2]
 800303e:	f8d7 3134 	ldr.w	r3, [r7, #308]	; 0x134
 8003042:	fb08 f603 	mul.w	r6, r8, r3
 8003046:	f8d7 8124 	ldr.w	r8, [r7, #292]	; 0x124
 800304a:	f8d7 a12c 	ldr.w	sl, [r7, #300]	; 0x12c
 800304e:	f8d7 413c 	ldr.w	r4, [r7, #316]	; 0x13c
 8003052:	4643      	mov	r3, r8
 8003054:	4622      	mov	r2, r4
 8003056:	4651      	mov	r1, sl
 8003058:	4640      	mov	r0, r8
 800305a:	f7fd fbf1 	bl	8000840 <seca2b_modp.constprop.0>
 800305e:	f8d7 c130 	ldr.w	ip, [r7, #304]	; 0x130
 8003062:	f8c7 413c 	str.w	r4, [r7, #316]	; 0x13c
 8003066:	44c4      	add	ip, r8
 8003068:	eb04 150c 	add.w	r5, r4, ip, lsl #4
 800306c:	4643      	mov	r3, r8
 800306e:	ea4f 140c 	mov.w	r4, ip, lsl #4
 8003072:	462a      	mov	r2, r5
 8003074:	ea4f 0c8c 	mov.w	ip, ip, lsl #2
 8003078:	4651      	mov	r1, sl
 800307a:	4640      	mov	r0, r8
 800307c:	f8c7 c0f4 	str.w	ip, [r7, #244]	; 0xf4
 8003080:	f7fd fbde 	bl	8000840 <seca2b_modp.constprop.0>
 8003084:	f8d7 313c 	ldr.w	r3, [r7, #316]	; 0x13c
 8003088:	9303      	str	r3, [sp, #12]
 800308a:	f8cd 8010 	str.w	r8, [sp, #16]
 800308e:	f8d7 2188 	ldr.w	r2, [r7, #392]	; 0x188
 8003092:	9202      	str	r2, [sp, #8]
 8003094:	4643      	mov	r3, r8
 8003096:	f8d7 8134 	ldr.w	r8, [r7, #308]	; 0x134
 800309a:	f8cd 8004 	str.w	r8, [sp, #4]
 800309e:	f8d7 2138 	ldr.w	r2, [r7, #312]	; 0x138
 80030a2:	9200      	str	r2, [sp, #0]
 80030a4:	4698      	mov	r8, r3
 80030a6:	4651      	mov	r1, sl
 80030a8:	4618      	mov	r0, r3
 80030aa:	f8d7 214c 	ldr.w	r2, [r7, #332]	; 0x14c
 80030ae:	f7fd f9cd 	bl	800044c <secadd_modp.constprop.0>
 80030b2:	9503      	str	r5, [sp, #12]
 80030b4:	f8cd 8010 	str.w	r8, [sp, #16]
 80030b8:	f8d7 3188 	ldr.w	r3, [r7, #392]	; 0x188
 80030bc:	9302      	str	r3, [sp, #8]
 80030be:	46c4      	mov	ip, r8
 80030c0:	f8d7 8134 	ldr.w	r8, [r7, #308]	; 0x134
 80030c4:	f8cd 8004 	str.w	r8, [sp, #4]
 80030c8:	f8d7 2138 	ldr.w	r2, [r7, #312]	; 0x138
 80030cc:	f8d7 014c 	ldr.w	r0, [r7, #332]	; 0x14c
 80030d0:	1913      	adds	r3, r2, r4
 80030d2:	9300      	str	r3, [sp, #0]
 80030d4:	4663      	mov	r3, ip
 80030d6:	4420      	add	r0, r4
 80030d8:	08da      	lsrs	r2, r3, #3
 80030da:	e9c7 023b 	strd	r0, r2, [r7, #236]	; 0xec
 80030de:	4651      	mov	r1, sl
 80030e0:	4602      	mov	r2, r0
 80030e2:	46e2      	mov	sl, ip
 80030e4:	4660      	mov	r0, ip
 80030e6:	085d      	lsrs	r5, r3, #1
 80030e8:	f7fd f9b0 	bl	800044c <secadd_modp.constprop.0>
 80030ec:	f8cd 9000 	str.w	r9, [sp]
 80030f0:	f8cd a004 	str.w	sl, [sp, #4]
 80030f4:	4642      	mov	r2, r8
 80030f6:	f8d7 80f0 	ldr.w	r8, [r7, #240]	; 0xf0
 80030fa:	f8d7 0140 	ldr.w	r0, [r7, #320]	; 0x140
 80030fe:	4653      	mov	r3, sl
 8003100:	4629      	mov	r1, r5
 8003102:	1b5d      	subs	r5, r3, r5
 8003104:	eba8 131a 	sub.w	r3, r8, sl, lsr #4
 8003108:	ebc8 099a 	rsb	r9, r8, sl, lsr #2
 800310c:	f8c7 30cc 	str.w	r3, [r7, #204]	; 0xcc
 8003110:	f8d7 3188 	ldr.w	r3, [r7, #392]	; 0x188
 8003114:	f8c7 90e8 	str.w	r9, [r7, #232]	; 0xe8
 8003118:	eba1 0e9a 	sub.w	lr, r1, sl, lsr #2
 800311c:	46d1      	mov	r9, sl
 800311e:	f8d7 a138 	ldr.w	sl, [r7, #312]	; 0x138
 8003122:	f8c7 1154 	str.w	r1, [r7, #340]	; 0x154
 8003126:	0099      	lsls	r1, r3, #2
 8003128:	f8c7 511c 	str.w	r5, [r7, #284]	; 0x11c
 800312c:	f8c7 e10c 	str.w	lr, [r7, #268]	; 0x10c
 8003130:	f8c7 1114 	str.w	r1, [r7, #276]	; 0x114
 8003134:	4651      	mov	r1, sl
 8003136:	f7fd f88f 	bl	8000258 <masked_dense2bitslice_opt.constprop.0>
 800313a:	464b      	mov	r3, r9
 800313c:	0959      	lsrs	r1, r3, #5
 800313e:	f8d7 210c 	ldr.w	r2, [r7, #268]	; 0x10c
 8003142:	f8c7 10b4 	str.w	r1, [r7, #180]	; 0xb4
 8003146:	08a9      	lsrs	r1, r5, #2
 8003148:	0918      	lsrs	r0, r3, #4
 800314a:	f8c7 1100 	str.w	r1, [r7, #256]	; 0x100
 800314e:	f8d7 10e8 	ldr.w	r1, [r7, #232]	; 0xe8
 8003152:	f8c7 00bc 	str.w	r0, [r7, #188]	; 0xbc
 8003156:	0850      	lsrs	r0, r2, #1
 8003158:	f8c7 00f8 	str.w	r0, [r7, #248]	; 0xf8
 800315c:	0848      	lsrs	r0, r1, #1
 800315e:	f8c7 00dc 	str.w	r0, [r7, #220]	; 0xdc
 8003162:	0928      	lsrs	r0, r5, #4
 8003164:	f8c7 00c0 	str.w	r0, [r7, #192]	; 0xc0
 8003168:	08e8      	lsrs	r0, r5, #3
 800316a:	08d1      	lsrs	r1, r2, #3
 800316c:	eba5 0e55 	sub.w	lr, r5, r5, lsr #1
 8003170:	f8d7 20cc 	ldr.w	r2, [r7, #204]	; 0xcc
 8003174:	f8c7 00b8 	str.w	r0, [r7, #184]	; 0xb8
 8003178:	f8d7 014c 	ldr.w	r0, [r7, #332]	; 0x14c
 800317c:	f8c7 e108 	str.w	lr, [r7, #264]	; 0x108
 8003180:	eb0a 0e86 	add.w	lr, sl, r6, lsl #2
 8003184:	0852      	lsrs	r2, r2, #1
 8003186:	f8c7 e150 	str.w	lr, [r7, #336]	; 0x150
 800318a:	46c6      	mov	lr, r8
 800318c:	eb00 0888 	add.w	r8, r0, r8, lsl #2
 8003190:	f029 0303 	bic.w	r3, r9, #3
 8003194:	f8c7 208c 	str.w	r2, [r7, #140]	; 0x8c
 8003198:	f8c7 9124 	str.w	r9, [r7, #292]	; 0x124
 800319c:	086a      	lsrs	r2, r5, #1
 800319e:	46a9      	mov	r9, r5
 80031a0:	f8c7 8130 	str.w	r8, [r7, #304]	; 0x130
 80031a4:	f8d7 50f4 	ldr.w	r5, [r7, #244]	; 0xf4
 80031a8:	f8d7 80bc 	ldr.w	r8, [r7, #188]	; 0xbc
 80031ac:	f8c7 10c4 	str.w	r1, [r7, #196]	; 0xc4
 80031b0:	19a9      	adds	r1, r5, r6
 80031b2:	eb00 0688 	add.w	r6, r0, r8, lsl #2
 80031b6:	f8c7 612c 	str.w	r6, [r7, #300]	; 0x12c
 80031ba:	f8d7 6154 	ldr.w	r6, [r7, #340]	; 0x154
 80031be:	f8c7 2118 	str.w	r2, [r7, #280]	; 0x118
 80031c2:	eb0a 0a81 	add.w	sl, sl, r1, lsl #2
 80031c6:	eb04 0186 	add.w	r1, r4, r6, lsl #2
 80031ca:	1846      	adds	r6, r0, r1
 80031cc:	1919      	adds	r1, r3, r4
 80031ce:	f8c7 6140 	str.w	r6, [r7, #320]	; 0x140
 80031d2:	1846      	adds	r6, r0, r1
 80031d4:	eb04 018e 	add.w	r1, r4, lr, lsl #2
 80031d8:	f8c7 6134 	str.w	r6, [r7, #308]	; 0x134
 80031dc:	1846      	adds	r6, r0, r1
 80031de:	f8c7 6128 	str.w	r6, [r7, #296]	; 0x128
 80031e2:	f8d7 608c 	ldr.w	r6, [r7, #140]	; 0x8c
 80031e6:	f8d7 10c4 	ldr.w	r1, [r7, #196]	; 0xc4
 80031ea:	f8d7 2154 	ldr.w	r2, [r7, #340]	; 0x154
 80031ee:	00b6      	lsls	r6, r6, #2
 80031f0:	663e      	str	r6, [r7, #96]	; 0x60
 80031f2:	f8d7 60dc 	ldr.w	r6, [r7, #220]	; 0xdc
 80031f6:	00b6      	lsls	r6, r6, #2
 80031f8:	677e      	str	r6, [r7, #116]	; 0x74
 80031fa:	008e      	lsls	r6, r1, #2
 80031fc:	f8c7 6084 	str.w	r6, [r7, #132]	; 0x84
 8003200:	f8d7 c10c 	ldr.w	ip, [r7, #268]	; 0x10c
 8003204:	f8d7 60f8 	ldr.w	r6, [r7, #248]	; 0xf8
 8003208:	00b1      	lsls	r1, r6, #2
 800320a:	6739      	str	r1, [r7, #112]	; 0x70
 800320c:	f8d7 10c0 	ldr.w	r1, [r7, #192]	; 0xc0
 8003210:	0089      	lsls	r1, r1, #2
 8003212:	67f9      	str	r1, [r7, #124]	; 0x7c
 8003214:	f8d7 10b8 	ldr.w	r1, [r7, #184]	; 0xb8
 8003218:	0089      	lsls	r1, r1, #2
 800321a:	f8c7 1080 	str.w	r1, [r7, #128]	; 0x80
 800321e:	f8d7 1100 	ldr.w	r1, [r7, #256]	; 0x100
 8003222:	0089      	lsls	r1, r1, #2
 8003224:	f02c 0c03 	bic.w	ip, ip, #3
 8003228:	f8c7 10ac 	str.w	r1, [r7, #172]	; 0xac
 800322c:	f8d7 1118 	ldr.w	r1, [r7, #280]	; 0x118
 8003230:	f8c7 c088 	str.w	ip, [r7, #136]	; 0x88
 8003234:	f8d7 c0b4 	ldr.w	ip, [r7, #180]	; 0xb4
 8003238:	0089      	lsls	r1, r1, #2
 800323a:	f8c7 10b0 	str.w	r1, [r7, #176]	; 0xb0
 800323e:	eb04 018c 	add.w	r1, r4, ip, lsl #2
 8003242:	eb04 0488 	add.w	r4, r4, r8, lsl #2
 8003246:	4404      	add	r4, r0
 8003248:	4401      	add	r1, r0
 800324a:	61bc      	str	r4, [r7, #24]
 800324c:	462c      	mov	r4, r5
 800324e:	4665      	mov	r5, ip
 8003250:	61f9      	str	r1, [r7, #28]
 8003252:	1961      	adds	r1, r4, r5
 8003254:	4684      	mov	ip, r0
 8003256:	eb00 0081 	add.w	r0, r0, r1, lsl #2
 800325a:	60b8      	str	r0, [r7, #8]
 800325c:	4640      	mov	r0, r8
 800325e:	1821      	adds	r1, r4, r0
 8003260:	f8d7 80e8 	ldr.w	r8, [r7, #232]	; 0xe8
 8003264:	eb0c 0081 	add.w	r0, ip, r1, lsl #2
 8003268:	6238      	str	r0, [r7, #32]
 800326a:	f028 0003 	bic.w	r0, r8, #3
 800326e:	66f8      	str	r0, [r7, #108]	; 0x6c
 8003270:	4670      	mov	r0, lr
 8003272:	1821      	adds	r1, r4, r0
 8003274:	eb0c 0e81 	add.w	lr, ip, r1, lsl #2
 8003278:	f8c7 e050 	str.w	lr, [r7, #80]	; 0x50
 800327c:	f8d7 e124 	ldr.w	lr, [r7, #292]	; 0x124
 8003280:	eb04 019e 	add.w	r1, r4, lr, lsr #2
 8003284:	eb0c 0081 	add.w	r0, ip, r1, lsl #2
 8003288:	f8c7 009c 	str.w	r0, [r7, #156]	; 0x9c
 800328c:	f8d7 0154 	ldr.w	r0, [r7, #340]	; 0x154
 8003290:	4621      	mov	r1, r4
 8003292:	4401      	add	r1, r0
 8003294:	eb0c 0481 	add.w	r4, ip, r1, lsl #2
 8003298:	f8c7 40e0 	str.w	r4, [r7, #224]	; 0xe0
 800329c:	2400      	movs	r4, #0
 800329e:	f8c7 4154 	str.w	r4, [r7, #340]	; 0x154
 80032a2:	4674      	mov	r4, lr
 80032a4:	ebc5 1e1e 	rsb	lr, r5, lr, lsr #4
 80032a8:	f8c7 e064 	str.w	lr, [r7, #100]	; 0x64
 80032ac:	f8d7 e0ec 	ldr.w	lr, [r7, #236]	; 0xec
 80032b0:	f8c7 e148 	str.w	lr, [r7, #328]	; 0x148
 80032b4:	eb0c 0e85 	add.w	lr, ip, r5, lsl #2
 80032b8:	f8c7 e030 	str.w	lr, [r7, #48]	; 0x30
 80032bc:	f8d7 e0cc 	ldr.w	lr, [r7, #204]	; 0xcc
 80032c0:	08a1      	lsrs	r1, r4, #2
 80032c2:	ebae 0e5e 	sub.w	lr, lr, lr, lsr #1
 80032c6:	f8c7 1110 	str.w	r1, [r7, #272]	; 0x110
 80032ca:	f8c7 e048 	str.w	lr, [r7, #72]	; 0x48
 80032ce:	f8d7 e060 	ldr.w	lr, [r7, #96]	; 0x60
 80032d2:	f8d7 512c 	ldr.w	r5, [r7, #300]	; 0x12c
 80032d6:	627d      	str	r5, [r7, #36]	; 0x24
 80032d8:	f1ae 0e04 	sub.w	lr, lr, #4
 80032dc:	eba8 0558 	sub.w	r5, r8, r8, lsr #1
 80032e0:	f8c7 e010 	str.w	lr, [r7, #16]
 80032e4:	46c6      	mov	lr, r8
 80032e6:	f8d7 8130 	ldr.w	r8, [r7, #304]	; 0x130
 80032ea:	f8c7 8054 	str.w	r8, [r7, #84]	; 0x54
 80032ee:	f8d7 8088 	ldr.w	r8, [r7, #136]	; 0x88
 80032f2:	f8c7 50a8 	str.w	r5, [r7, #168]	; 0xa8
 80032f6:	6f7d      	ldr	r5, [r7, #116]	; 0x74
 80032f8:	f8d7 410c 	ldr.w	r4, [r7, #268]	; 0x10c
 80032fc:	f1a8 0804 	sub.w	r8, r8, #4
 8003300:	3d04      	subs	r5, #4
 8003302:	f8c7 8044 	str.w	r8, [r7, #68]	; 0x44
 8003306:	f8d7 8070 	ldr.w	r8, [r7, #112]	; 0x70
 800330a:	637d      	str	r5, [r7, #52]	; 0x34
 800330c:	08a5      	lsrs	r5, r4, #2
 800330e:	f8c7 50a4 	str.w	r5, [r7, #164]	; 0xa4
 8003312:	f1a8 0804 	sub.w	r8, r8, #4
 8003316:	f8d7 50c4 	ldr.w	r5, [r7, #196]	; 0xc4
 800331a:	f8c7 8098 	str.w	r8, [r7, #152]	; 0x98
 800331e:	f1a3 0804 	sub.w	r8, r3, #4
 8003322:	ebc5 0594 	rsb	r5, r5, r4, lsr #2
 8003326:	f8c7 8068 	str.w	r8, [r7, #104]	; 0x68
 800332a:	f8d7 80c0 	ldr.w	r8, [r7, #192]	; 0xc0
 800332e:	65fd      	str	r5, [r7, #92]	; 0x5c
 8003330:	f8d7 5084 	ldr.w	r5, [r7, #132]	; 0x84
 8003334:	ebc8 08d9 	rsb	r8, r8, r9, lsr #3
 8003338:	3d04      	subs	r5, #4
 800333a:	f8c7 8058 	str.w	r8, [r7, #88]	; 0x58
 800333e:	f8d7 807c 	ldr.w	r8, [r7, #124]	; 0x7c
 8003342:	62fd      	str	r5, [r7, #44]	; 0x2c
 8003344:	4463      	add	r3, ip
 8003346:	eba6 0594 	sub.w	r5, r6, r4, lsr #2
 800334a:	1ba6      	subs	r6, r4, r6
 800334c:	4664      	mov	r4, ip
 800334e:	f8d7 c100 	ldr.w	ip, [r7, #256]	; 0x100
 8003352:	67bd      	str	r5, [r7, #120]	; 0x78
 8003354:	f1a8 0804 	sub.w	r8, r8, #4
 8003358:	f8c7 8028 	str.w	r8, [r7, #40]	; 0x28
 800335c:	ebac 08d9 	sub.w	r8, ip, r9, lsr #3
 8003360:	f8c7 80a0 	str.w	r8, [r7, #160]	; 0xa0
 8003364:	f8d7 8080 	ldr.w	r8, [r7, #128]	; 0x80
 8003368:	f8c7 60d8 	str.w	r6, [r7, #216]	; 0xd8
 800336c:	ebcc 0c59 	rsb	ip, ip, r9, lsr #1
 8003370:	f1a8 0804 	sub.w	r8, r8, #4
 8003374:	f8c7 30d0 	str.w	r3, [r7, #208]	; 0xd0
 8003378:	f8c7 8038 	str.w	r8, [r7, #56]	; 0x38
 800337c:	f8c7 c0e4 	str.w	ip, [r7, #228]	; 0xe4
 8003380:	f8d7 c0ac 	ldr.w	ip, [r7, #172]	; 0xac
 8003384:	f8d7 10b0 	ldr.w	r1, [r7, #176]	; 0xb0
 8003388:	f8d7 60dc 	ldr.w	r6, [r7, #220]	; 0xdc
 800338c:	f8d7 3108 	ldr.w	r3, [r7, #264]	; 0x108
 8003390:	f8d7 5124 	ldr.w	r5, [r7, #292]	; 0x124
 8003394:	f8c7 413c 	str.w	r4, [r7, #316]	; 0x13c
 8003398:	0092      	lsls	r2, r2, #2
 800339a:	3904      	subs	r1, #4
 800339c:	f8c7 10d4 	str.w	r1, [r7, #212]	; 0xd4
 80033a0:	1f11      	subs	r1, r2, #4
 80033a2:	f8c7 10c8 	str.w	r1, [r7, #200]	; 0xc8
 80033a6:	4422      	add	r2, r4
 80033a8:	4671      	mov	r1, lr
 80033aa:	f8c7 2104 	str.w	r2, [r7, #260]	; 0x104
 80033ae:	088a      	lsrs	r2, r1, #2
 80033b0:	643a      	str	r2, [r7, #64]	; 0x40
 80033b2:	6efa      	ldr	r2, [r7, #108]	; 0x6c
 80033b4:	eba6 019e 	sub.w	r1, r6, lr, lsr #2
 80033b8:	63f9      	str	r1, [r7, #60]	; 0x3c
 80033ba:	1f11      	subs	r1, r2, #4
 80033bc:	2200      	movs	r2, #0
 80033be:	f8c7 2144 	str.w	r2, [r7, #324]	; 0x144
 80033c2:	085a      	lsrs	r2, r3, #1
 80033c4:	f8c7 20fc 	str.w	r2, [r7, #252]	; 0xfc
 80033c8:	f06f 4240 	mvn.w	r2, #3221225472	; 0xc0000000
 80033cc:	f1ac 0c04 	sub.w	ip, ip, #4
 80033d0:	60f9      	str	r1, [r7, #12]
 80033d2:	eb02 0353 	add.w	r3, r2, r3, lsr #1
 80033d6:	210c      	movs	r1, #12
 80033d8:	f8c7 c094 	str.w	ip, [r7, #148]	; 0x94
 80033dc:	f8c7 1138 	str.w	r1, [r7, #312]	; 0x138
 80033e0:	f8c7 3090 	str.w	r3, [r7, #144]	; 0x90
 80033e4:	4606      	mov	r6, r0
 80033e6:	2d01      	cmp	r5, #1
 80033e8:	f000 8373 	beq.w	8003ad2 <cipher+0xc9a>
 80033ec:	2d02      	cmp	r5, #2
 80033ee:	f000 83de 	beq.w	8003bae <cipher+0xd76>
 80033f2:	2e01      	cmp	r6, #1
 80033f4:	f000 8401 	beq.w	8003bfa <cipher+0xdc2>
 80033f8:	2e02      	cmp	r6, #2
 80033fa:	f001 8160 	beq.w	80046be <cipher+0x1886>
 80033fe:	f8d7 3110 	ldr.w	r3, [r7, #272]	; 0x110
 8003402:	2b01      	cmp	r3, #1
 8003404:	f000 8759 	beq.w	80042ba <cipher+0x1482>
 8003408:	2b02      	cmp	r3, #2
 800340a:	f000 8748 	beq.w	800429e <cipher+0x1466>
 800340e:	f8d7 30f0 	ldr.w	r3, [r7, #240]	; 0xf0
 8003412:	2b01      	cmp	r3, #1
 8003414:	f001 8243 	beq.w	800489e <cipher+0x1a66>
 8003418:	2b02      	cmp	r3, #2
 800341a:	f001 8231 	beq.w	8004880 <cipher+0x1a48>
 800341e:	f8d7 30bc 	ldr.w	r3, [r7, #188]	; 0xbc
 8003422:	2b01      	cmp	r3, #1
 8003424:	f001 874f 	beq.w	80052c6 <cipher+0x248e>
 8003428:	2b02      	cmp	r3, #2
 800342a:	f001 873d 	beq.w	80052a8 <cipher+0x2470>
 800342e:	f8d7 30b4 	ldr.w	r3, [r7, #180]	; 0xb4
 8003432:	2b01      	cmp	r3, #1
 8003434:	f002 81c7 	beq.w	80057c6 <cipher+0x298e>
 8003438:	2b02      	cmp	r3, #2
 800343a:	f002 81b5 	beq.w	80057a8 <cipher+0x2970>
 800343e:	4619      	mov	r1, r3
 8003440:	f8d7 213c 	ldr.w	r2, [r7, #316]	; 0x13c
 8003444:	2301      	movs	r3, #1
 8003446:	4628      	mov	r0, r5
 8003448:	f7fd fd62 	bl	8000f10 <RefreshIOS_rec.part.0>
 800344c:	6e7b      	ldr	r3, [r7, #100]	; 0x64
 800344e:	2b01      	cmp	r3, #1
 8003450:	d00e      	beq.n	8003470 <cipher+0x638>
 8003452:	f8d7 3154 	ldr.w	r3, [r7, #340]	; 0x154
 8003456:	6b3a      	ldr	r2, [r7, #48]	; 0x30
 8003458:	eb03 0802 	add.w	r8, r3, r2
 800345c:	6e7b      	ldr	r3, [r7, #100]	; 0x64
 800345e:	2b02      	cmp	r3, #2
 8003460:	f002 839d 	beq.w	8005b9e <cipher+0x2d66>
 8003464:	4619      	mov	r1, r3
 8003466:	4642      	mov	r2, r8
 8003468:	2301      	movs	r3, #1
 800346a:	4628      	mov	r0, r5
 800346c:	f7fd fd50 	bl	8000f10 <RefreshIOS_rec.part.0>
 8003470:	f8d7 30b4 	ldr.w	r3, [r7, #180]	; 0xb4
 8003474:	b323      	cbz	r3, 80034c0 <cipher+0x688>
 8003476:	f8d7 314c 	ldr.w	r3, [r7, #332]	; 0x14c
 800347a:	6b39      	ldr	r1, [r7, #48]	; 0x30
 800347c:	f8d7 2154 	ldr.w	r2, [r7, #340]	; 0x154
 8003480:	f8d7 40b4 	ldr.w	r4, [r7, #180]	; 0xb4
 8003484:	f8c7 6124 	str.w	r6, [r7, #292]	; 0x124
 8003488:	3b04      	subs	r3, #4
 800348a:	f1a1 0904 	sub.w	r9, r1, #4
 800348e:	4491      	add	r9, r2
 8003490:	f04f 0800 	mov.w	r8, #0
 8003494:	4413      	add	r3, r2
 8003496:	464e      	mov	r6, r9
 8003498:	46c1      	mov	r9, r8
 800349a:	46a8      	mov	r8, r5
 800349c:	461d      	mov	r5, r3
 800349e:	f7fc fdaf 	bl	8000000 <get_random>
 80034a2:	f855 1f04 	ldr.w	r1, [r5, #4]!
 80034a6:	4041      	eors	r1, r0
 80034a8:	6029      	str	r1, [r5, #0]
 80034aa:	f856 1f04 	ldr.w	r1, [r6, #4]!
 80034ae:	f109 0901 	add.w	r9, r9, #1
 80034b2:	4048      	eors	r0, r1
 80034b4:	454c      	cmp	r4, r9
 80034b6:	6030      	str	r0, [r6, #0]
 80034b8:	d8f1      	bhi.n	800349e <cipher+0x666>
 80034ba:	f8d7 6124 	ldr.w	r6, [r7, #292]	; 0x124
 80034be:	4645      	mov	r5, r8
 80034c0:	f8d7 30cc 	ldr.w	r3, [r7, #204]	; 0xcc
 80034c4:	2b01      	cmp	r3, #1
 80034c6:	f041 8703 	bne.w	80052d0 <cipher+0x2498>
 80034ca:	f8d7 30bc 	ldr.w	r3, [r7, #188]	; 0xbc
 80034ce:	b313      	cbz	r3, 8003516 <cipher+0x6de>
 80034d0:	6a79      	ldr	r1, [r7, #36]	; 0x24
 80034d2:	f8d7 2154 	ldr.w	r2, [r7, #340]	; 0x154
 80034d6:	f8d7 314c 	ldr.w	r3, [r7, #332]	; 0x14c
 80034da:	f8c7 5124 	str.w	r5, [r7, #292]	; 0x124
 80034de:	f1a1 0904 	sub.w	r9, r1, #4
 80034e2:	4491      	add	r9, r2
 80034e4:	f04f 0800 	mov.w	r8, #0
 80034e8:	3b04      	subs	r3, #4
 80034ea:	4413      	add	r3, r2
 80034ec:	464c      	mov	r4, r9
 80034ee:	46c1      	mov	r9, r8
 80034f0:	f8d7 80bc 	ldr.w	r8, [r7, #188]	; 0xbc
 80034f4:	461d      	mov	r5, r3
 80034f6:	f7fc fd83 	bl	8000000 <get_random>
 80034fa:	f855 1f04 	ldr.w	r1, [r5, #4]!
 80034fe:	4041      	eors	r1, r0
 8003500:	6029      	str	r1, [r5, #0]
 8003502:	f854 1f04 	ldr.w	r1, [r4, #4]!
 8003506:	f109 0901 	add.w	r9, r9, #1
 800350a:	4048      	eors	r0, r1
 800350c:	45c8      	cmp	r8, r9
 800350e:	6020      	str	r0, [r4, #0]
 8003510:	d8f1      	bhi.n	80034f6 <cipher+0x6be>
 8003512:	f8d7 5124 	ldr.w	r5, [r7, #292]	; 0x124
 8003516:	f8d7 30e8 	ldr.w	r3, [r7, #232]	; 0xe8
 800351a:	2b01      	cmp	r3, #1
 800351c:	f001 82f3 	beq.w	8004b06 <cipher+0x1cce>
 8003520:	f8d7 30e8 	ldr.w	r3, [r7, #232]	; 0xe8
 8003524:	2b02      	cmp	r3, #2
 8003526:	f001 82e3 	beq.w	8004af0 <cipher+0x1cb8>
 800352a:	f8d7 30dc 	ldr.w	r3, [r7, #220]	; 0xdc
 800352e:	2b01      	cmp	r3, #1
 8003530:	f002 80b0 	beq.w	8005694 <cipher+0x285c>
 8003534:	2b02      	cmp	r3, #2
 8003536:	f001 87fb 	beq.w	8005530 <cipher+0x26f8>
 800353a:	f8d7 4130 	ldr.w	r4, [r7, #304]	; 0x130
 800353e:	4619      	mov	r1, r3
 8003540:	4622      	mov	r2, r4
 8003542:	2301      	movs	r3, #1
 8003544:	4628      	mov	r0, r5
 8003546:	f7fd fce3 	bl	8000f10 <RefreshIOS_rec.part.0>
 800354a:	f8d7 30a8 	ldr.w	r3, [r7, #168]	; 0xa8
 800354e:	2b01      	cmp	r3, #1
 8003550:	d044      	beq.n	80035dc <cipher+0x7a4>
 8003552:	6f7a      	ldr	r2, [r7, #116]	; 0x74
 8003554:	eb04 0802 	add.w	r8, r4, r2
 8003558:	f8d7 30a8 	ldr.w	r3, [r7, #168]	; 0xa8
 800355c:	2b02      	cmp	r3, #2
 800355e:	f002 81ba 	beq.w	80058d6 <cipher+0x2a9e>
 8003562:	085b      	lsrs	r3, r3, #1
 8003564:	2b01      	cmp	r3, #1
 8003566:	461c      	mov	r4, r3
 8003568:	f002 8242 	beq.w	80059f0 <cipher+0x2bb8>
 800356c:	2b02      	cmp	r3, #2
 800356e:	f002 8334 	beq.w	8005bda <cipher+0x2da2>
 8003572:	4642      	mov	r2, r8
 8003574:	4621      	mov	r1, r4
 8003576:	2301      	movs	r3, #1
 8003578:	4628      	mov	r0, r5
 800357a:	f7fd fcc9 	bl	8000f10 <RefreshIOS_rec.part.0>
 800357e:	f8d7 20a8 	ldr.w	r2, [r7, #168]	; 0xa8
 8003582:	1b11      	subs	r1, r2, r4
 8003584:	2901      	cmp	r1, #1
 8003586:	d008      	beq.n	800359a <cipher+0x762>
 8003588:	eb08 0284 	add.w	r2, r8, r4, lsl #2
 800358c:	2902      	cmp	r1, #2
 800358e:	f002 8231 	beq.w	80059f4 <cipher+0x2bbc>
 8003592:	2301      	movs	r3, #1
 8003594:	4628      	mov	r0, r5
 8003596:	f7fd fcbb 	bl	8000f10 <RefreshIOS_rec.part.0>
 800359a:	b1fc      	cbz	r4, 80035dc <cipher+0x7a4>
 800359c:	f104 4380 	add.w	r3, r4, #1073741824	; 0x40000000
 80035a0:	3b01      	subs	r3, #1
 80035a2:	f1a8 0904 	sub.w	r9, r8, #4
 80035a6:	eb08 0383 	add.w	r3, r8, r3, lsl #2
 80035aa:	f04f 0800 	mov.w	r8, #0
 80035ae:	f8c7 6124 	str.w	r6, [r7, #292]	; 0x124
 80035b2:	464e      	mov	r6, r9
 80035b4:	46c1      	mov	r9, r8
 80035b6:	46a8      	mov	r8, r5
 80035b8:	461d      	mov	r5, r3
 80035ba:	f7fc fd21 	bl	8000000 <get_random>
 80035be:	f856 1f04 	ldr.w	r1, [r6, #4]!
 80035c2:	4041      	eors	r1, r0
 80035c4:	6031      	str	r1, [r6, #0]
 80035c6:	f855 1f04 	ldr.w	r1, [r5, #4]!
 80035ca:	f109 0901 	add.w	r9, r9, #1
 80035ce:	4048      	eors	r0, r1
 80035d0:	454c      	cmp	r4, r9
 80035d2:	6028      	str	r0, [r5, #0]
 80035d4:	d8f1      	bhi.n	80035ba <cipher+0x782>
 80035d6:	f8d7 6124 	ldr.w	r6, [r7, #292]	; 0x124
 80035da:	4645      	mov	r5, r8
 80035dc:	f8d7 30dc 	ldr.w	r3, [r7, #220]	; 0xdc
 80035e0:	2b00      	cmp	r3, #0
 80035e2:	f001 8290 	beq.w	8004b06 <cipher+0x1cce>
 80035e6:	f8d7 2130 	ldr.w	r2, [r7, #304]	; 0x130
 80035ea:	6b79      	ldr	r1, [r7, #52]	; 0x34
 80035ec:	f8c7 5124 	str.w	r5, [r7, #292]	; 0x124
 80035f0:	f04f 0800 	mov.w	r8, #0
 80035f4:	1f13      	subs	r3, r2, #4
 80035f6:	4645      	mov	r5, r8
 80035f8:	f8d7 80dc 	ldr.w	r8, [r7, #220]	; 0xdc
 80035fc:	eb02 0901 	add.w	r9, r2, r1
 8003600:	461c      	mov	r4, r3
 8003602:	f7fc fcfd 	bl	8000000 <get_random>
 8003606:	f854 1f04 	ldr.w	r1, [r4, #4]!
 800360a:	4041      	eors	r1, r0
 800360c:	6021      	str	r1, [r4, #0]
 800360e:	f859 1f04 	ldr.w	r1, [r9, #4]!
 8003612:	3501      	adds	r5, #1
 8003614:	4048      	eors	r0, r1
 8003616:	45a8      	cmp	r8, r5
 8003618:	f8c9 0000 	str.w	r0, [r9]
 800361c:	d8f1      	bhi.n	8003602 <cipher+0x7ca>
 800361e:	f8d7 30f0 	ldr.w	r3, [r7, #240]	; 0xf0
 8003622:	f8d7 5124 	ldr.w	r5, [r7, #292]	; 0x124
 8003626:	b30b      	cbz	r3, 800366c <cipher+0x834>
 8003628:	f8d7 314c 	ldr.w	r3, [r7, #332]	; 0x14c
 800362c:	f8d7 2154 	ldr.w	r2, [r7, #340]	; 0x154
 8003630:	6d79      	ldr	r1, [r7, #84]	; 0x54
 8003632:	f8c7 5124 	str.w	r5, [r7, #292]	; 0x124
 8003636:	f04f 0800 	mov.w	r8, #0
 800363a:	3b04      	subs	r3, #4
 800363c:	4413      	add	r3, r2
 800363e:	f1a1 0904 	sub.w	r9, r1, #4
 8003642:	4644      	mov	r4, r8
 8003644:	f8d7 80f0 	ldr.w	r8, [r7, #240]	; 0xf0
 8003648:	4491      	add	r9, r2
 800364a:	461d      	mov	r5, r3
 800364c:	f7fc fcd8 	bl	8000000 <get_random>
 8003650:	f855 1f04 	ldr.w	r1, [r5, #4]!
 8003654:	4041      	eors	r1, r0
 8003656:	6029      	str	r1, [r5, #0]
 8003658:	f859 1f04 	ldr.w	r1, [r9, #4]!
 800365c:	3401      	adds	r4, #1
 800365e:	4048      	eors	r0, r1
 8003660:	45a0      	cmp	r8, r4
 8003662:	f8c9 0000 	str.w	r0, [r9]
 8003666:	d8f1      	bhi.n	800364c <cipher+0x814>
 8003668:	f8d7 5124 	ldr.w	r5, [r7, #292]	; 0x124
 800366c:	f8d7 310c 	ldr.w	r3, [r7, #268]	; 0x10c
 8003670:	2b01      	cmp	r3, #1
 8003672:	f040 8627 	bne.w	80042c4 <cipher+0x148c>
 8003676:	f8d7 3110 	ldr.w	r3, [r7, #272]	; 0x110
 800367a:	b31b      	cbz	r3, 80036c4 <cipher+0x88c>
 800367c:	f8d7 10d0 	ldr.w	r1, [r7, #208]	; 0xd0
 8003680:	f8d7 2154 	ldr.w	r2, [r7, #340]	; 0x154
 8003684:	f8d7 314c 	ldr.w	r3, [r7, #332]	; 0x14c
 8003688:	f8c7 5124 	str.w	r5, [r7, #292]	; 0x124
 800368c:	f1a1 0904 	sub.w	r9, r1, #4
 8003690:	4491      	add	r9, r2
 8003692:	f04f 0800 	mov.w	r8, #0
 8003696:	3b04      	subs	r3, #4
 8003698:	4413      	add	r3, r2
 800369a:	464d      	mov	r5, r9
 800369c:	46c1      	mov	r9, r8
 800369e:	f8d7 8110 	ldr.w	r8, [r7, #272]	; 0x110
 80036a2:	461c      	mov	r4, r3
 80036a4:	f7fc fcac 	bl	8000000 <get_random>
 80036a8:	f854 1f04 	ldr.w	r1, [r4, #4]!
 80036ac:	4041      	eors	r1, r0
 80036ae:	6021      	str	r1, [r4, #0]
 80036b0:	f855 1f04 	ldr.w	r1, [r5, #4]!
 80036b4:	f109 0901 	add.w	r9, r9, #1
 80036b8:	4048      	eors	r0, r1
 80036ba:	45c8      	cmp	r8, r9
 80036bc:	6028      	str	r0, [r5, #0]
 80036be:	d8f1      	bhi.n	80036a4 <cipher+0x86c>
 80036c0:	f8d7 5124 	ldr.w	r5, [r7, #292]	; 0x124
 80036c4:	f8d7 311c 	ldr.w	r3, [r7, #284]	; 0x11c
 80036c8:	2b01      	cmp	r3, #1
 80036ca:	f040 829b 	bne.w	8003c04 <cipher+0xdcc>
 80036ce:	2e00      	cmp	r6, #0
 80036d0:	f000 86d5 	beq.w	800447e <cipher+0x1646>
 80036d4:	f8d7 2104 	ldr.w	r2, [r7, #260]	; 0x104
 80036d8:	f8d7 314c 	ldr.w	r3, [r7, #332]	; 0x14c
 80036dc:	f1a2 0904 	sub.w	r9, r2, #4
 80036e0:	f8d7 2154 	ldr.w	r2, [r7, #340]	; 0x154
 80036e4:	3b04      	subs	r3, #4
 80036e6:	4491      	add	r9, r2
 80036e8:	189a      	adds	r2, r3, r2
 80036ea:	f8c7 3124 	str.w	r3, [r7, #292]	; 0x124
 80036ee:	f04f 0800 	mov.w	r8, #0
 80036f2:	4614      	mov	r4, r2
 80036f4:	f7fc fc84 	bl	8000000 <get_random>
 80036f8:	f854 3f04 	ldr.w	r3, [r4, #4]!
 80036fc:	4043      	eors	r3, r0
 80036fe:	6023      	str	r3, [r4, #0]
 8003700:	f859 3f04 	ldr.w	r3, [r9, #4]!
 8003704:	f108 0801 	add.w	r8, r8, #1
 8003708:	4058      	eors	r0, r3
 800370a:	4546      	cmp	r6, r8
 800370c:	f8c9 0000 	str.w	r0, [r9]
 8003710:	d8f0      	bhi.n	80036f4 <cipher+0x8bc>
 8003712:	f8d7 30f4 	ldr.w	r3, [r7, #244]	; 0xf4
 8003716:	f8d7 2144 	ldr.w	r2, [r7, #324]	; 0x144
 800371a:	2e01      	cmp	r6, #1
 800371c:	4413      	add	r3, r2
 800371e:	f8c7 3120 	str.w	r3, [r7, #288]	; 0x120
 8003722:	f000 84cb 	beq.w	80040bc <cipher+0x1284>
 8003726:	2e02      	cmp	r6, #2
 8003728:	f000 87a3 	beq.w	8004672 <cipher+0x183a>
 800372c:	f8d7 3110 	ldr.w	r3, [r7, #272]	; 0x110
 8003730:	2b01      	cmp	r3, #1
 8003732:	f000 86b0 	beq.w	8004496 <cipher+0x165e>
 8003736:	2b02      	cmp	r3, #2
 8003738:	f001 818a 	beq.w	8004a50 <cipher+0x1c18>
 800373c:	f8d7 30f0 	ldr.w	r3, [r7, #240]	; 0xf0
 8003740:	2b01      	cmp	r3, #1
 8003742:	f001 80c6 	beq.w	80048d2 <cipher+0x1a9a>
 8003746:	2b02      	cmp	r3, #2
 8003748:	f001 80b4 	beq.w	80048b4 <cipher+0x1a7c>
 800374c:	f8d7 30bc 	ldr.w	r3, [r7, #188]	; 0xbc
 8003750:	2b01      	cmp	r3, #1
 8003752:	f001 8588 	beq.w	8005266 <cipher+0x242e>
 8003756:	2b02      	cmp	r3, #2
 8003758:	f001 8576 	beq.w	8005248 <cipher+0x2410>
 800375c:	f8d7 30b4 	ldr.w	r3, [r7, #180]	; 0xb4
 8003760:	2b01      	cmp	r3, #1
 8003762:	f002 8045 	beq.w	80057f0 <cipher+0x29b8>
 8003766:	2b02      	cmp	r3, #2
 8003768:	f002 8033 	beq.w	80057d2 <cipher+0x299a>
 800376c:	4619      	mov	r1, r3
 800376e:	f8d7 2148 	ldr.w	r2, [r7, #328]	; 0x148
 8003772:	2301      	movs	r3, #1
 8003774:	4628      	mov	r0, r5
 8003776:	f7fd fbcb 	bl	8000f10 <RefreshIOS_rec.part.0>
 800377a:	6e7b      	ldr	r3, [r7, #100]	; 0x64
 800377c:	2b01      	cmp	r3, #1
 800377e:	d00e      	beq.n	800379e <cipher+0x966>
 8003780:	f8d7 3154 	ldr.w	r3, [r7, #340]	; 0x154
 8003784:	69fa      	ldr	r2, [r7, #28]
 8003786:	eb03 0802 	add.w	r8, r3, r2
 800378a:	6e7b      	ldr	r3, [r7, #100]	; 0x64
 800378c:	2b02      	cmp	r3, #2
 800378e:	f002 81bf 	beq.w	8005b10 <cipher+0x2cd8>
 8003792:	4619      	mov	r1, r3
 8003794:	4642      	mov	r2, r8
 8003796:	2301      	movs	r3, #1
 8003798:	4628      	mov	r0, r5
 800379a:	f7fd fbb9 	bl	8000f10 <RefreshIOS_rec.part.0>
 800379e:	f8d7 30b4 	ldr.w	r3, [r7, #180]	; 0xb4
 80037a2:	b31b      	cbz	r3, 80037ec <cipher+0x9b4>
 80037a4:	68bb      	ldr	r3, [r7, #8]
 80037a6:	f8c7 6124 	str.w	r6, [r7, #292]	; 0x124
 80037aa:	f1a3 0804 	sub.w	r8, r3, #4
 80037ae:	f8d7 3154 	ldr.w	r3, [r7, #340]	; 0x154
 80037b2:	f8d7 40b4 	ldr.w	r4, [r7, #180]	; 0xb4
 80037b6:	4498      	add	r8, r3
 80037b8:	f8d7 3148 	ldr.w	r3, [r7, #328]	; 0x148
 80037bc:	3b04      	subs	r3, #4
 80037be:	461e      	mov	r6, r3
 80037c0:	462b      	mov	r3, r5
 80037c2:	f04f 0900 	mov.w	r9, #0
 80037c6:	4645      	mov	r5, r8
 80037c8:	4698      	mov	r8, r3
 80037ca:	f7fc fc19 	bl	8000000 <get_random>
 80037ce:	f856 1f04 	ldr.w	r1, [r6, #4]!
 80037d2:	4041      	eors	r1, r0
 80037d4:	6031      	str	r1, [r6, #0]
 80037d6:	f855 1f04 	ldr.w	r1, [r5, #4]!
 80037da:	f109 0901 	add.w	r9, r9, #1
 80037de:	4048      	eors	r0, r1
 80037e0:	454c      	cmp	r4, r9
 80037e2:	6028      	str	r0, [r5, #0]
 80037e4:	d8f1      	bhi.n	80037ca <cipher+0x992>
 80037e6:	f8d7 6124 	ldr.w	r6, [r7, #292]	; 0x124
 80037ea:	4645      	mov	r5, r8
 80037ec:	f8d7 30cc 	ldr.w	r3, [r7, #204]	; 0xcc
 80037f0:	2b01      	cmp	r3, #1
 80037f2:	d00f      	beq.n	8003814 <cipher+0x9dc>
 80037f4:	f8d7 3154 	ldr.w	r3, [r7, #340]	; 0x154
 80037f8:	69ba      	ldr	r2, [r7, #24]
 80037fa:	eb03 0802 	add.w	r8, r3, r2
 80037fe:	f8d7 30cc 	ldr.w	r3, [r7, #204]	; 0xcc
 8003802:	2b02      	cmp	r3, #2
 8003804:	f001 8622 	beq.w	800544c <cipher+0x2614>
 8003808:	4619      	mov	r1, r3
 800380a:	4642      	mov	r2, r8
 800380c:	2301      	movs	r3, #1
 800380e:	4628      	mov	r0, r5
 8003810:	f7fd fb7e 	bl	8000f10 <RefreshIOS_rec.part.0>
 8003814:	f8d7 30bc 	ldr.w	r3, [r7, #188]	; 0xbc
 8003818:	b303      	cbz	r3, 800385c <cipher+0xa24>
 800381a:	6a3b      	ldr	r3, [r7, #32]
 800381c:	f8c7 5124 	str.w	r5, [r7, #292]	; 0x124
 8003820:	f1a3 0804 	sub.w	r8, r3, #4
 8003824:	f8d7 3154 	ldr.w	r3, [r7, #340]	; 0x154
 8003828:	4498      	add	r8, r3
 800382a:	f8d7 3148 	ldr.w	r3, [r7, #328]	; 0x148
 800382e:	4644      	mov	r4, r8
 8003830:	3b04      	subs	r3, #4
 8003832:	f8d7 80bc 	ldr.w	r8, [r7, #188]	; 0xbc
 8003836:	f04f 0900 	mov.w	r9, #0
 800383a:	461d      	mov	r5, r3
 800383c:	f7fc fbe0 	bl	8000000 <get_random>
 8003840:	f855 1f04 	ldr.w	r1, [r5, #4]!
 8003844:	4041      	eors	r1, r0
 8003846:	6029      	str	r1, [r5, #0]
 8003848:	f854 1f04 	ldr.w	r1, [r4, #4]!
 800384c:	f109 0901 	add.w	r9, r9, #1
 8003850:	4048      	eors	r0, r1
 8003852:	45c8      	cmp	r8, r9
 8003854:	6020      	str	r0, [r4, #0]
 8003856:	d8f1      	bhi.n	800383c <cipher+0xa04>
 8003858:	f8d7 5124 	ldr.w	r5, [r7, #292]	; 0x124
 800385c:	f8d7 30e8 	ldr.w	r3, [r7, #232]	; 0xe8
 8003860:	2b01      	cmp	r3, #1
 8003862:	f001 8162 	beq.w	8004b2a <cipher+0x1cf2>
 8003866:	f8d7 30e8 	ldr.w	r3, [r7, #232]	; 0xe8
 800386a:	2b02      	cmp	r3, #2
 800386c:	f001 8152 	beq.w	8004b14 <cipher+0x1cdc>
 8003870:	f8d7 30dc 	ldr.w	r3, [r7, #220]	; 0xdc
 8003874:	2b01      	cmp	r3, #1
 8003876:	f001 8702 	beq.w	800567e <cipher+0x2846>
 800387a:	2b02      	cmp	r3, #2
 800387c:	f001 8577 	beq.w	800536e <cipher+0x2536>
 8003880:	6c3b      	ldr	r3, [r7, #64]	; 0x40
 8003882:	2b01      	cmp	r3, #1
 8003884:	f001 8742 	beq.w	800570c <cipher+0x28d4>
 8003888:	2b02      	cmp	r3, #2
 800388a:	f001 8734 	beq.w	80056f6 <cipher+0x28be>
 800388e:	f8d7 4128 	ldr.w	r4, [r7, #296]	; 0x128
 8003892:	4619      	mov	r1, r3
 8003894:	4622      	mov	r2, r4
 8003896:	2301      	movs	r3, #1
 8003898:	4628      	mov	r0, r5
 800389a:	f7fd fb39 	bl	8000f10 <RefreshIOS_rec.part.0>
 800389e:	6bfb      	ldr	r3, [r7, #60]	; 0x3c
 80038a0:	2b01      	cmp	r3, #1
 80038a2:	d00c      	beq.n	80038be <cipher+0xa86>
 80038a4:	6efa      	ldr	r2, [r7, #108]	; 0x6c
 80038a6:	eb04 0802 	add.w	r8, r4, r2
 80038aa:	6bfb      	ldr	r3, [r7, #60]	; 0x3c
 80038ac:	2b02      	cmp	r3, #2
 80038ae:	f002 8185 	beq.w	8005bbc <cipher+0x2d84>
 80038b2:	4619      	mov	r1, r3
 80038b4:	4642      	mov	r2, r8
 80038b6:	2301      	movs	r3, #1
 80038b8:	4628      	mov	r0, r5
 80038ba:	f7fd fb29 	bl	8000f10 <RefreshIOS_rec.part.0>
 80038be:	6c3b      	ldr	r3, [r7, #64]	; 0x40
 80038c0:	b303      	cbz	r3, 8003904 <cipher+0xacc>
 80038c2:	f8d7 2128 	ldr.w	r2, [r7, #296]	; 0x128
 80038c6:	68f9      	ldr	r1, [r7, #12]
 80038c8:	f8c7 6124 	str.w	r6, [r7, #292]	; 0x124
 80038cc:	1f13      	subs	r3, r2, #4
 80038ce:	eb02 0901 	add.w	r9, r2, r1
 80038d2:	f04f 0800 	mov.w	r8, #0
 80038d6:	461e      	mov	r6, r3
 80038d8:	6c3c      	ldr	r4, [r7, #64]	; 0x40
 80038da:	462b      	mov	r3, r5
 80038dc:	464d      	mov	r5, r9
 80038de:	46c1      	mov	r9, r8
 80038e0:	4698      	mov	r8, r3
 80038e2:	f7fc fb8d 	bl	8000000 <get_random>
 80038e6:	f856 1f04 	ldr.w	r1, [r6, #4]!
 80038ea:	4041      	eors	r1, r0
 80038ec:	6031      	str	r1, [r6, #0]
 80038ee:	f855 1f04 	ldr.w	r1, [r5, #4]!
 80038f2:	f109 0901 	add.w	r9, r9, #1
 80038f6:	4048      	eors	r0, r1
 80038f8:	454c      	cmp	r4, r9
 80038fa:	6028      	str	r0, [r5, #0]
 80038fc:	d8f1      	bhi.n	80038e2 <cipher+0xaaa>
 80038fe:	f8d7 6124 	ldr.w	r6, [r7, #292]	; 0x124
 8003902:	4645      	mov	r5, r8
 8003904:	f8d7 30a8 	ldr.w	r3, [r7, #168]	; 0xa8
 8003908:	2b01      	cmp	r3, #1
 800390a:	d046      	beq.n	800399a <cipher+0xb62>
 800390c:	f8d7 3128 	ldr.w	r3, [r7, #296]	; 0x128
 8003910:	6f7a      	ldr	r2, [r7, #116]	; 0x74
 8003912:	eb03 0802 	add.w	r8, r3, r2
 8003916:	f8d7 30a8 	ldr.w	r3, [r7, #168]	; 0xa8
 800391a:	2b02      	cmp	r3, #2
 800391c:	f001 87cc 	beq.w	80058b8 <cipher+0x2a80>
 8003920:	085b      	lsrs	r3, r3, #1
 8003922:	2b01      	cmp	r3, #1
 8003924:	461c      	mov	r4, r3
 8003926:	f002 80e2 	beq.w	8005aee <cipher+0x2cb6>
 800392a:	2b02      	cmp	r3, #2
 800392c:	f002 80bd 	beq.w	8005aaa <cipher+0x2c72>
 8003930:	4642      	mov	r2, r8
 8003932:	4621      	mov	r1, r4
 8003934:	2301      	movs	r3, #1
 8003936:	4628      	mov	r0, r5
 8003938:	f7fd faea 	bl	8000f10 <RefreshIOS_rec.part.0>
 800393c:	f8d7 20a8 	ldr.w	r2, [r7, #168]	; 0xa8
 8003940:	1b11      	subs	r1, r2, r4
 8003942:	2901      	cmp	r1, #1
 8003944:	d008      	beq.n	8003958 <cipher+0xb20>
 8003946:	eb08 0284 	add.w	r2, r8, r4, lsl #2
 800394a:	2902      	cmp	r1, #2
 800394c:	f002 80d1 	beq.w	8005af2 <cipher+0x2cba>
 8003950:	2301      	movs	r3, #1
 8003952:	4628      	mov	r0, r5
 8003954:	f7fd fadc 	bl	8000f10 <RefreshIOS_rec.part.0>
 8003958:	b1fc      	cbz	r4, 800399a <cipher+0xb62>
 800395a:	f104 4380 	add.w	r3, r4, #1073741824	; 0x40000000
 800395e:	3b01      	subs	r3, #1
 8003960:	f1a8 0904 	sub.w	r9, r8, #4
 8003964:	eb08 0383 	add.w	r3, r8, r3, lsl #2
 8003968:	f04f 0800 	mov.w	r8, #0
 800396c:	f8c7 6124 	str.w	r6, [r7, #292]	; 0x124
 8003970:	464e      	mov	r6, r9
 8003972:	46c1      	mov	r9, r8
 8003974:	46a8      	mov	r8, r5
 8003976:	461d      	mov	r5, r3
 8003978:	f7fc fb42 	bl	8000000 <get_random>
 800397c:	f856 1f04 	ldr.w	r1, [r6, #4]!
 8003980:	4041      	eors	r1, r0
 8003982:	6031      	str	r1, [r6, #0]
 8003984:	f855 1f04 	ldr.w	r1, [r5, #4]!
 8003988:	f109 0901 	add.w	r9, r9, #1
 800398c:	4048      	eors	r0, r1
 800398e:	454c      	cmp	r4, r9
 8003990:	6028      	str	r0, [r5, #0]
 8003992:	d8f1      	bhi.n	8003978 <cipher+0xb40>
 8003994:	f8d7 6124 	ldr.w	r6, [r7, #292]	; 0x124
 8003998:	4645      	mov	r5, r8
 800399a:	f8d7 30dc 	ldr.w	r3, [r7, #220]	; 0xdc
 800399e:	2b00      	cmp	r3, #0
 80039a0:	f001 80c3 	beq.w	8004b2a <cipher+0x1cf2>
 80039a4:	f8d7 2128 	ldr.w	r2, [r7, #296]	; 0x128
 80039a8:	6b79      	ldr	r1, [r7, #52]	; 0x34
 80039aa:	f8c7 5124 	str.w	r5, [r7, #292]	; 0x124
 80039ae:	eb02 0901 	add.w	r9, r2, r1
 80039b2:	f04f 0800 	mov.w	r8, #0
 80039b6:	1f13      	subs	r3, r2, #4
 80039b8:	464c      	mov	r4, r9
 80039ba:	46c1      	mov	r9, r8
 80039bc:	f8d7 80dc 	ldr.w	r8, [r7, #220]	; 0xdc
 80039c0:	461d      	mov	r5, r3
 80039c2:	f7fc fb1d 	bl	8000000 <get_random>
 80039c6:	f855 1f04 	ldr.w	r1, [r5, #4]!
 80039ca:	4041      	eors	r1, r0
 80039cc:	6029      	str	r1, [r5, #0]
 80039ce:	f854 1f04 	ldr.w	r1, [r4, #4]!
 80039d2:	f109 0901 	add.w	r9, r9, #1
 80039d6:	4048      	eors	r0, r1
 80039d8:	45c8      	cmp	r8, r9
 80039da:	6020      	str	r0, [r4, #0]
 80039dc:	d8f1      	bhi.n	80039c2 <cipher+0xb8a>
 80039de:	f8d7 30f0 	ldr.w	r3, [r7, #240]	; 0xf0
 80039e2:	f8d7 5124 	ldr.w	r5, [r7, #292]	; 0x124
 80039e6:	b303      	cbz	r3, 8003a2a <cipher+0xbf2>
 80039e8:	6d3b      	ldr	r3, [r7, #80]	; 0x50
 80039ea:	f8c7 5124 	str.w	r5, [r7, #292]	; 0x124
 80039ee:	f1a3 0804 	sub.w	r8, r3, #4
 80039f2:	f8d7 3154 	ldr.w	r3, [r7, #340]	; 0x154
 80039f6:	4498      	add	r8, r3
 80039f8:	f8d7 3148 	ldr.w	r3, [r7, #328]	; 0x148
 80039fc:	4644      	mov	r4, r8
 80039fe:	3b04      	subs	r3, #4
 8003a00:	f8d7 80f0 	ldr.w	r8, [r7, #240]	; 0xf0
 8003a04:	f04f 0900 	mov.w	r9, #0
 8003a08:	461d      	mov	r5, r3
 8003a0a:	f7fc faf9 	bl	8000000 <get_random>
 8003a0e:	f855 1f04 	ldr.w	r1, [r5, #4]!
 8003a12:	4041      	eors	r1, r0
 8003a14:	6029      	str	r1, [r5, #0]
 8003a16:	f854 1f04 	ldr.w	r1, [r4, #4]!
 8003a1a:	f109 0901 	add.w	r9, r9, #1
 8003a1e:	4048      	eors	r0, r1
 8003a20:	45c8      	cmp	r8, r9
 8003a22:	6020      	str	r0, [r4, #0]
 8003a24:	d8f1      	bhi.n	8003a0a <cipher+0xbd2>
 8003a26:	f8d7 5124 	ldr.w	r5, [r7, #292]	; 0x124
 8003a2a:	f8d7 310c 	ldr.w	r3, [r7, #268]	; 0x10c
 8003a2e:	2b01      	cmp	r3, #1
 8003a30:	f040 8536 	bne.w	80044a0 <cipher+0x1668>
 8003a34:	f8d7 3110 	ldr.w	r3, [r7, #272]	; 0x110
 8003a38:	b30b      	cbz	r3, 8003a7e <cipher+0xc46>
 8003a3a:	f8d7 309c 	ldr.w	r3, [r7, #156]	; 0x9c
 8003a3e:	f8c7 5124 	str.w	r5, [r7, #292]	; 0x124
 8003a42:	f1a3 0804 	sub.w	r8, r3, #4
 8003a46:	f8d7 3154 	ldr.w	r3, [r7, #340]	; 0x154
 8003a4a:	4498      	add	r8, r3
 8003a4c:	f8d7 3148 	ldr.w	r3, [r7, #328]	; 0x148
 8003a50:	4644      	mov	r4, r8
 8003a52:	3b04      	subs	r3, #4
 8003a54:	f8d7 8110 	ldr.w	r8, [r7, #272]	; 0x110
 8003a58:	f04f 0900 	mov.w	r9, #0
 8003a5c:	461d      	mov	r5, r3
 8003a5e:	f7fc facf 	bl	8000000 <get_random>
 8003a62:	f855 1f04 	ldr.w	r1, [r5, #4]!
 8003a66:	4041      	eors	r1, r0
 8003a68:	6029      	str	r1, [r5, #0]
 8003a6a:	f854 1f04 	ldr.w	r1, [r4, #4]!
 8003a6e:	f109 0901 	add.w	r9, r9, #1
 8003a72:	4048      	eors	r0, r1
 8003a74:	45c8      	cmp	r8, r9
 8003a76:	6020      	str	r0, [r4, #0]
 8003a78:	d8f1      	bhi.n	8003a5e <cipher+0xc26>
 8003a7a:	f8d7 5124 	ldr.w	r5, [r7, #292]	; 0x124
 8003a7e:	f8d7 311c 	ldr.w	r3, [r7, #284]	; 0x11c
 8003a82:	2b01      	cmp	r3, #1
 8003a84:	f040 831f 	bne.w	80040c6 <cipher+0x128e>
 8003a88:	2e00      	cmp	r6, #0
 8003a8a:	f000 85df 	beq.w	800464c <cipher+0x1814>
 8003a8e:	f8d7 314c 	ldr.w	r3, [r7, #332]	; 0x14c
 8003a92:	3b04      	subs	r3, #4
 8003a94:	f8c7 3124 	str.w	r3, [r7, #292]	; 0x124
 8003a98:	f8d7 30e0 	ldr.w	r3, [r7, #224]	; 0xe0
 8003a9c:	f1a3 0904 	sub.w	r9, r3, #4
 8003aa0:	f8d7 3154 	ldr.w	r3, [r7, #340]	; 0x154
 8003aa4:	4499      	add	r9, r3
 8003aa6:	f8d7 3148 	ldr.w	r3, [r7, #328]	; 0x148
 8003aaa:	1f1a      	subs	r2, r3, #4
 8003aac:	f04f 0800 	mov.w	r8, #0
 8003ab0:	4614      	mov	r4, r2
 8003ab2:	f7fc faa5 	bl	8000000 <get_random>
 8003ab6:	f854 3f04 	ldr.w	r3, [r4, #4]!
 8003aba:	4043      	eors	r3, r0
 8003abc:	6023      	str	r3, [r4, #0]
 8003abe:	f859 3f04 	ldr.w	r3, [r9, #4]!
 8003ac2:	f108 0801 	add.w	r8, r8, #1
 8003ac6:	4058      	eors	r0, r3
 8003ac8:	4546      	cmp	r6, r8
 8003aca:	f8c9 0000 	str.w	r0, [r9]
 8003ace:	d8f0      	bhi.n	8003ab2 <cipher+0xc7a>
 8003ad0:	e008      	b.n	8003ae4 <cipher+0xcac>
 8003ad2:	f8d7 3138 	ldr.w	r3, [r7, #312]	; 0x138
 8003ad6:	f8c7 3120 	str.w	r3, [r7, #288]	; 0x120
 8003ada:	f8d7 314c 	ldr.w	r3, [r7, #332]	; 0x14c
 8003ade:	3b04      	subs	r3, #4
 8003ae0:	f8c7 3124 	str.w	r3, [r7, #292]	; 0x124
 8003ae4:	f8d7 2150 	ldr.w	r2, [r7, #336]	; 0x150
 8003ae8:	2300      	movs	r3, #0
 8003aea:	6013      	str	r3, [r2, #0]
 8003aec:	4614      	mov	r4, r2
 8003aee:	f8ca 3000 	str.w	r3, [sl]
 8003af2:	f8d7 314c 	ldr.w	r3, [r7, #332]	; 0x14c
 8003af6:	f8d7 2120 	ldr.w	r2, [r7, #288]	; 0x120
 8003afa:	f8d7 8124 	ldr.w	r8, [r7, #292]	; 0x124
 8003afe:	eb03 0182 	add.w	r1, r3, r2, lsl #2
 8003b02:	f8d7 3154 	ldr.w	r3, [r7, #340]	; 0x154
 8003b06:	3904      	subs	r1, #4
 8003b08:	4498      	add	r8, r3
 8003b0a:	2200      	movs	r2, #0
 8003b0c:	6823      	ldr	r3, [r4, #0]
 8003b0e:	f858 0f04 	ldr.w	r0, [r8, #4]!
 8003b12:	4043      	eors	r3, r0
 8003b14:	6023      	str	r3, [r4, #0]
 8003b16:	f8da 3000 	ldr.w	r3, [sl]
 8003b1a:	f851 0f04 	ldr.w	r0, [r1, #4]!
 8003b1e:	3201      	adds	r2, #1
 8003b20:	4043      	eors	r3, r0
 8003b22:	4295      	cmp	r5, r2
 8003b24:	f8ca 3000 	str.w	r3, [sl]
 8003b28:	d8f0      	bhi.n	8003b0c <cipher+0xcd4>
 8003b2a:	f8d7 2150 	ldr.w	r2, [r7, #336]	; 0x150
 8003b2e:	f8d7 1114 	ldr.w	r1, [r7, #276]	; 0x114
 8003b32:	f8d7 3138 	ldr.w	r3, [r7, #312]	; 0x138
 8003b36:	440a      	add	r2, r1
 8003b38:	f8c7 2150 	str.w	r2, [r7, #336]	; 0x150
 8003b3c:	f8d7 213c 	ldr.w	r2, [r7, #316]	; 0x13c
 8003b40:	445a      	add	r2, fp
 8003b42:	f8c7 213c 	str.w	r2, [r7, #316]	; 0x13c
 8003b46:	f8d7 2144 	ldr.w	r2, [r7, #324]	; 0x144
 8003b4a:	442a      	add	r2, r5
 8003b4c:	f8c7 2144 	str.w	r2, [r7, #324]	; 0x144
 8003b50:	f8d7 2148 	ldr.w	r2, [r7, #328]	; 0x148
 8003b54:	445a      	add	r2, fp
 8003b56:	f8c7 2148 	str.w	r2, [r7, #328]	; 0x148
 8003b5a:	f8d7 2130 	ldr.w	r2, [r7, #304]	; 0x130
 8003b5e:	445a      	add	r2, fp
 8003b60:	f8c7 2130 	str.w	r2, [r7, #304]	; 0x130
 8003b64:	f8d7 212c 	ldr.w	r2, [r7, #300]	; 0x12c
 8003b68:	445a      	add	r2, fp
 8003b6a:	f8c7 212c 	str.w	r2, [r7, #300]	; 0x12c
 8003b6e:	f8d7 2140 	ldr.w	r2, [r7, #320]	; 0x140
 8003b72:	445a      	add	r2, fp
 8003b74:	f8c7 2140 	str.w	r2, [r7, #320]	; 0x140
 8003b78:	f8d7 2134 	ldr.w	r2, [r7, #308]	; 0x134
 8003b7c:	445a      	add	r2, fp
 8003b7e:	f8c7 2134 	str.w	r2, [r7, #308]	; 0x134
 8003b82:	f8d7 2128 	ldr.w	r2, [r7, #296]	; 0x128
 8003b86:	445a      	add	r2, fp
 8003b88:	f8c7 2128 	str.w	r2, [r7, #296]	; 0x128
 8003b8c:	f8d7 2154 	ldr.w	r2, [r7, #340]	; 0x154
 8003b90:	3301      	adds	r3, #1
 8003b92:	445a      	add	r2, fp
 8003b94:	2b18      	cmp	r3, #24
 8003b96:	f8c7 3138 	str.w	r3, [r7, #312]	; 0x138
 8003b9a:	448a      	add	sl, r1
 8003b9c:	f8c7 2154 	str.w	r2, [r7, #340]	; 0x154
 8003ba0:	f47f ac21 	bne.w	80033e6 <cipher+0x5ae>
 8003ba4:	f507 77b2 	add.w	r7, r7, #356	; 0x164
 8003ba8:	46bd      	mov	sp, r7
 8003baa:	e8bd 8ff0 	ldmia.w	sp!, {r4, r5, r6, r7, r8, r9, sl, fp, pc}
 8003bae:	f7fc fa27 	bl	8000000 <get_random>
 8003bb2:	f8d7 4154 	ldr.w	r4, [r7, #340]	; 0x154
 8003bb6:	f8d7 814c 	ldr.w	r8, [r7, #332]	; 0x14c
 8003bba:	f8d7 213c 	ldr.w	r2, [r7, #316]	; 0x13c
 8003bbe:	f858 3004 	ldr.w	r3, [r8, r4]
 8003bc2:	4043      	eors	r3, r0
 8003bc4:	f848 3004 	str.w	r3, [r8, r4]
 8003bc8:	f8d7 3144 	ldr.w	r3, [r7, #324]	; 0x144
 8003bcc:	3318      	adds	r3, #24
 8003bce:	f8c7 3120 	str.w	r3, [r7, #288]	; 0x120
 8003bd2:	6853      	ldr	r3, [r2, #4]
 8003bd4:	4058      	eors	r0, r3
 8003bd6:	6050      	str	r0, [r2, #4]
 8003bd8:	f7fc fa12 	bl	8000000 <get_random>
 8003bdc:	f8d7 20ec 	ldr.w	r2, [r7, #236]	; 0xec
 8003be0:	5913      	ldr	r3, [r2, r4]
 8003be2:	4043      	eors	r3, r0
 8003be4:	5113      	str	r3, [r2, r4]
 8003be6:	f8d7 2148 	ldr.w	r2, [r7, #328]	; 0x148
 8003bea:	f1a8 0304 	sub.w	r3, r8, #4
 8003bee:	f8c7 3124 	str.w	r3, [r7, #292]	; 0x124
 8003bf2:	6853      	ldr	r3, [r2, #4]
 8003bf4:	4058      	eors	r0, r3
 8003bf6:	6050      	str	r0, [r2, #4]
 8003bf8:	e774      	b.n	8003ae4 <cipher+0xcac>
 8003bfa:	f8d7 311c 	ldr.w	r3, [r7, #284]	; 0x11c
 8003bfe:	2b01      	cmp	r3, #1
 8003c00:	f43f ad68 	beq.w	80036d4 <cipher+0x89c>
 8003c04:	f8d7 3154 	ldr.w	r3, [r7, #340]	; 0x154
 8003c08:	f8d7 2104 	ldr.w	r2, [r7, #260]	; 0x104
 8003c0c:	4413      	add	r3, r2
 8003c0e:	f8c7 3124 	str.w	r3, [r7, #292]	; 0x124
 8003c12:	f8d7 311c 	ldr.w	r3, [r7, #284]	; 0x11c
 8003c16:	2b02      	cmp	r3, #2
 8003c18:	f000 856a 	beq.w	80046f0 <cipher+0x18b8>
 8003c1c:	f8d7 3118 	ldr.w	r3, [r7, #280]	; 0x118
 8003c20:	2b01      	cmp	r3, #1
 8003c22:	f000 85a6 	beq.w	8004772 <cipher+0x193a>
 8003c26:	2b02      	cmp	r3, #2
 8003c28:	f000 8754 	beq.w	8004ad4 <cipher+0x1c9c>
 8003c2c:	f8d7 3100 	ldr.w	r3, [r7, #256]	; 0x100
 8003c30:	2b01      	cmp	r3, #1
 8003c32:	f000 8706 	beq.w	8004a42 <cipher+0x1c0a>
 8003c36:	2b02      	cmp	r3, #2
 8003c38:	f000 86f8 	beq.w	8004a2c <cipher+0x1bf4>
 8003c3c:	f8d7 30b8 	ldr.w	r3, [r7, #184]	; 0xb8
 8003c40:	2b01      	cmp	r3, #1
 8003c42:	f001 81a9 	beq.w	8004f98 <cipher+0x2160>
 8003c46:	2b02      	cmp	r3, #2
 8003c48:	f001 819b 	beq.w	8004f82 <cipher+0x214a>
 8003c4c:	f8d7 30c0 	ldr.w	r3, [r7, #192]	; 0xc0
 8003c50:	2b01      	cmp	r3, #1
 8003c52:	f001 8587 	beq.w	8005764 <cipher+0x292c>
 8003c56:	2b02      	cmp	r3, #2
 8003c58:	f001 8579 	beq.w	800574e <cipher+0x2916>
 8003c5c:	f8d7 4124 	ldr.w	r4, [r7, #292]	; 0x124
 8003c60:	4619      	mov	r1, r3
 8003c62:	4622      	mov	r2, r4
 8003c64:	2301      	movs	r3, #1
 8003c66:	4628      	mov	r0, r5
 8003c68:	f7fd f952 	bl	8000f10 <RefreshIOS_rec.part.0>
 8003c6c:	6dbb      	ldr	r3, [r7, #88]	; 0x58
 8003c6e:	2b01      	cmp	r3, #1
 8003c70:	d00c      	beq.n	8003c8c <cipher+0xe54>
 8003c72:	6ffa      	ldr	r2, [r7, #124]	; 0x7c
 8003c74:	eb04 0802 	add.w	r8, r4, r2
 8003c78:	6dbb      	ldr	r3, [r7, #88]	; 0x58
 8003c7a:	2b02      	cmp	r3, #2
 8003c7c:	f001 8780 	beq.w	8005b80 <cipher+0x2d48>
 8003c80:	4619      	mov	r1, r3
 8003c82:	4642      	mov	r2, r8
 8003c84:	2301      	movs	r3, #1
 8003c86:	4628      	mov	r0, r5
 8003c88:	f7fd f942 	bl	8000f10 <RefreshIOS_rec.part.0>
 8003c8c:	f8d7 30c0 	ldr.w	r3, [r7, #192]	; 0xc0
 8003c90:	b333      	cbz	r3, 8003ce0 <cipher+0xea8>
 8003c92:	f8d7 314c 	ldr.w	r3, [r7, #332]	; 0x14c
 8003c96:	f8d7 20c8 	ldr.w	r2, [r7, #200]	; 0xc8
 8003c9a:	f8d7 40c0 	ldr.w	r4, [r7, #192]	; 0xc0
 8003c9e:	f8c7 6120 	str.w	r6, [r7, #288]	; 0x120
 8003ca2:	eb03 0802 	add.w	r8, r3, r2
 8003ca6:	f8d7 3154 	ldr.w	r3, [r7, #340]	; 0x154
 8003caa:	6aba      	ldr	r2, [r7, #40]	; 0x28
 8003cac:	4498      	add	r8, r3
 8003cae:	f8d7 3124 	ldr.w	r3, [r7, #292]	; 0x124
 8003cb2:	4413      	add	r3, r2
 8003cb4:	4646      	mov	r6, r8
 8003cb6:	f04f 0900 	mov.w	r9, #0
 8003cba:	46a8      	mov	r8, r5
 8003cbc:	461d      	mov	r5, r3
 8003cbe:	f7fc f99f 	bl	8000000 <get_random>
 8003cc2:	f856 1f04 	ldr.w	r1, [r6, #4]!
 8003cc6:	4041      	eors	r1, r0
 8003cc8:	6031      	str	r1, [r6, #0]
 8003cca:	f855 1f04 	ldr.w	r1, [r5, #4]!
 8003cce:	f109 0901 	add.w	r9, r9, #1
 8003cd2:	4048      	eors	r0, r1
 8003cd4:	454c      	cmp	r4, r9
 8003cd6:	6028      	str	r0, [r5, #0]
 8003cd8:	d8f1      	bhi.n	8003cbe <cipher+0xe86>
 8003cda:	f8d7 6120 	ldr.w	r6, [r7, #288]	; 0x120
 8003cde:	4645      	mov	r5, r8
 8003ce0:	f8d7 30a0 	ldr.w	r3, [r7, #160]	; 0xa0
 8003ce4:	2b01      	cmp	r3, #1
 8003ce6:	f041 815c 	bne.w	8004fa2 <cipher+0x216a>
 8003cea:	f8d7 30b8 	ldr.w	r3, [r7, #184]	; 0xb8
 8003cee:	b323      	cbz	r3, 8003d3a <cipher+0xf02>
 8003cf0:	f8d7 314c 	ldr.w	r3, [r7, #332]	; 0x14c
 8003cf4:	f8d7 20c8 	ldr.w	r2, [r7, #200]	; 0xc8
 8003cf8:	f8c7 5120 	str.w	r5, [r7, #288]	; 0x120
 8003cfc:	eb03 0802 	add.w	r8, r3, r2
 8003d00:	f8d7 3154 	ldr.w	r3, [r7, #340]	; 0x154
 8003d04:	6bba      	ldr	r2, [r7, #56]	; 0x38
 8003d06:	4498      	add	r8, r3
 8003d08:	f8d7 3124 	ldr.w	r3, [r7, #292]	; 0x124
 8003d0c:	4645      	mov	r5, r8
 8003d0e:	4413      	add	r3, r2
 8003d10:	f8d7 80b8 	ldr.w	r8, [r7, #184]	; 0xb8
 8003d14:	f04f 0900 	mov.w	r9, #0
 8003d18:	461c      	mov	r4, r3
 8003d1a:	f7fc f971 	bl	8000000 <get_random>
 8003d1e:	f855 1f04 	ldr.w	r1, [r5, #4]!
 8003d22:	4041      	eors	r1, r0
 8003d24:	6029      	str	r1, [r5, #0]
 8003d26:	f854 1f04 	ldr.w	r1, [r4, #4]!
 8003d2a:	f109 0901 	add.w	r9, r9, #1
 8003d2e:	4048      	eors	r0, r1
 8003d30:	45c8      	cmp	r8, r9
 8003d32:	6020      	str	r0, [r4, #0]
 8003d34:	d8f1      	bhi.n	8003d1a <cipher+0xee2>
 8003d36:	f8d7 5120 	ldr.w	r5, [r7, #288]	; 0x120
 8003d3a:	f8d7 30e4 	ldr.w	r3, [r7, #228]	; 0xe4
 8003d3e:	2b01      	cmp	r3, #1
 8003d40:	f001 801f 	beq.w	8004d82 <cipher+0x1f4a>
 8003d44:	f8d7 3124 	ldr.w	r3, [r7, #292]	; 0x124
 8003d48:	f8d7 20ac 	ldr.w	r2, [r7, #172]	; 0xac
 8003d4c:	4413      	add	r3, r2
 8003d4e:	f8c7 3120 	str.w	r3, [r7, #288]	; 0x120
 8003d52:	f8d7 30e4 	ldr.w	r3, [r7, #228]	; 0xe4
 8003d56:	2b02      	cmp	r3, #2
 8003d58:	f001 8008 	beq.w	8004d6c <cipher+0x1f34>
 8003d5c:	085b      	lsrs	r3, r3, #1
 8003d5e:	2b01      	cmp	r3, #1
 8003d60:	64fb      	str	r3, [r7, #76]	; 0x4c
 8003d62:	f001 85c7 	beq.w	80058f4 <cipher+0x2abc>
 8003d66:	2b02      	cmp	r3, #2
 8003d68:	f001 82de 	beq.w	8005328 <cipher+0x24f0>
 8003d6c:	f8d7 30e4 	ldr.w	r3, [r7, #228]	; 0xe4
 8003d70:	089b      	lsrs	r3, r3, #2
 8003d72:	2b01      	cmp	r3, #1
 8003d74:	4698      	mov	r8, r3
 8003d76:	f001 8576 	beq.w	8005866 <cipher+0x2a2e>
 8003d7a:	2b02      	cmp	r3, #2
 8003d7c:	f001 8568 	beq.w	8005850 <cipher+0x2a18>
 8003d80:	f8d7 4120 	ldr.w	r4, [r7, #288]	; 0x120
 8003d84:	2301      	movs	r3, #1
 8003d86:	4641      	mov	r1, r8
 8003d88:	4628      	mov	r0, r5
 8003d8a:	4622      	mov	r2, r4
 8003d8c:	f7fd f8c0 	bl	8000f10 <RefreshIOS_rec.part.0>
 8003d90:	6cf8      	ldr	r0, [r7, #76]	; 0x4c
 8003d92:	4643      	mov	r3, r8
 8003d94:	1ac1      	subs	r1, r0, r3
 8003d96:	2901      	cmp	r1, #1
 8003d98:	d008      	beq.n	8003dac <cipher+0xf74>
 8003d9a:	eb04 0288 	add.w	r2, r4, r8, lsl #2
 8003d9e:	2902      	cmp	r1, #2
 8003da0:	f001 8676 	beq.w	8005a90 <cipher+0x2c58>
 8003da4:	2301      	movs	r3, #1
 8003da6:	4628      	mov	r0, r5
 8003da8:	f7fd f8b2 	bl	8000f10 <RefreshIOS_rec.part.0>
 8003dac:	4643      	mov	r3, r8
 8003dae:	b30b      	cbz	r3, 8003df4 <cipher+0xfbc>
 8003db0:	f8d7 2120 	ldr.w	r2, [r7, #288]	; 0x120
 8003db4:	617e      	str	r6, [r7, #20]
 8003db6:	f108 4380 	add.w	r3, r8, #1073741824	; 0x40000000
 8003dba:	3b01      	subs	r3, #1
 8003dbc:	eb02 0383 	add.w	r3, r2, r3, lsl #2
 8003dc0:	f1a2 0904 	sub.w	r9, r2, #4
 8003dc4:	4644      	mov	r4, r8
 8003dc6:	461e      	mov	r6, r3
 8003dc8:	f04f 0800 	mov.w	r8, #0
 8003dcc:	462b      	mov	r3, r5
 8003dce:	464d      	mov	r5, r9
 8003dd0:	46c1      	mov	r9, r8
 8003dd2:	4698      	mov	r8, r3
 8003dd4:	f7fc f914 	bl	8000000 <get_random>
 8003dd8:	f855 1f04 	ldr.w	r1, [r5, #4]!
 8003ddc:	4041      	eors	r1, r0
 8003dde:	6029      	str	r1, [r5, #0]
 8003de0:	f856 1f04 	ldr.w	r1, [r6, #4]!
 8003de4:	f109 0901 	add.w	r9, r9, #1
 8003de8:	4048      	eors	r0, r1
 8003dea:	454c      	cmp	r4, r9
 8003dec:	6030      	str	r0, [r6, #0]
 8003dee:	d8f1      	bhi.n	8003dd4 <cipher+0xf9c>
 8003df0:	697e      	ldr	r6, [r7, #20]
 8003df2:	4645      	mov	r5, r8
 8003df4:	f8d7 30e4 	ldr.w	r3, [r7, #228]	; 0xe4
 8003df8:	6cfa      	ldr	r2, [r7, #76]	; 0x4c
 8003dfa:	eba3 0802 	sub.w	r8, r3, r2
 8003dfe:	f1b8 0f01 	cmp.w	r8, #1
 8003e02:	d042      	beq.n	8003e8a <cipher+0x1052>
 8003e04:	f8d7 3120 	ldr.w	r3, [r7, #288]	; 0x120
 8003e08:	f1b8 0f02 	cmp.w	r8, #2
 8003e0c:	eb03 0982 	add.w	r9, r3, r2, lsl #2
 8003e10:	f001 8574 	beq.w	80058fc <cipher+0x2ac4>
 8003e14:	ea4f 0358 	mov.w	r3, r8, lsr #1
 8003e18:	2b01      	cmp	r3, #1
 8003e1a:	461c      	mov	r4, r3
 8003e1c:	f001 8296 	beq.w	800534c <cipher+0x2514>
 8003e20:	2b02      	cmp	r3, #2
 8003e22:	f001 85f6 	beq.w	8005a12 <cipher+0x2bda>
 8003e26:	4621      	mov	r1, r4
 8003e28:	2301      	movs	r3, #1
 8003e2a:	464a      	mov	r2, r9
 8003e2c:	4628      	mov	r0, r5
 8003e2e:	f7fd f86f 	bl	8000f10 <RefreshIOS_rec.part.0>
 8003e32:	eba8 0104 	sub.w	r1, r8, r4
 8003e36:	2901      	cmp	r1, #1
 8003e38:	d008      	beq.n	8003e4c <cipher+0x1014>
 8003e3a:	eb09 0284 	add.w	r2, r9, r4, lsl #2
 8003e3e:	2902      	cmp	r1, #2
 8003e40:	f001 8288 	beq.w	8005354 <cipher+0x251c>
 8003e44:	2301      	movs	r3, #1
 8003e46:	4628      	mov	r0, r5
 8003e48:	f7fd f862 	bl	8000f10 <RefreshIOS_rec.part.0>
 8003e4c:	b1ec      	cbz	r4, 8003e8a <cipher+0x1052>
 8003e4e:	f104 4380 	add.w	r3, r4, #1073741824	; 0x40000000
 8003e52:	3b01      	subs	r3, #1
 8003e54:	eb09 0383 	add.w	r3, r9, r3, lsl #2
 8003e58:	f1a9 0804 	sub.w	r8, r9, #4
 8003e5c:	617e      	str	r6, [r7, #20]
 8003e5e:	461e      	mov	r6, r3
 8003e60:	462b      	mov	r3, r5
 8003e62:	f04f 0900 	mov.w	r9, #0
 8003e66:	4645      	mov	r5, r8
 8003e68:	4698      	mov	r8, r3
 8003e6a:	f7fc f8c9 	bl	8000000 <get_random>
 8003e6e:	f855 1f04 	ldr.w	r1, [r5, #4]!
 8003e72:	4041      	eors	r1, r0
 8003e74:	6029      	str	r1, [r5, #0]
 8003e76:	f856 1f04 	ldr.w	r1, [r6, #4]!
 8003e7a:	f109 0901 	add.w	r9, r9, #1
 8003e7e:	4048      	eors	r0, r1
 8003e80:	45a1      	cmp	r9, r4
 8003e82:	6030      	str	r0, [r6, #0]
 8003e84:	d3f1      	bcc.n	8003e6a <cipher+0x1032>
 8003e86:	697e      	ldr	r6, [r7, #20]
 8003e88:	4645      	mov	r5, r8
 8003e8a:	6cfb      	ldr	r3, [r7, #76]	; 0x4c
 8003e8c:	2b00      	cmp	r3, #0
 8003e8e:	f000 8778 	beq.w	8004d82 <cipher+0x1f4a>
 8003e92:	f8d7 2120 	ldr.w	r2, [r7, #288]	; 0x120
 8003e96:	f8c7 5120 	str.w	r5, [r7, #288]	; 0x120
 8003e9a:	f103 4980 	add.w	r9, r3, #1073741824	; 0x40000000
 8003e9e:	f109 39ff 	add.w	r9, r9, #4294967295	; 0xffffffff
 8003ea2:	eb02 0989 	add.w	r9, r2, r9, lsl #2
 8003ea6:	f04f 0800 	mov.w	r8, #0
 8003eaa:	3a04      	subs	r2, #4
 8003eac:	464c      	mov	r4, r9
 8003eae:	4615      	mov	r5, r2
 8003eb0:	46c1      	mov	r9, r8
 8003eb2:	4698      	mov	r8, r3
 8003eb4:	f7fc f8a4 	bl	8000000 <get_random>
 8003eb8:	f855 1f04 	ldr.w	r1, [r5, #4]!
 8003ebc:	4041      	eors	r1, r0
 8003ebe:	6029      	str	r1, [r5, #0]
 8003ec0:	f854 1f04 	ldr.w	r1, [r4, #4]!
 8003ec4:	f109 0901 	add.w	r9, r9, #1
 8003ec8:	4048      	eors	r0, r1
 8003eca:	45c8      	cmp	r8, r9
 8003ecc:	6020      	str	r0, [r4, #0]
 8003ece:	d8f1      	bhi.n	8003eb4 <cipher+0x107c>
 8003ed0:	f8d7 3100 	ldr.w	r3, [r7, #256]	; 0x100
 8003ed4:	f8d7 5120 	ldr.w	r5, [r7, #288]	; 0x120
 8003ed8:	b32b      	cbz	r3, 8003f26 <cipher+0x10ee>
 8003eda:	f8d7 314c 	ldr.w	r3, [r7, #332]	; 0x14c
 8003ede:	f8d7 20c8 	ldr.w	r2, [r7, #200]	; 0xc8
 8003ee2:	f8c7 5120 	str.w	r5, [r7, #288]	; 0x120
 8003ee6:	eb03 0802 	add.w	r8, r3, r2
 8003eea:	f8d7 3154 	ldr.w	r3, [r7, #340]	; 0x154
 8003eee:	f8d7 2094 	ldr.w	r2, [r7, #148]	; 0x94
 8003ef2:	4498      	add	r8, r3
 8003ef4:	f8d7 3124 	ldr.w	r3, [r7, #292]	; 0x124
 8003ef8:	4645      	mov	r5, r8
 8003efa:	4413      	add	r3, r2
 8003efc:	f8d7 8100 	ldr.w	r8, [r7, #256]	; 0x100
 8003f00:	f04f 0900 	mov.w	r9, #0
 8003f04:	461c      	mov	r4, r3
 8003f06:	f7fc f87b 	bl	8000000 <get_random>
 8003f0a:	f855 1f04 	ldr.w	r1, [r5, #4]!
 8003f0e:	4041      	eors	r1, r0
 8003f10:	6029      	str	r1, [r5, #0]
 8003f12:	f854 1f04 	ldr.w	r1, [r4, #4]!
 8003f16:	f109 0901 	add.w	r9, r9, #1
 8003f1a:	4048      	eors	r0, r1
 8003f1c:	45c8      	cmp	r8, r9
 8003f1e:	6020      	str	r0, [r4, #0]
 8003f20:	d8f1      	bhi.n	8003f06 <cipher+0x10ce>
 8003f22:	f8d7 5120 	ldr.w	r5, [r7, #288]	; 0x120
 8003f26:	f8d7 3108 	ldr.w	r3, [r7, #264]	; 0x108
 8003f2a:	2b01      	cmp	r3, #1
 8003f2c:	f000 843a 	beq.w	80047a4 <cipher+0x196c>
 8003f30:	f8d7 3124 	ldr.w	r3, [r7, #292]	; 0x124
 8003f34:	f8d7 20b0 	ldr.w	r2, [r7, #176]	; 0xb0
 8003f38:	eb03 0902 	add.w	r9, r3, r2
 8003f3c:	f8d7 3108 	ldr.w	r3, [r7, #264]	; 0x108
 8003f40:	2b02      	cmp	r3, #2
 8003f42:	f000 8423 	beq.w	800478c <cipher+0x1954>
 8003f46:	f8d7 30fc 	ldr.w	r3, [r7, #252]	; 0xfc
 8003f4a:	2b01      	cmp	r3, #1
 8003f4c:	f000 877d 	beq.w	8004e4a <cipher+0x2012>
 8003f50:	2b02      	cmp	r3, #2
 8003f52:	f000 8730 	beq.w	8004db6 <cipher+0x1f7e>
 8003f56:	f8d7 3108 	ldr.w	r3, [r7, #264]	; 0x108
 8003f5a:	089b      	lsrs	r3, r3, #2
 8003f5c:	2b01      	cmp	r3, #1
 8003f5e:	461c      	mov	r4, r3
 8003f60:	f001 8195 	beq.w	800528e <cipher+0x2456>
 8003f64:	2b02      	cmp	r3, #2
 8003f66:	f001 8185 	beq.w	8005274 <cipher+0x243c>
 8003f6a:	2301      	movs	r3, #1
 8003f6c:	464a      	mov	r2, r9
 8003f6e:	4621      	mov	r1, r4
 8003f70:	4628      	mov	r0, r5
 8003f72:	f7fc ffcd 	bl	8000f10 <RefreshIOS_rec.part.0>
