
../../bin/binary.elf:     file format elf32-littlearm


Disassembly of section .text:

08000000 <get_external_randomness>:
 8000000:	b480      	push	{r7}
 8000002:	b085      	sub	sp, #20
 8000004:	af00      	add	r7, sp, #0
 8000006:	6078      	str	r0, [r7, #4]
 8000008:	6039      	str	r1, [r7, #0]
 800000a:	4b10      	ldr	r3, [pc, #64]	; (800004c <get_external_randomness+0x4c>)
 800000c:	447b      	add	r3, pc
 800000e:	2200      	movs	r2, #0
 8000010:	60fa      	str	r2, [r7, #12]
 8000012:	e012      	b.n	800003a <get_external_randomness+0x3a>
 8000014:	4a0e      	ldr	r2, [pc, #56]	; (8000050 <get_external_randomness+0x50>)
 8000016:	589a      	ldr	r2, [r3, r2]
 8000018:	6810      	ldr	r0, [r2, #0]
 800001a:	68fa      	ldr	r2, [r7, #12]
 800001c:	6879      	ldr	r1, [r7, #4]
 800001e:	440a      	add	r2, r1
 8000020:	b2c1      	uxtb	r1, r0
 8000022:	7011      	strb	r1, [r2, #0]
 8000024:	4a0a      	ldr	r2, [pc, #40]	; (8000050 <get_external_randomness+0x50>)
 8000026:	589a      	ldr	r2, [r3, r2]
 8000028:	6810      	ldr	r0, [r2, #0]
 800002a:	68fa      	ldr	r2, [r7, #12]
 800002c:	6839      	ldr	r1, [r7, #0]
 800002e:	440a      	add	r2, r1
 8000030:	b2c1      	uxtb	r1, r0
 8000032:	7011      	strb	r1, [r2, #0]
 8000034:	68fa      	ldr	r2, [r7, #12]
 8000036:	3201      	adds	r2, #1
 8000038:	60fa      	str	r2, [r7, #12]
 800003a:	68fa      	ldr	r2, [r7, #12]
 800003c:	2a12      	cmp	r2, #18
 800003e:	dde9      	ble.n	8000014 <get_external_randomness+0x14>
 8000040:	bf00      	nop
 8000042:	bf00      	nop
 8000044:	3714      	adds	r7, #20
 8000046:	46bd      	mov	sp, r7
 8000048:	bc80      	pop	{r7}
 800004a:	4770      	bx	lr
 800004c:	0002f94c 	.word	0x0002f94c
 8000050:	00000008 	.word	0x00000008

08000054 <report_done>:
 8000054:	b508      	push	{r3, lr}
 8000056:	f7ff fffd 	bl	8000054 <report_done>
 800005a:	bf00      	nop

0800005c <main>:
 800005c:	e92d 4370 	stmdb	sp!, {r4, r5, r6, r8, r9, lr}
 8000060:	4b1c      	ldr	r3, [pc, #112]	; (80000d4 <main+0x78>)
 8000062:	4a1d      	ldr	r2, [pc, #116]	; (80000d8 <main+0x7c>)
 8000064:	447b      	add	r3, pc
 8000066:	f5ad 6df2 	sub.w	sp, sp, #1936	; 0x790
 800006a:	589e      	ldr	r6, [r3, r2]
 800006c:	aa04      	add	r2, sp, #16
 800006e:	4631      	mov	r1, r6
 8000070:	2300      	movs	r3, #0
 8000072:	4691      	mov	r9, r2
 8000074:	3301      	adds	r3, #1
 8000076:	f811 0b01 	ldrb.w	r0, [r1], #1
 800007a:	f802 0b01 	strb.w	r0, [r2], #1
 800007e:	2b10      	cmp	r3, #16
 8000080:	d1f8      	bne.n	8000074 <main+0x18>
 8000082:	4c16      	ldr	r4, [pc, #88]	; (80000dc <main+0x80>)
 8000084:	f10d 0830 	add.w	r8, sp, #48	; 0x30
 8000088:	447c      	add	r4, pc
 800008a:	46c4      	mov	ip, r8
 800008c:	f104 0310 	add.w	r3, r4, #16
 8000090:	6820      	ldr	r0, [r4, #0]
 8000092:	6861      	ldr	r1, [r4, #4]
 8000094:	4665      	mov	r5, ip
 8000096:	c503      	stmia	r5!, {r0, r1}
 8000098:	3408      	adds	r4, #8
 800009a:	429c      	cmp	r4, r3
 800009c:	46ac      	mov	ip, r5
 800009e:	d1f7      	bne.n	8000090 <main+0x34>
 80000a0:	ac10      	add	r4, sp, #64	; 0x40
 80000a2:	ad15      	add	r5, sp, #84	; 0x54
 80000a4:	4621      	mov	r1, r4
 80000a6:	4628      	mov	r0, r5
 80000a8:	f7ff ffaa 	bl	8000000 <get_external_randomness>
 80000ac:	e9cd 4501 	strd	r4, r5, [sp, #4]
 80000b0:	ac08      	add	r4, sp, #32
 80000b2:	464b      	mov	r3, r9
 80000b4:	9400      	str	r4, [sp, #0]
 80000b6:	4642      	mov	r2, r8
 80000b8:	a91a      	add	r1, sp, #104	; 0x68
 80000ba:	206b      	movs	r0, #107	; 0x6b
 80000bc:	f000 f8bb 	bl	8000236 <aes>
 80000c0:	2300      	movs	r3, #0
 80000c2:	3301      	adds	r3, #1
 80000c4:	f814 2b01 	ldrb.w	r2, [r4], #1
 80000c8:	f806 2b01 	strb.w	r2, [r6], #1
 80000cc:	2b10      	cmp	r3, #16
 80000ce:	d1f8      	bne.n	80000c2 <main+0x66>
 80000d0:	f7ff ffc0 	bl	8000054 <report_done>
 80000d4:	0002f8f4 	.word	0x0002f8f4
 80000d8:	00000004 	.word	0x00000004
 80000dc:	00001174 	.word	0x00001174

080000e0 <get_random>:
 80000e0:	b570      	push	{r4, r5, r6, lr}
 80000e2:	4b0f      	ldr	r3, [pc, #60]	; (8000120 <get_random+0x40>)
 80000e4:	4a0f      	ldr	r2, [pc, #60]	; (8000124 <get_random+0x44>)
 80000e6:	447b      	add	r3, pc
 80000e8:	4604      	mov	r4, r0
 80000ea:	589a      	ldr	r2, [r3, r2]
 80000ec:	6813      	ldr	r3, [r2, #0]
 80000ee:	3b55      	subs	r3, #85	; 0x55
 80000f0:	7003      	strb	r3, [r0, #0]
 80000f2:	f1c0 0601 	rsb	r6, r0, #1
 80000f6:	1935      	adds	r5, r6, r4
 80000f8:	428d      	cmp	r5, r1
 80000fa:	7813      	ldrb	r3, [r2, #0]
 80000fc:	d30a      	bcc.n	8000114 <get_random+0x34>
 80000fe:	4408      	add	r0, r1
 8000100:	3b11      	subs	r3, #17
 8000102:	f043 0301 	orr.w	r3, r3, #1
 8000106:	f800 3c01 	strb.w	r3, [r0, #-1]
 800010a:	6813      	ldr	r3, [r2, #0]
 800010c:	3301      	adds	r3, #1
 800010e:	6013      	str	r3, [r2, #0]
 8000110:	2000      	movs	r0, #0
 8000112:	bd70      	pop	{r4, r5, r6, pc}
 8000114:	7825      	ldrb	r5, [r4, #0]
 8000116:	3b33      	subs	r3, #51	; 0x33
 8000118:	442b      	add	r3, r5
 800011a:	f804 3f01 	strb.w	r3, [r4, #1]!
 800011e:	e7ea      	b.n	80000f6 <get_random+0x16>
 8000120:	0002f872 	.word	0x0002f872
 8000124:	00000000 	.word	0x00000000

08000128 <cortex_m4_cycles_reset>:
 8000128:	4a06      	ldr	r2, [pc, #24]	; (8000144 <cortex_m4_cycles_reset+0x1c>)
 800012a:	6813      	ldr	r3, [r2, #0]
 800012c:	f043 7380 	orr.w	r3, r3, #16777216	; 0x1000000
 8000130:	6013      	str	r3, [r2, #0]
 8000132:	4b05      	ldr	r3, [pc, #20]	; (8000148 <cortex_m4_cycles_reset+0x20>)
 8000134:	2200      	movs	r2, #0
 8000136:	601a      	str	r2, [r3, #0]
 8000138:	4a04      	ldr	r2, [pc, #16]	; (800014c <cortex_m4_cycles_reset+0x24>)
 800013a:	6813      	ldr	r3, [r2, #0]
 800013c:	f043 0301 	orr.w	r3, r3, #1
 8000140:	6013      	str	r3, [r2, #0]
 8000142:	4770      	bx	lr
 8000144:	e000edfc 	.word	0xe000edfc
 8000148:	e0001004 	.word	0xe0001004
 800014c:	e0001000 	.word	0xe0001000

08000150 <get_cortex_m4_cycles>:
 8000150:	4b01      	ldr	r3, [pc, #4]	; (8000158 <get_cortex_m4_cycles+0x8>)
 8000152:	6818      	ldr	r0, [r3, #0]
 8000154:	4770      	bx	lr
 8000156:	bf00      	nop
 8000158:	e0001004 	.word	0xe0001004

0800015c <cipher>:
 800015c:	f000 be4e 	b.w	8000dfc <aes_enc>

08000160 <test_parameter_content>:
 8000160:	b530      	push	{r4, r5, lr}
 8000162:	f010 0f01 	tst.w	r0, #1
 8000166:	e9dd 4503 	ldrd	r4, r5, [sp, #12]
 800016a:	d000      	beq.n	800016e <test_parameter_content+0xe>
 800016c:	b1a9      	cbz	r1, 800019a <test_parameter_content+0x3a>
 800016e:	f000 0121 	and.w	r1, r0, #33	; 0x21
 8000172:	2921      	cmp	r1, #33	; 0x21
 8000174:	d100      	bne.n	8000178 <test_parameter_content+0x18>
 8000176:	b19d      	cbz	r5, 80001a0 <test_parameter_content+0x40>
 8000178:	0645      	lsls	r5, r0, #25
 800017a:	d500      	bpl.n	800017e <test_parameter_content+0x1e>
 800017c:	b19c      	cbz	r4, 80001a6 <test_parameter_content+0x46>
 800017e:	0701      	lsls	r1, r0, #28
 8000180:	d501      	bpl.n	8000186 <test_parameter_content+0x26>
 8000182:	b19a      	cbz	r2, 80001ac <test_parameter_content+0x4c>
 8000184:	b193      	cbz	r3, 80001ac <test_parameter_content+0x4c>
 8000186:	f010 0010 	ands.w	r0, r0, #16
 800018a:	d005      	beq.n	8000198 <test_parameter_content+0x38>
 800018c:	b172      	cbz	r2, 80001ac <test_parameter_content+0x4c>
 800018e:	2b00      	cmp	r3, #0
 8000190:	bf14      	ite	ne
 8000192:	2000      	movne	r0, #0
 8000194:	f44f 5080 	moveq.w	r0, #4096	; 0x1000
 8000198:	bd30      	pop	{r4, r5, pc}
 800019a:	f44f 4000 	mov.w	r0, #32768	; 0x8000
 800019e:	e7fb      	b.n	8000198 <test_parameter_content+0x38>
 80001a0:	f44f 7000 	mov.w	r0, #512	; 0x200
 80001a4:	e7f8      	b.n	8000198 <test_parameter_content+0x38>
 80001a6:	f44f 7080 	mov.w	r0, #256	; 0x100
 80001aa:	e7f5      	b.n	8000198 <test_parameter_content+0x38>
 80001ac:	f44f 5080 	mov.w	r0, #4096	; 0x1000
 80001b0:	e7f2      	b.n	8000198 <test_parameter_content+0x38>

080001b2 <test_mode>:
 80001b2:	f000 0318 	and.w	r3, r0, #24
 80001b6:	2b18      	cmp	r3, #24
 80001b8:	d00f      	beq.n	80001da <test_mode+0x28>
 80001ba:	f000 0306 	and.w	r3, r0, #6
 80001be:	2b06      	cmp	r3, #6
 80001c0:	d00d      	beq.n	80001de <test_mode+0x2c>
 80001c2:	f000 0312 	and.w	r3, r0, #18
 80001c6:	2b12      	cmp	r3, #18
 80001c8:	d00b      	beq.n	80001e2 <test_mode+0x30>
 80001ca:	f000 030c 	and.w	r3, r0, #12
 80001ce:	2b0c      	cmp	r3, #12
 80001d0:	d007      	beq.n	80001e2 <test_mode+0x30>
 80001d2:	fab0 f080 	clz	r0, r0
 80001d6:	0940      	lsrs	r0, r0, #5
 80001d8:	4770      	bx	lr
 80001da:	2002      	movs	r0, #2
 80001dc:	4770      	bx	lr
 80001de:	2004      	movs	r0, #4
 80001e0:	4770      	bx	lr
 80001e2:	2008      	movs	r0, #8
 80001e4:	4770      	bx	lr

080001e6 <test_mode_state>:
 80001e6:	0703      	lsls	r3, r0, #28
 80001e8:	d509      	bpl.n	80001fe <test_mode_state+0x18>
 80001ea:	ea40 0301 	orr.w	r3, r0, r1
 80001ee:	07da      	lsls	r2, r3, #31
 80001f0:	d51b      	bpl.n	800022a <test_mode_state+0x44>
 80001f2:	078a      	lsls	r2, r1, #30
 80001f4:	d401      	bmi.n	80001fa <test_mode_state+0x14>
 80001f6:	0742      	lsls	r2, r0, #29
 80001f8:	d41a      	bmi.n	8000230 <test_mode_state+0x4a>
 80001fa:	079a      	lsls	r2, r3, #30
 80001fc:	d510      	bpl.n	8000220 <test_mode_state+0x3a>
 80001fe:	f010 0310 	ands.w	r3, r0, #16
 8000202:	d010      	beq.n	8000226 <test_mode_state+0x40>
 8000204:	4308      	orrs	r0, r1
 8000206:	07c3      	lsls	r3, r0, #31
 8000208:	d50f      	bpl.n	800022a <test_mode_state+0x44>
 800020a:	f001 0106 	and.w	r1, r1, #6
 800020e:	2902      	cmp	r1, #2
 8000210:	d00e      	beq.n	8000230 <test_mode_state+0x4a>
 8000212:	f010 0f04 	tst.w	r0, #4
 8000216:	bf14      	ite	ne
 8000218:	2000      	movne	r0, #0
 800021a:	f44f 3000 	moveq.w	r0, #131072	; 0x20000
 800021e:	4770      	bx	lr
 8000220:	f44f 3000 	mov.w	r0, #131072	; 0x20000
 8000224:	4770      	bx	lr
 8000226:	4618      	mov	r0, r3
 8000228:	4770      	bx	lr
 800022a:	f44f 2080 	mov.w	r0, #262144	; 0x40000
 800022e:	4770      	bx	lr
 8000230:	f44f 2000 	mov.w	r0, #524288	; 0x80000
 8000234:	4770      	bx	lr

08000236 <aes>:
 8000236:	e92d 4ff0 	stmdb	sp!, {r4, r5, r6, r7, r8, r9, sl, fp, lr}
 800023a:	b089      	sub	sp, #36	; 0x24
 800023c:	f04f 0800 	mov.w	r8, #0
 8000240:	f8dd b048 	ldr.w	fp, [sp, #72]	; 0x48
 8000244:	4699      	mov	r9, r3
 8000246:	4606      	mov	r6, r0
 8000248:	460c      	mov	r4, r1
 800024a:	4692      	mov	sl, r2
 800024c:	af03      	add	r7, sp, #12
 800024e:	4643      	mov	r3, r8
 8000250:	f807 3008 	strb.w	r3, [r7, r8]
 8000254:	f108 0801 	add.w	r8, r8, #1
 8000258:	f1b8 0f13 	cmp.w	r8, #19
 800025c:	d1f8      	bne.n	8000250 <aes+0x1a>
 800025e:	4630      	mov	r0, r6
 8000260:	f7ff ffa7 	bl	80001b2 <test_mode>
 8000264:	4605      	mov	r5, r0
 8000266:	2800      	cmp	r0, #0
 8000268:	d147      	bne.n	80002fa <aes+0xc4>
 800026a:	f894 1724 	ldrb.w	r1, [r4, #1828]	; 0x724
 800026e:	4630      	mov	r0, r6
 8000270:	f7ff ffb9 	bl	80001e6 <test_mode_state>
 8000274:	4605      	mov	r5, r0
 8000276:	2800      	cmp	r0, #0
 8000278:	d13f      	bne.n	80002fa <aes+0xc4>
 800027a:	9b14      	ldr	r3, [sp, #80]	; 0x50
 800027c:	9301      	str	r3, [sp, #4]
 800027e:	9b13      	ldr	r3, [sp, #76]	; 0x4c
 8000280:	9300      	str	r3, [sp, #0]
 8000282:	464a      	mov	r2, r9
 8000284:	465b      	mov	r3, fp
 8000286:	4651      	mov	r1, sl
 8000288:	4630      	mov	r0, r6
 800028a:	f7ff ff69 	bl	8000160 <test_parameter_content>
 800028e:	4605      	mov	r5, r0
 8000290:	bb98      	cbnz	r0, 80002fa <aes+0xc4>
 8000292:	f006 0321 	and.w	r3, r6, #33	; 0x21
 8000296:	2b21      	cmp	r3, #33	; 0x21
 8000298:	d133      	bne.n	8000302 <aes+0xcc>
 800029a:	9b14      	ldr	r3, [sp, #80]	; 0x50
 800029c:	4639      	mov	r1, r7
 800029e:	1e5a      	subs	r2, r3, #1
 80002a0:	3312      	adds	r3, #18
 80002a2:	f812 0f01 	ldrb.w	r0, [r2, #1]!
 80002a6:	f801 0b01 	strb.w	r0, [r1], #1
 80002aa:	429a      	cmp	r2, r3
 80002ac:	d1f9      	bne.n	80002a2 <aes+0x6c>
 80002ae:	07f0      	lsls	r0, r6, #31
 80002b0:	d50e      	bpl.n	80002d0 <aes+0x9a>
 80002b2:	463a      	mov	r2, r7
 80002b4:	4651      	mov	r1, sl
 80002b6:	4620      	mov	r0, r4
 80002b8:	f000 fc98 	bl	8000bec <aes_loadKey>
 80002bc:	2800      	cmp	r0, #0
 80002be:	d171      	bne.n	80003a4 <aes+0x16e>
 80002c0:	f894 3724 	ldrb.w	r3, [r4, #1828]	; 0x724
 80002c4:	f8c4 0720 	str.w	r0, [r4, #1824]	; 0x720
 80002c8:	f043 0301 	orr.w	r3, r3, #1
 80002cc:	f884 3724 	strb.w	r3, [r4, #1828]	; 0x724
 80002d0:	0671      	lsls	r1, r6, #25
 80002d2:	d51e      	bpl.n	8000312 <aes+0xdc>
 80002d4:	9b13      	ldr	r3, [sp, #76]	; 0x4c
 80002d6:	4639      	mov	r1, r7
 80002d8:	1e5a      	subs	r2, r3, #1
 80002da:	3312      	adds	r3, #18
 80002dc:	f812 0f01 	ldrb.w	r0, [r2, #1]!
 80002e0:	f801 0b01 	strb.w	r0, [r1], #1
 80002e4:	429a      	cmp	r2, r3
 80002e6:	d1f9      	bne.n	80002dc <aes+0xa6>
 80002e8:	07b2      	lsls	r2, r6, #30
 80002ea:	d524      	bpl.n	8000336 <aes+0x100>
 80002ec:	4639      	mov	r1, r7
 80002ee:	f504 7068 	add.w	r0, r4, #928	; 0x3a0
 80002f2:	f000 fceb 	bl	8000ccc <aes_init_enc>
 80002f6:	b1a0      	cbz	r0, 8000322 <aes+0xec>
 80002f8:	2580      	movs	r5, #128	; 0x80
 80002fa:	4628      	mov	r0, r5
 80002fc:	b009      	add	sp, #36	; 0x24
 80002fe:	e8bd 8ff0 	ldmia.w	sp!, {r4, r5, r6, r7, r8, r9, sl, fp, pc}
 8000302:	4641      	mov	r1, r8
 8000304:	4638      	mov	r0, r7
 8000306:	f7ff feeb 	bl	80000e0 <get_random>
 800030a:	2800      	cmp	r0, #0
 800030c:	d0cf      	beq.n	80002ae <aes+0x78>
 800030e:	2510      	movs	r5, #16
 8000310:	e7f3      	b.n	80002fa <aes+0xc4>
 8000312:	2113      	movs	r1, #19
 8000314:	4638      	mov	r0, r7
 8000316:	f7ff fee3 	bl	80000e0 <get_random>
 800031a:	2800      	cmp	r0, #0
 800031c:	d0e4      	beq.n	80002e8 <aes+0xb2>
 800031e:	2520      	movs	r5, #32
 8000320:	e7eb      	b.n	80002fa <aes+0xc4>
 8000322:	f894 3724 	ldrb.w	r3, [r4, #1828]	; 0x724
 8000326:	f8c4 071c 	str.w	r0, [r4, #1820]	; 0x71c
 800032a:	f023 0304 	bic.w	r3, r3, #4
 800032e:	f043 0302 	orr.w	r3, r3, #2
 8000332:	f884 3724 	strb.w	r3, [r4, #1828]	; 0x724
 8000336:	0773      	lsls	r3, r6, #29
 8000338:	d510      	bpl.n	800035c <aes+0x126>
 800033a:	4639      	mov	r1, r7
 800033c:	f504 7068 	add.w	r0, r4, #928	; 0x3a0
 8000340:	f000 fd10 	bl	8000d64 <aes_init_dec>
 8000344:	2800      	cmp	r0, #0
 8000346:	d1d7      	bne.n	80002f8 <aes+0xc2>
 8000348:	f894 3724 	ldrb.w	r3, [r4, #1828]	; 0x724
 800034c:	f8c4 071c 	str.w	r0, [r4, #1820]	; 0x71c
 8000350:	f023 0302 	bic.w	r3, r3, #2
 8000354:	f043 0304 	orr.w	r3, r3, #4
 8000358:	f884 3724 	strb.w	r3, [r4, #1828]	; 0x724
 800035c:	f006 0618 	and.w	r6, r6, #24
 8000360:	2e08      	cmp	r6, #8
 8000362:	d00c      	beq.n	800037e <aes+0x148>
 8000364:	2e10      	cmp	r6, #16
 8000366:	d1c8      	bne.n	80002fa <aes+0xc4>
 8000368:	465b      	mov	r3, fp
 800036a:	464a      	mov	r2, r9
 800036c:	4621      	mov	r1, r4
 800036e:	f504 7068 	add.w	r0, r4, #928	; 0x3a0
 8000372:	f000 fe2c 	bl	8000fce <aes_dec>
 8000376:	b150      	cbz	r0, 800038e <aes+0x158>
 8000378:	f44f 7500 	mov.w	r5, #512	; 0x200
 800037c:	e7bd      	b.n	80002fa <aes+0xc4>
 800037e:	465b      	mov	r3, fp
 8000380:	464a      	mov	r2, r9
 8000382:	4621      	mov	r1, r4
 8000384:	f504 7068 	add.w	r0, r4, #928	; 0x3a0
 8000388:	f7ff fee8 	bl	800015c <cipher>
 800038c:	b960      	cbnz	r0, 80003a8 <aes+0x172>
 800038e:	f8d4 3720 	ldr.w	r3, [r4, #1824]	; 0x720
 8000392:	3301      	adds	r3, #1
 8000394:	f8c4 3720 	str.w	r3, [r4, #1824]	; 0x720
 8000398:	f8d4 371c 	ldr.w	r3, [r4, #1820]	; 0x71c
 800039c:	3301      	adds	r3, #1
 800039e:	f8c4 371c 	str.w	r3, [r4, #1820]	; 0x71c
 80003a2:	e7aa      	b.n	80002fa <aes+0xc4>
 80003a4:	2540      	movs	r5, #64	; 0x40
 80003a6:	e7a8      	b.n	80002fa <aes+0xc4>
 80003a8:	f44f 7580 	mov.w	r5, #256	; 0x100
 80003ac:	e7a5      	b.n	80002fa <aes+0xc4>

080003ae <Compute_GTab>:
 80003ae:	f24f 7449 	movw	r4, #63305	; 0xf749
 80003b2:	f6c0 0402 	movt	r4, #2050	; 0x802
 80003b6:	f64f 0549 	movw	r5, #63561	; 0xf849
 80003ba:	f6c0 0502 	movt	r5, #2050	; 0x802
 80003be:	5de7      	ldrb	r7, [r4, r7]
 80003c0:	463e      	mov	r6, r7
 80003c2:	ea4f 2707 	mov.w	r7, r7, lsl #8
 80003c6:	ea86 0607 	eor.w	r6, r6, r7
 80003ca:	ea4f 2707 	mov.w	r7, r7, lsl #8
 80003ce:	ea86 0607 	eor.w	r6, r6, r7
 80003d2:	ea4f 2707 	mov.w	r7, r7, lsl #8
 80003d6:	ea86 0707 	eor.w	r7, r6, r7
 80003da:	f04f 3201 	mov.w	r2, #16843009	; 0x1010101
 80003de:	f04f 0a00 	mov.w	sl, #0
 80003e2:	b403      	push	{r0, r1}
 80003e4:	9802      	ldr	r0, [sp, #8]
 80003e6:	f04f 0101 	mov.w	r1, #1
 80003ea:	6001      	str	r1, [r0, #0]
 80003ec:	bc03      	pop	{r0, r1}
 80003ee:	b403      	push	{r0, r1}
 80003f0:	9802      	ldr	r0, [sp, #8]
 80003f2:	6801      	ldr	r1, [r0, #0]
 80003f4:	f101 0101 	add.w	r1, r1, #1
 80003f8:	2942      	cmp	r1, #66	; 0x42
 80003fa:	6001      	str	r1, [r0, #0]
 80003fc:	bc03      	pop	{r0, r1}
 80003fe:	d02e      	beq.n	800045e <Compute_GTab+0xb0>
 8000400:	f854 6b04 	ldr.w	r6, [r4], #4
 8000404:	fa86 f647 	uadd8	r6, r6, r7
 8000408:	faa2 f88a 	sel	r8, r2, sl
 800040c:	fa86 f648 	uadd8	r6, r6, r8
 8000410:	46b0      	mov	r8, r6
 8000412:	f008 08ff 	and.w	r8, r8, #255	; 0xff
 8000416:	f815 8008 	ldrb.w	r8, [r5, r8]
 800041a:	46c3      	mov	fp, r8
 800041c:	ea4f 2816 	mov.w	r8, r6, lsr #8
 8000420:	f008 08ff 	and.w	r8, r8, #255	; 0xff
 8000424:	f815 8008 	ldrb.w	r8, [r5, r8]
 8000428:	ea4f 2808 	mov.w	r8, r8, lsl #8
 800042c:	ea8b 0b08 	eor.w	fp, fp, r8
 8000430:	ea4f 4816 	mov.w	r8, r6, lsr #16
 8000434:	f008 08ff 	and.w	r8, r8, #255	; 0xff
 8000438:	f815 8008 	ldrb.w	r8, [r5, r8]
 800043c:	ea4f 4808 	mov.w	r8, r8, lsl #16
 8000440:	ea8b 0b08 	eor.w	fp, fp, r8
 8000444:	ea4f 6816 	mov.w	r8, r6, lsr #24
 8000448:	f008 08ff 	and.w	r8, r8, #255	; 0xff
 800044c:	f815 8008 	ldrb.w	r8, [r5, r8]
 8000450:	ea4f 6808 	mov.w	r8, r8, lsl #24
 8000454:	ea8b 0b08 	eor.w	fp, fp, r8
 8000458:	f843 bb04 	str.w	fp, [r3], #4
 800045c:	e7c7      	b.n	80003ee <Compute_GTab+0x40>
 800045e:	f5a3 7380 	sub.w	r3, r3, #256	; 0x100
 8000462:	f04f 0600 	mov.w	r6, #0
 8000466:	701e      	strb	r6, [r3, #0]
 8000468:	4770      	bx	lr

0800046a <Load_data>:
 800046a:	9b00      	ldr	r3, [sp, #0]
 800046c:	f503 7313 	add.w	r3, r3, #588	; 0x24c
 8000470:	9d00      	ldr	r5, [sp, #0]
 8000472:	f505 7502 	add.w	r5, r5, #520	; 0x208
 8000476:	9e00      	ldr	r6, [sp, #0]
 8000478:	f506 7617 	add.w	r6, r6, #604	; 0x25c
 800047c:	b403      	push	{r0, r1}
 800047e:	9802      	ldr	r0, [sp, #8]
 8000480:	f04f 0101 	mov.w	r1, #1
 8000484:	6001      	str	r1, [r0, #0]
 8000486:	bc03      	pop	{r0, r1}
 8000488:	b403      	push	{r0, r1}
 800048a:	9802      	ldr	r0, [sp, #8]
 800048c:	6801      	ldr	r1, [r0, #0]
 800048e:	f101 0101 	add.w	r1, r1, #1
 8000492:	2912      	cmp	r1, #18
 8000494:	6001      	str	r1, [r0, #0]
 8000496:	bc03      	pop	{r0, r1}
 8000498:	d008      	beq.n	80004ac <Load_data+0x42>
 800049a:	f812 4b01 	ldrb.w	r4, [r2], #1
 800049e:	f803 4b01 	strb.w	r4, [r3], #1
 80004a2:	f815 4b01 	ldrb.w	r4, [r5], #1
 80004a6:	f806 4b01 	strb.w	r4, [r6], #1
 80004aa:	e7ed      	b.n	8000488 <Load_data+0x1e>
 80004ac:	4770      	bx	lr

080004ae <Load_masterKey>:
 80004ae:	f8dd 8000 	ldr.w	r8, [sp]
 80004b2:	f108 0808 	add.w	r8, r8, #8
 80004b6:	9f00      	ldr	r7, [sp, #0]
 80004b8:	f107 07b8 	add.w	r7, r7, #184	; 0xb8
 80004bc:	f8dd c000 	ldr.w	ip, [sp]
 80004c0:	f50c 7cba 	add.w	ip, ip, #372	; 0x174
 80004c4:	b403      	push	{r0, r1}
 80004c6:	9802      	ldr	r0, [sp, #8]
 80004c8:	f04f 0101 	mov.w	r1, #1
 80004cc:	6001      	str	r1, [r0, #0]
 80004ce:	bc03      	pop	{r0, r1}
 80004d0:	b403      	push	{r0, r1}
 80004d2:	9802      	ldr	r0, [sp, #8]
 80004d4:	6801      	ldr	r1, [r0, #0]
 80004d6:	f101 0101 	add.w	r1, r1, #1
 80004da:	2912      	cmp	r1, #18
 80004dc:	6001      	str	r1, [r0, #0]
 80004de:	bc03      	pop	{r0, r1}
 80004e0:	d00a      	beq.n	80004f8 <Load_masterKey+0x4a>
 80004e2:	f817 4b01 	ldrb.w	r4, [r7], #1
 80004e6:	f811 3b01 	ldrb.w	r3, [r1], #1
 80004ea:	f81c 3003 	ldrb.w	r3, [ip, r3]
 80004ee:	ea83 0404 	eor.w	r4, r3, r4
 80004f2:	f808 4b01 	strb.w	r4, [r8], #1
 80004f6:	e7eb      	b.n	80004d0 <Load_masterKey+0x22>
 80004f8:	4770      	bx	lr

080004fa <Load_random_key>:
 80004fa:	f8dd 8000 	ldr.w	r8, [sp]
 80004fe:	f108 08b8 	add.w	r8, r8, #184	; 0xb8
 8000502:	b403      	push	{r0, r1}
 8000504:	9802      	ldr	r0, [sp, #8]
 8000506:	f04f 0101 	mov.w	r1, #1
 800050a:	6001      	str	r1, [r0, #0]
 800050c:	bc03      	pop	{r0, r1}
 800050e:	b403      	push	{r0, r1}
 8000510:	9802      	ldr	r0, [sp, #8]
 8000512:	6801      	ldr	r1, [r0, #0]
 8000514:	f101 0101 	add.w	r1, r1, #1
 8000518:	2912      	cmp	r1, #18
 800051a:	6001      	str	r1, [r0, #0]
 800051c:	bc03      	pop	{r0, r1}
 800051e:	d004      	beq.n	800052a <Load_random_key+0x30>
 8000520:	f812 4b01 	ldrb.w	r4, [r2], #1
 8000524:	f808 4b01 	strb.w	r4, [r8], #1
 8000528:	e7f1      	b.n	800050e <Load_random_key+0x14>
 800052a:	f8dd 8000 	ldr.w	r8, [sp]
 800052e:	f508 78b4 	add.w	r8, r8, #360	; 0x168
 8000532:	f812 5b01 	ldrb.w	r5, [r2], #1
 8000536:	f888 5000 	strb.w	r5, [r8]
 800053a:	f888 5001 	strb.w	r5, [r8, #1]
 800053e:	f888 5002 	strb.w	r5, [r8, #2]
 8000542:	f888 5003 	strb.w	r5, [r8, #3]
 8000546:	f8dd 8000 	ldr.w	r8, [sp]
 800054a:	f508 78b6 	add.w	r8, r8, #364	; 0x16c
 800054e:	f812 5b01 	ldrb.w	r5, [r2], #1
 8000552:	f888 5000 	strb.w	r5, [r8]
 8000556:	f888 5001 	strb.w	r5, [r8, #1]
 800055a:	f888 5002 	strb.w	r5, [r8, #2]
 800055e:	f888 5003 	strb.w	r5, [r8, #3]
 8000562:	f8dd 8000 	ldr.w	r8, [sp]
 8000566:	f508 78b8 	add.w	r8, r8, #368	; 0x170
 800056a:	7817      	ldrb	r7, [r2, #0]
 800056c:	f888 7000 	strb.w	r7, [r8]
 8000570:	4770      	bx	lr

08000572 <Load_random>:
 8000572:	9b00      	ldr	r3, [sp, #0]
 8000574:	f503 7302 	add.w	r3, r3, #520	; 0x208
 8000578:	b403      	push	{r0, r1}
 800057a:	9802      	ldr	r0, [sp, #8]
 800057c:	f04f 0101 	mov.w	r1, #1
 8000580:	6001      	str	r1, [r0, #0]
 8000582:	bc03      	pop	{r0, r1}
 8000584:	b403      	push	{r0, r1}
 8000586:	9802      	ldr	r0, [sp, #8]
 8000588:	6801      	ldr	r1, [r0, #0]
 800058a:	f101 0101 	add.w	r1, r1, #1
 800058e:	2912      	cmp	r1, #18
 8000590:	6001      	str	r1, [r0, #0]
 8000592:	bc03      	pop	{r0, r1}
 8000594:	d004      	beq.n	80005a0 <Load_random+0x2e>
 8000596:	f811 4b01 	ldrb.w	r4, [r1], #1
 800059a:	f803 4b01 	strb.w	r4, [r3], #1
 800059e:	e7f1      	b.n	8000584 <Load_random+0x12>
 80005a0:	9f00      	ldr	r7, [sp, #0]
 80005a2:	f507 7710 	add.w	r7, r7, #576	; 0x240
 80005a6:	f811 5b01 	ldrb.w	r5, [r1], #1
 80005aa:	703d      	strb	r5, [r7, #0]
 80005ac:	707d      	strb	r5, [r7, #1]
 80005ae:	70bd      	strb	r5, [r7, #2]
 80005b0:	70fd      	strb	r5, [r7, #3]
 80005b2:	683d      	ldr	r5, [r7, #0]
 80005b4:	9f00      	ldr	r7, [sp, #0]
 80005b6:	f507 7711 	add.w	r7, r7, #580	; 0x244
 80005ba:	f811 5b01 	ldrb.w	r5, [r1], #1
 80005be:	703d      	strb	r5, [r7, #0]
 80005c0:	707d      	strb	r5, [r7, #1]
 80005c2:	70bd      	strb	r5, [r7, #2]
 80005c4:	70fd      	strb	r5, [r7, #3]
 80005c6:	683d      	ldr	r5, [r7, #0]
 80005c8:	9d00      	ldr	r5, [sp, #0]
 80005ca:	f505 7512 	add.w	r5, r5, #584	; 0x248
 80005ce:	780f      	ldrb	r7, [r1, #0]
 80005d0:	702f      	strb	r7, [r5, #0]
 80005d2:	4770      	bx	lr

080005d4 <Compute_Affine_sboxMasked>:
 80005d4:	46a4      	mov	ip, r4
 80005d6:	b403      	push	{r0, r1}
 80005d8:	9802      	ldr	r0, [sp, #8]
 80005da:	f04f 0101 	mov.w	r1, #1
 80005de:	6001      	str	r1, [r0, #0]
 80005e0:	bc03      	pop	{r0, r1}
 80005e2:	b403      	push	{r0, r1}
 80005e4:	9802      	ldr	r0, [sp, #8]
 80005e6:	6801      	ldr	r1, [r0, #0]
 80005e8:	f101 0101 	add.w	r1, r1, #1
 80005ec:	2942      	cmp	r1, #66	; 0x42
 80005ee:	6001      	str	r1, [r0, #0]
 80005f0:	bc03      	pop	{r0, r1}
 80005f2:	d02e      	beq.n	8000652 <Compute_Affine_sboxMasked+0x7e>
 80005f4:	f854 6b04 	ldr.w	r6, [r4], #4
 80005f8:	ea86 0601 	eor.w	r6, r6, r1
 80005fc:	f006 00ff 	and.w	r0, r6, #255	; 0xff
 8000600:	f812 7b01 	ldrb.w	r7, [r2], #1
 8000604:	f81c 7007 	ldrb.w	r7, [ip, r7]
 8000608:	ea87 0708 	eor.w	r7, r7, r8
 800060c:	541f      	strb	r7, [r3, r0]
 800060e:	ea4f 2016 	mov.w	r0, r6, lsr #8
 8000612:	f000 00ff 	and.w	r0, r0, #255	; 0xff
 8000616:	f812 7b01 	ldrb.w	r7, [r2], #1
 800061a:	f81c 7007 	ldrb.w	r7, [ip, r7]
 800061e:	ea87 0708 	eor.w	r7, r7, r8
 8000622:	541f      	strb	r7, [r3, r0]
 8000624:	ea4f 4016 	mov.w	r0, r6, lsr #16
 8000628:	f000 00ff 	and.w	r0, r0, #255	; 0xff
 800062c:	f812 7b01 	ldrb.w	r7, [r2], #1
 8000630:	f81c 7007 	ldrb.w	r7, [ip, r7]
 8000634:	ea87 0708 	eor.w	r7, r7, r8
 8000638:	541f      	strb	r7, [r3, r0]
 800063a:	ea4f 6016 	mov.w	r0, r6, lsr #24
 800063e:	f000 00ff 	and.w	r0, r0, #255	; 0xff
 8000642:	f812 7b01 	ldrb.w	r7, [r2], #1
 8000646:	f81c 7007 	ldrb.w	r7, [ip, r7]
 800064a:	ea87 0708 	eor.w	r7, r7, r8
 800064e:	541f      	strb	r7, [r3, r0]
 8000650:	e7c7      	b.n	80005e2 <Compute_Affine_sboxMasked+0xe>
 8000652:	4770      	bx	lr

08000654 <Compute_permIndices_Tables_MC>:
 8000654:	5da2      	ldrb	r2, [r4, r6]
 8000656:	f002 0203 	and.w	r2, r2, #3
 800065a:	f04f 0500 	mov.w	r5, #0
 800065e:	b403      	push	{r0, r1}
 8000660:	9802      	ldr	r0, [sp, #8]
 8000662:	f04f 0101 	mov.w	r1, #1
 8000666:	6001      	str	r1, [r0, #0]
 8000668:	bc03      	pop	{r0, r1}
 800066a:	b403      	push	{r0, r1}
 800066c:	9802      	ldr	r0, [sp, #8]
 800066e:	6801      	ldr	r1, [r0, #0]
 8000670:	f101 0101 	add.w	r1, r1, #1
 8000674:	2906      	cmp	r1, #6
 8000676:	6001      	str	r1, [r0, #0]
 8000678:	bc03      	pop	{r0, r1}
 800067a:	d006      	beq.n	800068a <Compute_permIndices_Tables_MC+0x36>
 800067c:	ea85 0602 	eor.w	r6, r5, r2
 8000680:	f800 6b01 	strb.w	r6, [r0], #1
 8000684:	f105 0501 	add.w	r5, r5, #1
 8000688:	e7ef      	b.n	800066a <Compute_permIndices_Tables_MC+0x16>
 800068a:	4770      	bx	lr

0800068c <Compute_permIndices_Tables>:
 800068c:	f64f 1549 	movw	r5, #63817	; 0xf949
 8000690:	f6c0 0502 	movt	r5, #2050	; 0x802
 8000694:	f814 1b01 	ldrb.w	r1, [r4], #1
 8000698:	f001 010f 	and.w	r1, r1, #15
 800069c:	f814 8b01 	ldrb.w	r8, [r4], #1
 80006a0:	f008 080f 	and.w	r8, r8, #15
 80006a4:	f814 bb01 	ldrb.w	fp, [r4], #1
 80006a8:	f00b 0b0f 	and.w	fp, fp, #15
 80006ac:	f814 ab01 	ldrb.w	sl, [r4], #1
 80006b0:	f00a 0a0f 	and.w	sl, sl, #15
 80006b4:	f04f 0000 	mov.w	r0, #0
 80006b8:	b403      	push	{r0, r1}
 80006ba:	9802      	ldr	r0, [sp, #8]
 80006bc:	f04f 0101 	mov.w	r1, #1
 80006c0:	6001      	str	r1, [r0, #0]
 80006c2:	bc03      	pop	{r0, r1}
 80006c4:	b403      	push	{r0, r1}
 80006c6:	9802      	ldr	r0, [sp, #8]
 80006c8:	6801      	ldr	r1, [r0, #0]
 80006ca:	f101 0101 	add.w	r1, r1, #1
 80006ce:	2912      	cmp	r1, #18
 80006d0:	6001      	str	r1, [r0, #0]
 80006d2:	bc03      	pop	{r0, r1}
 80006d4:	d01e      	beq.n	8000714 <Compute_permIndices_Tables+0x88>
 80006d6:	ea80 0701 	eor.w	r7, r0, r1
 80006da:	5def      	ldrb	r7, [r5, r7]
 80006dc:	ea87 0708 	eor.w	r7, r7, r8
 80006e0:	5def      	ldrb	r7, [r5, r7]
 80006e2:	ea87 070b 	eor.w	r7, r7, fp
 80006e6:	5def      	ldrb	r7, [r5, r7]
 80006e8:	ea87 070a 	eor.w	r7, r7, sl
 80006ec:	5def      	ldrb	r7, [r5, r7]
 80006ee:	f802 7b01 	strb.w	r7, [r2], #1
 80006f2:	ea87 0701 	eor.w	r7, r7, r1
 80006f6:	5def      	ldrb	r7, [r5, r7]
 80006f8:	ea87 0708 	eor.w	r7, r7, r8
 80006fc:	5def      	ldrb	r7, [r5, r7]
 80006fe:	ea87 070b 	eor.w	r7, r7, fp
 8000702:	5def      	ldrb	r7, [r5, r7]
 8000704:	ea87 070a 	eor.w	r7, r7, sl
 8000708:	5def      	ldrb	r7, [r5, r7]
 800070a:	f803 7b01 	strb.w	r7, [r3], #1
 800070e:	f100 0001 	add.w	r0, r0, #1
 8000712:	e7d7      	b.n	80006c4 <Compute_permIndices_Tables+0x38>
 8000714:	4770      	bx	lr

08000716 <SubBytesWithMask>:
 8000716:	b403      	push	{r0, r1}
 8000718:	9802      	ldr	r0, [sp, #8]
 800071a:	f04f 0101 	mov.w	r1, #1
 800071e:	6001      	str	r1, [r0, #0]
 8000720:	bc03      	pop	{r0, r1}
 8000722:	b403      	push	{r0, r1}
 8000724:	9802      	ldr	r0, [sp, #8]
 8000726:	6801      	ldr	r1, [r0, #0]
 8000728:	f101 0101 	add.w	r1, r1, #1
 800072c:	2912      	cmp	r1, #18
 800072e:	6001      	str	r1, [r0, #0]
 8000730:	bc03      	pop	{r0, r1}
 8000732:	d00c      	beq.n	800074e <SubBytesWithMask+0x38>
 8000734:	f815 0b01 	ldrb.w	r0, [r5], #1
 8000738:	5c1c      	ldrb	r4, [r3, r0]
 800073a:	f81a 6000 	ldrb.w	r6, [sl, r0]
 800073e:	ea84 0406 	eor.w	r4, r4, r6
 8000742:	f818 4004 	ldrb.w	r4, [r8, r4]
 8000746:	ea84 0406 	eor.w	r4, r4, r6
 800074a:	541c      	strb	r4, [r3, r0]
 800074c:	e7e9      	b.n	8000722 <SubBytesWithMask+0xc>
 800074e:	683f      	ldr	r7, [r7, #0]
 8000750:	681e      	ldr	r6, [r3, #0]
 8000752:	ea86 0607 	eor.w	r6, r6, r7
 8000756:	601e      	str	r6, [r3, #0]
 8000758:	685e      	ldr	r6, [r3, #4]
 800075a:	ea86 0607 	eor.w	r6, r6, r7
 800075e:	605e      	str	r6, [r3, #4]
 8000760:	689e      	ldr	r6, [r3, #8]
 8000762:	ea86 0607 	eor.w	r6, r6, r7
 8000766:	609e      	str	r6, [r3, #8]
 8000768:	68de      	ldr	r6, [r3, #12]
 800076a:	ea86 0607 	eor.w	r6, r6, r7
 800076e:	60de      	str	r6, [r3, #12]
 8000770:	4770      	bx	lr

08000772 <ShiftRowsWithMasked>:
 8000772:	9d00      	ldr	r5, [sp, #0]
 8000774:	f505 7506 	add.w	r5, r5, #536	; 0x218
 8000778:	b403      	push	{r0, r1}
 800077a:	9802      	ldr	r0, [sp, #8]
 800077c:	f04f 0101 	mov.w	r1, #1
 8000780:	6001      	str	r1, [r0, #0]
 8000782:	bc03      	pop	{r0, r1}
 8000784:	b403      	push	{r0, r1}
 8000786:	9802      	ldr	r0, [sp, #8]
 8000788:	6801      	ldr	r1, [r0, #0]
 800078a:	f101 0101 	add.w	r1, r1, #1
 800078e:	2912      	cmp	r1, #18
 8000790:	6001      	str	r1, [r0, #0]
 8000792:	bc03      	pop	{r0, r1}
 8000794:	d007      	beq.n	80007a6 <ShiftRowsWithMasked+0x34>
 8000796:	f815 6b01 	ldrb.w	r6, [r5], #1
 800079a:	f813 8006 	ldrb.w	r8, [r3, r6]
 800079e:	5da6      	ldrb	r6, [r4, r6]
 80007a0:	f807 8006 	strb.w	r8, [r7, r6]
 80007a4:	e7ee      	b.n	8000784 <ShiftRowsWithMasked+0x12>
 80007a6:	9d00      	ldr	r5, [sp, #0]
 80007a8:	f505 7506 	add.w	r5, r5, #536	; 0x218
 80007ac:	b403      	push	{r0, r1}
 80007ae:	9802      	ldr	r0, [sp, #8]
 80007b0:	f04f 0101 	mov.w	r1, #1
 80007b4:	6001      	str	r1, [r0, #0]
 80007b6:	bc03      	pop	{r0, r1}
 80007b8:	b403      	push	{r0, r1}
 80007ba:	9802      	ldr	r0, [sp, #8]
 80007bc:	6801      	ldr	r1, [r0, #0]
 80007be:	f101 0101 	add.w	r1, r1, #1
 80007c2:	2912      	cmp	r1, #18
 80007c4:	6001      	str	r1, [r0, #0]
 80007c6:	bc03      	pop	{r0, r1}
 80007c8:	d006      	beq.n	80007d8 <ShiftRowsWithMasked+0x66>
 80007ca:	f815 6b01 	ldrb.w	r6, [r5], #1
 80007ce:	f817 8006 	ldrb.w	r8, [r7, r6]
 80007d2:	f803 8006 	strb.w	r8, [r3, r6]
 80007d6:	e7ef      	b.n	80007b8 <ShiftRowsWithMasked+0x46>
 80007d8:	9d00      	ldr	r5, [sp, #0]
 80007da:	f505 750a 	add.w	r5, r5, #552	; 0x228
 80007de:	b403      	push	{r0, r1}
 80007e0:	9802      	ldr	r0, [sp, #8]
 80007e2:	f04f 0101 	mov.w	r1, #1
 80007e6:	6001      	str	r1, [r0, #0]
 80007e8:	bc03      	pop	{r0, r1}
 80007ea:	b403      	push	{r0, r1}
 80007ec:	9802      	ldr	r0, [sp, #8]
 80007ee:	6801      	ldr	r1, [r0, #0]
 80007f0:	f101 0101 	add.w	r1, r1, #1
 80007f4:	2912      	cmp	r1, #18
 80007f6:	6001      	str	r1, [r0, #0]
 80007f8:	bc03      	pop	{r0, r1}
 80007fa:	d007      	beq.n	800080c <ShiftRowsWithMasked+0x9a>
 80007fc:	f815 6b01 	ldrb.w	r6, [r5], #1
 8000800:	f81a 8006 	ldrb.w	r8, [sl, r6]
 8000804:	5da6      	ldrb	r6, [r4, r6]
 8000806:	f807 8006 	strb.w	r8, [r7, r6]
 800080a:	e7ee      	b.n	80007ea <ShiftRowsWithMasked+0x78>
 800080c:	9d00      	ldr	r5, [sp, #0]
 800080e:	f505 750a 	add.w	r5, r5, #552	; 0x228
 8000812:	b403      	push	{r0, r1}
 8000814:	9802      	ldr	r0, [sp, #8]
 8000816:	f04f 0101 	mov.w	r1, #1
 800081a:	6001      	str	r1, [r0, #0]
 800081c:	bc03      	pop	{r0, r1}
 800081e:	b403      	push	{r0, r1}
 8000820:	9802      	ldr	r0, [sp, #8]
 8000822:	6801      	ldr	r1, [r0, #0]
 8000824:	f101 0101 	add.w	r1, r1, #1
 8000828:	2912      	cmp	r1, #18
 800082a:	6001      	str	r1, [r0, #0]
 800082c:	bc03      	pop	{r0, r1}
 800082e:	d006      	beq.n	800083e <ShiftRowsWithMasked+0xcc>
 8000830:	f815 6b01 	ldrb.w	r6, [r5], #1
 8000834:	f817 8006 	ldrb.w	r8, [r7, r6]
 8000838:	f80a 8006 	strb.w	r8, [sl, r6]
 800083c:	e7ef      	b.n	800081e <ShiftRowsWithMasked+0xac>
 800083e:	4770      	bx	lr

08000840 <MixColumns>:
 8000840:	b403      	push	{r0, r1}
 8000842:	9802      	ldr	r0, [sp, #8]
 8000844:	f04f 0101 	mov.w	r1, #1
 8000848:	6001      	str	r1, [r0, #0]
 800084a:	bc03      	pop	{r0, r1}
 800084c:	b403      	push	{r0, r1}
 800084e:	9802      	ldr	r0, [sp, #8]
 8000850:	6801      	ldr	r1, [r0, #0]
 8000852:	f101 0101 	add.w	r1, r1, #1
 8000856:	2906      	cmp	r1, #6
 8000858:	6001      	str	r1, [r0, #0]
 800085a:	bc03      	pop	{r0, r1}
 800085c:	d035      	beq.n	80008ca <MixColumns+0x8a>
 800085e:	f810 8b01 	ldrb.w	r8, [r0], #1
 8000862:	ea4f 0888 	mov.w	r8, r8, lsl #2
 8000866:	eb0a 0308 	add.w	r3, sl, r8
 800086a:	f893 8000 	ldrb.w	r8, [r3]
 800086e:	f893 b001 	ldrb.w	fp, [r3, #1]
 8000872:	ea88 040b 	eor.w	r4, r8, fp
 8000876:	789a      	ldrb	r2, [r3, #2]
 8000878:	ea84 0402 	eor.w	r4, r4, r2
 800087c:	78dd      	ldrb	r5, [r3, #3]
 800087e:	ea84 0405 	eor.w	r4, r4, r5
 8000882:	ea88 070b 	eor.w	r7, r8, fp
 8000886:	5df7      	ldrb	r7, [r6, r7]
 8000888:	ea87 0708 	eor.w	r7, r7, r8
 800088c:	ea87 0704 	eor.w	r7, r7, r4
 8000890:	f803 7b01 	strb.w	r7, [r3], #1
 8000894:	ea8b 0702 	eor.w	r7, fp, r2
 8000898:	5df7      	ldrb	r7, [r6, r7]
 800089a:	ea87 070b 	eor.w	r7, r7, fp
 800089e:	ea87 0704 	eor.w	r7, r7, r4
 80008a2:	f803 7b01 	strb.w	r7, [r3], #1
 80008a6:	ea82 0705 	eor.w	r7, r2, r5
 80008aa:	5dbf      	ldrb	r7, [r7, r6]
 80008ac:	ea87 0702 	eor.w	r7, r7, r2
 80008b0:	ea87 0704 	eor.w	r7, r7, r4
 80008b4:	f803 7b01 	strb.w	r7, [r3], #1
 80008b8:	ea88 0705 	eor.w	r7, r8, r5
 80008bc:	5df7      	ldrb	r7, [r6, r7]
 80008be:	ea87 0705 	eor.w	r7, r7, r5
 80008c2:	ea87 0704 	eor.w	r7, r7, r4
 80008c6:	701f      	strb	r7, [r3, #0]
 80008c8:	e7c0      	b.n	800084c <MixColumns+0xc>
 80008ca:	4770      	bx	lr

080008cc <InvMixColumns_part2>:
 80008cc:	b403      	push	{r0, r1}
 80008ce:	9802      	ldr	r0, [sp, #8]
 80008d0:	f04f 0101 	mov.w	r1, #1
 80008d4:	6001      	str	r1, [r0, #0]
 80008d6:	bc03      	pop	{r0, r1}
 80008d8:	b403      	push	{r0, r1}
 80008da:	9802      	ldr	r0, [sp, #8]
 80008dc:	6801      	ldr	r1, [r0, #0]
 80008de:	f101 0101 	add.w	r1, r1, #1
 80008e2:	2906      	cmp	r1, #6
 80008e4:	6001      	str	r1, [r0, #0]
 80008e6:	bc03      	pop	{r0, r1}
 80008e8:	d035      	beq.n	8000956 <InvMixColumns_part2+0x8a>
 80008ea:	9a00      	ldr	r2, [sp, #0]
 80008ec:	f502 725b 	add.w	r2, r2, #876	; 0x36c
 80008f0:	f810 8b01 	ldrb.w	r8, [r0], #1
 80008f4:	ea4f 0888 	mov.w	r8, r8, lsl #2
 80008f8:	eb0a 0308 	add.w	r3, sl, r8
 80008fc:	4442      	add	r2, r8
 80008fe:	f893 8000 	ldrb.w	r8, [r3]
 8000902:	f893 b001 	ldrb.w	fp, [r3, #1]
 8000906:	ea88 040b 	eor.w	r4, r8, fp
 800090a:	789e      	ldrb	r6, [r3, #2]
 800090c:	ea84 0406 	eor.w	r4, r4, r6
 8000910:	78dd      	ldrb	r5, [r3, #3]
 8000912:	ea88 0806 	eor.w	r8, r8, r6
 8000916:	ea84 0405 	eor.w	r4, r4, r5
 800091a:	f24f 6649 	movw	r6, #63049	; 0xf649
 800091e:	f6c0 0602 	movt	r6, #2050	; 0x802
 8000922:	5d34      	ldrb	r4, [r6, r4]
 8000924:	f24f 5649 	movw	r6, #62793	; 0xf549
 8000928:	f6c0 0602 	movt	r6, #2050	; 0x802
 800092c:	f816 8008 	ldrb.w	r8, [r6, r8]
 8000930:	ea88 0804 	eor.w	r8, r8, r4
 8000934:	f802 8b02 	strb.w	r8, [r2], #2
 8000938:	f882 8000 	strb.w	r8, [r2]
 800093c:	f1a2 0201 	sub.w	r2, r2, #1
 8000940:	ea8b 0805 	eor.w	r8, fp, r5
 8000944:	f816 8008 	ldrb.w	r8, [r6, r8]
 8000948:	ea88 0804 	eor.w	r8, r8, r4
 800094c:	f802 8b02 	strb.w	r8, [r2], #2
 8000950:	f882 8000 	strb.w	r8, [r2]
 8000954:	e7c0      	b.n	80008d8 <InvMixColumns_part2+0xc>
 8000956:	4770      	bx	lr

08000958 <KeyExpansion_masked>:
 8000958:	f8d1 800c 	ldr.w	r8, [r1, #12]
 800095c:	ea4f 2838 	mov.w	r8, r8, ror #8
 8000960:	f841 8f10 	str.w	r8, [r1, #16]!
 8000964:	f8d7 800c 	ldr.w	r8, [r7, #12]
 8000968:	ea4f 2838 	mov.w	r8, r8, ror #8
 800096c:	463e      	mov	r6, r7
 800096e:	f106 0610 	add.w	r6, r6, #16
 8000972:	f8c6 8000 	str.w	r8, [r6]
 8000976:	b403      	push	{r0, r1}
 8000978:	9802      	ldr	r0, [sp, #8]
 800097a:	f04f 0101 	mov.w	r1, #1
 800097e:	6001      	str	r1, [r0, #0]
 8000980:	bc03      	pop	{r0, r1}
 8000982:	b403      	push	{r0, r1}
 8000984:	9802      	ldr	r0, [sp, #8]
 8000986:	6801      	ldr	r1, [r0, #0]
 8000988:	f101 0101 	add.w	r1, r1, #1
 800098c:	2906      	cmp	r1, #6
 800098e:	6001      	str	r1, [r0, #0]
 8000990:	bc03      	pop	{r0, r1}
 8000992:	d011      	beq.n	80009b8 <KeyExpansion_masked+0x60>
 8000994:	f813 4b01 	ldrb.w	r4, [r3], #1
 8000998:	f811 c004 	ldrb.w	ip, [r1, r4]
 800099c:	ea8c 0c0b 	eor.w	ip, ip, fp
 80009a0:	5d30      	ldrb	r0, [r6, r4]
 80009a2:	ea8c 0c00 	eor.w	ip, ip, r0
 80009a6:	f815 c00c 	ldrb.w	ip, [r5, ip]
 80009aa:	ea8c 0c00 	eor.w	ip, ip, r0
 80009ae:	ea8c 0c0a 	eor.w	ip, ip, sl
 80009b2:	f801 c004 	strb.w	ip, [r1, r4]
 80009b6:	e7e4      	b.n	8000982 <KeyExpansion_masked+0x2a>
 80009b8:	468c      	mov	ip, r1
 80009ba:	f8dc 4000 	ldr.w	r4, [ip]
 80009be:	f852 8b04 	ldr.w	r8, [r2], #4
 80009c2:	ea84 0408 	eor.w	r4, r4, r8
 80009c6:	f1ac 0810 	sub.w	r8, ip, #16
 80009ca:	f8d8 8000 	ldr.w	r8, [r8]
 80009ce:	ea84 0408 	eor.w	r4, r4, r8
 80009d2:	f1ac 060c 	sub.w	r6, ip, #12
 80009d6:	f84c 4b04 	str.w	r4, [ip], #4
 80009da:	f856 8b04 	ldr.w	r8, [r6], #4
 80009de:	ea84 0408 	eor.w	r4, r4, r8
 80009e2:	f84c 4b04 	str.w	r4, [ip], #4
 80009e6:	f856 8b04 	ldr.w	r8, [r6], #4
 80009ea:	ea84 0408 	eor.w	r4, r4, r8
 80009ee:	f84c 4b04 	str.w	r4, [ip], #4
 80009f2:	f856 8b04 	ldr.w	r8, [r6], #4
 80009f6:	ea84 0408 	eor.w	r4, r4, r8
 80009fa:	f8cc 4000 	str.w	r4, [ip]
 80009fe:	693c      	ldr	r4, [r7, #16]
 8000a00:	f8d7 8000 	ldr.w	r8, [r7]
 8000a04:	ea84 0408 	eor.w	r4, r4, r8
 8000a08:	613c      	str	r4, [r7, #16]
 8000a0a:	f8d7 8004 	ldr.w	r8, [r7, #4]
 8000a0e:	ea84 0408 	eor.w	r4, r4, r8
 8000a12:	617c      	str	r4, [r7, #20]
 8000a14:	f8d7 8008 	ldr.w	r8, [r7, #8]
 8000a18:	ea84 0408 	eor.w	r4, r4, r8
 8000a1c:	61bc      	str	r4, [r7, #24]
 8000a1e:	f8d7 800c 	ldr.w	r8, [r7, #12]
 8000a22:	ea84 0408 	eor.w	r4, r4, r8
 8000a26:	61fc      	str	r4, [r7, #28]
 8000a28:	f1a3 0304 	sub.w	r3, r3, #4
 8000a2c:	4770      	bx	lr

08000a2e <field_division>:
 8000a2e:	f24f 7049 	movw	r0, #63305	; 0xf749
 8000a32:	f6c0 0002 	movt	r0, #2050	; 0x802
 8000a36:	f64f 0149 	movw	r1, #63561	; 0xf849
 8000a3a:	f6c0 0102 	movt	r1, #2050	; 0x802
 8000a3e:	7812      	ldrb	r2, [r2, #0]
 8000a40:	5c82      	ldrb	r2, [r0, r2]
 8000a42:	f082 02ff 	eor.w	r2, r2, #255	; 0xff
 8000a46:	781b      	ldrb	r3, [r3, #0]
 8000a48:	f810 a003 	ldrb.w	sl, [r0, r3]
 8000a4c:	4492      	add	sl, r2
 8000a4e:	ea4f 221a 	mov.w	r2, sl, lsr #8
 8000a52:	4492      	add	sl, r2
 8000a54:	f00a 0aff 	and.w	sl, sl, #255	; 0xff
 8000a58:	f811 700a 	ldrb.w	r7, [r1, sl]
 8000a5c:	4770      	bx	lr

08000a5e <Xor_states>:
 8000a5e:	b403      	push	{r0, r1}
 8000a60:	9802      	ldr	r0, [sp, #8]
 8000a62:	f04f 0101 	mov.w	r1, #1
 8000a66:	6001      	str	r1, [r0, #0]
 8000a68:	bc03      	pop	{r0, r1}
 8000a6a:	b403      	push	{r0, r1}
 8000a6c:	9802      	ldr	r0, [sp, #8]
 8000a6e:	6801      	ldr	r1, [r0, #0]
 8000a70:	f101 0101 	add.w	r1, r1, #1
 8000a74:	2912      	cmp	r1, #18
 8000a76:	6001      	str	r1, [r0, #0]
 8000a78:	bc03      	pop	{r0, r1}
 8000a7a:	d007      	beq.n	8000a8c <Xor_states+0x2e>
 8000a7c:	781e      	ldrb	r6, [r3, #0]
 8000a7e:	f817 8b01 	ldrb.w	r8, [r7], #1
 8000a82:	ea86 0608 	eor.w	r6, r6, r8
 8000a86:	f803 6b01 	strb.w	r6, [r3], #1
 8000a8a:	e7ee      	b.n	8000a6a <Xor_states+0xc>
 8000a8c:	f1a3 0310 	sub.w	r3, r3, #16
 8000a90:	4770      	bx	lr

08000a92 <State_copy>:
 8000a92:	b403      	push	{r0, r1}
 8000a94:	9802      	ldr	r0, [sp, #8]
 8000a96:	f04f 0101 	mov.w	r1, #1
 8000a9a:	6001      	str	r1, [r0, #0]
 8000a9c:	bc03      	pop	{r0, r1}
 8000a9e:	b403      	push	{r0, r1}
 8000aa0:	9802      	ldr	r0, [sp, #8]
 8000aa2:	6801      	ldr	r1, [r0, #0]
 8000aa4:	f101 0101 	add.w	r1, r1, #1
 8000aa8:	2912      	cmp	r1, #18
 8000aaa:	6001      	str	r1, [r0, #0]
 8000aac:	bc03      	pop	{r0, r1}
 8000aae:	d004      	beq.n	8000aba <State_copy+0x28>
 8000ab0:	f813 5b01 	ldrb.w	r5, [r3], #1
 8000ab4:	f807 5b01 	strb.w	r5, [r7], #1
 8000ab8:	e7f1      	b.n	8000a9e <State_copy+0xc>
 8000aba:	4770      	bx	lr

08000abc <Map_in_G>:
 8000abc:	b403      	push	{r0, r1}
 8000abe:	9802      	ldr	r0, [sp, #8]
 8000ac0:	f04f 0101 	mov.w	r1, #1
 8000ac4:	6001      	str	r1, [r0, #0]
 8000ac6:	bc03      	pop	{r0, r1}
 8000ac8:	b403      	push	{r0, r1}
 8000aca:	9802      	ldr	r0, [sp, #8]
 8000acc:	6801      	ldr	r1, [r0, #0]
 8000ace:	f101 0101 	add.w	r1, r1, #1
 8000ad2:	2912      	cmp	r1, #18
 8000ad4:	6001      	str	r1, [r0, #0]
 8000ad6:	bc03      	pop	{r0, r1}
 8000ad8:	d005      	beq.n	8000ae6 <Map_in_G+0x2a>
 8000ada:	781e      	ldrb	r6, [r3, #0]
 8000adc:	f81c 6006 	ldrb.w	r6, [ip, r6]
 8000ae0:	f803 6b01 	strb.w	r6, [r3], #1
 8000ae4:	e7f0      	b.n	8000ac8 <Map_in_G+0xc>
 8000ae6:	4770      	bx	lr

08000ae8 <Multiplicative_unmasking>:
 8000ae8:	b403      	push	{r0, r1}
 8000aea:	9802      	ldr	r0, [sp, #8]
 8000aec:	f04f 0101 	mov.w	r1, #1
 8000af0:	6001      	str	r1, [r0, #0]
 8000af2:	bc03      	pop	{r0, r1}
 8000af4:	b403      	push	{r0, r1}
 8000af6:	9802      	ldr	r0, [sp, #8]
 8000af8:	6801      	ldr	r1, [r0, #0]
 8000afa:	f101 0101 	add.w	r1, r1, #1
 8000afe:	2912      	cmp	r1, #18
 8000b00:	6001      	str	r1, [r0, #0]
 8000b02:	bc03      	pop	{r0, r1}
 8000b04:	d018      	beq.n	8000b38 <Multiplicative_unmasking+0x50>
 8000b06:	f897 b000 	ldrb.w	fp, [r7]
 8000b0a:	f81b a000 	ldrb.w	sl, [fp, r0]
 8000b0e:	4492      	add	sl, r2
 8000b10:	ea4f 241a 	mov.w	r4, sl, lsr #8
 8000b14:	44a2      	add	sl, r4
 8000b16:	ea0a 0a0c 	and.w	sl, sl, ip
 8000b1a:	f81a 6001 	ldrb.w	r6, [sl, r1]
 8000b1e:	f1bb 0f00 	cmp.w	fp, #0
 8000b22:	bfc8      	it	gt
 8000b24:	f04f 0aff 	movgt.w	sl, #255	; 0xff
 8000b28:	bf08      	it	eq
 8000b2a:	2600      	moveq	r6, #0
 8000b2c:	bfb8      	it	lt
 8000b2e:	f04f 0a00 	movlt.w	sl, #0
 8000b32:	f807 6b01 	strb.w	r6, [r7], #1
 8000b36:	e7dd      	b.n	8000af4 <Multiplicative_unmasking+0xc>
 8000b38:	4770      	bx	lr

08000b3a <Map_in_G_rcon_key>:
 8000b3a:	f24f 4421 	movw	r4, #62497	; 0xf421
 8000b3e:	f6c0 0402 	movt	r4, #2050	; 0x802
 8000b42:	f8dd 8000 	ldr.w	r8, [sp]
 8000b46:	f508 785e 	add.w	r8, r8, #888	; 0x378
 8000b4a:	b403      	push	{r0, r1}
 8000b4c:	9802      	ldr	r0, [sp, #8]
 8000b4e:	f04f 0101 	mov.w	r1, #1
 8000b52:	6001      	str	r1, [r0, #0]
 8000b54:	bc03      	pop	{r0, r1}
 8000b56:	b403      	push	{r0, r1}
 8000b58:	9802      	ldr	r0, [sp, #8]
 8000b5a:	6801      	ldr	r1, [r0, #0]
 8000b5c:	f101 0101 	add.w	r1, r1, #1
 8000b60:	290c      	cmp	r1, #12
 8000b62:	6001      	str	r1, [r0, #0]
 8000b64:	bc03      	pop	{r0, r1}
 8000b66:	d006      	beq.n	8000b76 <Map_in_G_rcon_key+0x3c>
 8000b68:	f814 6b04 	ldrb.w	r6, [r4], #4
 8000b6c:	f81c 6006 	ldrb.w	r6, [ip, r6]
 8000b70:	f848 6b04 	str.w	r6, [r8], #4
 8000b74:	e7ef      	b.n	8000b56 <Map_in_G_rcon_key+0x1c>
 8000b76:	4770      	bx	lr

08000b78 <Add_roundkey_masked>:
 8000b78:	9a00      	ldr	r2, [sp, #0]
 8000b7a:	f502 7217 	add.w	r2, r2, #604	; 0x25c
 8000b7e:	b403      	push	{r0, r1}
 8000b80:	9802      	ldr	r0, [sp, #8]
 8000b82:	f04f 0101 	mov.w	r1, #1
 8000b86:	6001      	str	r1, [r0, #0]
 8000b88:	bc03      	pop	{r0, r1}
 8000b8a:	b403      	push	{r0, r1}
 8000b8c:	9802      	ldr	r0, [sp, #8]
 8000b8e:	6801      	ldr	r1, [r0, #0]
 8000b90:	f101 0101 	add.w	r1, r1, #1
 8000b94:	2912      	cmp	r1, #18
 8000b96:	6001      	str	r1, [r0, #0]
 8000b98:	bc03      	pop	{r0, r1}
 8000b9a:	d014      	beq.n	8000bc6 <Add_roundkey_masked+0x4e>
 8000b9c:	f815 4b01 	ldrb.w	r4, [r5], #1
 8000ba0:	f812 b004 	ldrb.w	fp, [r2, r4]
 8000ba4:	f81c 6004 	ldrb.w	r6, [ip, r4]
 8000ba8:	5d86      	ldrb	r6, [r0, r6]
 8000baa:	ea8b 0b06 	eor.w	fp, fp, r6
 8000bae:	f802 b004 	strb.w	fp, [r2, r4]
 8000bb2:	f813 b004 	ldrb.w	fp, [r3, r4]
 8000bb6:	f818 6004 	ldrb.w	r6, [r8, r4]
 8000bba:	5d86      	ldrb	r6, [r0, r6]
 8000bbc:	ea8b 0b06 	eor.w	fp, fp, r6
 8000bc0:	f803 b004 	strb.w	fp, [r3, r4]
 8000bc4:	e7e1      	b.n	8000b8a <Add_roundkey_masked+0x12>
 8000bc6:	4770      	bx	lr

08000bc8 <Xor_Word>:
 8000bc8:	683d      	ldr	r5, [r7, #0]
 8000bca:	681e      	ldr	r6, [r3, #0]
 8000bcc:	ea86 0605 	eor.w	r6, r6, r5
 8000bd0:	601e      	str	r6, [r3, #0]
 8000bd2:	685e      	ldr	r6, [r3, #4]
 8000bd4:	ea86 0605 	eor.w	r6, r6, r5
 8000bd8:	605e      	str	r6, [r3, #4]
 8000bda:	689e      	ldr	r6, [r3, #8]
 8000bdc:	ea86 0605 	eor.w	r6, r6, r5
 8000be0:	609e      	str	r6, [r3, #8]
 8000be2:	68de      	ldr	r6, [r3, #12]
 8000be4:	ea86 0605 	eor.w	r6, r6, r5
 8000be8:	60de      	str	r6, [r3, #12]
 8000bea:	4770      	bx	lr

08000bec <aes_loadKey>:
 8000bec:	f84d ed04 	str.w	lr, [sp, #-4]!
 8000bf0:	e92d 1ffe 	stmdb	sp!, {r1, r2, r3, r4, r5, r6, r7, r8, r9, sl, fp, ip}
 8000bf4:	f84d 0d04 	str.w	r0, [sp, #-4]!
 8000bf8:	f7ff fc7f 	bl	80004fa <Load_random_key>
 8000bfc:	9b00      	ldr	r3, [sp, #0]
 8000bfe:	f503 73ba 	add.w	r3, r3, #372	; 0x174
 8000c02:	9f00      	ldr	r7, [sp, #0]
 8000c04:	f507 77b8 	add.w	r7, r7, #368	; 0x170
 8000c08:	783f      	ldrb	r7, [r7, #0]
 8000c0a:	f7ff fbd0 	bl	80003ae <Compute_GTab>
 8000c0e:	f8dd c000 	ldr.w	ip, [sp]
 8000c12:	f50c 7cba 	add.w	ip, ip, #372	; 0x174
 8000c16:	f7ff ff90 	bl	8000b3a <Map_in_G_rcon_key>
 8000c1a:	f7ff fc48 	bl	80004ae <Load_masterKey>
 8000c1e:	9c00      	ldr	r4, [sp, #0]
 8000c20:	f104 04b8 	add.w	r4, r4, #184	; 0xb8
 8000c24:	9800      	ldr	r0, [sp, #0]
 8000c26:	f500 705d 	add.w	r0, r0, #884	; 0x374
 8000c2a:	f04f 0600 	mov.w	r6, #0
 8000c2e:	f7ff fd11 	bl	8000654 <Compute_permIndices_Tables_MC>
 8000c32:	f24f 2201 	movw	r2, #61953	; 0xf201
 8000c36:	f6c0 0202 	movt	r2, #2050	; 0x802
 8000c3a:	9b00      	ldr	r3, [sp, #0]
 8000c3c:	f503 731d 	add.w	r3, r3, #628	; 0x274
 8000c40:	9c00      	ldr	r4, [sp, #0]
 8000c42:	f504 74ba 	add.w	r4, r4, #372	; 0x174
 8000c46:	f8dd 8000 	ldr.w	r8, [sp]
 8000c4a:	f508 78b4 	add.w	r8, r8, #360	; 0x168
 8000c4e:	f8d8 1000 	ldr.w	r1, [r8]
 8000c52:	9e00      	ldr	r6, [sp, #0]
 8000c54:	f506 76b6 	add.w	r6, r6, #364	; 0x16c
 8000c58:	f896 8000 	ldrb.w	r8, [r6]
 8000c5c:	f7ff fcba 	bl	80005d4 <Compute_Affine_sboxMasked>
 8000c60:	9900      	ldr	r1, [sp, #0]
 8000c62:	f101 0108 	add.w	r1, r1, #8
 8000c66:	9f00      	ldr	r7, [sp, #0]
 8000c68:	f107 07b8 	add.w	r7, r7, #184	; 0xb8
 8000c6c:	9d00      	ldr	r5, [sp, #0]
 8000c6e:	f505 751d 	add.w	r5, r5, #628	; 0x274
 8000c72:	9a00      	ldr	r2, [sp, #0]
 8000c74:	f502 725e 	add.w	r2, r2, #888	; 0x378
 8000c78:	9b00      	ldr	r3, [sp, #0]
 8000c7a:	f503 735d 	add.w	r3, r3, #884	; 0x374
 8000c7e:	b403      	push	{r0, r1}
 8000c80:	9802      	ldr	r0, [sp, #8]
 8000c82:	f04f 0101 	mov.w	r1, #1
 8000c86:	6041      	str	r1, [r0, #4]
 8000c88:	bc03      	pop	{r0, r1}
 8000c8a:	b403      	push	{r0, r1}
 8000c8c:	9802      	ldr	r0, [sp, #8]
 8000c8e:	6841      	ldr	r1, [r0, #4]
 8000c90:	f101 0101 	add.w	r1, r1, #1
 8000c94:	290c      	cmp	r1, #12
 8000c96:	6041      	str	r1, [r0, #4]
 8000c98:	bc03      	pop	{r0, r1}
 8000c9a:	d010      	beq.n	8000cbe <aes_loadKey+0xd2>
 8000c9c:	f8dd b000 	ldr.w	fp, [sp]
 8000ca0:	f50b 7bb4 	add.w	fp, fp, #360	; 0x168
 8000ca4:	f89b b000 	ldrb.w	fp, [fp]
 8000ca8:	f8dd a000 	ldr.w	sl, [sp]
 8000cac:	f50a 7ab6 	add.w	sl, sl, #364	; 0x16c
 8000cb0:	f89a a000 	ldrb.w	sl, [sl]
 8000cb4:	f7ff fe50 	bl	8000958 <KeyExpansion_masked>
 8000cb8:	f107 0710 	add.w	r7, r7, #16
 8000cbc:	e7e5      	b.n	8000c8a <aes_loadKey+0x9e>
 8000cbe:	bc01      	pop	{r0}
 8000cc0:	f04f 0000 	mov.w	r0, #0
 8000cc4:	e8bd 1ffe 	ldmia.w	sp!, {r1, r2, r3, r4, r5, r6, r7, r8, r9, sl, fp, ip}
 8000cc8:	bd00      	pop	{pc}
 8000cca:	4770      	bx	lr

08000ccc <aes_init_enc>:
 8000ccc:	f84d ed04 	str.w	lr, [sp, #-4]!
 8000cd0:	e92d 1ffc 	stmdb	sp!, {r2, r3, r4, r5, r6, r7, r8, r9, sl, fp, ip}
 8000cd4:	f84d 1d04 	str.w	r1, [sp, #-4]!
 8000cd8:	f84d 0d04 	str.w	r0, [sp, #-4]!
 8000cdc:	f7ff fc49 	bl	8000572 <Load_random>
 8000ce0:	9b00      	ldr	r3, [sp, #0]
 8000ce2:	f103 0308 	add.w	r3, r3, #8
 8000ce6:	9f00      	ldr	r7, [sp, #0]
 8000ce8:	f507 7712 	add.w	r7, r7, #584	; 0x248
 8000cec:	783f      	ldrb	r7, [r7, #0]
 8000cee:	f7ff fb5e 	bl	80003ae <Compute_GTab>
 8000cf2:	9c00      	ldr	r4, [sp, #0]
 8000cf4:	f504 7402 	add.w	r4, r4, #520	; 0x208
 8000cf8:	9800      	ldr	r0, [sp, #0]
 8000cfa:	f500 700e 	add.w	r0, r0, #568	; 0x238
 8000cfe:	f04f 0600 	mov.w	r6, #0
 8000d02:	f7ff fca7 	bl	8000654 <Compute_permIndices_Tables_MC>
 8000d06:	9800      	ldr	r0, [sp, #0]
 8000d08:	f500 700f 	add.w	r0, r0, #572	; 0x23c
 8000d0c:	f04f 0601 	mov.w	r6, #1
 8000d10:	f7ff fca0 	bl	8000654 <Compute_permIndices_Tables_MC>
 8000d14:	9a00      	ldr	r2, [sp, #0]
 8000d16:	f502 7206 	add.w	r2, r2, #536	; 0x218
 8000d1a:	9b00      	ldr	r3, [sp, #0]
 8000d1c:	f503 730a 	add.w	r3, r3, #552	; 0x228
 8000d20:	f7ff fcb4 	bl	800068c <Compute_permIndices_Tables>
 8000d24:	f24f 2201 	movw	r2, #61953	; 0xf201
 8000d28:	f6c0 0202 	movt	r2, #2050	; 0x802
 8000d2c:	9b00      	ldr	r3, [sp, #0]
 8000d2e:	f503 7384 	add.w	r3, r3, #264	; 0x108
 8000d32:	9c00      	ldr	r4, [sp, #0]
 8000d34:	f104 0408 	add.w	r4, r4, #8
 8000d38:	46a4      	mov	ip, r4
 8000d3a:	f8dd 8000 	ldr.w	r8, [sp]
 8000d3e:	f508 7810 	add.w	r8, r8, #576	; 0x240
 8000d42:	f8d8 1000 	ldr.w	r1, [r8]
 8000d46:	9e00      	ldr	r6, [sp, #0]
 8000d48:	f506 7611 	add.w	r6, r6, #580	; 0x244
 8000d4c:	f896 8000 	ldrb.w	r8, [r6]
 8000d50:	f7ff fc40 	bl	80005d4 <Compute_Affine_sboxMasked>
 8000d54:	bc01      	pop	{r0}
 8000d56:	bc02      	pop	{r1}
 8000d58:	e8bd 1ffc 	ldmia.w	sp!, {r2, r3, r4, r5, r6, r7, r8, r9, sl, fp, ip}
 8000d5c:	f04f 0000 	mov.w	r0, #0
 8000d60:	bd00      	pop	{pc}
 8000d62:	4770      	bx	lr

08000d64 <aes_init_dec>:
 8000d64:	f84d ed04 	str.w	lr, [sp, #-4]!
 8000d68:	e92d 1ffc 	stmdb	sp!, {r2, r3, r4, r5, r6, r7, r8, r9, sl, fp, ip}
 8000d6c:	f84d 1d04 	str.w	r1, [sp, #-4]!
 8000d70:	f84d 0d04 	str.w	r0, [sp, #-4]!
 8000d74:	f7ff fbfd 	bl	8000572 <Load_random>
 8000d78:	9b00      	ldr	r3, [sp, #0]
 8000d7a:	f103 0308 	add.w	r3, r3, #8
 8000d7e:	9f00      	ldr	r7, [sp, #0]
 8000d80:	f507 7712 	add.w	r7, r7, #584	; 0x248
 8000d84:	783f      	ldrb	r7, [r7, #0]
 8000d86:	f7ff fb12 	bl	80003ae <Compute_GTab>
 8000d8a:	9c00      	ldr	r4, [sp, #0]
 8000d8c:	f504 7402 	add.w	r4, r4, #520	; 0x208
 8000d90:	9800      	ldr	r0, [sp, #0]
 8000d92:	f500 700e 	add.w	r0, r0, #568	; 0x238
 8000d96:	f04f 0600 	mov.w	r6, #0
 8000d9a:	f7ff fc5b 	bl	8000654 <Compute_permIndices_Tables_MC>
 8000d9e:	9800      	ldr	r0, [sp, #0]
 8000da0:	f500 700f 	add.w	r0, r0, #572	; 0x23c
 8000da4:	f04f 0601 	mov.w	r6, #1
 8000da8:	f7ff fc54 	bl	8000654 <Compute_permIndices_Tables_MC>
 8000dac:	9a00      	ldr	r2, [sp, #0]
 8000dae:	f502 7206 	add.w	r2, r2, #536	; 0x218
 8000db2:	9b00      	ldr	r3, [sp, #0]
 8000db4:	f503 730a 	add.w	r3, r3, #552	; 0x228
 8000db8:	f7ff fc68 	bl	800068c <Compute_permIndices_Tables>
 8000dbc:	f24f 3201 	movw	r2, #62209	; 0xf301
 8000dc0:	f6c0 0202 	movt	r2, #2050	; 0x802
 8000dc4:	9b00      	ldr	r3, [sp, #0]
 8000dc6:	f503 7384 	add.w	r3, r3, #264	; 0x108
 8000dca:	9c00      	ldr	r4, [sp, #0]
 8000dcc:	f104 0408 	add.w	r4, r4, #8
 8000dd0:	46a4      	mov	ip, r4
 8000dd2:	f8dd 8000 	ldr.w	r8, [sp]
 8000dd6:	f508 7810 	add.w	r8, r8, #576	; 0x240
 8000dda:	f8d8 1000 	ldr.w	r1, [r8]
 8000dde:	9e00      	ldr	r6, [sp, #0]
 8000de0:	f506 7611 	add.w	r6, r6, #580	; 0x244
 8000de4:	f896 8000 	ldrb.w	r8, [r6]
 8000de8:	f7ff fbf4 	bl	80005d4 <Compute_Affine_sboxMasked>
 8000dec:	bc01      	pop	{r0}
 8000dee:	bc02      	pop	{r1}
 8000df0:	e8bd 1ffc 	ldmia.w	sp!, {r2, r3, r4, r5, r6, r7, r8, r9, sl, fp, ip}
 8000df4:	f04f 0000 	mov.w	r0, #0
 8000df8:	bd00      	pop	{pc}
 8000dfa:	4770      	bx	lr

08000dfc <aes_enc>:
 8000dfc:	f84d ed04 	str.w	lr, [sp, #-4]!
 8000e00:	f84d 2d04 	str.w	r2, [sp, #-4]!
 8000e04:	e92d 1ff0 	stmdb	sp!, {r4, r5, r6, r7, r8, r9, sl, fp, ip}
 8000e08:	f84d 3d04 	str.w	r3, [sp, #-4]!
 8000e0c:	f84d 1d04 	str.w	r1, [sp, #-4]!
 8000e10:	f84d 0d04 	str.w	r0, [sp, #-4]!
 8000e14:	f7ff fb29 	bl	800046a <Load_data>
 8000e18:	9a01      	ldr	r2, [sp, #4]
 8000e1a:	f502 72b8 	add.w	r2, r2, #368	; 0x170
 8000e1e:	9b00      	ldr	r3, [sp, #0]
 8000e20:	f503 7312 	add.w	r3, r3, #584	; 0x248
 8000e24:	f7ff fe03 	bl	8000a2e <field_division>
 8000e28:	9b00      	ldr	r3, [sp, #0]
 8000e2a:	f503 731b 	add.w	r3, r3, #620	; 0x26c
 8000e2e:	f7ff fabe 	bl	80003ae <Compute_GTab>
 8000e32:	9b00      	ldr	r3, [sp, #0]
 8000e34:	f503 7313 	add.w	r3, r3, #588	; 0x24c
 8000e38:	f8dd c000 	ldr.w	ip, [sp]
 8000e3c:	f10c 0c08 	add.w	ip, ip, #8
 8000e40:	f7ff fe3c 	bl	8000abc <Map_in_G>
 8000e44:	9b00      	ldr	r3, [sp, #0]
 8000e46:	f503 7313 	add.w	r3, r3, #588	; 0x24c
 8000e4a:	9f00      	ldr	r7, [sp, #0]
 8000e4c:	f507 7717 	add.w	r7, r7, #604	; 0x25c
 8000e50:	f7ff fe05 	bl	8000a5e <Xor_states>
 8000e54:	9800      	ldr	r0, [sp, #0]
 8000e56:	f500 701b 	add.w	r0, r0, #620	; 0x26c
 8000e5a:	9901      	ldr	r1, [sp, #4]
 8000e5c:	f101 0108 	add.w	r1, r1, #8
 8000e60:	4688      	mov	r8, r1
 8000e62:	f8dd c004 	ldr.w	ip, [sp, #4]
 8000e66:	f10c 0cb8 	add.w	ip, ip, #184	; 0xb8
 8000e6a:	9b00      	ldr	r3, [sp, #0]
 8000e6c:	f503 7313 	add.w	r3, r3, #588	; 0x24c
 8000e70:	9d00      	ldr	r5, [sp, #0]
 8000e72:	f505 7506 	add.w	r5, r5, #536	; 0x218
 8000e76:	f7ff fe7f 	bl	8000b78 <Add_roundkey_masked>
 8000e7a:	b403      	push	{r0, r1}
 8000e7c:	9802      	ldr	r0, [sp, #8]
 8000e7e:	f04f 0101 	mov.w	r1, #1
 8000e82:	6041      	str	r1, [r0, #4]
 8000e84:	bc03      	pop	{r0, r1}
 8000e86:	b403      	push	{r0, r1}
 8000e88:	9802      	ldr	r0, [sp, #8]
 8000e8a:	6841      	ldr	r1, [r0, #4]
 8000e8c:	f101 0101 	add.w	r1, r1, #1
 8000e90:	290b      	cmp	r1, #11
 8000e92:	6041      	str	r1, [r0, #4]
 8000e94:	bc03      	pop	{r0, r1}
 8000e96:	d043      	beq.n	8000f20 <aes_enc+0x124>
 8000e98:	9f00      	ldr	r7, [sp, #0]
 8000e9a:	f507 7710 	add.w	r7, r7, #576	; 0x240
 8000e9e:	9b00      	ldr	r3, [sp, #0]
 8000ea0:	f503 7313 	add.w	r3, r3, #588	; 0x24c
 8000ea4:	f7ff fe90 	bl	8000bc8 <Xor_Word>
 8000ea8:	9d00      	ldr	r5, [sp, #0]
 8000eaa:	f505 7506 	add.w	r5, r5, #536	; 0x218
 8000eae:	f8dd 8000 	ldr.w	r8, [sp]
 8000eb2:	f508 7884 	add.w	r8, r8, #264	; 0x108
 8000eb6:	f8dd a000 	ldr.w	sl, [sp]
 8000eba:	f50a 7a17 	add.w	sl, sl, #604	; 0x25c
 8000ebe:	9f00      	ldr	r7, [sp, #0]
 8000ec0:	f507 7711 	add.w	r7, r7, #580	; 0x244
 8000ec4:	f7ff fc27 	bl	8000716 <SubBytesWithMask>
 8000ec8:	f24f 4401 	movw	r4, #62465	; 0xf401
 8000ecc:	f6c0 0402 	movt	r4, #2050	; 0x802
 8000ed0:	9f00      	ldr	r7, [sp, #0]
 8000ed2:	f507 775b 	add.w	r7, r7, #876	; 0x36c
 8000ed6:	f7ff fc4c 	bl	8000772 <ShiftRowsWithMasked>
 8000eda:	9800      	ldr	r0, [sp, #0]
 8000edc:	f500 700e 	add.w	r0, r0, #568	; 0x238
 8000ee0:	f24f 4649 	movw	r6, #62537	; 0xf449
 8000ee4:	f6c0 0602 	movt	r6, #2050	; 0x802
 8000ee8:	f7ff fcaa 	bl	8000840 <MixColumns>
 8000eec:	9800      	ldr	r0, [sp, #0]
 8000eee:	f500 700f 	add.w	r0, r0, #572	; 0x23c
 8000ef2:	f8dd a000 	ldr.w	sl, [sp]
 8000ef6:	f50a 7a13 	add.w	sl, sl, #588	; 0x24c
 8000efa:	f7ff fca1 	bl	8000840 <MixColumns>
 8000efe:	f101 0110 	add.w	r1, r1, #16
 8000f02:	f10c 0c10 	add.w	ip, ip, #16
 8000f06:	4688      	mov	r8, r1
 8000f08:	9b00      	ldr	r3, [sp, #0]
 8000f0a:	f503 7313 	add.w	r3, r3, #588	; 0x24c
 8000f0e:	9d00      	ldr	r5, [sp, #0]
 8000f10:	f505 7506 	add.w	r5, r5, #536	; 0x218
 8000f14:	9800      	ldr	r0, [sp, #0]
 8000f16:	f500 701b 	add.w	r0, r0, #620	; 0x26c
 8000f1a:	f7ff fe2d 	bl	8000b78 <Add_roundkey_masked>
 8000f1e:	e7b2      	b.n	8000e86 <aes_enc+0x8a>
 8000f20:	9f00      	ldr	r7, [sp, #0]
 8000f22:	f507 7710 	add.w	r7, r7, #576	; 0x240
 8000f26:	9b00      	ldr	r3, [sp, #0]
 8000f28:	f503 7313 	add.w	r3, r3, #588	; 0x24c
 8000f2c:	f7ff fe4c 	bl	8000bc8 <Xor_Word>
 8000f30:	9d00      	ldr	r5, [sp, #0]
 8000f32:	f505 7506 	add.w	r5, r5, #536	; 0x218
 8000f36:	f8dd 8000 	ldr.w	r8, [sp]
 8000f3a:	f508 7884 	add.w	r8, r8, #264	; 0x108
 8000f3e:	f8dd a000 	ldr.w	sl, [sp]
 8000f42:	f50a 7a17 	add.w	sl, sl, #604	; 0x25c
 8000f46:	9f00      	ldr	r7, [sp, #0]
 8000f48:	f507 7711 	add.w	r7, r7, #580	; 0x244
 8000f4c:	f7ff fbe3 	bl	8000716 <SubBytesWithMask>
 8000f50:	f24f 4401 	movw	r4, #62465	; 0xf401
 8000f54:	f6c0 0402 	movt	r4, #2050	; 0x802
 8000f58:	9f00      	ldr	r7, [sp, #0]
 8000f5a:	f507 775b 	add.w	r7, r7, #876	; 0x36c
 8000f5e:	f7ff fc08 	bl	8000772 <ShiftRowsWithMasked>
 8000f62:	f101 0110 	add.w	r1, r1, #16
 8000f66:	f10c 0c10 	add.w	ip, ip, #16
 8000f6a:	4688      	mov	r8, r1
 8000f6c:	9d00      	ldr	r5, [sp, #0]
 8000f6e:	f505 7506 	add.w	r5, r5, #536	; 0x218
 8000f72:	9800      	ldr	r0, [sp, #0]
 8000f74:	f500 701b 	add.w	r0, r0, #620	; 0x26c
 8000f78:	f7ff fdfe 	bl	8000b78 <Add_roundkey_masked>
 8000f7c:	9f00      	ldr	r7, [sp, #0]
 8000f7e:	f507 7717 	add.w	r7, r7, #604	; 0x25c
 8000f82:	9b00      	ldr	r3, [sp, #0]
 8000f84:	f503 7313 	add.w	r3, r3, #588	; 0x24c
 8000f88:	f7ff fd69 	bl	8000a5e <Xor_states>
 8000f8c:	f24f 7049 	movw	r0, #63305	; 0xf749
 8000f90:	f6c0 0002 	movt	r0, #2050	; 0x802
 8000f94:	f64f 0149 	movw	r1, #63561	; 0xf849
 8000f98:	f6c0 0102 	movt	r1, #2050	; 0x802
 8000f9c:	9c00      	ldr	r4, [sp, #0]
 8000f9e:	f504 7412 	add.w	r4, r4, #584	; 0x248
 8000fa2:	7822      	ldrb	r2, [r4, #0]
 8000fa4:	5c82      	ldrb	r2, [r0, r2]
 8000fa6:	f04f 0cff 	mov.w	ip, #255	; 0xff
 8000faa:	ebac 0202 	sub.w	r2, ip, r2
 8000fae:	461f      	mov	r7, r3
 8000fb0:	f7ff fd9a 	bl	8000ae8 <Multiplicative_unmasking>
 8000fb4:	9f02      	ldr	r7, [sp, #8]
 8000fb6:	f7ff fd6c 	bl	8000a92 <State_copy>
 8000fba:	bc01      	pop	{r0}
 8000fbc:	f04f 0000 	mov.w	r0, #0
 8000fc0:	bc02      	pop	{r1}
 8000fc2:	bc08      	pop	{r3}
 8000fc4:	e8bd 1ff0 	ldmia.w	sp!, {r4, r5, r6, r7, r8, r9, sl, fp, ip}
 8000fc8:	bc04      	pop	{r2}
 8000fca:	bd00      	pop	{pc}
 8000fcc:	4770      	bx	lr

08000fce <aes_dec>:
 8000fce:	f84d ed04 	str.w	lr, [sp, #-4]!
 8000fd2:	f84d 2d04 	str.w	r2, [sp, #-4]!
 8000fd6:	e92d 1ff0 	stmdb	sp!, {r4, r5, r6, r7, r8, r9, sl, fp, ip}
 8000fda:	f84d 3d04 	str.w	r3, [sp, #-4]!
 8000fde:	f84d 1d04 	str.w	r1, [sp, #-4]!
 8000fe2:	f84d 0d04 	str.w	r0, [sp, #-4]!
 8000fe6:	f7ff fa40 	bl	800046a <Load_data>
 8000fea:	9a01      	ldr	r2, [sp, #4]
 8000fec:	f502 72b8 	add.w	r2, r2, #368	; 0x170
 8000ff0:	9b00      	ldr	r3, [sp, #0]
 8000ff2:	f503 7312 	add.w	r3, r3, #584	; 0x248
 8000ff6:	f7ff fd1a 	bl	8000a2e <field_division>
 8000ffa:	9b00      	ldr	r3, [sp, #0]
 8000ffc:	f503 731b 	add.w	r3, r3, #620	; 0x26c
 8001000:	f7ff f9d5 	bl	80003ae <Compute_GTab>
 8001004:	9b00      	ldr	r3, [sp, #0]
 8001006:	f503 7313 	add.w	r3, r3, #588	; 0x24c
 800100a:	f8dd c000 	ldr.w	ip, [sp]
 800100e:	f10c 0c08 	add.w	ip, ip, #8
 8001012:	f7ff fd53 	bl	8000abc <Map_in_G>
 8001016:	9b00      	ldr	r3, [sp, #0]
 8001018:	f503 7313 	add.w	r3, r3, #588	; 0x24c
 800101c:	9f00      	ldr	r7, [sp, #0]
 800101e:	f507 7717 	add.w	r7, r7, #604	; 0x25c
 8001022:	f7ff fd1c 	bl	8000a5e <Xor_states>
 8001026:	9800      	ldr	r0, [sp, #0]
 8001028:	f500 701b 	add.w	r0, r0, #620	; 0x26c
 800102c:	9901      	ldr	r1, [sp, #4]
 800102e:	f101 0108 	add.w	r1, r1, #8
 8001032:	f101 01a0 	add.w	r1, r1, #160	; 0xa0
 8001036:	f8dd c004 	ldr.w	ip, [sp, #4]
 800103a:	f10c 0cb8 	add.w	ip, ip, #184	; 0xb8
 800103e:	f10c 0ca0 	add.w	ip, ip, #160	; 0xa0
 8001042:	9b00      	ldr	r3, [sp, #0]
 8001044:	f503 7313 	add.w	r3, r3, #588	; 0x24c
 8001048:	9d00      	ldr	r5, [sp, #0]
 800104a:	f505 7506 	add.w	r5, r5, #536	; 0x218
 800104e:	4688      	mov	r8, r1
 8001050:	f7ff fd92 	bl	8000b78 <Add_roundkey_masked>
 8001054:	b403      	push	{r0, r1}
 8001056:	9802      	ldr	r0, [sp, #8]
 8001058:	f04f 0101 	mov.w	r1, #1
 800105c:	6041      	str	r1, [r0, #4]
 800105e:	bc03      	pop	{r0, r1}
 8001060:	b403      	push	{r0, r1}
 8001062:	9802      	ldr	r0, [sp, #8]
 8001064:	6841      	ldr	r1, [r0, #4]
 8001066:	f101 0101 	add.w	r1, r1, #1
 800106a:	290b      	cmp	r1, #11
 800106c:	6041      	str	r1, [r0, #4]
 800106e:	bc03      	pop	{r0, r1}
 8001070:	d06e      	beq.n	8001150 <aes_dec+0x182>
 8001072:	9b00      	ldr	r3, [sp, #0]
 8001074:	f503 7313 	add.w	r3, r3, #588	; 0x24c
 8001078:	f24f 4411 	movw	r4, #62481	; 0xf411
 800107c:	f6c0 0402 	movt	r4, #2050	; 0x802
 8001080:	9f00      	ldr	r7, [sp, #0]
 8001082:	f507 775b 	add.w	r7, r7, #876	; 0x36c
 8001086:	f8dd a000 	ldr.w	sl, [sp]
 800108a:	f50a 7a17 	add.w	sl, sl, #604	; 0x25c
 800108e:	f7ff fb70 	bl	8000772 <ShiftRowsWithMasked>
 8001092:	9f00      	ldr	r7, [sp, #0]
 8001094:	f507 7710 	add.w	r7, r7, #576	; 0x240
 8001098:	f7ff fd96 	bl	8000bc8 <Xor_Word>
 800109c:	f8dd a000 	ldr.w	sl, [sp]
 80010a0:	f50a 7a17 	add.w	sl, sl, #604	; 0x25c
 80010a4:	f8dd 8000 	ldr.w	r8, [sp]
 80010a8:	f508 7884 	add.w	r8, r8, #264	; 0x108
 80010ac:	9d00      	ldr	r5, [sp, #0]
 80010ae:	f505 7506 	add.w	r5, r5, #536	; 0x218
 80010b2:	9f00      	ldr	r7, [sp, #0]
 80010b4:	f507 7711 	add.w	r7, r7, #580	; 0x244
 80010b8:	f7ff fb2d 	bl	8000716 <SubBytesWithMask>
 80010bc:	f1ac 0c10 	sub.w	ip, ip, #16
 80010c0:	f1a1 0110 	sub.w	r1, r1, #16
 80010c4:	4688      	mov	r8, r1
 80010c6:	9d00      	ldr	r5, [sp, #0]
 80010c8:	f505 7506 	add.w	r5, r5, #536	; 0x218
 80010cc:	9800      	ldr	r0, [sp, #0]
 80010ce:	f500 701b 	add.w	r0, r0, #620	; 0x26c
 80010d2:	f7ff fd51 	bl	8000b78 <Add_roundkey_masked>
 80010d6:	f8dd a000 	ldr.w	sl, [sp]
 80010da:	f50a 7a17 	add.w	sl, sl, #604	; 0x25c
 80010de:	9800      	ldr	r0, [sp, #0]
 80010e0:	f500 700f 	add.w	r0, r0, #572	; 0x23c
 80010e4:	f7ff fbf2 	bl	80008cc <InvMixColumns_part2>
 80010e8:	f8dd a000 	ldr.w	sl, [sp]
 80010ec:	f50a 7a17 	add.w	sl, sl, #604	; 0x25c
 80010f0:	9800      	ldr	r0, [sp, #0]
 80010f2:	f500 700f 	add.w	r0, r0, #572	; 0x23c
 80010f6:	f24f 4649 	movw	r6, #62537	; 0xf449
 80010fa:	f6c0 0602 	movt	r6, #2050	; 0x802
 80010fe:	f7ff fb9f 	bl	8000840 <MixColumns>
 8001102:	9f00      	ldr	r7, [sp, #0]
 8001104:	f507 775b 	add.w	r7, r7, #876	; 0x36c
 8001108:	9b00      	ldr	r3, [sp, #0]
 800110a:	f503 7317 	add.w	r3, r3, #604	; 0x25c
 800110e:	f7ff fca6 	bl	8000a5e <Xor_states>
 8001112:	f8dd a000 	ldr.w	sl, [sp]
 8001116:	f50a 7a13 	add.w	sl, sl, #588	; 0x24c
 800111a:	9800      	ldr	r0, [sp, #0]
 800111c:	f500 700e 	add.w	r0, r0, #568	; 0x238
 8001120:	f7ff fbd4 	bl	80008cc <InvMixColumns_part2>
 8001124:	f8dd a000 	ldr.w	sl, [sp]
 8001128:	f50a 7a13 	add.w	sl, sl, #588	; 0x24c
 800112c:	f24f 4649 	movw	r6, #62537	; 0xf449
 8001130:	f6c0 0602 	movt	r6, #2050	; 0x802
 8001134:	9800      	ldr	r0, [sp, #0]
 8001136:	f500 700e 	add.w	r0, r0, #568	; 0x238
 800113a:	f7ff fb81 	bl	8000840 <MixColumns>
 800113e:	9f00      	ldr	r7, [sp, #0]
 8001140:	f507 775b 	add.w	r7, r7, #876	; 0x36c
 8001144:	9b00      	ldr	r3, [sp, #0]
 8001146:	f503 7313 	add.w	r3, r3, #588	; 0x24c
 800114a:	f7ff fc88 	bl	8000a5e <Xor_states>
 800114e:	e787      	b.n	8001060 <aes_dec+0x92>
 8001150:	9b00      	ldr	r3, [sp, #0]
 8001152:	f503 7313 	add.w	r3, r3, #588	; 0x24c
 8001156:	f24f 4411 	movw	r4, #62481	; 0xf411
 800115a:	f6c0 0402 	movt	r4, #2050	; 0x802
 800115e:	9f00      	ldr	r7, [sp, #0]
 8001160:	f507 775b 	add.w	r7, r7, #876	; 0x36c
 8001164:	f8dd a000 	ldr.w	sl, [sp]
 8001168:	f50a 7a17 	add.w	sl, sl, #604	; 0x25c
 800116c:	f7ff fb01 	bl	8000772 <ShiftRowsWithMasked>
 8001170:	9f00      	ldr	r7, [sp, #0]
 8001172:	f507 7710 	add.w	r7, r7, #576	; 0x240
 8001176:	f7ff fd27 	bl	8000bc8 <Xor_Word>
 800117a:	f8dd a000 	ldr.w	sl, [sp]
 800117e:	f50a 7a17 	add.w	sl, sl, #604	; 0x25c
 8001182:	f8dd 8000 	ldr.w	r8, [sp]
 8001186:	f508 7884 	add.w	r8, r8, #264	; 0x108
 800118a:	9d00      	ldr	r5, [sp, #0]
 800118c:	f505 7506 	add.w	r5, r5, #536	; 0x218
 8001190:	9f00      	ldr	r7, [sp, #0]
 8001192:	f507 7711 	add.w	r7, r7, #580	; 0x244
 8001196:	f7ff fabe 	bl	8000716 <SubBytesWithMask>
 800119a:	f1ac 0c10 	sub.w	ip, ip, #16
 800119e:	f1a1 0110 	sub.w	r1, r1, #16
 80011a2:	4688      	mov	r8, r1
 80011a4:	9d00      	ldr	r5, [sp, #0]
 80011a6:	f505 7506 	add.w	r5, r5, #536	; 0x218
 80011aa:	9800      	ldr	r0, [sp, #0]
 80011ac:	f500 701b 	add.w	r0, r0, #620	; 0x26c
 80011b0:	f7ff fce2 	bl	8000b78 <Add_roundkey_masked>
 80011b4:	9f00      	ldr	r7, [sp, #0]
 80011b6:	f507 7717 	add.w	r7, r7, #604	; 0x25c
 80011ba:	f7ff fc50 	bl	8000a5e <Xor_states>
 80011be:	f24f 7049 	movw	r0, #63305	; 0xf749
 80011c2:	f6c0 0002 	movt	r0, #2050	; 0x802
 80011c6:	f64f 0149 	movw	r1, #63561	; 0xf849
 80011ca:	f6c0 0102 	movt	r1, #2050	; 0x802
 80011ce:	9c00      	ldr	r4, [sp, #0]
 80011d0:	f504 7412 	add.w	r4, r4, #584	; 0x248
 80011d4:	7822      	ldrb	r2, [r4, #0]
 80011d6:	5c82      	ldrb	r2, [r0, r2]
 80011d8:	f04f 0cff 	mov.w	ip, #255	; 0xff
 80011dc:	ebac 0202 	sub.w	r2, ip, r2
 80011e0:	461f      	mov	r7, r3
 80011e2:	f7ff fc81 	bl	8000ae8 <Multiplicative_unmasking>
 80011e6:	9f02      	ldr	r7, [sp, #8]
 80011e8:	f7ff fc53 	bl	8000a92 <State_copy>
 80011ec:	bc01      	pop	{r0}
 80011ee:	f04f 0000 	mov.w	r0, #0
 80011f2:	bc02      	pop	{r1}
 80011f4:	bc08      	pop	{r3}
 80011f6:	e8bd 1ff0 	ldmia.w	sp!, {r4, r5, r6, r7, r8, r9, sl, fp, ip}
 80011fa:	bc04      	pop	{r2}
 80011fc:	bd00      	pop	{pc}
 80011fe:	4770      	bx	lr
 8001200:	16157e2b 	.word	0x16157e2b
 8001204:	a6d2ae28 	.word	0xa6d2ae28
 8001208:	8815f7ab 	.word	0x8815f7ab
 800120c:	3c4fcf09 	.word	0x3c4fcf09

08001210 <aes_static_tests>:
 8001210:	455b7462 5d30434e 6c6c7566 0000305f     bt[ENC0]full_0..
	...
 8001230:	030b0000 137bbf10 4fac105e 21decb8a     ......{.^..O...!
 8001240:	db295ca7 180c10c6 78a67d28 631a6025     .\).....(}.x%`.c
 8001250:	30daeeea 0000927c 00000000 00000000     ...0|...........
	...
 800128c:	00100000 1eed5e8b 605611db 80d8a345     .....^....V`E...
 800129c:	001b1930 00000000 00000000 00000000     0...............
 80012ac:	74626500 434e455b 70735d30 5f74696c     .ebt[ENC0]split_
 80012bc:	70657473 00305f30 00000000 00000000     step0_0.........
 80012cc:	00000000 bf100203 105e137b cb8a4fac     ........{.^..O..
 80012dc:	5ca721de 10c6db29 7d28180c 602578a6     .!.\).....(}.x%`
 80012ec:	eeea631a 927c30da 00000000 00000000     .c...0|.........
	...
 8001348:	74000000 434e455b 70735d30 5f74696c     ...t[ENC0]split_
 8001358:	70657473 00305f31 00000000 00000000     step1_0.........
 8001368:	00000000 bf100308 105e137b cb8a4fac     ........{.^..O..
 8001378:	5ca721de 10c6db29 7d28180c 602578a6     .!.\).....(}.x%`
 8001388:	eeea631a 927c30da 00000000 00000000     .c...0|.........
	...
 80013c8:	5e8b0010 11db1eed a3456056 193080d8     ...^....V`E...0.
 80013d8:	0000001b 00000000 00000000 65000000     ...............e
 80013e8:	455b7462 5d30434e 696c7073 696e6974     bt[ENC0]splitini
 80013f8:	74735f74 5f307065 00000030 00000000     t_step0_0.......
 8001408:	02010000 137bbf10 4fac105e 21decb8a     ......{.^..O...!
 8001418:	db295ca7 180c10c6 78a67d28 631a6025     .\).....(}.x%`.c
 8001428:	30daeeea 0000927c 00000000 00000000     ...0|...........
	...
 8001484:	455b7400 5d30434e 696c7073 696e6974     .t[ENC0]splitini
 8001494:	74735f74 5f317065 00000030 00000000     t_step1_0.......
 80014a4:	02020000 137bbf10 4fac105e 21decb8a     ......{.^..O...!
 80014b4:	db295ca7 180c10c6 78a67d28 631a6025     .\).....(}.x%`.c
 80014c4:	30daeeea 0000927c 00000000 00000000     ...0|...........
	...
 8001520:	455b7400 5d30434e 696c7073 696e6974     .t[ENC0]splitini
 8001530:	74735f74 5f327065 00000030 00000000     t_step2_0.......
 8001540:	03080000 137bbf10 4fac105e 21decb8a     ......{.^..O...!
 8001550:	db295ca7 180c10c6 78a67d28 631a6025     .\).....(}.x%`.c
 8001560:	30daeeea 0000927c 00000000 00000000     ...0|...........
	...
 800159c:	00100000 1eed5e8b 605611db 80d8a345     .....^....V`E...
 80015ac:	001b1930 00000000 00000000 00000000     0...............
 80015bc:	74626500 4345445b 75665d30 305f6c6c     .ebt[DEC0]full_0
	...
 80015e0:	fb100315 e3a9f595 4c9b3cf0 29a4819e     .........<.L...)
 80015f0:	104bce0a e82be1fe a748ea3c 65301401     ..K...+.<.H...0e
 8001600:	069cb997 00000000 00000000 00000000     ................
	...
 800163c:	e8da2e10 62d14c56 e9e4bd8f faa7f91c     ....VL.b........
 800164c:	0000008d 00000000 00000000 65000000     ...............e
 800165c:	445b7462 5d304345 696c7073 74735f74     bt[DEC0]split_st
 800166c:	5f307065 00000030 00000000 00000000     ep0_0...........
 800167c:	02050000 f595fb10 3cf0e3a9 819e4c9b     ...........<.L..
 800168c:	ce0a29a4 e1fe104b ea3ce82b 1401a748     .)..K...+.<.H...
 800169c:	b9976530 0000069c 00000000 00000000     0e..............
	...
 80016f8:	445b7400 5d304345 696c7073 74735f74     .t[DEC0]split_st
 8001708:	5f317065 00000030 00000000 00000000     ep1_0...........
 8001718:	03100000 f595fb10 3cf0e3a9 819e4c9b     ...........<.L..
 8001728:	ce0a29a4 e1fe104b ea3ce82b 1401a748     .)..K...+.<.H...
 8001738:	b9976530 0000069c 00000000 00000000     0e..............
	...
 8001774:	2e100000 4c56e8da bd8f62d1 f91ce9e4     ......VL.b......
 8001784:	008dfaa7 00000000 00000000 00000000     ................
 8001794:	74626500 4345445b 70735d30 6974696c     .ebt[DEC0]spliti
 80017a4:	5f74696e 70657473 00305f30 00000000     nit_step0_0.....
 80017b4:	00000000 fb100201 e3a9f595 4c9b3cf0     .............<.L
 80017c4:	29a4819e 104bce0a e82be1fe a748ea3c     ...)..K...+.<.H.
 80017d4:	65301401 069cb997 00000000 00000000     ..0e............
	...
 8001830:	74000000 4345445b 70735d30 6974696c     ...t[DEC0]spliti
 8001840:	5f74696e 70657473 00305f31 00000000     nit_step1_0.....
 8001850:	00000000 fb100204 e3a9f595 4c9b3cf0     .............<.L
 8001860:	29a4819e 104bce0a e82be1fe a748ea3c     ...)..K...+.<.H.
 8001870:	65301401 069cb997 00000000 00000000     ..0e............
	...
 80018cc:	74000000 4345445b 70735d30 6974696c     ...t[DEC0]spliti
 80018dc:	5f74696e 70657473 00305f32 00000000     nit_step2_0.....
 80018ec:	00000000 fb100310 e3a9f595 4c9b3cf0     .............<.L
 80018fc:	29a4819e 104bce0a e82be1fe a748ea3c     ...)..K...+.<.H.
 800190c:	65301401 069cb997 00000000 00000000     ..0e............
	...
 800194c:	e8da2e10 62d14c56 e9e4bd8f faa7f91c     ....VL.b........
 800195c:	0000008d 00000000 00000000 65000000     ...............e
 800196c:	455b7462 5d31434e 6c6c7566 0000315f     bt[ENC1]full_1..
	...
 800198c:	030b0000 f8b3d410 d5b5bac7 56df58ac     .............X.V
 800199c:	c243abdd 6d1e1045 c2ea6201 ec725f05     ..C.E..m.b..._r.
 80019ac:	d6296585 00008e1b 00000000 00000000     .e).............
	...
 80019e8:	a8100000 f7376ce7 bf141683 00143554     .....l7.....T5..
 80019f8:	00ac2583 00000000 00000000 00000000     .%..............
 8001a08:	74626500 434e455b 70735d31 5f74696c     .ebt[ENC1]split_
 8001a18:	70657473 00315f30 00000000 00000000     step0_1.........
 8001a28:	00000000 d4100203 bac7f8b3 58acd5b5     ...............X
 8001a38:	abdd56df 1045c243 62016d1e 5f05c2ea     .V..C.E..m.b..._
 8001a48:	6585ec72 8e1bd629 00000000 00000000     r..e)...........
	...
 8001aa4:	74000000 434e455b 70735d31 5f74696c     ...t[ENC1]split_
 8001ab4:	70657473 00315f31 00000000 00000000     step1_1.........
 8001ac4:	00000000 d4100308 bac7f8b3 58acd5b5     ...............X
 8001ad4:	abdd56df 1045c243 62016d1e 5f05c2ea     .V..C.E..m.b..._
 8001ae4:	6585ec72 8e1bd629 00000000 00000000     r..e)...........
	...
 8001b24:	6ce7a810 1683f737 3554bf14 25830014     ...l7.....T5...%
 8001b34:	000000ac 00000000 00000000 65000000     ...............e
 8001b44:	455b7462 5d31434e 696c7073 696e6974     bt[ENC1]splitini
 8001b54:	74735f74 5f307065 00000031 00000000     t_step0_1.......
 8001b64:	02010000 f8b3d410 d5b5bac7 56df58ac     .............X.V
 8001b74:	c243abdd 6d1e1045 c2ea6201 ec725f05     ..C.E..m.b..._r.
 8001b84:	d6296585 00008e1b 00000000 00000000     .e).............
	...
 8001be0:	455b7400 5d31434e 696c7073 696e6974     .t[ENC1]splitini
 8001bf0:	74735f74 5f317065 00000031 00000000     t_step1_1.......
 8001c00:	02020000 f8b3d410 d5b5bac7 56df58ac     .............X.V
 8001c10:	c243abdd 6d1e1045 c2ea6201 ec725f05     ..C.E..m.b..._r.
 8001c20:	d6296585 00008e1b 00000000 00000000     .e).............
	...
 8001c7c:	455b7400 5d31434e 696c7073 696e6974     .t[ENC1]splitini
 8001c8c:	74735f74 5f327065 00000031 00000000     t_step2_1.......
 8001c9c:	03080000 f8b3d410 d5b5bac7 56df58ac     .............X.V
 8001cac:	c243abdd 6d1e1045 c2ea6201 ec725f05     ..C.E..m.b..._r.
 8001cbc:	d6296585 00008e1b 00000000 00000000     .e).............
	...
 8001cf8:	a8100000 f7376ce7 bf141683 00143554     .....l7.....T5..
 8001d08:	00ac2583 00000000 00000000 00000000     .%..............
 8001d18:	74626500 4345445b 75665d31 315f6c6c     .ebt[DEC1]full_1
	...
 8001d3c:	b0100315 d1ca9b8f 9790f78b 3501f99f     ...............5
 8001d4c:	107a6e13 7226c100 35003569 aedaf89a     .nz...&ri5.5....
 8001d5c:	0cb3749d 00000000 00000000 00000000     .t..............
	...
 8001d98:	ed9a7310 bfae0fbc 0490cdf0 dac3a899     .s..............
 8001da8:	00000023 00000000 00000000 65000000     #..............e
 8001db8:	445b7462 5d314345 696c7073 74735f74     bt[DEC1]split_st
 8001dc8:	5f307065 00000031 00000000 00000000     ep0_1...........
 8001dd8:	02050000 9b8fb010 f78bd1ca f99f9790     ................
 8001de8:	6e133501 c100107a 35697226 f89a3500     .5.nz...&ri5.5..
 8001df8:	749daeda 00000cb3 00000000 00000000     ...t............
	...
 8001e54:	445b7400 5d314345 696c7073 74735f74     .t[DEC1]split_st
 8001e64:	5f317065 00000031 00000000 00000000     ep1_1...........
 8001e74:	03100000 9b8fb010 f78bd1ca f99f9790     ................
 8001e84:	6e133501 c100107a 35697226 f89a3500     .5.nz...&ri5.5..
 8001e94:	749daeda 00000cb3 00000000 00000000     ...t............
	...
 8001ed0:	73100000 0fbced9a cdf0bfae a8990490     ...s............
 8001ee0:	0023dac3 00000000 00000000 00000000     ..#.............
 8001ef0:	74626500 4345445b 70735d31 6974696c     .ebt[DEC1]spliti
 8001f00:	5f74696e 70657473 00315f30 00000000     nit_step0_1.....
 8001f10:	00000000 b0100201 d1ca9b8f 9790f78b     ................
 8001f20:	3501f99f 107a6e13 7226c100 35003569     ...5.nz...&ri5.5
 8001f30:	aedaf89a 0cb3749d 00000000 00000000     .....t..........
	...
 8001f8c:	74000000 4345445b 70735d31 6974696c     ...t[DEC1]spliti
 8001f9c:	5f74696e 70657473 00315f31 00000000     nit_step1_1.....
 8001fac:	00000000 b0100204 d1ca9b8f 9790f78b     ................
 8001fbc:	3501f99f 107a6e13 7226c100 35003569     ...5.nz...&ri5.5
 8001fcc:	aedaf89a 0cb3749d 00000000 00000000     .....t..........
	...
 8002028:	74000000 4345445b 70735d31 6974696c     ...t[DEC1]spliti
 8002038:	5f74696e 70657473 00315f32 00000000     nit_step2_1.....
 8002048:	00000000 b0100310 d1ca9b8f 9790f78b     ................
 8002058:	3501f99f 107a6e13 7226c100 35003569     ...5.nz...&ri5.5
 8002068:	aedaf89a 0cb3749d 00000000 00000000     .....t..........
	...
 80020a8:	ed9a7310 bfae0fbc 0490cdf0 dac3a899     .s..............
 80020b8:	00000023 00000000 00000000 65000000     #..............e
 80020c8:	455b7462 5d32434e 6c6c7566 0000325f     bt[ENC2]full_2..
	...
 80020e8:	030b0000 f2a79410 38f26ac0 6da74c0a     .........j.8.L.m
 80020f8:	492007d3 13dc1036 c5c8ab72 3d170808     .. I6...r......=
 8002108:	44c3da0e 00000724 00000000 00000000     ...D$...........
	...
 8002144:	21100000 18a0be75 3a7b3fbe 79aff3f3     ...!u....?{:...y
 8002154:	007663eb 00000000 00000000 00000000     .cv.............
 8002164:	74626500 434e455b 70735d32 5f74696c     .ebt[ENC2]split_
 8002174:	70657473 00325f30 00000000 00000000     step0_2.........
 8002184:	00000000 94100203 6ac0f2a7 4c0a38f2     ...........j.8.L
 8002194:	07d36da7 10364920 ab7213dc 0808c5c8     .m.. I6...r.....
 80021a4:	da0e3d17 072444c3 00000000 00000000     .=...D$.........
	...
 8002200:	74000000 434e455b 70735d32 5f74696c     ...t[ENC2]split_
 8002210:	70657473 00325f31 00000000 00000000     step1_2.........
 8002220:	00000000 94100308 6ac0f2a7 4c0a38f2     ...........j.8.L
 8002230:	07d36da7 10364920 ab7213dc 0808c5c8     .m.. I6...r.....
 8002240:	da0e3d17 072444c3 00000000 00000000     .=...D$.........
	...
 8002280:	be752110 3fbe18a0 f3f33a7b 63eb79af     .!u....?{:...y.c
 8002290:	00000076 00000000 00000000 65000000     v..............e
 80022a0:	455b7462 5d32434e 696c7073 696e6974     bt[ENC2]splitini
 80022b0:	74735f74 5f307065 00000032 00000000     t_step0_2.......
 80022c0:	02010000 f2a79410 38f26ac0 6da74c0a     .........j.8.L.m
 80022d0:	492007d3 13dc1036 c5c8ab72 3d170808     .. I6...r......=
 80022e0:	44c3da0e 00000724 00000000 00000000     ...D$...........
	...
 800233c:	455b7400 5d32434e 696c7073 696e6974     .t[ENC2]splitini
 800234c:	74735f74 5f317065 00000032 00000000     t_step1_2.......
 800235c:	02020000 f2a79410 38f26ac0 6da74c0a     .........j.8.L.m
 800236c:	492007d3 13dc1036 c5c8ab72 3d170808     .. I6...r......=
 800237c:	44c3da0e 00000724 00000000 00000000     ...D$...........
	...
 80023d8:	455b7400 5d32434e 696c7073 696e6974     .t[ENC2]splitini
 80023e8:	74735f74 5f327065 00000032 00000000     t_step2_2.......
 80023f8:	03080000 f2a79410 38f26ac0 6da74c0a     .........j.8.L.m
 8002408:	492007d3 13dc1036 c5c8ab72 3d170808     .. I6...r......=
 8002418:	44c3da0e 00000724 00000000 00000000     ...D$...........
	...
 8002454:	21100000 18a0be75 3a7b3fbe 79aff3f3     ...!u....?{:...y
 8002464:	007663eb 00000000 00000000 00000000     .cv.............
 8002474:	74626500 4345445b 75665d32 325f6c6c     .ebt[DEC2]full_2
	...
 8002498:	63100315 e68db03f da83ee3c f9b9968b     ...c?...<.......
 80024a8:	1066fb92 4726a2e6 0764423f 408dca4f     ..f...&G?Bd.O..@
 80024b8:	fad442fb 00000000 00000000 00000000     .B..............
	...
 80024f4:	e5e5ac10 7f25eed3 6092ba30 a9521e59     ......%.0..`Y.R.
 8002504:	000000c6 00000000 00000000 65000000     ...............e
 8002514:	445b7462 5d324345 696c7073 74735f74     bt[DEC2]split_st
 8002524:	5f307065 00000032 00000000 00000000     ep0_2...........
 8002534:	02050000 b03f6310 ee3ce68d 968bda83     .....c?...<.....
 8002544:	fb92f9b9 a2e61066 423f4726 ca4f0764     ....f...&G?Bd.O.
 8002554:	42fb408d 0000fad4 00000000 00000000     .@.B............
	...
 80025b0:	445b7400 5d324345 696c7073 74735f74     .t[DEC2]split_st
 80025c0:	5f317065 00000032 00000000 00000000     ep1_2...........
 80025d0:	03100000 b03f6310 ee3ce68d 968bda83     .....c?...<.....
 80025e0:	fb92f9b9 a2e61066 423f4726 ca4f0764     ....f...&G?Bd.O.
 80025f0:	42fb408d 0000fad4 00000000 00000000     .@.B............
	...
 800262c:	ac100000 eed3e5e5 ba307f25 1e596092     ........%.0..`Y.
 800263c:	00c6a952 00000000 00000000 00000000     R...............
 800264c:	74626500 4345445b 70735d32 6974696c     .ebt[DEC2]spliti
 800265c:	5f74696e 70657473 00325f30 00000000     nit_step0_2.....
 800266c:	00000000 63100201 e68db03f da83ee3c     .......c?...<...
 800267c:	f9b9968b 1066fb92 4726a2e6 0764423f     ......f...&G?Bd.
 800268c:	408dca4f fad442fb 00000000 00000000     O..@.B..........
	...
 80026e8:	74000000 4345445b 70735d32 6974696c     ...t[DEC2]spliti
 80026f8:	5f74696e 70657473 00325f31 00000000     nit_step1_2.....
 8002708:	00000000 63100204 e68db03f da83ee3c     .......c?...<...
 8002718:	f9b9968b 1066fb92 4726a2e6 0764423f     ......f...&G?Bd.
 8002728:	408dca4f fad442fb 00000000 00000000     O..@.B..........
	...
 8002784:	74000000 4345445b 70735d32 6974696c     ...t[DEC2]spliti
 8002794:	5f74696e 70657473 00325f32 00000000     nit_step2_2.....
 80027a4:	00000000 63100310 e68db03f da83ee3c     .......c?...<...
 80027b4:	f9b9968b 1066fb92 4726a2e6 0764423f     ......f...&G?Bd.
 80027c4:	408dca4f fad442fb 00000000 00000000     O..@.B..........
	...
 8002804:	e5e5ac10 7f25eed3 6092ba30 a9521e59     ......%.0..`Y.R.
 8002814:	000000c6 00000000 00000000 65000000     ...............e
 8002824:	455b7462 5d33434e 6c6c7566 0000335f     bt[ENC3]full_3..
	...
 8002844:	030b0000 c3f41310 9c69454c 362332b5     ........LEi..2#6
 8002854:	7cfe9943 191910fe 7865b985 16d7e5ac     C..|......ex....
 8002864:	3f9b6e8b 0000de91 00000000 00000000     .n.?............
	...
 80028a0:	bd100000 5d8082ff 795e0cb1 da9abbf4     .......]..^y....
 80028b0:	0075f3d8 00000000 00000000 00000000     ..u.............
 80028c0:	74626500 434e455b 70735d33 5f74696c     .ebt[ENC3]split_
 80028d0:	70657473 00335f30 00000000 00000000     step0_3.........
 80028e0:	00000000 13100203 454cc3f4 32b59c69     ..........LEi..2
 80028f0:	99433623 10fe7cfe b9851919 e5ac7865     #6C..|......ex..
 8002900:	6e8b16d7 de913f9b 00000000 00000000     ...n.?..........
	...
 800295c:	74000000 434e455b 70735d33 5f74696c     ...t[ENC3]split_
 800296c:	70657473 00335f31 00000000 00000000     step1_3.........
 800297c:	00000000 13100308 454cc3f4 32b59c69     ..........LEi..2
 800298c:	99433623 10fe7cfe b9851919 e5ac7865     #6C..|......ex..
 800299c:	6e8b16d7 de913f9b 00000000 00000000     ...n.?..........
	...
 80029dc:	82ffbd10 0cb15d80 bbf4795e f3d8da9a     .....]..^y......
 80029ec:	00000075 00000000 00000000 65000000     u..............e
 80029fc:	455b7462 5d33434e 696c7073 696e6974     bt[ENC3]splitini
 8002a0c:	74735f74 5f307065 00000033 00000000     t_step0_3.......
 8002a1c:	02010000 c3f41310 9c69454c 362332b5     ........LEi..2#6
 8002a2c:	7cfe9943 191910fe 7865b985 16d7e5ac     C..|......ex....
 8002a3c:	3f9b6e8b 0000de91 00000000 00000000     .n.?............
	...
 8002a98:	455b7400 5d33434e 696c7073 696e6974     .t[ENC3]splitini
 8002aa8:	74735f74 5f317065 00000033 00000000     t_step1_3.......
 8002ab8:	02020000 c3f41310 9c69454c 362332b5     ........LEi..2#6
 8002ac8:	7cfe9943 191910fe 7865b985 16d7e5ac     C..|......ex....
 8002ad8:	3f9b6e8b 0000de91 00000000 00000000     .n.?............
	...
 8002b34:	455b7400 5d33434e 696c7073 696e6974     .t[ENC3]splitini
 8002b44:	74735f74 5f327065 00000033 00000000     t_step2_3.......
 8002b54:	03080000 c3f41310 9c69454c 362332b5     ........LEi..2#6
 8002b64:	7cfe9943 191910fe 7865b985 16d7e5ac     C..|......ex....
 8002b74:	3f9b6e8b 0000de91 00000000 00000000     .n.?............
	...
 8002bb0:	bd100000 5d8082ff 795e0cb1 da9abbf4     .......]..^y....
 8002bc0:	0075f3d8 00000000 00000000 00000000     ..u.............
 8002bd0:	74626500 4345445b 75665d33 335f6c6c     .ebt[DEC3]full_3
	...
 8002bf4:	10100315 1abd16a9 b0890413 66d7dcb7     ...............f
 8002c04:	108f5a38 24352183 8f4c886a 73194efa     8Z...!5$j.L..N.s
 8002c14:	0e1e06f3 00000000 00000000 00000000     ................
	...
 8002c50:	c11f0210 4fb82e21 bcd3ad5f b262161d     ....!..O_.....b.
 8002c60:	00000033 00000000 00000000 65000000     3..............e
 8002c70:	445b7462 5d334345 696c7073 74735f74     bt[DEC3]split_st
 8002c80:	5f307065 00000033 00000000 00000000     ep0_3...........
 8002c90:	02050000 16a91010 04131abd dcb7b089     ................
 8002ca0:	5a3866d7 2183108f 886a2435 4efa8f4c     .f8Z...!5$j.L..N
 8002cb0:	06f37319 00000e1e 00000000 00000000     .s..............
	...
 8002d0c:	445b7400 5d334345 696c7073 74735f74     .t[DEC3]split_st
 8002d1c:	5f317065 00000033 00000000 00000000     ep1_3...........
 8002d2c:	03100000 16a91010 04131abd dcb7b089     ................
 8002d3c:	5a3866d7 2183108f 886a2435 4efa8f4c     .f8Z...!5$j.L..N
 8002d4c:	06f37319 00000e1e 00000000 00000000     .s..............
	...
 8002d88:	02100000 2e21c11f ad5f4fb8 161dbcd3     ......!..O_.....
 8002d98:	0033b262 00000000 00000000 00000000     b.3.............
 8002da8:	74626500 4345445b 70735d33 6974696c     .ebt[DEC3]spliti
 8002db8:	5f74696e 70657473 00335f30 00000000     nit_step0_3.....
 8002dc8:	00000000 10100201 1abd16a9 b0890413     ................
 8002dd8:	66d7dcb7 108f5a38 24352183 8f4c886a     ...f8Z...!5$j.L.
 8002de8:	73194efa 0e1e06f3 00000000 00000000     .N.s............
	...
 8002e44:	74000000 4345445b 70735d33 6974696c     ...t[DEC3]spliti
 8002e54:	5f74696e 70657473 00335f31 00000000     nit_step1_3.....
 8002e64:	00000000 10100204 1abd16a9 b0890413     ................
 8002e74:	66d7dcb7 108f5a38 24352183 8f4c886a     ...f8Z...!5$j.L.
 8002e84:	73194efa 0e1e06f3 00000000 00000000     .N.s............
	...
 8002ee0:	74000000 4345445b 70735d33 6974696c     ...t[DEC3]spliti
 8002ef0:	5f74696e 70657473 00335f32 00000000     nit_step2_3.....
 8002f00:	00000000 10100310 1abd16a9 b0890413     ................
 8002f10:	66d7dcb7 108f5a38 24352183 8f4c886a     ...f8Z...!5$j.L.
 8002f20:	73194efa 0e1e06f3 00000000 00000000     .N.s............
	...
 8002f60:	c11f0210 4fb82e21 bcd3ad5f b262161d     ....!..O_.....b.
 8002f70:	00000033 00000000 00000000 65000000     3..............e
 8002f80:	455b7462 5d34434e 6c6c7566 0000345f     bt[ENC4]full_4..
	...
 8002fa0:	030b0000 b7f10310 e4ab8de7 24275692     .............V'$
 8002fb0:	95c3c6fd 3b93105d ab5fe5af df12ffca     ....]..;.._.....
 8002fc0:	0b7338d5 0000e799 00000000 00000000     .8s.............
	...
 8002ffc:	e3100000 0be0571f 3da7ea2e b6ed836d     .....W.....=m...
 800300c:	00f13411 00000000 00000000 00000000     .4..............
 800301c:	74626500 434e455b 70735d34 5f74696c     .ebt[ENC4]split_
 800302c:	70657473 00345f30 00000000 00000000     step0_4.........
 800303c:	00000000 03100203 8de7b7f1 5692e4ab     ...............V
 800304c:	c6fd2427 105d95c3 e5af3b93 ffcaab5f     '$....]..;.._...
 800305c:	38d5df12 e7990b73 00000000 00000000     ...8s...........
	...
 80030b8:	74000000 434e455b 70735d34 5f74696c     ...t[ENC4]split_
 80030c8:	70657473 00345f31 00000000 00000000     step1_4.........
 80030d8:	00000000 03100308 8de7b7f1 5692e4ab     ...............V
 80030e8:	c6fd2427 105d95c3 e5af3b93 ffcaab5f     '$....]..;.._...
 80030f8:	38d5df12 e7990b73 00000000 00000000     ...8s...........
	...
 8003138:	571fe310 ea2e0be0 836d3da7 3411b6ed     ...W.....=m....4
 8003148:	000000f1 00000000 00000000 65000000     ...............e
 8003158:	455b7462 5d34434e 696c7073 696e6974     bt[ENC4]splitini
 8003168:	74735f74 5f307065 00000034 00000000     t_step0_4.......
 8003178:	02010000 b7f10310 e4ab8de7 24275692     .............V'$
 8003188:	95c3c6fd 3b93105d ab5fe5af df12ffca     ....]..;.._.....
 8003198:	0b7338d5 0000e799 00000000 00000000     .8s.............
	...
 80031f4:	455b7400 5d34434e 696c7073 696e6974     .t[ENC4]splitini
 8003204:	74735f74 5f317065 00000034 00000000     t_step1_4.......
 8003214:	02020000 b7f10310 e4ab8de7 24275692     .............V'$
 8003224:	95c3c6fd 3b93105d ab5fe5af df12ffca     ....]..;.._.....
 8003234:	0b7338d5 0000e799 00000000 00000000     .8s.............
	...
 8003290:	455b7400 5d34434e 696c7073 696e6974     .t[ENC4]splitini
 80032a0:	74735f74 5f327065 00000034 00000000     t_step2_4.......
 80032b0:	03080000 b7f10310 e4ab8de7 24275692     .............V'$
 80032c0:	95c3c6fd 3b93105d ab5fe5af df12ffca     ....]..;.._.....
 80032d0:	0b7338d5 0000e799 00000000 00000000     .8s.............
	...
 800330c:	e3100000 0be0571f 3da7ea2e b6ed836d     .....W.....=m...
 800331c:	00f13411 00000000 00000000 00000000     .4..............
 800332c:	74626500 4345445b 75665d34 345f6c6c     .ebt[DEC4]full_4
	...
 8003350:	f8100315 7755ace4 4f4dbcdf d4e480f3     ......Uw..MO....
 8003360:	10f1f07f 0dbf8ca4 4c9d0336 cd9cedbd     ........6..L....
 8003370:	c09a2631 00000000 00000000 00000000     1&..............
	...
 80033ac:	ffacb210 eae04400 cb7f863f 92f10db8     .....D..?.......
 80033bc:	000000c1 00000000 00000000 65000000     ...............e
 80033cc:	445b7462 5d344345 696c7073 74735f74     bt[DEC4]split_st
 80033dc:	5f307065 00000034 00000000 00000000     ep0_4...........
 80033ec:	02050000 ace4f810 bcdf7755 80f34f4d     ........Uw..MO..
 80033fc:	f07fd4e4 8ca410f1 03360dbf edbd4c9d     ..........6..L..
 800340c:	2631cd9c 0000c09a 00000000 00000000     ..1&............
	...
 8003468:	445b7400 5d344345 696c7073 74735f74     .t[DEC4]split_st
 8003478:	5f317065 00000034 00000000 00000000     ep1_4...........
 8003488:	03100000 ace4f810 bcdf7755 80f34f4d     ........Uw..MO..
 8003498:	f07fd4e4 8ca410f1 03360dbf edbd4c9d     ..........6..L..
 80034a8:	2631cd9c 0000c09a 00000000 00000000     ..1&............
	...
 80034e4:	b2100000 4400ffac 863feae0 0db8cb7f     .......D..?.....
 80034f4:	00c192f1 00000000 00000000 00000000     ................
 8003504:	74626500 4345445b 70735d34 6974696c     .ebt[DEC4]spliti
 8003514:	5f74696e 70657473 00345f30 00000000     nit_step0_4.....
 8003524:	00000000 f8100201 7755ace4 4f4dbcdf     ..........Uw..MO
 8003534:	d4e480f3 10f1f07f 0dbf8ca4 4c9d0336     ............6..L
 8003544:	cd9cedbd c09a2631 00000000 00000000     ....1&..........
	...
 80035a0:	74000000 4345445b 70735d34 6974696c     ...t[DEC4]spliti
 80035b0:	5f74696e 70657473 00345f31 00000000     nit_step1_4.....
 80035c0:	00000000 f8100204 7755ace4 4f4dbcdf     ..........Uw..MO
 80035d0:	d4e480f3 10f1f07f 0dbf8ca4 4c9d0336     ............6..L
 80035e0:	cd9cedbd c09a2631 00000000 00000000     ....1&..........
	...
 800363c:	74000000 4345445b 70735d34 6974696c     ...t[DEC4]spliti
 800364c:	5f74696e 70657473 00345f32 00000000     nit_step2_4.....
 800365c:	00000000 f8100310 7755ace4 4f4dbcdf     ..........Uw..MO
 800366c:	d4e480f3 10f1f07f 0dbf8ca4 4c9d0336     ............6..L
 800367c:	cd9cedbd c09a2631 00000000 00000000     ....1&..........
	...
 80036bc:	ffacb210 eae04400 cb7f863f 92f10db8     .....D..?.......
 80036cc:	000000c1 00000000 00000000 65000000     ...............e
 80036dc:	455b7462 5d35434e 6c6c7566 0000355f     bt[ENC5]full_5..
	...
 80036fc:	030b0000 5a729710 85f52448 a0b1f968     ......rZH$..h...
 800370c:	dd982a7d a0271017 0c98cfef 1a780434     }*....'.....4.x.
 800371c:	c5cdb094 00000030 00000000 00000000     ....0...........
	...
 8003758:	f3100000 92de6b16 b10b4dea 586133ea     .....k...M...3aX
 8003768:	005292cc 00000000 00000000 00000000     ..R.............
 8003778:	74626500 434e455b 70735d35 5f74696c     .ebt[ENC5]split_
 8003788:	70657473 00355f30 00000000 00000000     step0_5.........
 8003798:	00000000 97100203 24485a72 f96885f5     ........rZH$..h.
 80037a8:	2a7da0b1 1017dd98 cfefa027 04340c98     ..}*....'.....4.
 80037b8:	b0941a78 0030c5cd 00000000 00000000     x.....0.........
	...
 8003814:	74000000 434e455b 70735d35 5f74696c     ...t[ENC5]split_
 8003824:	70657473 00355f31 00000000 00000000     step1_5.........
 8003834:	00000000 97100308 24485a72 f96885f5     ........rZH$..h.
 8003844:	2a7da0b1 1017dd98 cfefa027 04340c98     ..}*....'.....4.
 8003854:	b0941a78 0030c5cd 00000000 00000000     x.....0.........
	...
 8003894:	6b16f310 4dea92de 33eab10b 92cc5861     ...k...M...3aX..
 80038a4:	00000052 00000000 00000000 65000000     R..............e
 80038b4:	455b7462 5d35434e 696c7073 696e6974     bt[ENC5]splitini
 80038c4:	74735f74 5f307065 00000035 00000000     t_step0_5.......
 80038d4:	02010000 5a729710 85f52448 a0b1f968     ......rZH$..h...
 80038e4:	dd982a7d a0271017 0c98cfef 1a780434     }*....'.....4.x.
 80038f4:	c5cdb094 00000030 00000000 00000000     ....0...........
	...
 8003950:	455b7400 5d35434e 696c7073 696e6974     .t[ENC5]splitini
 8003960:	74735f74 5f317065 00000035 00000000     t_step1_5.......
 8003970:	02020000 5a729710 85f52448 a0b1f968     ......rZH$..h...
 8003980:	dd982a7d a0271017 0c98cfef 1a780434     }*....'.....4.x.
 8003990:	c5cdb094 00000030 00000000 00000000     ....0...........
	...
 80039ec:	455b7400 5d35434e 696c7073 696e6974     .t[ENC5]splitini
 80039fc:	74735f74 5f327065 00000035 00000000     t_step2_5.......
 8003a0c:	03080000 5a729710 85f52448 a0b1f968     ......rZH$..h...
 8003a1c:	dd982a7d a0271017 0c98cfef 1a780434     }*....'.....4.x.
 8003a2c:	c5cdb094 00000030 00000000 00000000     ....0...........
	...
 8003a68:	f3100000 92de6b16 b10b4dea 586133ea     .....k...M...3aX
 8003a78:	005292cc 00000000 00000000 00000000     ..R.............
 8003a88:	74626500 4345445b 75665d35 355f6c6c     .ebt[DEC5]full_5
	...
 8003aac:	ad100315 8c7b13f3 2937a1c1 1ee0afe1     ......{...7)....
 8003abc:	10144d1d a98a3386 178a30b6 7aad7c45     .M...3...0..E|.z
 8003acc:	a9abf03b 00000000 00000000 00000000     ;...............
	...
 8003b08:	d8678b10 5273a1f4 c9a98c20 eb52cd0d     ..g...sR .....R.
 8003b18:	000000b6 00000000 00000000 65000000     ...............e
 8003b28:	445b7462 5d354345 696c7073 74735f74     bt[DEC5]split_st
 8003b38:	5f307065 00000035 00000000 00000000     ep0_5...........
 8003b48:	02050000 13f3ad10 a1c18c7b afe12937     ........{...7)..
 8003b58:	4d1d1ee0 33861014 30b6a98a 7c45178a     ...M...3...0..E|
 8003b68:	f03b7aad 0000a9ab 00000000 00000000     .z;.............
	...
 8003bc4:	445b7400 5d354345 696c7073 74735f74     .t[DEC5]split_st
 8003bd4:	5f317065 00000035 00000000 00000000     ep1_5...........
 8003be4:	03100000 13f3ad10 a1c18c7b afe12937     ........{...7)..
 8003bf4:	4d1d1ee0 33861014 30b6a98a 7c45178a     ...M...3...0..E|
 8003c04:	f03b7aad 0000a9ab 00000000 00000000     .z;.............
	...
 8003c40:	8b100000 a1f4d867 8c205273 cd0dc9a9     ....g...sR .....
 8003c50:	00b6eb52 00000000 00000000 00000000     R...............
 8003c60:	74626500 4345445b 70735d35 6974696c     .ebt[DEC5]spliti
 8003c70:	5f74696e 70657473 00355f30 00000000     nit_step0_5.....
 8003c80:	00000000 ad100201 8c7b13f3 2937a1c1     ..........{...7)
 8003c90:	1ee0afe1 10144d1d a98a3386 178a30b6     .....M...3...0..
 8003ca0:	7aad7c45 a9abf03b 00000000 00000000     E|.z;...........
	...
 8003cfc:	74000000 4345445b 70735d35 6974696c     ...t[DEC5]spliti
 8003d0c:	5f74696e 70657473 00355f31 00000000     nit_step1_5.....
 8003d1c:	00000000 ad100204 8c7b13f3 2937a1c1     ..........{...7)
 8003d2c:	1ee0afe1 10144d1d a98a3386 178a30b6     .....M...3...0..
 8003d3c:	7aad7c45 a9abf03b 00000000 00000000     E|.z;...........
	...
 8003d98:	74000000 4345445b 70735d35 6974696c     ...t[DEC5]spliti
 8003da8:	5f74696e 70657473 00355f32 00000000     nit_step2_5.....
 8003db8:	00000000 ad100310 8c7b13f3 2937a1c1     ..........{...7)
 8003dc8:	1ee0afe1 10144d1d a98a3386 178a30b6     .....M...3...0..
 8003dd8:	7aad7c45 a9abf03b 00000000 00000000     E|.z;...........
	...
 8003e18:	d8678b10 5273a1f4 c9a98c20 eb52cd0d     ..g...sR .....R.
 8003e28:	000000b6 00000000 00000000 65000000     ...............e
 8003e38:	455b7462 5d36434e 6c6c7566 0000365f     bt[ENC6]full_6..
	...
 8003e58:	030b0000 08cd1610 be68251e d8f35f28     .........%h.(_..
 8003e68:	55358ff7 f2af10cd c5a0b8ea 9c5aacee     ..5U..........Z.
 8003e78:	b06aea54 000092fc 00000000 00000000     T.j.............
	...
 8003eb4:	75100000 4b084730 0eeb1fc0 9937f545     ...u0G.K....E.7.
 8003ec4:	00c87d81 00000000 00000000 00000000     .}..............
 8003ed4:	74626500 434e455b 70735d36 5f74696c     .ebt[ENC6]split_
 8003ee4:	70657473 00365f30 00000000 00000000     step0_6.........
 8003ef4:	00000000 16100203 251e08cd 5f28be68     ...........%h.(_
 8003f04:	8ff7d8f3 10cd5535 b8eaf2af aceec5a0     ....5U..........
 8003f14:	ea549c5a 92fcb06a 00000000 00000000     Z.T.j...........
	...
 8003f70:	74000000 434e455b 70735d36 5f74696c     ...t[ENC6]split_
 8003f80:	70657473 00365f31 00000000 00000000     step1_6.........
 8003f90:	00000000 16100308 251e08cd 5f28be68     ...........%h.(_
 8003fa0:	8ff7d8f3 10cd5535 b8eaf2af aceec5a0     ....5U..........
 8003fb0:	ea549c5a 92fcb06a 00000000 00000000     Z.T.j...........
	...
 8003ff0:	47307510 1fc04b08 f5450eeb 7d819937     .u0G.K....E.7..}
 8004000:	000000c8 00000000 00000000 65000000     ...............e
 8004010:	455b7462 5d36434e 696c7073 696e6974     bt[ENC6]splitini
 8004020:	74735f74 5f307065 00000036 00000000     t_step0_6.......
 8004030:	02010000 08cd1610 be68251e d8f35f28     .........%h.(_..
 8004040:	55358ff7 f2af10cd c5a0b8ea 9c5aacee     ..5U..........Z.
 8004050:	b06aea54 000092fc 00000000 00000000     T.j.............
	...
 80040ac:	455b7400 5d36434e 696c7073 696e6974     .t[ENC6]splitini
 80040bc:	74735f74 5f317065 00000036 00000000     t_step1_6.......
 80040cc:	02020000 08cd1610 be68251e d8f35f28     .........%h.(_..
 80040dc:	55358ff7 f2af10cd c5a0b8ea 9c5aacee     ..5U..........Z.
 80040ec:	b06aea54 000092fc 00000000 00000000     T.j.............
	...
 8004148:	455b7400 5d36434e 696c7073 696e6974     .t[ENC6]splitini
 8004158:	74735f74 5f327065 00000036 00000000     t_step2_6.......
 8004168:	03080000 08cd1610 be68251e d8f35f28     .........%h.(_..
 8004178:	55358ff7 f2af10cd c5a0b8ea 9c5aacee     ..5U..........Z.
 8004188:	b06aea54 000092fc 00000000 00000000     T.j.............
	...
 80041c4:	75100000 4b084730 0eeb1fc0 9937f545     ...u0G.K....E.7.
 80041d4:	00c87d81 00000000 00000000 00000000     .}..............
 80041e4:	74626500 4345445b 75665d36 365f6c6c     .ebt[DEC6]full_6
	...
 8004208:	18100315 1e750567 ff51200a a513e776     ....g.u.. Q.v...
 8004218:	10a8f085 803ef6ff a5b40960 0857b511     ......>.`.....W.
 8004228:	8c1b3843 00000000 00000000 00000000     C8..............
	...
 8004264:	6dcc6410 d03712df 85d3a8b4 6d89ceb4     .d.m..7........m
 8004274:	00000052 00000000 00000000 65000000     R..............e
 8004284:	445b7462 5d364345 696c7073 74735f74     bt[DEC6]split_st
 8004294:	5f307065 00000036 00000000 00000000     ep0_6...........
 80042a4:	02050000 05671810 200a1e75 e776ff51     ......g.u.. Q.v.
 80042b4:	f085a513 f6ff10a8 0960803e b511a5b4     ........>.`.....
 80042c4:	38430857 00008c1b 00000000 00000000     W.C8............
	...
 8004320:	445b7400 5d364345 696c7073 74735f74     .t[DEC6]split_st
 8004330:	5f317065 00000036 00000000 00000000     ep1_6...........
 8004340:	03100000 05671810 200a1e75 e776ff51     ......g.u.. Q.v.
 8004350:	f085a513 f6ff10a8 0960803e b511a5b4     ........>.`.....
 8004360:	38430857 00008c1b 00000000 00000000     W.C8............
	...
 800439c:	64100000 12df6dcc a8b4d037 ceb485d3     ...d.m..7.......
 80043ac:	00526d89 00000000 00000000 00000000     .mR.............
 80043bc:	74626500 4345445b 70735d36 6974696c     .ebt[DEC6]spliti
 80043cc:	5f74696e 70657473 00365f30 00000000     nit_step0_6.....
 80043dc:	00000000 18100201 1e750567 ff51200a     ........g.u.. Q.
 80043ec:	a513e776 10a8f085 803ef6ff a5b40960     v.........>.`...
 80043fc:	0857b511 8c1b3843 00000000 00000000     ..W.C8..........
	...
 8004458:	74000000 4345445b 70735d36 6974696c     ...t[DEC6]spliti
 8004468:	5f74696e 70657473 00365f31 00000000     nit_step1_6.....
 8004478:	00000000 18100204 1e750567 ff51200a     ........g.u.. Q.
 8004488:	a513e776 10a8f085 803ef6ff a5b40960     v.........>.`...
 8004498:	0857b511 8c1b3843 00000000 00000000     ..W.C8..........
	...
 80044f4:	74000000 4345445b 70735d36 6974696c     ...t[DEC6]spliti
 8004504:	5f74696e 70657473 00365f32 00000000     nit_step2_6.....
 8004514:	00000000 18100310 1e750567 ff51200a     ........g.u.. Q.
 8004524:	a513e776 10a8f085 803ef6ff a5b40960     v.........>.`...
 8004534:	0857b511 8c1b3843 00000000 00000000     ..W.C8..........
	...
 8004574:	6dcc6410 d03712df 85d3a8b4 6d89ceb4     .d.m..7........m
 8004584:	00000052 00000000 00000000 65000000     R..............e
 8004594:	455b7462 5d37434e 6c6c7566 0000375f     bt[ENC7]full_7..
	...
 80045b4:	030b0000 d2a27410 953ed4c9 a221c6ac     .....t....>...!.
 80045c4:	f4a56ed0 cef510ac 64d873e3 07769c27     .n.......s.d'.v.
 80045d4:	c8c3edf9 0000796d 00000000 00000000     ....my..........
	...
 8004610:	8a100000 ef73375e 08c09b49 c29df2d8     ....^7s.I.......
 8004620:	001ab51c 00000000 00000000 00000000     ................
 8004630:	74626500 434e455b 70735d37 5f74696c     .ebt[ENC7]split_
 8004640:	70657473 00375f30 00000000 00000000     step0_7.........
 8004650:	00000000 74100203 d4c9d2a2 c6ac953e     .......t....>...
 8004660:	6ed0a221 10acf4a5 73e3cef5 9c2764d8     !..n.......s.d'.
 8004670:	edf90776 796dc8c3 00000000 00000000     v.....my........
	...
 80046cc:	74000000 434e455b 70735d37 5f74696c     ...t[ENC7]split_
 80046dc:	70657473 00375f31 00000000 00000000     step1_7.........
 80046ec:	00000000 74100308 d4c9d2a2 c6ac953e     .......t....>...
 80046fc:	6ed0a221 10acf4a5 73e3cef5 9c2764d8     !..n.......s.d'.
 800470c:	edf90776 796dc8c3 00000000 00000000     v.....my........
	...
 800474c:	375e8a10 9b49ef73 f2d808c0 b51cc29d     ..^7s.I.........
 800475c:	0000001a 00000000 00000000 65000000     ...............e
 800476c:	455b7462 5d37434e 696c7073 696e6974     bt[ENC7]splitini
 800477c:	74735f74 5f307065 00000037 00000000     t_step0_7.......
 800478c:	02010000 d2a27410 953ed4c9 a221c6ac     .....t....>...!.
 800479c:	f4a56ed0 cef510ac 64d873e3 07769c27     .n.......s.d'.v.
 80047ac:	c8c3edf9 0000796d 00000000 00000000     ....my..........
	...
 8004808:	455b7400 5d37434e 696c7073 696e6974     .t[ENC7]splitini
 8004818:	74735f74 5f317065 00000037 00000000     t_step1_7.......
 8004828:	02020000 d2a27410 953ed4c9 a221c6ac     .....t....>...!.
 8004838:	f4a56ed0 cef510ac 64d873e3 07769c27     .n.......s.d'.v.
 8004848:	c8c3edf9 0000796d 00000000 00000000     ....my..........
	...
 80048a4:	455b7400 5d37434e 696c7073 696e6974     .t[ENC7]splitini
 80048b4:	74735f74 5f327065 00000037 00000000     t_step2_7.......
 80048c4:	03080000 d2a27410 953ed4c9 a221c6ac     .....t....>...!.
 80048d4:	f4a56ed0 cef510ac 64d873e3 07769c27     .n.......s.d'.v.
 80048e4:	c8c3edf9 0000796d 00000000 00000000     ....my..........
	...
 8004920:	8a100000 ef73375e 08c09b49 c29df2d8     ....^7s.I.......
 8004930:	001ab51c 00000000 00000000 00000000     ................
 8004940:	74626500 4345445b 75665d37 375f6c6c     .ebt[DEC7]full_7
	...
 8004964:	e8100315 bbbd2b2b 667bc4db 1ac647af     ....++....{f.G..
 8004974:	100be962 7c8b195e 9b95b5b4 5f18ac34     b...^..|....4.._
 8004984:	f585d5cc 00000000 00000000 00000000     ................
	...
 80049c0:	00be5f10 e675c7cc 1c0fda96 b4ca594d     ._....u.....MY..
 80049d0:	000000df 00000000 00000000 65000000     ...............e
 80049e0:	445b7462 5d374345 696c7073 74735f74     bt[DEC7]split_st
 80049f0:	5f307065 00000037 00000000 00000000     ep0_7...........
 8004a00:	02050000 2b2be810 c4dbbbbd 47af667b     ......++....{f.G
 8004a10:	e9621ac6 195e100b b5b47c8b ac349b95     ..b...^..|....4.
 8004a20:	d5cc5f18 0000f585 00000000 00000000     ._..............
	...
 8004a7c:	445b7400 5d374345 696c7073 74735f74     .t[DEC7]split_st
 8004a8c:	5f317065 00000037 00000000 00000000     ep1_7...........
 8004a9c:	03100000 2b2be810 c4dbbbbd 47af667b     ......++....{f.G
 8004aac:	e9621ac6 195e100b b5b47c8b ac349b95     ..b...^..|....4.
 8004abc:	d5cc5f18 0000f585 00000000 00000000     ._..............
	...
 8004af8:	5f100000 c7cc00be da96e675 594d1c0f     ..._....u.....MY
 8004b08:	00dfb4ca 00000000 00000000 00000000     ................
 8004b18:	74626500 4345445b 70735d37 6974696c     .ebt[DEC7]spliti
 8004b28:	5f74696e 70657473 00375f30 00000000     nit_step0_7.....
 8004b38:	00000000 e8100201 bbbd2b2b 667bc4db     ........++....{f
 8004b48:	1ac647af 100be962 7c8b195e 9b95b5b4     .G..b...^..|....
 8004b58:	5f18ac34 f585d5cc 00000000 00000000     4.._............
	...
 8004bb4:	74000000 4345445b 70735d37 6974696c     ...t[DEC7]spliti
 8004bc4:	5f74696e 70657473 00375f31 00000000     nit_step1_7.....
 8004bd4:	00000000 e8100204 bbbd2b2b 667bc4db     ........++....{f
 8004be4:	1ac647af 100be962 7c8b195e 9b95b5b4     .G..b...^..|....
 8004bf4:	5f18ac34 f585d5cc 00000000 00000000     4.._............
	...
 8004c50:	74000000 4345445b 70735d37 6974696c     ...t[DEC7]spliti
 8004c60:	5f74696e 70657473 00375f32 00000000     nit_step2_7.....
 8004c70:	00000000 e8100310 bbbd2b2b 667bc4db     ........++....{f
 8004c80:	1ac647af 100be962 7c8b195e 9b95b5b4     .G..b...^..|....
 8004c90:	5f18ac34 f585d5cc 00000000 00000000     4.._............
	...
 8004cd0:	00be5f10 e675c7cc 1c0fda96 b4ca594d     ._....u.....MY..
 8004ce0:	000000df 00000000 00000000 65000000     ...............e
 8004cf0:	455b7462 5d38434e 6c6c7566 0000385f     bt[ENC8]full_8..
	...
 8004d10:	030b0000 0045a410 5c04c88c 89562ac9     ......E....\.*V.
 8004d20:	e3a7145a d77210b0 b3b68910 43dcbc63     Z.....r.....c..C
 8004d30:	b9544c98 0000e76a 00000000 00000000     .LT.j...........
	...
 8004d6c:	e6100000 093ab75c 593f72e4 24362cf2     ....\.:..r?Y.,6$
 8004d7c:	00dd33a2 00000000 00000000 00000000     .3..............
 8004d8c:	74626500 434e455b 70735d38 5f74696c     .ebt[ENC8]split_
 8004d9c:	70657473 00385f30 00000000 00000000     step0_8.........
 8004dac:	00000000 a4100203 c88c0045 2ac95c04     ........E....\.*
 8004dbc:	145a8956 10b0e3a7 8910d772 bc63b3b6     V.Z.....r.....c.
 8004dcc:	4c9843dc e76ab954 00000000 00000000     .C.LT.j.........
	...
 8004e28:	74000000 434e455b 70735d38 5f74696c     ...t[ENC8]split_
 8004e38:	70657473 00385f31 00000000 00000000     step1_8.........
 8004e48:	00000000 a4100308 c88c0045 2ac95c04     ........E....\.*
 8004e58:	145a8956 10b0e3a7 8910d772 bc63b3b6     V.Z.....r.....c.
 8004e68:	4c9843dc e76ab954 00000000 00000000     .C.LT.j.........
	...
 8004ea8:	b75ce610 72e4093a 2cf2593f 33a22436     ..\.:..r?Y.,6$.3
 8004eb8:	000000dd 00000000 00000000 65000000     ...............e
 8004ec8:	455b7462 5d38434e 696c7073 696e6974     bt[ENC8]splitini
 8004ed8:	74735f74 5f307065 00000038 00000000     t_step0_8.......
 8004ee8:	02010000 0045a410 5c04c88c 89562ac9     ......E....\.*V.
 8004ef8:	e3a7145a d77210b0 b3b68910 43dcbc63     Z.....r.....c..C
 8004f08:	b9544c98 0000e76a 00000000 00000000     .LT.j...........
	...
 8004f64:	455b7400 5d38434e 696c7073 696e6974     .t[ENC8]splitini
 8004f74:	74735f74 5f317065 00000038 00000000     t_step1_8.......
 8004f84:	02020000 0045a410 5c04c88c 89562ac9     ......E....\.*V.
 8004f94:	e3a7145a d77210b0 b3b68910 43dcbc63     Z.....r.....c..C
 8004fa4:	b9544c98 0000e76a 00000000 00000000     .LT.j...........
	...
 8005000:	455b7400 5d38434e 696c7073 696e6974     .t[ENC8]splitini
 8005010:	74735f74 5f327065 00000038 00000000     t_step2_8.......
 8005020:	03080000 0045a410 5c04c88c 89562ac9     ......E....\.*V.
 8005030:	e3a7145a d77210b0 b3b68910 43dcbc63     Z.....r.....c..C
 8005040:	b9544c98 0000e76a 00000000 00000000     .LT.j...........
	...
 800507c:	e6100000 093ab75c 593f72e4 24362cf2     ....\.:..r?Y.,6$
 800508c:	00dd33a2 00000000 00000000 00000000     .3..............
 800509c:	74626500 4345445b 75665d38 385f6c6c     .ebt[DEC8]full_8
	...
 80050c0:	7e100315 74700302 d6365ff4 735c9f2b     ...~..pt._6.+.\s
 80050d0:	10368b78 bfa57536 6ffd6207 2c56835b     x.6.6u...b.o[.V,
 80050e0:	2feae5b1 00000000 00000000 00000000     .../............
	...
 800511c:	2e27c210 8fd16023 022f5a7a d7dd27c4     ..'.#`..zZ/..'..
 800512c:	000000ba 00000000 00000000 65000000     ...............e
 800513c:	445b7462 5d384345 696c7073 74735f74     bt[DEC8]split_st
 800514c:	5f307065 00000038 00000000 00000000     ep0_8...........
 800515c:	02050000 03027e10 5ff47470 9f2bd636     .....~..pt._6.+.
 800516c:	8b78735c 75361036 6207bfa5 835b6ffd     \sx.6.6u...b.o[.
 800517c:	e5b12c56 00002fea 00000000 00000000     V,.../..........
	...
 80051d8:	445b7400 5d384345 696c7073 74735f74     .t[DEC8]split_st
 80051e8:	5f317065 00000038 00000000 00000000     ep1_8...........
 80051f8:	03100000 03027e10 5ff47470 9f2bd636     .....~..pt._6.+.
 8005208:	8b78735c 75361036 6207bfa5 835b6ffd     \sx.6.6u...b.o[.
 8005218:	e5b12c56 00002fea 00000000 00000000     V,.../..........
	...
 8005254:	c2100000 60232e27 5a7a8fd1 27c4022f     ....'.#`..zZ/..'
 8005264:	00bad7dd 00000000 00000000 00000000     ................
 8005274:	74626500 4345445b 70735d38 6974696c     .ebt[DEC8]spliti
 8005284:	5f74696e 70657473 00385f30 00000000     nit_step0_8.....
 8005294:	00000000 7e100201 74700302 d6365ff4     .......~..pt._6.
 80052a4:	735c9f2b 10368b78 bfa57536 6ffd6207     +.\sx.6.6u...b.o
 80052b4:	2c56835b 2feae5b1 00000000 00000000     [.V,.../........
	...
 8005310:	74000000 4345445b 70735d38 6974696c     ...t[DEC8]spliti
 8005320:	5f74696e 70657473 00385f31 00000000     nit_step1_8.....
 8005330:	00000000 7e100204 74700302 d6365ff4     .......~..pt._6.
 8005340:	735c9f2b 10368b78 bfa57536 6ffd6207     +.\sx.6.6u...b.o
 8005350:	2c56835b 2feae5b1 00000000 00000000     [.V,.../........
	...
 80053ac:	74000000 4345445b 70735d38 6974696c     ...t[DEC8]spliti
 80053bc:	5f74696e 70657473 00385f32 00000000     nit_step2_8.....
 80053cc:	00000000 7e100310 74700302 d6365ff4     .......~..pt._6.
 80053dc:	735c9f2b 10368b78 bfa57536 6ffd6207     +.\sx.6.6u...b.o
 80053ec:	2c56835b 2feae5b1 00000000 00000000     [.V,.../........
	...
 800542c:	2e27c210 8fd16023 022f5a7a d7dd27c4     ..'.#`..zZ/..'..
 800543c:	000000ba 00000000 00000000 65000000     ...............e
 800544c:	455b7462 5d39434e 6c6c7566 0000395f     bt[ENC9]full_9..
	...
 800546c:	030b0000 22ffcb10 bb759cfd 49dee8a5     ......."..u....I
 800547c:	fc00127f 2aaa1030 f11de7b4 322fb32c     ....0..*....,./2
 800548c:	72128193 00002e05 00000000 00000000     ...r............
	...
 80054c8:	cf100000 a1147eec f50dc2a0 fdd34a78     .....~......xJ..
 80054d8:	0016a693 00000000 00000000 00000000     ................
 80054e8:	74626500 434e455b 70735d39 5f74696c     .ebt[ENC9]split_
 80054f8:	70657473 00395f30 00000000 00000000     step0_9.........
 8005508:	00000000 cb100203 9cfd22ff e8a5bb75     ........."..u...
 8005518:	127f49de 1030fc00 e7b42aaa b32cf11d     .I....0..*....,.
 8005528:	8193322f 2e057212 00000000 00000000     /2...r..........
	...
 8005584:	74000000 434e455b 70735d39 5f74696c     ...t[ENC9]split_
 8005594:	70657473 00395f31 00000000 00000000     step1_9.........
 80055a4:	00000000 cb100308 9cfd22ff e8a5bb75     ........."..u...
 80055b4:	127f49de 1030fc00 e7b42aaa b32cf11d     .I....0..*....,.
 80055c4:	8193322f 2e057212 00000000 00000000     /2...r..........
	...
 8005604:	7eeccf10 c2a0a114 4a78f50d a693fdd3     ...~......xJ....
 8005614:	00000016 00000000 00000000 65000000     ...............e
 8005624:	455b7462 5d39434e 696c7073 696e6974     bt[ENC9]splitini
 8005634:	74735f74 5f307065 00000039 00000000     t_step0_9.......
 8005644:	02010000 22ffcb10 bb759cfd 49dee8a5     ......."..u....I
 8005654:	fc00127f 2aaa1030 f11de7b4 322fb32c     ....0..*....,./2
 8005664:	72128193 00002e05 00000000 00000000     ...r............
	...
 80056c0:	455b7400 5d39434e 696c7073 696e6974     .t[ENC9]splitini
 80056d0:	74735f74 5f317065 00000039 00000000     t_step1_9.......
 80056e0:	02020000 22ffcb10 bb759cfd 49dee8a5     ......."..u....I
 80056f0:	fc00127f 2aaa1030 f11de7b4 322fb32c     ....0..*....,./2
 8005700:	72128193 00002e05 00000000 00000000     ...r............
	...
 800575c:	455b7400 5d39434e 696c7073 696e6974     .t[ENC9]splitini
 800576c:	74735f74 5f327065 00000039 00000000     t_step2_9.......
 800577c:	03080000 22ffcb10 bb759cfd 49dee8a5     ......."..u....I
 800578c:	fc00127f 2aaa1030 f11de7b4 322fb32c     ....0..*....,./2
 800579c:	72128193 00002e05 00000000 00000000     ...r............
	...
 80057d8:	cf100000 a1147eec f50dc2a0 fdd34a78     .....~......xJ..
 80057e8:	0016a693 00000000 00000000 00000000     ................
 80057f8:	74626500 4345445b 75665d39 395f6c6c     .ebt[DEC9]full_9
	...
 800581c:	da100315 ffac661d bdd7d1a6 6a7d2a0d     .....f.......*}j
 800582c:	1095ac47 e45fa478 b9970d22 cda690db     G...x._.".......
 800583c:	a62cd405 00000000 00000000 00000000     ..,.............
	...
 8005878:	30aac710 424c3bf2 cb789339 1e0e970a     ...0.;LB9.x.....
 8005888:	00000016 00000000 00000000 65000000     ...............e
 8005898:	445b7462 5d394345 696c7073 74735f74     bt[DEC9]split_st
 80058a8:	5f307065 00000039 00000000 00000000     ep0_9...........
 80058b8:	02050000 661dda10 d1a6ffac 2a0dbdd7     .......f.......*
 80058c8:	ac476a7d a4781095 0d22e45f 90dbb997     }jG...x._.".....
 80058d8:	d405cda6 0000a62c 00000000 00000000     ....,...........
	...
 8005934:	445b7400 5d394345 696c7073 74735f74     .t[DEC9]split_st
 8005944:	5f317065 00000039 00000000 00000000     ep1_9...........
 8005954:	03100000 661dda10 d1a6ffac 2a0dbdd7     .......f.......*
 8005964:	ac476a7d a4781095 0d22e45f 90dbb997     }jG...x._.".....
 8005974:	d405cda6 0000a62c 00000000 00000000     ....,...........
	...
 80059b0:	c7100000 3bf230aa 9339424c 970acb78     .....0.;LB9.x...
 80059c0:	00161e0e 00000000 00000000 00000000     ................
 80059d0:	74626500 4345445b 70735d39 6974696c     .ebt[DEC9]spliti
 80059e0:	5f74696e 70657473 00395f30 00000000     nit_step0_9.....
 80059f0:	00000000 da100201 ffac661d bdd7d1a6     .........f......
 8005a00:	6a7d2a0d 1095ac47 e45fa478 b9970d22     .*}jG...x._."...
 8005a10:	cda690db a62cd405 00000000 00000000     ......,.........
	...
 8005a6c:	74000000 4345445b 70735d39 6974696c     ...t[DEC9]spliti
 8005a7c:	5f74696e 70657473 00395f31 00000000     nit_step1_9.....
 8005a8c:	00000000 da100204 ffac661d bdd7d1a6     .........f......
 8005a9c:	6a7d2a0d 1095ac47 e45fa478 b9970d22     .*}jG...x._."...
 8005aac:	cda690db a62cd405 00000000 00000000     ......,.........
	...
 8005b08:	74000000 4345445b 70735d39 6974696c     ...t[DEC9]spliti
 8005b18:	5f74696e 70657473 00395f32 00000000     nit_step2_9.....
 8005b28:	00000000 da100310 ffac661d bdd7d1a6     .........f......
 8005b38:	6a7d2a0d 1095ac47 e45fa478 b9970d22     .*}jG...x._."...
 8005b48:	cda690db a62cd405 00000000 00000000     ......,.........
	...
 8005b88:	30aac710 424c3bf2 cb789339 1e0e970a     ...0.;LB9.x.....
 8005b98:	00000016 00000000 00000000 65000000     ...............e
 8005ba8:	455b7462 3031434e 6c75665d 30315f6c     bt[ENC10]full_10
	...
 8005bc8:	030b0000 57afc010 7679a352 a3643933     .......WR.yv39d.
 8005bd8:	02d9b827 e8141062 0ad69cb8 0971711c     '...b........qq.
 8005be8:	94332d16 0000676b 00000000 00000000     .-3.kg..........
	...
 8005c24:	af100000 0f87dbe0 c045d6cf 17423811     ..........E..8B.
 8005c34:	00658ef1 00000000 00000000 00000000     ..e.............
 8005c44:	74626500 434e455b 735d3031 74696c70     .ebt[ENC10]split
 8005c54:	6574735f 315f3070 00000030 00000000     _step0_10.......
 8005c64:	00000000 c0100203 a35257af 39337679     .........WR.yv39
 8005c74:	b827a364 106202d9 9cb8e814 711c0ad6     d.'...b........q
 8005c84:	2d160971 676b9433 00000000 00000000     q..-3.kg........
	...
 8005ce0:	74000000 434e455b 735d3031 74696c70     ...t[ENC10]split
 8005cf0:	6574735f 315f3170 00000030 00000000     _step1_10.......
 8005d00:	00000000 c0100308 a35257af 39337679     .........WR.yv39
 8005d10:	b827a364 106202d9 9cb8e814 711c0ad6     d.'...b........q
 8005d20:	2d160971 676b9433 00000000 00000000     q..-3.kg........
	...
 8005d60:	dbe0af10 d6cf0f87 3811c045 8ef11742     ........E..8B...
 8005d70:	00000065 00000000 00000000 65000000     e..............e
 8005d80:	455b7462 3031434e 6c70735d 6e697469     bt[ENC10]splitin
 8005d90:	735f7469 30706574 0030315f 00000000     it_step0_10.....
 8005da0:	02010000 57afc010 7679a352 a3643933     .......WR.yv39d.
 8005db0:	02d9b827 e8141062 0ad69cb8 0971711c     '...b........qq.
 8005dc0:	94332d16 0000676b 00000000 00000000     .-3.kg..........
	...
 8005e1c:	455b7400 3031434e 6c70735d 6e697469     .t[ENC10]splitin
 8005e2c:	735f7469 31706574 0030315f 00000000     it_step1_10.....
 8005e3c:	02020000 57afc010 7679a352 a3643933     .......WR.yv39d.
 8005e4c:	02d9b827 e8141062 0ad69cb8 0971711c     '...b........qq.
 8005e5c:	94332d16 0000676b 00000000 00000000     .-3.kg..........
	...
 8005eb8:	455b7400 3031434e 6c70735d 6e697469     .t[ENC10]splitin
 8005ec8:	735f7469 32706574 0030315f 00000000     it_step2_10.....
 8005ed8:	03080000 57afc010 7679a352 a3643933     .......WR.yv39d.
 8005ee8:	02d9b827 e8141062 0ad69cb8 0971711c     '...b........qq.
 8005ef8:	94332d16 0000676b 00000000 00000000     .-3.kg..........
	...
 8005f34:	af100000 0f87dbe0 c045d6cf 17423811     ..........E..8B.
 8005f44:	00658ef1 00000000 00000000 00000000     ..e.............
 8005f54:	74626500 4345445b 665d3031 5f6c6c75     .ebt[DEC10]full_
 8005f64:	00003031 00000000 00000000 00000000     10..............
 8005f74:	00000000 28100315 95845192 4441b705     .......(.Q....AD
 8005f84:	280ce278 10f5f63d 2ea15116 57a9031c     x..(=....Q.....W
 8005f94:	e2c053cf 7b021bc7 00000000 00000000     .S.....{........
	...
 8005fd4:	112aa810 d55622b7 08997fc7 f7dae814     ..*.."V.........
 8005fe4:	0000000b 00000000 00000000 65000000     ...............e
 8005ff4:	445b7462 30314345 6c70735d 735f7469     bt[DEC10]split_s
 8006004:	30706574 0030315f 00000000 00000000     tep0_10.........
 8006014:	02050000 51922810 b7059584 e2784441     .....(.Q....ADx.
 8006024:	f63d280c 511610f5 031c2ea1 53cf57a9     .(=....Q.....W.S
 8006034:	1bc7e2c0 00007b02 00000000 00000000     .....{..........
	...
 8006090:	445b7400 30314345 6c70735d 735f7469     .t[DEC10]split_s
 80060a0:	31706574 0030315f 00000000 00000000     tep1_10.........
 80060b0:	03100000 51922810 b7059584 e2784441     .....(.Q....ADx.
 80060c0:	f63d280c 511610f5 031c2ea1 53cf57a9     .(=....Q.....W.S
 80060d0:	1bc7e2c0 00007b02 00000000 00000000     .....{..........
	...
 800610c:	a8100000 22b7112a 7fc7d556 e8140899     ....*.."V.......
 800611c:	000bf7da 00000000 00000000 00000000     ................
 800612c:	74626500 4345445b 735d3031 74696c70     .ebt[DEC10]split
 800613c:	74696e69 6574735f 315f3070 00000030     init_step0_10...
 800614c:	00000000 28100201 95845192 4441b705     .......(.Q....AD
 800615c:	280ce278 10f5f63d 2ea15116 57a9031c     x..(=....Q.....W
 800616c:	e2c053cf 7b021bc7 00000000 00000000     .S.....{........
	...
 80061c8:	74000000 4345445b 735d3031 74696c70     ...t[DEC10]split
 80061d8:	74696e69 6574735f 315f3170 00000030     init_step1_10...
 80061e8:	00000000 28100204 95845192 4441b705     .......(.Q....AD
 80061f8:	280ce278 10f5f63d 2ea15116 57a9031c     x..(=....Q.....W
 8006208:	e2c053cf 7b021bc7 00000000 00000000     .S.....{........
	...
 8006264:	74000000 4345445b 735d3031 74696c70     ...t[DEC10]split
 8006274:	74696e69 6574735f 315f3270 00000030     init_step2_10...
 8006284:	00000000 28100310 95845192 4441b705     .......(.Q....AD
 8006294:	280ce278 10f5f63d 2ea15116 57a9031c     x..(=....Q.....W
 80062a4:	e2c053cf 7b021bc7 00000000 00000000     .S.....{........
	...
 80062e4:	112aa810 d55622b7 08997fc7 f7dae814     ..*.."V.........
 80062f4:	0000000b 00000000 00000000 65000000     ...............e
 8006304:	455b7462 3131434e 6c75665d 31315f6c     bt[ENC11]full_11
	...
 8006324:	030b0000 e6de0d10 74a9bcfb 0c9300a9     ...........t....
 8006334:	10728aec efdf10a4 5a2f33cd 7205b735     ..r......3/Z5..r
 8006344:	639a7dbf 00003cc5 00000000 00000000     .}.c.<..........
	...
 8006380:	31100000 f8210872 831e2aa0 e4171900     ...1r.!..*......
 8006390:	0031f0cc 00000000 00000000 00000000     ..1.............
 80063a0:	74626500 434e455b 735d3131 74696c70     .ebt[ENC11]split
 80063b0:	6574735f 315f3070 00000031 00000000     _step0_11.......
 80063c0:	00000000 0d100203 bcfbe6de 00a974a9     .............t..
 80063d0:	8aec0c93 10a41072 33cdefdf b7355a2f     ....r......3/Z5.
 80063e0:	7dbf7205 3cc5639a 00000000 00000000     .r.}.c.<........
	...
 800643c:	74000000 434e455b 735d3131 74696c70     ...t[ENC11]split
 800644c:	6574735f 315f3170 00000031 00000000     _step1_11.......
 800645c:	00000000 0d100308 bcfbe6de 00a974a9     .............t..
 800646c:	8aec0c93 10a41072 33cdefdf b7355a2f     ....r......3/Z5.
 800647c:	7dbf7205 3cc5639a 00000000 00000000     .r.}.c.<........
	...
 80064bc:	08723110 2aa0f821 1900831e f0cce417     .1r.!..*........
 80064cc:	00000031 00000000 00000000 65000000     1..............e
 80064dc:	455b7462 3131434e 6c70735d 6e697469     bt[ENC11]splitin
 80064ec:	735f7469 30706574 0031315f 00000000     it_step0_11.....
 80064fc:	02010000 e6de0d10 74a9bcfb 0c9300a9     ...........t....
 800650c:	10728aec efdf10a4 5a2f33cd 7205b735     ..r......3/Z5..r
 800651c:	639a7dbf 00003cc5 00000000 00000000     .}.c.<..........
	...
 8006578:	455b7400 3131434e 6c70735d 6e697469     .t[ENC11]splitin
 8006588:	735f7469 31706574 0031315f 00000000     it_step1_11.....
 8006598:	02020000 e6de0d10 74a9bcfb 0c9300a9     ...........t....
 80065a8:	10728aec efdf10a4 5a2f33cd 7205b735     ..r......3/Z5..r
 80065b8:	639a7dbf 00003cc5 00000000 00000000     .}.c.<..........
	...
 8006614:	455b7400 3131434e 6c70735d 6e697469     .t[ENC11]splitin
 8006624:	735f7469 32706574 0031315f 00000000     it_step2_11.....
 8006634:	03080000 e6de0d10 74a9bcfb 0c9300a9     ...........t....
 8006644:	10728aec efdf10a4 5a2f33cd 7205b735     ..r......3/Z5..r
 8006654:	639a7dbf 00003cc5 00000000 00000000     .}.c.<..........
	...
 8006690:	31100000 f8210872 831e2aa0 e4171900     ...1r.!..*......
 80066a0:	0031f0cc 00000000 00000000 00000000     ..1.............
 80066b0:	74626500 4345445b 665d3131 5f6c6c75     .ebt[DEC11]full_
 80066c0:	00003131 00000000 00000000 00000000     11..............
 80066d0:	00000000 e4100315 ff6dffdb c2d5831c     ..........m.....
 80066e0:	5f177450 1006401b 0f989a6a 46e5e1f0     Pt._.@..j......F
 80066f0:	dab673c6 2ff29c74 00000000 00000000     .s..t../........
	...
 8006730:	51149010 bb8c0c1d e6b22c69 8b4d3899     ...Q....i,...8M.
 8006740:	000000f9 00000000 00000000 65000000     ...............e
 8006750:	445b7462 31314345 6c70735d 735f7469     bt[DEC11]split_s
 8006760:	30706574 0031315f 00000000 00000000     tep0_11.........
 8006770:	02050000 ffdbe410 831cff6d 7450c2d5     ........m.....Pt
 8006780:	401b5f17 9a6a1006 e1f00f98 73c646e5     ._.@..j......F.s
 8006790:	9c74dab6 00002ff2 00000000 00000000     ..t../..........
	...
 80067ec:	445b7400 31314345 6c70735d 735f7469     .t[DEC11]split_s
 80067fc:	31706574 0031315f 00000000 00000000     tep1_11.........
 800680c:	03100000 ffdbe410 831cff6d 7450c2d5     ........m.....Pt
 800681c:	401b5f17 9a6a1006 e1f00f98 73c646e5     ._.@..j......F.s
 800682c:	9c74dab6 00002ff2 00000000 00000000     ..t../..........
	...
 8006868:	90100000 0c1d5114 2c69bb8c 3899e6b2     .....Q....i,...8
 8006878:	00f98b4d 00000000 00000000 00000000     M...............
 8006888:	74626500 4345445b 735d3131 74696c70     .ebt[DEC11]split
 8006898:	74696e69 6574735f 315f3070 00000031     init_step0_11...
 80068a8:	00000000 e4100201 ff6dffdb c2d5831c     ..........m.....
 80068b8:	5f177450 1006401b 0f989a6a 46e5e1f0     Pt._.@..j......F
 80068c8:	dab673c6 2ff29c74 00000000 00000000     .s..t../........
	...
 8006924:	74000000 4345445b 735d3131 74696c70     ...t[DEC11]split
 8006934:	74696e69 6574735f 315f3170 00000031     init_step1_11...
 8006944:	00000000 e4100204 ff6dffdb c2d5831c     ..........m.....
 8006954:	5f177450 1006401b 0f989a6a 46e5e1f0     Pt._.@..j......F
 8006964:	dab673c6 2ff29c74 00000000 00000000     .s..t../........
	...
 80069c0:	74000000 4345445b 735d3131 74696c70     ...t[DEC11]split
 80069d0:	74696e69 6574735f 315f3270 00000031     init_step2_11...
 80069e0:	00000000 e4100310 ff6dffdb c2d5831c     ..........m.....
 80069f0:	5f177450 1006401b 0f989a6a 46e5e1f0     Pt._.@..j......F
 8006a00:	dab673c6 2ff29c74 00000000 00000000     .s..t../........
	...
 8006a40:	51149010 bb8c0c1d e6b22c69 8b4d3899     ...Q....i,...8M.
 8006a50:	000000f9 00000000 00000000 65000000     ...............e
 8006a60:	455b7462 3231434e 6c75665d 32315f6c     bt[ENC12]full_12
	...
 8006a80:	030b0000 d098e310 67dd562c 2ef8646f     ........,V.god..
 8006a90:	ef2e0028 286d1056 047ad4de 5d872179     (...V.m(..z.y!.]
 8006aa0:	00e29354 0000d13b 00000000 00000000     T...;...........
	...
 8006adc:	62100000 6548818e f9074836 8db70549     ...b..He6H..I...
 8006aec:	0032dd12 00000000 00000000 00000000     ..2.............
 8006afc:	74626500 434e455b 735d3231 74696c70     .ebt[ENC12]split
 8006b0c:	6574735f 315f3070 00000032 00000000     _step0_12.......
 8006b1c:	00000000 e3100203 562cd098 646f67dd     ..........,V.god
 8006b2c:	00282ef8 1056ef2e d4de286d 2179047a     ..(...V.m(..z.y!
 8006b3c:	93545d87 d13b00e2 00000000 00000000     .]T...;.........
	...
 8006b98:	74000000 434e455b 735d3231 74696c70     ...t[ENC12]split
 8006ba8:	6574735f 315f3170 00000032 00000000     _step1_12.......
 8006bb8:	00000000 e3100308 562cd098 646f67dd     ..........,V.god
 8006bc8:	00282ef8 1056ef2e d4de286d 2179047a     ..(...V.m(..z.y!
 8006bd8:	93545d87 d13b00e2 00000000 00000000     .]T...;.........
	...
 8006c18:	818e6210 48366548 0549f907 dd128db7     .b..He6H..I.....
 8006c28:	00000032 00000000 00000000 65000000     2..............e
 8006c38:	455b7462 3231434e 6c70735d 6e697469     bt[ENC12]splitin
 8006c48:	735f7469 30706574 0032315f 00000000     it_step0_12.....
 8006c58:	02010000 d098e310 67dd562c 2ef8646f     ........,V.god..
 8006c68:	ef2e0028 286d1056 047ad4de 5d872179     (...V.m(..z.y!.]
 8006c78:	00e29354 0000d13b 00000000 00000000     T...;...........
	...
 8006cd4:	455b7400 3231434e 6c70735d 6e697469     .t[ENC12]splitin
 8006ce4:	735f7469 31706574 0032315f 00000000     it_step1_12.....
 8006cf4:	02020000 d098e310 67dd562c 2ef8646f     ........,V.god..
 8006d04:	ef2e0028 286d1056 047ad4de 5d872179     (...V.m(..z.y!.]
 8006d14:	00e29354 0000d13b 00000000 00000000     T...;...........
	...
 8006d70:	455b7400 3231434e 6c70735d 6e697469     .t[ENC12]splitin
 8006d80:	735f7469 32706574 0032315f 00000000     it_step2_12.....
 8006d90:	03080000 d098e310 67dd562c 2ef8646f     ........,V.god..
 8006da0:	ef2e0028 286d1056 047ad4de 5d872179     (...V.m(..z.y!.]
 8006db0:	00e29354 0000d13b 00000000 00000000     T...;...........
	...
 8006dec:	62100000 6548818e f9074836 8db70549     ...b..He6H..I...
 8006dfc:	0032dd12 00000000 00000000 00000000     ..2.............
 8006e0c:	74626500 4345445b 665d3231 5f6c6c75     .ebt[DEC12]full_
 8006e1c:	00003231 00000000 00000000 00000000     12..............
 8006e2c:	00000000 9d100315 9b18ed53 5c669d4b     ........S...K.f\
 8006e3c:	69765c7b 10797788 2866c395 0e369cd3     {\vi.wy...f(..6.
 8006e4c:	5b1a91b6 7a20c6a1 00000000 00000000     ...[.. z........
	...
 8006e8c:	d631a410 56087ce6 7c75f408 a2c14c03     ..1..|.V..u|.L..
 8006e9c:	00000048 00000000 00000000 65000000     H..............e
 8006eac:	445b7462 32314345 6c70735d 735f7469     bt[DEC12]split_s
 8006ebc:	30706574 0032315f 00000000 00000000     tep0_12.........
 8006ecc:	02050000 ed539d10 9d4b9b18 5c7b5c66     ......S...K.f\{\
 8006edc:	77886976 c3951079 9cd32866 91b60e36     vi.wy...f(..6...
 8006eec:	c6a15b1a 00007a20 00000000 00000000     .[.. z..........
	...
 8006f48:	445b7400 32314345 6c70735d 735f7469     .t[DEC12]split_s
 8006f58:	31706574 0032315f 00000000 00000000     tep1_12.........
 8006f68:	03100000 ed539d10 9d4b9b18 5c7b5c66     ......S...K.f\{\
 8006f78:	77886976 c3951079 9cd32866 91b60e36     vi.wy...f(..6...
 8006f88:	c6a15b1a 00007a20 00000000 00000000     .[.. z..........
	...
 8006fc4:	a4100000 7ce6d631 f4085608 4c037c75     ....1..|.V..u|.L
 8006fd4:	0048a2c1 00000000 00000000 00000000     ..H.............
 8006fe4:	74626500 4345445b 735d3231 74696c70     .ebt[DEC12]split
 8006ff4:	74696e69 6574735f 315f3070 00000032     init_step0_12...
 8007004:	00000000 9d100201 9b18ed53 5c669d4b     ........S...K.f\
 8007014:	69765c7b 10797788 2866c395 0e369cd3     {\vi.wy...f(..6.
 8007024:	5b1a91b6 7a20c6a1 00000000 00000000     ...[.. z........
	...
 8007080:	74000000 4345445b 735d3231 74696c70     ...t[DEC12]split
 8007090:	74696e69 6574735f 315f3170 00000032     init_step1_12...
 80070a0:	00000000 9d100204 9b18ed53 5c669d4b     ........S...K.f\
 80070b0:	69765c7b 10797788 2866c395 0e369cd3     {\vi.wy...f(..6.
 80070c0:	5b1a91b6 7a20c6a1 00000000 00000000     ...[.. z........
	...
 800711c:	74000000 4345445b 735d3231 74696c70     ...t[DEC12]split
 800712c:	74696e69 6574735f 315f3270 00000032     init_step2_12...
 800713c:	00000000 9d100310 9b18ed53 5c669d4b     ........S...K.f\
 800714c:	69765c7b 10797788 2866c395 0e369cd3     {\vi.wy...f(..6.
 800715c:	5b1a91b6 7a20c6a1 00000000 00000000     ...[.. z........
	...
 800719c:	d631a410 56087ce6 7c75f408 a2c14c03     ..1..|.V..u|.L..
 80071ac:	00000048 00000000 00000000 65000000     H..............e
 80071bc:	455b7462 3331434e 6c75665d 33315f6c     bt[ENC13]full_13
	...
 80071dc:	030b0000 90b35410 4d81dc85 034998be     .....T.....M..I.
 80071ec:	e60e0402 76f9106c 6124a145 fd6f0537     ....l..vE.$a7.o.
 80071fc:	7d618618 00005ec7 00000000 00000000     ..a}.^..........
	...
 8007238:	93100000 93df64d2 53e26525 da96ee2c     .....d..%e.S,...
 8007248:	009705f8 00000000 00000000 00000000     ................
 8007258:	74626500 434e455b 735d3331 74696c70     .ebt[ENC13]split
 8007268:	6574735f 315f3070 00000033 00000000     _step0_13.......
 8007278:	00000000 54100203 dc8590b3 98be4d81     .......T.....M..
 8007288:	04020349 106ce60e a14576f9 05376124     I.....l..vE.$a7.
 8007298:	8618fd6f 5ec77d61 00000000 00000000     o...a}.^........
	...
 80072f4:	74000000 434e455b 735d3331 74696c70     ...t[ENC13]split
 8007304:	6574735f 315f3170 00000033 00000000     _step1_13.......
 8007314:	00000000 54100308 dc8590b3 98be4d81     .......T.....M..
 8007324:	04020349 106ce60e a14576f9 05376124     I.....l..vE.$a7.
 8007334:	8618fd6f 5ec77d61 00000000 00000000     o...a}.^........
	...
 8007374:	64d29310 652593df ee2c53e2 05f8da96     ...d..%e.S,.....
 8007384:	00000097 00000000 00000000 65000000     ...............e
 8007394:	455b7462 3331434e 6c70735d 6e697469     bt[ENC13]splitin
 80073a4:	735f7469 30706574 0033315f 00000000     it_step0_13.....
 80073b4:	02010000 90b35410 4d81dc85 034998be     .....T.....M..I.
 80073c4:	e60e0402 76f9106c 6124a145 fd6f0537     ....l..vE.$a7.o.
 80073d4:	7d618618 00005ec7 00000000 00000000     ..a}.^..........
	...
 8007430:	455b7400 3331434e 6c70735d 6e697469     .t[ENC13]splitin
 8007440:	735f7469 31706574 0033315f 00000000     it_step1_13.....
 8007450:	02020000 90b35410 4d81dc85 034998be     .....T.....M..I.
 8007460:	e60e0402 76f9106c 6124a145 fd6f0537     ....l..vE.$a7.o.
 8007470:	7d618618 00005ec7 00000000 00000000     ..a}.^..........
	...
 80074cc:	455b7400 3331434e 6c70735d 6e697469     .t[ENC13]splitin
 80074dc:	735f7469 32706574 0033315f 00000000     it_step2_13.....
 80074ec:	03080000 90b35410 4d81dc85 034998be     .....T.....M..I.
 80074fc:	e60e0402 76f9106c 6124a145 fd6f0537     ....l..vE.$a7.o.
 800750c:	7d618618 00005ec7 00000000 00000000     ..a}.^..........
	...
 8007548:	93100000 93df64d2 53e26525 da96ee2c     .....d..%e.S,...
 8007558:	009705f8 00000000 00000000 00000000     ................
 8007568:	74626500 4345445b 665d3331 5f6c6c75     .ebt[DEC13]full_
 8007578:	00003331 00000000 00000000 00000000     13..............
 8007588:	00000000 76100315 3cdc51f1 a66c4bf3     .......v.Q.<.Kl.
 8007598:	b5117fc0 10feaddb 0f078cca 1b2b3a0d     .............:+.
 80075a8:	1b584eaa 85b0d08b 00000000 00000000     .NX.............
	...
 80075e8:	b1527c10 f15a810d 03043d51 37d2378b     .|R...Z.Q=...7.7
 80075f8:	000000bd 00000000 00000000 65000000     ...............e
 8007608:	445b7462 33314345 6c70735d 735f7469     bt[DEC13]split_s
 8007618:	30706574 0033315f 00000000 00000000     tep0_13.........
 8007628:	02050000 51f17610 4bf33cdc 7fc0a66c     .....v.Q.<.Kl...
 8007638:	addbb511 8cca10fe 3a0d0f07 4eaa1b2b     ...........:+..N
 8007648:	d08b1b58 000085b0 00000000 00000000     X...............
	...
 80076a4:	445b7400 33314345 6c70735d 735f7469     .t[DEC13]split_s
 80076b4:	31706574 0033315f 00000000 00000000     tep1_13.........
 80076c4:	03100000 51f17610 4bf33cdc 7fc0a66c     .....v.Q.<.Kl...
 80076d4:	addbb511 8cca10fe 3a0d0f07 4eaa1b2b     ...........:+..N
 80076e4:	d08b1b58 000085b0 00000000 00000000     X...............
	...
 8007720:	7c100000 810db152 3d51f15a 378b0304     ...|R...Z.Q=...7
 8007730:	00bd37d2 00000000 00000000 00000000     .7..............
 8007740:	74626500 4345445b 735d3331 74696c70     .ebt[DEC13]split
 8007750:	74696e69 6574735f 315f3070 00000033     init_step0_13...
 8007760:	00000000 76100201 3cdc51f1 a66c4bf3     .......v.Q.<.Kl.
 8007770:	b5117fc0 10feaddb 0f078cca 1b2b3a0d     .............:+.
 8007780:	1b584eaa 85b0d08b 00000000 00000000     .NX.............
	...
 80077dc:	74000000 4345445b 735d3331 74696c70     ...t[DEC13]split
 80077ec:	74696e69 6574735f 315f3170 00000033     init_step1_13...
 80077fc:	00000000 76100204 3cdc51f1 a66c4bf3     .......v.Q.<.Kl.
 800780c:	b5117fc0 10feaddb 0f078cca 1b2b3a0d     .............:+.
 800781c:	1b584eaa 85b0d08b 00000000 00000000     .NX.............
	...
 8007878:	74000000 4345445b 735d3331 74696c70     ...t[DEC13]split
 8007888:	74696e69 6574735f 315f3270 00000033     init_step2_13...
 8007898:	00000000 76100310 3cdc51f1 a66c4bf3     .......v.Q.<.Kl.
 80078a8:	b5117fc0 10feaddb 0f078cca 1b2b3a0d     .............:+.
 80078b8:	1b584eaa 85b0d08b 00000000 00000000     .NX.............
	...
 80078f8:	b1527c10 f15a810d 03043d51 37d2378b     .|R...Z.Q=...7.7
 8007908:	000000bd 00000000 00000000 65000000     ...............e
 8007918:	455b7462 3431434e 6c75665d 34315f6c     bt[ENC14]full_14
	...
 8007938:	030b0000 be0bff10 ebe5aaca 6d3f3748     ............H7?m
 8007948:	fa1f2740 5e6710fe fd616fe0 01aa8417     @'....g^.oa.....
 8007958:	9bd18679 00006b8f 00000000 00000000     y....k..........
	...
 8007994:	fc100000 8b4594ad 524a38ef fc38a907     ......E..8JR..8.
 80079a4:	001bf706 00000000 00000000 00000000     ................
 80079b4:	74626500 434e455b 735d3431 74696c70     .ebt[ENC14]split
 80079c4:	6574735f 315f3070 00000034 00000000     _step0_14.......
 80079d4:	00000000 ff100203 aacabe0b 3748ebe5     ..............H7
 80079e4:	27406d3f 10fefa1f 6fe05e67 8417fd61     ?m@'....g^.oa...
 80079f4:	867901aa 6b8f9bd1 00000000 00000000     ..y....k........
	...
 8007a50:	74000000 434e455b 735d3431 74696c70     ...t[ENC14]split
 8007a60:	6574735f 315f3170 00000034 00000000     _step1_14.......
 8007a70:	00000000 ff100308 aacabe0b 3748ebe5     ..............H7
 8007a80:	27406d3f 10fefa1f 6fe05e67 8417fd61     ?m@'....g^.oa...
 8007a90:	867901aa 6b8f9bd1 00000000 00000000     ..y....k........
	...
 8007ad0:	94adfc10 38ef8b45 a907524a f706fc38     ....E..8JR..8...
 8007ae0:	0000001b 00000000 00000000 65000000     ...............e
 8007af0:	455b7462 3431434e 6c70735d 6e697469     bt[ENC14]splitin
 8007b00:	735f7469 30706574 0034315f 00000000     it_step0_14.....
 8007b10:	02010000 be0bff10 ebe5aaca 6d3f3748     ............H7?m
 8007b20:	fa1f2740 5e6710fe fd616fe0 01aa8417     @'....g^.oa.....
 8007b30:	9bd18679 00006b8f 00000000 00000000     y....k..........
	...
 8007b8c:	455b7400 3431434e 6c70735d 6e697469     .t[ENC14]splitin
 8007b9c:	735f7469 31706574 0034315f 00000000     it_step1_14.....
 8007bac:	02020000 be0bff10 ebe5aaca 6d3f3748     ............H7?m
 8007bbc:	fa1f2740 5e6710fe fd616fe0 01aa8417     @'....g^.oa.....
 8007bcc:	9bd18679 00006b8f 00000000 00000000     y....k..........
	...
 8007c28:	455b7400 3431434e 6c70735d 6e697469     .t[ENC14]splitin
 8007c38:	735f7469 32706574 0034315f 00000000     it_step2_14.....
 8007c48:	03080000 be0bff10 ebe5aaca 6d3f3748     ............H7?m
 8007c58:	fa1f2740 5e6710fe fd616fe0 01aa8417     @'....g^.oa.....
 8007c68:	9bd18679 00006b8f 00000000 00000000     y....k..........
	...
 8007ca4:	fc100000 8b4594ad 524a38ef fc38a907     ......E..8JR..8.
 8007cb4:	001bf706 00000000 00000000 00000000     ................
 8007cc4:	74626500 4345445b 665d3431 5f6c6c75     .ebt[DEC14]full_
 8007cd4:	00003431 00000000 00000000 00000000     14..............
 8007ce4:	00000000 84100315 4e11ab75 ae2c875a     ........u..NZ.,.
 8007cf4:	87a8c54e 10b5c7c7 aca5f415 46b213b9     N..............F
 8007d04:	4984fc30 5571e475 00000000 00000000     0..Iu.qU........
	...
 8007d44:	c8eda810 a41881ed 92cce119 938733d9     .............3..
 8007d54:	000000e1 00000000 00000000 65000000     ...............e
 8007d64:	445b7462 34314345 6c70735d 735f7469     bt[DEC14]split_s
 8007d74:	30706574 0034315f 00000000 00000000     tep0_14.........
 8007d84:	02050000 ab758410 875a4e11 c54eae2c     ......u..NZ.,.N.
 8007d94:	c7c787a8 f41510b5 13b9aca5 fc3046b2     .............F0.
 8007da4:	e4754984 00005571 00000000 00000000     .Iu.qU..........
	...
 8007e00:	445b7400 34314345 6c70735d 735f7469     .t[DEC14]split_s
 8007e10:	31706574 0034315f 00000000 00000000     tep1_14.........
 8007e20:	03100000 ab758410 875a4e11 c54eae2c     ......u..NZ.,.N.
 8007e30:	c7c787a8 f41510b5 13b9aca5 fc3046b2     .............F0.
 8007e40:	e4754984 00005571 00000000 00000000     .Iu.qU..........
	...
 8007e7c:	a8100000 81edc8ed e119a418 33d992cc     ...............3
 8007e8c:	00e19387 00000000 00000000 00000000     ................
 8007e9c:	74626500 4345445b 735d3431 74696c70     .ebt[DEC14]split
 8007eac:	74696e69 6574735f 315f3070 00000034     init_step0_14...
 8007ebc:	00000000 84100201 4e11ab75 ae2c875a     ........u..NZ.,.
 8007ecc:	87a8c54e 10b5c7c7 aca5f415 46b213b9     N..............F
 8007edc:	4984fc30 5571e475 00000000 00000000     0..Iu.qU........
	...
 8007f38:	74000000 4345445b 735d3431 74696c70     ...t[DEC14]split
 8007f48:	74696e69 6574735f 315f3170 00000034     init_step1_14...
 8007f58:	00000000 84100204 4e11ab75 ae2c875a     ........u..NZ.,.
 8007f68:	87a8c54e 10b5c7c7 aca5f415 46b213b9     N..............F
 8007f78:	4984fc30 5571e475 00000000 00000000     0..Iu.qU........
	...
 8007fd4:	74000000 4345445b 735d3431 74696c70     ...t[DEC14]split
 8007fe4:	74696e69 6574735f 315f3270 00000034     init_step2_14...
 8007ff4:	00000000 84100310 4e11ab75 ae2c875a     ........u..NZ.,.
 8008004:	87a8c54e 10b5c7c7 aca5f415 46b213b9     N..............F
 8008014:	4984fc30 5571e475 00000000 00000000     0..Iu.qU........
	...
 8008054:	c8eda810 a41881ed 92cce119 938733d9     .............3..
 8008064:	000000e1 00000000 00000000 65000000     ...............e
 8008074:	455b7462 3531434e 6c75665d 35315f6c     bt[ENC15]full_15
	...
 8008094:	030b0000 73bdf910 b5dc3d52 1b84f090     .......sR=......
 80080a4:	0e9e77d9 fd5e10b3 0be79de5 1058cc4d     .w....^.....M.X.
 80080b4:	daba2e9e 00000437 00000000 00000000     ....7...........
	...
 80080f0:	97100000 0d42b05f e0deddba a61186ba     ...._.B.........
 8008100:	005fc0fe 00000000 00000000 00000000     .._.............
 8008110:	74626500 434e455b 735d3531 74696c70     .ebt[ENC15]split
 8008120:	6574735f 315f3070 00000035 00000000     _step0_15.......
 8008130:	00000000 f9100203 3d5273bd f090b5dc     .........sR=....
 8008140:	77d91b84 10b30e9e 9de5fd5e cc4d0be7     ...w....^.....M.
 8008150:	2e9e1058 0437daba 00000000 00000000     X.....7.........
	...
 80081ac:	74000000 434e455b 735d3531 74696c70     ...t[ENC15]split
 80081bc:	6574735f 315f3170 00000035 00000000     _step1_15.......
 80081cc:	00000000 f9100308 3d5273bd f090b5dc     .........sR=....
 80081dc:	77d91b84 10b30e9e 9de5fd5e cc4d0be7     ...w....^.....M.
 80081ec:	2e9e1058 0437daba 00000000 00000000     X.....7.........
	...
 800822c:	b05f9710 ddba0d42 86bae0de c0fea611     .._.B...........
 800823c:	0000005f 00000000 00000000 65000000     _..............e
 800824c:	455b7462 3531434e 6c70735d 6e697469     bt[ENC15]splitin
 800825c:	735f7469 30706574 0035315f 00000000     it_step0_15.....
 800826c:	02010000 73bdf910 b5dc3d52 1b84f090     .......sR=......
 800827c:	0e9e77d9 fd5e10b3 0be79de5 1058cc4d     .w....^.....M.X.
 800828c:	daba2e9e 00000437 00000000 00000000     ....7...........
	...
 80082e8:	455b7400 3531434e 6c70735d 6e697469     .t[ENC15]splitin
 80082f8:	735f7469 31706574 0035315f 00000000     it_step1_15.....
 8008308:	02020000 73bdf910 b5dc3d52 1b84f090     .......sR=......
 8008318:	0e9e77d9 fd5e10b3 0be79de5 1058cc4d     .w....^.....M.X.
 8008328:	daba2e9e 00000437 00000000 00000000     ....7...........
	...
 8008384:	455b7400 3531434e 6c70735d 6e697469     .t[ENC15]splitin
 8008394:	735f7469 32706574 0035315f 00000000     it_step2_15.....
 80083a4:	03080000 73bdf910 b5dc3d52 1b84f090     .......sR=......
 80083b4:	0e9e77d9 fd5e10b3 0be79de5 1058cc4d     .w....^.....M.X.
 80083c4:	daba2e9e 00000437 00000000 00000000     ....7...........
	...
 8008400:	97100000 0d42b05f e0deddba a61186ba     ...._.B.........
 8008410:	005fc0fe 00000000 00000000 00000000     .._.............
 8008420:	74626500 4345445b 665d3531 5f6c6c75     .ebt[DEC15]full_
 8008430:	00003531 00000000 00000000 00000000     15..............
 8008440:	00000000 93100315 b351cb19 6220968c     ..........Q... b
 8008450:	a66ceb31 106e864c a044de91 e2ac36fa     1.l.L.n...D..6..
 8008460:	bce5524f ff107350 00000000 00000000     OR..Ps..........
	...
 80084a0:	6ff0a810 36a834a3 1e4c15c0 f52fcab3     ...o.4.6..L.../.
 80084b0:	0000007c 00000000 00000000 65000000     |..............e
 80084c0:	445b7462 35314345 6c70735d 735f7469     bt[DEC15]split_s
 80084d0:	30706574 0035315f 00000000 00000000     tep0_15.........
 80084e0:	02050000 cb199310 968cb351 eb316220     ........Q... b1.
 80084f0:	864ca66c de91106e 36faa044 524fe2ac     l.L.n...D..6..OR
 8008500:	7350bce5 0000ff10 00000000 00000000     ..Ps............
	...
 800855c:	445b7400 35314345 6c70735d 735f7469     .t[DEC15]split_s
 800856c:	31706574 0035315f 00000000 00000000     tep1_15.........
 800857c:	03100000 cb199310 968cb351 eb316220     ........Q... b1.
 800858c:	864ca66c de91106e 36faa044 524fe2ac     l.L.n...D..6..OR
 800859c:	7350bce5 0000ff10 00000000 00000000     ..Ps............
	...
 80085d8:	a8100000 34a36ff0 15c036a8 cab31e4c     .....o.4.6..L...
 80085e8:	007cf52f 00000000 00000000 00000000     /.|.............
 80085f8:	74626500 4345445b 735d3531 74696c70     .ebt[DEC15]split
 8008608:	74696e69 6574735f 315f3070 00000035     init_step0_15...
 8008618:	00000000 93100201 b351cb19 6220968c     ..........Q... b
 8008628:	a66ceb31 106e864c a044de91 e2ac36fa     1.l.L.n...D..6..
 8008638:	bce5524f ff107350 00000000 00000000     OR..Ps..........
	...
 8008694:	74000000 4345445b 735d3531 74696c70     ...t[DEC15]split
 80086a4:	74696e69 6574735f 315f3170 00000035     init_step1_15...
 80086b4:	00000000 93100204 b351cb19 6220968c     ..........Q... b
 80086c4:	a66ceb31 106e864c a044de91 e2ac36fa     1.l.L.n...D..6..
 80086d4:	bce5524f ff107350 00000000 00000000     OR..Ps..........
	...
 8008730:	74000000 4345445b 735d3531 74696c70     ...t[DEC15]split
 8008740:	74696e69 6574735f 315f3270 00000035     init_step2_15...
 8008750:	00000000 93100310 b351cb19 6220968c     ..........Q... b
 8008760:	a66ceb31 106e864c a044de91 e2ac36fa     1.l.L.n...D..6..
 8008770:	bce5524f ff107350 00000000 00000000     OR..Ps..........
	...
 80087b0:	6ff0a810 36a834a3 1e4c15c0 f52fcab3     ...o.4.6..L.../.
 80087c0:	0000007c 00000000 00000000 65000000     |..............e
 80087d0:	455b7462 3631434e 6c75665d 36315f6c     bt[ENC16]full_16
	...
 80087f0:	030b0000 f6dee010 28712457 eff2c4c5     ........W$q(....
 8008800:	fae43a9b 78131006 6a21305f 57434b2e     .:.....x_0!j.KCW
 8008810:	0dfe3cc1 00001e4d 00000000 00000000     .<..M...........
	...
 800884c:	fa100000 36670f91 0dfe81e3 b7fe659e     ......g6.....e..
 800885c:	003ed9e3 00000000 00000000 00000000     ..>.............
 800886c:	74626500 434e455b 735d3631 74696c70     .ebt[ENC16]split
 800887c:	6574735f 315f3070 00000036 00000000     _step0_16.......
 800888c:	00000000 e0100203 2457f6de c4c52871     ..........W$q(..
 800889c:	3a9beff2 1006fae4 305f7813 4b2e6a21     ...:.....x_0!j.K
 80088ac:	3cc15743 1e4d0dfe 00000000 00000000     CW.<..M.........
	...
 8008908:	74000000 434e455b 735d3631 74696c70     ...t[ENC16]split
 8008918:	6574735f 315f3170 00000036 00000000     _step1_16.......
 8008928:	00000000 e0100308 2457f6de c4c52871     ..........W$q(..
 8008938:	3a9beff2 1006fae4 305f7813 4b2e6a21     ...:.....x_0!j.K
 8008948:	3cc15743 1e4d0dfe 00000000 00000000     CW.<..M.........
	...
 8008988:	0f91fa10 81e33667 659e0dfe d9e3b7fe     ....g6.....e....
 8008998:	0000003e 00000000 00000000 65000000     >..............e
 80089a8:	455b7462 3631434e 6c70735d 6e697469     bt[ENC16]splitin
 80089b8:	735f7469 30706574 0036315f 00000000     it_step0_16.....
 80089c8:	02010000 f6dee010 28712457 eff2c4c5     ........W$q(....
 80089d8:	fae43a9b 78131006 6a21305f 57434b2e     .:.....x_0!j.KCW
 80089e8:	0dfe3cc1 00001e4d 00000000 00000000     .<..M...........
	...
 8008a44:	455b7400 3631434e 6c70735d 6e697469     .t[ENC16]splitin
 8008a54:	735f7469 31706574 0036315f 00000000     it_step1_16.....
 8008a64:	02020000 f6dee010 28712457 eff2c4c5     ........W$q(....
 8008a74:	fae43a9b 78131006 6a21305f 57434b2e     .:.....x_0!j.KCW
 8008a84:	0dfe3cc1 00001e4d 00000000 00000000     .<..M...........
	...
 8008ae0:	455b7400 3631434e 6c70735d 6e697469     .t[ENC16]splitin
 8008af0:	735f7469 32706574 0036315f 00000000     it_step2_16.....
 8008b00:	03080000 f6dee010 28712457 eff2c4c5     ........W$q(....
 8008b10:	fae43a9b 78131006 6a21305f 57434b2e     .:.....x_0!j.KCW
 8008b20:	0dfe3cc1 00001e4d 00000000 00000000     .<..M...........
	...
 8008b5c:	fa100000 36670f91 0dfe81e3 b7fe659e     ......g6.....e..
 8008b6c:	003ed9e3 00000000 00000000 00000000     ..>.............
 8008b7c:	74626500 4345445b 665d3631 5f6c6c75     .ebt[DEC16]full_
 8008b8c:	00003631 00000000 00000000 00000000     16..............
 8008b9c:	00000000 d2100315 bf3f3f3d 39f39a4d     ........=??.M..9
 8008bac:	e63933d7 105d4a1f 7f62401e 45685f9e     .39..J]..@b.._hE
 8008bbc:	5b6097b2 69e3937c 00000000 00000000     ..`[|..i........
	...
 8008bfc:	5fd95410 5f16f656 d6c7f6bc 308a5fbe     .T._V.._....._.0
 8008c0c:	00000006 00000000 00000000 65000000     ...............e
 8008c1c:	445b7462 36314345 6c70735d 735f7469     bt[DEC16]split_s
 8008c2c:	30706574 0036315f 00000000 00000000     tep0_16.........
 8008c3c:	02050000 3f3dd210 9a4dbf3f 33d739f3     ......=??.M..9.3
 8008c4c:	4a1fe639 401e105d 5f9e7f62 97b24568     9..J]..@b.._hE..
 8008c5c:	937c5b60 000069e3 00000000 00000000     `[|..i..........
	...
 8008cb8:	445b7400 36314345 6c70735d 735f7469     .t[DEC16]split_s
 8008cc8:	31706574 0036315f 00000000 00000000     tep1_16.........
 8008cd8:	03100000 3f3dd210 9a4dbf3f 33d739f3     ......=??.M..9.3
 8008ce8:	4a1fe639 401e105d 5f9e7f62 97b24568     9..J]..@b.._hE..
 8008cf8:	937c5b60 000069e3 00000000 00000000     `[|..i..........
	...
 8008d34:	54100000 f6565fd9 f6bc5f16 5fbed6c7     ...T._V.._....._
 8008d44:	0006308a 00000000 00000000 00000000     .0..............
 8008d54:	74626500 4345445b 735d3631 74696c70     .ebt[DEC16]split
 8008d64:	74696e69 6574735f 315f3070 00000036     init_step0_16...
 8008d74:	00000000 d2100201 bf3f3f3d 39f39a4d     ........=??.M..9
 8008d84:	e63933d7 105d4a1f 7f62401e 45685f9e     .39..J]..@b.._hE
 8008d94:	5b6097b2 69e3937c 00000000 00000000     ..`[|..i........
	...
 8008df0:	74000000 4345445b 735d3631 74696c70     ...t[DEC16]split
 8008e00:	74696e69 6574735f 315f3170 00000036     init_step1_16...
 8008e10:	00000000 d2100204 bf3f3f3d 39f39a4d     ........=??.M..9
 8008e20:	e63933d7 105d4a1f 7f62401e 45685f9e     .39..J]..@b.._hE
 8008e30:	5b6097b2 69e3937c 00000000 00000000     ..`[|..i........
	...
 8008e8c:	74000000 4345445b 735d3631 74696c70     ...t[DEC16]split
 8008e9c:	74696e69 6574735f 315f3270 00000036     init_step2_16...
 8008eac:	00000000 d2100310 bf3f3f3d 39f39a4d     ........=??.M..9
 8008ebc:	e63933d7 105d4a1f 7f62401e 45685f9e     .39..J]..@b.._hE
 8008ecc:	5b6097b2 69e3937c 00000000 00000000     ..`[|..i........
	...
 8008f0c:	5fd95410 5f16f656 d6c7f6bc 308a5fbe     .T._V.._....._.0
 8008f1c:	00000006 00000000 00000000 65000000     ...............e
 8008f2c:	455b7462 3731434e 6c75665d 37315f6c     bt[ENC17]full_17
	...
 8008f4c:	030b0000 c1f2f510 d368e1a2 e3e653b0     ..........h..S..
 8008f5c:	b8705fcb 08a010a7 9e15bf46 e8008693     ._p.....F.......
 8008f6c:	3bdab8e1 00000461 00000000 00000000     ...;a...........
	...
 8008fa8:	74100000 8bfa1ce3 1dcbc72a e0d18c47     ...t....*...G...
 8008fb8:	001a154e 00000000 00000000 00000000     N...............
 8008fc8:	74626500 434e455b 735d3731 74696c70     .ebt[ENC17]split
 8008fd8:	6574735f 315f3070 00000037 00000000     _step0_17.......
 8008fe8:	00000000 f5100203 e1a2c1f2 53b0d368     ............h..S
 8008ff8:	5fcbe3e6 10a7b870 bf4608a0 86939e15     ..._p.....F.....
 8009008:	b8e1e800 04613bda 00000000 00000000     .....;a.........
	...
 8009064:	74000000 434e455b 735d3731 74696c70     ...t[ENC17]split
 8009074:	6574735f 315f3170 00000037 00000000     _step1_17.......
 8009084:	00000000 f5100308 e1a2c1f2 53b0d368     ............h..S
 8009094:	5fcbe3e6 10a7b870 bf4608a0 86939e15     ..._p.....F.....
 80090a4:	b8e1e800 04613bda 00000000 00000000     .....;a.........
	...
 80090e4:	1ce37410 c72a8bfa 8c471dcb 154ee0d1     .t....*...G...N.
 80090f4:	0000001a 00000000 00000000 65000000     ...............e
 8009104:	455b7462 3731434e 6c70735d 6e697469     bt[ENC17]splitin
 8009114:	735f7469 30706574 0037315f 00000000     it_step0_17.....
 8009124:	02010000 c1f2f510 d368e1a2 e3e653b0     ..........h..S..
 8009134:	b8705fcb 08a010a7 9e15bf46 e8008693     ._p.....F.......
 8009144:	3bdab8e1 00000461 00000000 00000000     ...;a...........
	...
 80091a0:	455b7400 3731434e 6c70735d 6e697469     .t[ENC17]splitin
 80091b0:	735f7469 31706574 0037315f 00000000     it_step1_17.....
 80091c0:	02020000 c1f2f510 d368e1a2 e3e653b0     ..........h..S..
 80091d0:	b8705fcb 08a010a7 9e15bf46 e8008693     ._p.....F.......
 80091e0:	3bdab8e1 00000461 00000000 00000000     ...;a...........
	...
 800923c:	455b7400 3731434e 6c70735d 6e697469     .t[ENC17]splitin
 800924c:	735f7469 32706574 0037315f 00000000     it_step2_17.....
 800925c:	03080000 c1f2f510 d368e1a2 e3e653b0     ..........h..S..
 800926c:	b8705fcb 08a010a7 9e15bf46 e8008693     ._p.....F.......
 800927c:	3bdab8e1 00000461 00000000 00000000     ...;a...........
	...
 80092b8:	74100000 8bfa1ce3 1dcbc72a e0d18c47     ...t....*...G...
 80092c8:	001a154e 00000000 00000000 00000000     N...............
 80092d8:	74626500 4345445b 665d3731 5f6c6c75     .ebt[DEC17]full_
 80092e8:	00003731 00000000 00000000 00000000     17..............
 80092f8:	00000000 ca100315 57893046 e870616e     ........F0.Wnap.
 8009308:	06b8fbde 10d12e9c 7a50e21f 1ea062ec     ..........Pz.b..
 8009318:	03498a74 9f3fc34c 00000000 00000000     t.I.L.?.........
	...
 8009358:	9764f810 d5ea2620 acded504 43084593     ..d. &.......E.C
 8009368:	00000066 00000000 00000000 65000000     f..............e
 8009378:	445b7462 37314345 6c70735d 735f7469     bt[DEC17]split_s
 8009388:	30706574 0037315f 00000000 00000000     tep0_17.........
 8009398:	02050000 3046ca10 616e5789 fbdee870     ......F0.Wnap...
 80093a8:	2e9c06b8 e21f10d1 62ec7a50 8a741ea0     ........Pz.b..t.
 80093b8:	c34c0349 00009f3f 00000000 00000000     I.L.?...........
	...
 8009414:	445b7400 37314345 6c70735d 735f7469     .t[DEC17]split_s
 8009424:	31706574 0037315f 00000000 00000000     tep1_17.........
 8009434:	03100000 3046ca10 616e5789 fbdee870     ......F0.Wnap...
 8009444:	2e9c06b8 e21f10d1 62ec7a50 8a741ea0     ........Pz.b..t.
 8009454:	c34c0349 00009f3f 00000000 00000000     I.L.?...........
	...
 8009490:	f8100000 26209764 d504d5ea 4593acde     ....d. &.......E
 80094a0:	00664308 00000000 00000000 00000000     .Cf.............
 80094b0:	74626500 4345445b 735d3731 74696c70     .ebt[DEC17]split
 80094c0:	74696e69 6574735f 315f3070 00000037     init_step0_17...
 80094d0:	00000000 ca100201 57893046 e870616e     ........F0.Wnap.
 80094e0:	06b8fbde 10d12e9c 7a50e21f 1ea062ec     ..........Pz.b..
 80094f0:	03498a74 9f3fc34c 00000000 00000000     t.I.L.?.........
	...
 800954c:	74000000 4345445b 735d3731 74696c70     ...t[DEC17]split
 800955c:	74696e69 6574735f 315f3170 00000037     init_step1_17...
 800956c:	00000000 ca100204 57893046 e870616e     ........F0.Wnap.
 800957c:	06b8fbde 10d12e9c 7a50e21f 1ea062ec     ..........Pz.b..
 800958c:	03498a74 9f3fc34c 00000000 00000000     t.I.L.?.........
	...
 80095e8:	74000000 4345445b 735d3731 74696c70     ...t[DEC17]split
 80095f8:	74696e69 6574735f 315f3270 00000037     init_step2_17...
 8009608:	00000000 ca100310 57893046 e870616e     ........F0.Wnap.
 8009618:	06b8fbde 10d12e9c 7a50e21f 1ea062ec     ..........Pz.b..
 8009628:	03498a74 9f3fc34c 00000000 00000000     t.I.L.?.........
	...
 8009668:	9764f810 d5ea2620 acded504 43084593     ..d. &.......E.C
 8009678:	00000066 00000000 00000000 65000000     f..............e
 8009688:	455b7462 3831434e 6c75665d 38315f6c     bt[ENC18]full_18
	...
 80096a8:	030b0000 5b2e6610 b45f1db5 29e89897     .....f.[.._....)
 80096b8:	228f87a0 558a1061 fcdbbac9 62755ed0     ..."a..U.....^ub
 80096c8:	d021c848 00005a8a 00000000 00000000     H.!..Z..........
	...
 8009704:	50100000 831bd52c 974c956a 843fdaca     ...P,...j.L...?.
 8009714:	006397f6 00000000 00000000 00000000     ..c.............
 8009724:	74626500 434e455b 735d3831 74696c70     .ebt[ENC18]split
 8009734:	6574735f 315f3070 00000038 00000000     _step0_18.......
 8009744:	00000000 66100203 1db55b2e 9897b45f     .......f.[.._...
 8009754:	87a029e8 1061228f bac9558a 5ed0fcdb     .)..."a..U.....^
 8009764:	c8486275 5a8ad021 00000000 00000000     ubH.!..Z........
	...
 80097c0:	74000000 434e455b 735d3831 74696c70     ...t[ENC18]split
 80097d0:	6574735f 315f3170 00000038 00000000     _step1_18.......
 80097e0:	00000000 66100308 1db55b2e 9897b45f     .......f.[.._...
 80097f0:	87a029e8 1061228f bac9558a 5ed0fcdb     .)..."a..U.....^
 8009800:	c8486275 5a8ad021 00000000 00000000     ubH.!..Z........
	...
 8009840:	d52c5010 956a831b daca974c 97f6843f     .P,...j.L...?...
 8009850:	00000063 00000000 00000000 65000000     c..............e
 8009860:	455b7462 3831434e 6c70735d 6e697469     bt[ENC18]splitin
 8009870:	735f7469 30706574 0038315f 00000000     it_step0_18.....
 8009880:	02010000 5b2e6610 b45f1db5 29e89897     .....f.[.._....)
 8009890:	228f87a0 558a1061 fcdbbac9 62755ed0     ..."a..U.....^ub
 80098a0:	d021c848 00005a8a 00000000 00000000     H.!..Z..........
	...
 80098fc:	455b7400 3831434e 6c70735d 6e697469     .t[ENC18]splitin
 800990c:	735f7469 31706574 0038315f 00000000     it_step1_18.....
 800991c:	02020000 5b2e6610 b45f1db5 29e89897     .....f.[.._....)
 800992c:	228f87a0 558a1061 fcdbbac9 62755ed0     ..."a..U.....^ub
 800993c:	d021c848 00005a8a 00000000 00000000     H.!..Z..........
	...
 8009998:	455b7400 3831434e 6c70735d 6e697469     .t[ENC18]splitin
 80099a8:	735f7469 32706574 0038315f 00000000     it_step2_18.....
 80099b8:	03080000 5b2e6610 b45f1db5 29e89897     .....f.[.._....)
 80099c8:	228f87a0 558a1061 fcdbbac9 62755ed0     ..."a..U.....^ub
 80099d8:	d021c848 00005a8a 00000000 00000000     H.!..Z..........
	...
 8009a14:	50100000 831bd52c 974c956a 843fdaca     ...P,...j.L...?.
 8009a24:	006397f6 00000000 00000000 00000000     ..c.............
 8009a34:	74626500 4345445b 665d3831 5f6c6c75     .ebt[DEC18]full_
 8009a44:	00003831 00000000 00000000 00000000     18..............
 8009a54:	00000000 8c100315 a9f62b2f 94d0bc00     ......../+......
 8009a64:	215a0086 1035a0e6 7463f3d4 acf17942     ..Z!..5...ctBy..
 8009a74:	3f96bde4 26b70575 00000000 00000000     ...?u..&........
	...
 8009ab4:	92563c10 c71e07c7 2809aa84 cf628d06     .<V........(..b.
 8009ac4:	000000ae 00000000 00000000 65000000     ...............e
 8009ad4:	445b7462 38314345 6c70735d 735f7469     bt[DEC18]split_s
 8009ae4:	30706574 0038315f 00000000 00000000     tep0_18.........
 8009af4:	02050000 2b2f8c10 bc00a9f6 008694d0     ....../+........
 8009b04:	a0e6215a f3d41035 79427463 bde4acf1     Z!..5...ctBy....
 8009b14:	05753f96 000026b7 00000000 00000000     .?u..&..........
	...
 8009b70:	445b7400 38314345 6c70735d 735f7469     .t[DEC18]split_s
 8009b80:	31706574 0038315f 00000000 00000000     tep1_18.........
 8009b90:	03100000 2b2f8c10 bc00a9f6 008694d0     ....../+........
 8009ba0:	a0e6215a f3d41035 79427463 bde4acf1     Z!..5...ctBy....
 8009bb0:	05753f96 000026b7 00000000 00000000     .?u..&..........
	...
 8009bec:	3c100000 07c79256 aa84c71e 8d062809     ...<V........(..
 8009bfc:	00aecf62 00000000 00000000 00000000     b...............
 8009c0c:	74626500 4345445b 735d3831 74696c70     .ebt[DEC18]split
 8009c1c:	74696e69 6574735f 315f3070 00000038     init_step0_18...
 8009c2c:	00000000 8c100201 a9f62b2f 94d0bc00     ......../+......
 8009c3c:	215a0086 1035a0e6 7463f3d4 acf17942     ..Z!..5...ctBy..
 8009c4c:	3f96bde4 26b70575 00000000 00000000     ...?u..&........
	...
 8009ca8:	74000000 4345445b 735d3831 74696c70     ...t[DEC18]split
 8009cb8:	74696e69 6574735f 315f3170 00000038     init_step1_18...
 8009cc8:	00000000 8c100204 a9f62b2f 94d0bc00     ......../+......
 8009cd8:	215a0086 1035a0e6 7463f3d4 acf17942     ..Z!..5...ctBy..
 8009ce8:	3f96bde4 26b70575 00000000 00000000     ...?u..&........
	...
 8009d44:	74000000 4345445b 735d3831 74696c70     ...t[DEC18]split
 8009d54:	74696e69 6574735f 315f3270 00000038     init_step2_18...
 8009d64:	00000000 8c100310 a9f62b2f 94d0bc00     ......../+......
 8009d74:	215a0086 1035a0e6 7463f3d4 acf17942     ..Z!..5...ctBy..
 8009d84:	3f96bde4 26b70575 00000000 00000000     ...?u..&........
	...
 8009dc4:	92563c10 c71e07c7 2809aa84 cf628d06     .<V........(..b.
 8009dd4:	000000ae 00000000 00000000 65000000     ...............e
 8009de4:	455b7462 3931434e 6c75665d 39315f6c     bt[ENC19]full_19
	...
 8009e04:	030b0000 127cba10 e48630bf 3893c6ae     ......|..0.....8
 8009e14:	d981f70a cdd1102b d40472d2 31a6cca8     ....+....r.....1
 8009e24:	9e137591 0000d38b 00000000 00000000     .u..............
	...
 8009e60:	4d100000 9a665f3d a678c481 d4505d23     ...M=_f...x.#]P.
 8009e70:	006a220a 00000000 00000000 00000000     ."j.............
 8009e80:	74626500 434e455b 735d3931 74696c70     .ebt[ENC19]split
 8009e90:	6574735f 315f3070 00000039 00000000     _step0_19.......
 8009ea0:	00000000 ba100203 30bf127c c6aee486     ........|..0....
 8009eb0:	f70a3893 102bd981 72d2cdd1 cca8d404     .8....+....r....
 8009ec0:	759131a6 d38b9e13 00000000 00000000     .1.u............
	...
 8009f1c:	74000000 434e455b 735d3931 74696c70     ...t[ENC19]split
 8009f2c:	6574735f 315f3170 00000039 00000000     _step1_19.......
 8009f3c:	00000000 ba100308 30bf127c c6aee486     ........|..0....
 8009f4c:	f70a3893 102bd981 72d2cdd1 cca8d404     .8....+....r....
 8009f5c:	759131a6 d38b9e13 00000000 00000000     .1.u............
	...
 8009f9c:	5f3d4d10 c4819a66 5d23a678 220ad450     .M=_f...x.#]P.."
 8009fac:	0000006a 00000000 00000000 65000000     j..............e
 8009fbc:	455b7462 3931434e 6c70735d 6e697469     bt[ENC19]splitin
 8009fcc:	735f7469 30706574 0039315f 00000000     it_step0_19.....
 8009fdc:	02010000 127cba10 e48630bf 3893c6ae     ......|..0.....8
 8009fec:	d981f70a cdd1102b d40472d2 31a6cca8     ....+....r.....1
 8009ffc:	9e137591 0000d38b 00000000 00000000     .u..............
	...
 800a058:	455b7400 3931434e 6c70735d 6e697469     .t[ENC19]splitin
 800a068:	735f7469 31706574 0039315f 00000000     it_step1_19.....
 800a078:	02020000 127cba10 e48630bf 3893c6ae     ......|..0.....8
 800a088:	d981f70a cdd1102b d40472d2 31a6cca8     ....+....r.....1
 800a098:	9e137591 0000d38b 00000000 00000000     .u..............
	...
 800a0f4:	455b7400 3931434e 6c70735d 6e697469     .t[ENC19]splitin
 800a104:	735f7469 32706574 0039315f 00000000     it_step2_19.....
 800a114:	03080000 127cba10 e48630bf 3893c6ae     ......|..0.....8
 800a124:	d981f70a cdd1102b d40472d2 31a6cca8     ....+....r.....1
 800a134:	9e137591 0000d38b 00000000 00000000     .u..............
	...
 800a170:	4d100000 9a665f3d a678c481 d4505d23     ...M=_f...x.#]P.
 800a180:	006a220a 00000000 00000000 00000000     ."j.............
 800a190:	74626500 4345445b 665d3931 5f6c6c75     .ebt[DEC19]full_
 800a1a0:	00003931 00000000 00000000 00000000     19..............
 800a1b0:	00000000 30100315 adf9e9ab c66a21f2     .......0.....!j.
 800a1c0:	bc72080f 10816f8b bf465d9a 55dd7b24     ..r..o...]F.${.U
 800a1d0:	95b53dcb e3fcd3f4 00000000 00000000     .=..............
	...
 800a210:	c9f93f10 4085d47c bd9a8837 a4b43421     .?..|..@7...!4..
 800a220:	00000061 00000000 00000000 65000000     a..............e
 800a230:	445b7462 39314345 6c70735d 735f7469     bt[DEC19]split_s
 800a240:	30706574 0039315f 00000000 00000000     tep0_19.........
 800a250:	02050000 e9ab3010 21f2adf9 080fc66a     .....0.....!j...
 800a260:	6f8bbc72 5d9a1081 7b24bf46 3dcb55dd     r..o...]F.${.U.=
 800a270:	d3f495b5 0000e3fc 00000000 00000000     ................
	...
 800a2cc:	445b7400 39314345 6c70735d 735f7469     .t[DEC19]split_s
 800a2dc:	31706574 0039315f 00000000 00000000     tep1_19.........
 800a2ec:	03100000 e9ab3010 21f2adf9 080fc66a     .....0.....!j...
 800a2fc:	6f8bbc72 5d9a1081 7b24bf46 3dcb55dd     r..o...]F.${.U.=
 800a30c:	d3f495b5 0000e3fc 00000000 00000000     ................
	...
 800a348:	3f100000 d47cc9f9 88374085 3421bd9a     ...?..|..@7...!4
 800a358:	0061a4b4 00000000 00000000 00000000     ..a.............
 800a368:	74626500 4345445b 735d3931 74696c70     .ebt[DEC19]split
 800a378:	74696e69 6574735f 315f3070 00000039     init_step0_19...
 800a388:	00000000 30100201 adf9e9ab c66a21f2     .......0.....!j.
 800a398:	bc72080f 10816f8b bf465d9a 55dd7b24     ..r..o...]F.${.U
 800a3a8:	95b53dcb e3fcd3f4 00000000 00000000     .=..............
	...
 800a404:	74000000 4345445b 735d3931 74696c70     ...t[DEC19]split
 800a414:	74696e69 6574735f 315f3170 00000039     init_step1_19...
 800a424:	00000000 30100204 adf9e9ab c66a21f2     .......0.....!j.
 800a434:	bc72080f 10816f8b bf465d9a 55dd7b24     ..r..o...]F.${.U
 800a444:	95b53dcb e3fcd3f4 00000000 00000000     .=..............
	...
 800a4a0:	74000000 4345445b 735d3931 74696c70     ...t[DEC19]split
 800a4b0:	74696e69 6574735f 315f3270 00000039     init_step2_19...
 800a4c0:	00000000 30100310 adf9e9ab c66a21f2     .......0.....!j.
 800a4d0:	bc72080f 10816f8b bf465d9a 55dd7b24     ..r..o...]F.${.U
 800a4e0:	95b53dcb e3fcd3f4 00000000 00000000     .=..............
	...
 800a520:	c9f93f10 4085d47c bd9a8837 a4b43421     .?..|..@7...!4..
 800a530:	00000061 00000000 00000000 65000000     a..............e
 800a540:	455b7462 3032434e 6c75665d 30325f6c     bt[ENC20]full_20
	...
 800a560:	030b0000 fd8f8f10 f1d1ea26 1b7df945     ........&...E.}.
 800a570:	49bcac43 718a1012 0b86edb7 cb256557     C..I...q....We%.
 800a580:	ba878388 0000fc40 00000000 00000000     ....@...........
	...
 800a5bc:	c3100000 7d78194f c030e2cf 76172c63     ....O.x}..0.c,.v
 800a5cc:	00ef02de 00000000 00000000 00000000     ................
 800a5dc:	74626500 434e455b 735d3032 74696c70     .ebt[ENC20]split
 800a5ec:	6574735f 325f3070 00000030 00000000     _step0_20.......
 800a5fc:	00000000 8f100203 ea26fd8f f945f1d1     ..........&...E.
 800a60c:	ac431b7d 101249bc edb7718a 65570b86     }.C..I...q....We
 800a61c:	8388cb25 fc40ba87 00000000 00000000     %.....@.........
	...
 800a678:	74000000 434e455b 735d3032 74696c70     ...t[ENC20]split
 800a688:	6574735f 325f3170 00000030 00000000     _step1_20.......
 800a698:	00000000 8f100308 ea26fd8f f945f1d1     ..........&...E.
 800a6a8:	ac431b7d 101249bc edb7718a 65570b86     }.C..I...q....We
 800a6b8:	8388cb25 fc40ba87 00000000 00000000     %.....@.........
	...
 800a6f8:	194fc310 e2cf7d78 2c63c030 02de7617     ..O.x}..0.c,.v..
 800a708:	000000ef 00000000 00000000 65000000     ...............e
 800a718:	455b7462 3032434e 6c70735d 6e697469     bt[ENC20]splitin
 800a728:	735f7469 30706574 0030325f 00000000     it_step0_20.....
 800a738:	02010000 fd8f8f10 f1d1ea26 1b7df945     ........&...E.}.
 800a748:	49bcac43 718a1012 0b86edb7 cb256557     C..I...q....We%.
 800a758:	ba878388 0000fc40 00000000 00000000     ....@...........
	...
 800a7b4:	455b7400 3032434e 6c70735d 6e697469     .t[ENC20]splitin
 800a7c4:	735f7469 31706574 0030325f 00000000     it_step1_20.....
 800a7d4:	02020000 fd8f8f10 f1d1ea26 1b7df945     ........&...E.}.
 800a7e4:	49bcac43 718a1012 0b86edb7 cb256557     C..I...q....We%.
 800a7f4:	ba878388 0000fc40 00000000 00000000     ....@...........
	...
 800a850:	455b7400 3032434e 6c70735d 6e697469     .t[ENC20]splitin
 800a860:	735f7469 32706574 0030325f 00000000     it_step2_20.....
 800a870:	03080000 fd8f8f10 f1d1ea26 1b7df945     ........&...E.}.
 800a880:	49bcac43 718a1012 0b86edb7 cb256557     C..I...q....We%.
 800a890:	ba878388 0000fc40 00000000 00000000     ....@...........
	...
 800a8cc:	c3100000 7d78194f c030e2cf 76172c63     ....O.x}..0.c,.v
 800a8dc:	00ef02de 00000000 00000000 00000000     ................
 800a8ec:	74626500 4345445b 665d3032 5f6c6c75     .ebt[DEC20]full_
 800a8fc:	00003032 00000000 00000000 00000000     20..............
 800a90c:	00000000 60100315 30c2d946 027af8b2     .......`F..0..z.
 800a91c:	2bb54601 10fafbe6 40bb7f46 660317c0     .F.+....F..@...f
 800a92c:	2a3a9c45 c2a6517b 00000000 00000000     E.:*{Q..........
	...
 800a96c:	86dd3910 c31ec0e3 7e228217 4c4bb6b8     .9........"~..KL
 800a97c:	00000040 00000000 00000000 65000000     @..............e
 800a98c:	445b7462 30324345 6c70735d 735f7469     bt[DEC20]split_s
 800a99c:	30706574 0030325f 00000000 00000000     tep0_20.........
 800a9ac:	02050000 d9466010 f8b230c2 4601027a     .....`F..0..z..F
 800a9bc:	fbe62bb5 7f4610fa 17c040bb 9c456603     .+....F..@...fE.
 800a9cc:	517b2a3a 0000c2a6 00000000 00000000     :*{Q............
	...
 800aa28:	445b7400 30324345 6c70735d 735f7469     .t[DEC20]split_s
 800aa38:	31706574 0030325f 00000000 00000000     tep1_20.........
 800aa48:	03100000 d9466010 f8b230c2 4601027a     .....`F..0..z..F
 800aa58:	fbe62bb5 7f4610fa 17c040bb 9c456603     .+....F..@...fE.
 800aa68:	517b2a3a 0000c2a6 00000000 00000000     :*{Q............
	...
 800aaa4:	39100000 c0e386dd 8217c31e b6b87e22     ...9........"~..
 800aab4:	00404c4b 00000000 00000000 00000000     KL@.............
 800aac4:	74626500 4345445b 735d3032 74696c70     .ebt[DEC20]split
 800aad4:	74696e69 6574735f 325f3070 00000030     init_step0_20...
 800aae4:	00000000 60100201 30c2d946 027af8b2     .......`F..0..z.
 800aaf4:	2bb54601 10fafbe6 40bb7f46 660317c0     .F.+....F..@...f
 800ab04:	2a3a9c45 c2a6517b 00000000 00000000     E.:*{Q..........
	...
 800ab60:	74000000 4345445b 735d3032 74696c70     ...t[DEC20]split
 800ab70:	74696e69 6574735f 325f3170 00000030     init_step1_20...
 800ab80:	00000000 60100204 30c2d946 027af8b2     .......`F..0..z.
 800ab90:	2bb54601 10fafbe6 40bb7f46 660317c0     .F.+....F..@...f
 800aba0:	2a3a9c45 c2a6517b 00000000 00000000     E.:*{Q..........
	...
 800abfc:	74000000 4345445b 735d3032 74696c70     ...t[DEC20]split
 800ac0c:	74696e69 6574735f 325f3270 00000030     init_step2_20...
 800ac1c:	00000000 60100310 30c2d946 027af8b2     .......`F..0..z.
 800ac2c:	2bb54601 10fafbe6 40bb7f46 660317c0     .F.+....F..@...f
 800ac3c:	2a3a9c45 c2a6517b 00000000 00000000     E.:*{Q..........
	...
 800ac7c:	86dd3910 c31ec0e3 7e228217 4c4bb6b8     .9........"~..KL
 800ac8c:	00000040 00000000 00000000 65000000     @..............e
 800ac9c:	455b7462 3132434e 6c75665d 31325f6c     bt[ENC21]full_21
	...
 800acbc:	030b0000 fc4e9910 b3a7f9d2 af98e99f     ......N.........
 800accc:	23cf36e3 d2cc1010 3d508cee 1768249b     .6.#......P=.$h.
 800acdc:	a8549ad5 00004a77 00000000 00000000     ..T.wJ..........
	...
 800ad18:	41100000 323d490f 350f243f c48873e8     ...A.I=2?$.5.s..
 800ad28:	00cddb88 00000000 00000000 00000000     ................
 800ad38:	74626500 434e455b 735d3132 74696c70     .ebt[ENC21]split
 800ad48:	6574735f 325f3070 00000031 00000000     _step0_21.......
 800ad58:	00000000 99100203 f9d2fc4e e99fb3a7     ........N.......
 800ad68:	36e3af98 101023cf 8ceed2cc 249b3d50     ...6.#......P=.$
 800ad78:	9ad51768 4a77a854 00000000 00000000     h...T.wJ........
	...
 800add4:	74000000 434e455b 735d3132 74696c70     ...t[ENC21]split
 800ade4:	6574735f 325f3170 00000031 00000000     _step1_21.......
 800adf4:	00000000 99100308 f9d2fc4e e99fb3a7     ........N.......
 800ae04:	36e3af98 101023cf 8ceed2cc 249b3d50     ...6.#......P=.$
 800ae14:	9ad51768 4a77a854 00000000 00000000     h...T.wJ........
	...
 800ae54:	490f4110 243f323d 73e8350f db88c488     .A.I=2?$.5.s....
 800ae64:	000000cd 00000000 00000000 65000000     ...............e
 800ae74:	455b7462 3132434e 6c70735d 6e697469     bt[ENC21]splitin
 800ae84:	735f7469 30706574 0031325f 00000000     it_step0_21.....
 800ae94:	02010000 fc4e9910 b3a7f9d2 af98e99f     ......N.........
 800aea4:	23cf36e3 d2cc1010 3d508cee 1768249b     .6.#......P=.$h.
 800aeb4:	a8549ad5 00004a77 00000000 00000000     ..T.wJ..........
	...
 800af10:	455b7400 3132434e 6c70735d 6e697469     .t[ENC21]splitin
 800af20:	735f7469 31706574 0031325f 00000000     it_step1_21.....
 800af30:	02020000 fc4e9910 b3a7f9d2 af98e99f     ......N.........
 800af40:	23cf36e3 d2cc1010 3d508cee 1768249b     .6.#......P=.$h.
 800af50:	a8549ad5 00004a77 00000000 00000000     ..T.wJ..........
	...
 800afac:	455b7400 3132434e 6c70735d 6e697469     .t[ENC21]splitin
 800afbc:	735f7469 32706574 0031325f 00000000     it_step2_21.....
 800afcc:	03080000 fc4e9910 b3a7f9d2 af98e99f     ......N.........
 800afdc:	23cf36e3 d2cc1010 3d508cee 1768249b     .6.#......P=.$h.
 800afec:	a8549ad5 00004a77 00000000 00000000     ..T.wJ..........
	...
 800b028:	41100000 323d490f 350f243f c48873e8     ...A.I=2?$.5.s..
 800b038:	00cddb88 00000000 00000000 00000000     ................
 800b048:	74626500 4345445b 665d3132 5f6c6c75     .ebt[DEC21]full_
 800b058:	00003132 00000000 00000000 00000000     21..............
 800b068:	00000000 fe100315 7ee9fdb7 67264732     ...........~2G&g
 800b078:	1c433273 10c05ae8 57b7f16f af04a1f8     s2C..Z..o..W....
 800b088:	ee030eab 6fc8bb9a 00000000 00000000     .......o........
	...
 800b0c8:	4f00eb10 5731b476 04599b22 ca03b7aa     ...Ov.1W".Y.....
 800b0d8:	0000002b 00000000 00000000 65000000     +..............e
 800b0e8:	445b7462 31324345 6c70735d 735f7469     bt[DEC21]split_s
 800b0f8:	30706574 0031325f 00000000 00000000     tep0_21.........
 800b108:	02050000 fdb7fe10 47327ee9 32736726     .........~2G&gs2
 800b118:	5ae81c43 f16f10c0 a1f857b7 0eabaf04     C..Z..o..W......
 800b128:	bb9aee03 00006fc8 00000000 00000000     .....o..........
	...
 800b184:	445b7400 31324345 6c70735d 735f7469     .t[DEC21]split_s
 800b194:	31706574 0031325f 00000000 00000000     tep1_21.........
 800b1a4:	03100000 fdb7fe10 47327ee9 32736726     .........~2G&gs2
 800b1b4:	5ae81c43 f16f10c0 a1f857b7 0eabaf04     C..Z..o..W......
 800b1c4:	bb9aee03 00006fc8 00000000 00000000     .....o..........
	...
 800b200:	eb100000 b4764f00 9b225731 b7aa0459     .....Ov.1W".Y...
 800b210:	002bca03 00000000 00000000 00000000     ..+.............
 800b220:	74626500 4345445b 735d3132 74696c70     .ebt[DEC21]split
 800b230:	74696e69 6574735f 325f3070 00000031     init_step0_21...
 800b240:	00000000 fe100201 7ee9fdb7 67264732     ...........~2G&g
 800b250:	1c433273 10c05ae8 57b7f16f af04a1f8     s2C..Z..o..W....
 800b260:	ee030eab 6fc8bb9a 00000000 00000000     .......o........
	...
 800b2bc:	74000000 4345445b 735d3132 74696c70     ...t[DEC21]split
 800b2cc:	74696e69 6574735f 325f3170 00000031     init_step1_21...
 800b2dc:	00000000 fe100204 7ee9fdb7 67264732     ...........~2G&g
 800b2ec:	1c433273 10c05ae8 57b7f16f af04a1f8     s2C..Z..o..W....
 800b2fc:	ee030eab 6fc8bb9a 00000000 00000000     .......o........
	...
 800b358:	74000000 4345445b 735d3132 74696c70     ...t[DEC21]split
 800b368:	74696e69 6574735f 325f3270 00000031     init_step2_21...
 800b378:	00000000 fe100310 7ee9fdb7 67264732     ...........~2G&g
 800b388:	1c433273 10c05ae8 57b7f16f af04a1f8     s2C..Z..o..W....
 800b398:	ee030eab 6fc8bb9a 00000000 00000000     .......o........
	...
 800b3d8:	4f00eb10 5731b476 04599b22 ca03b7aa     ...Ov.1W".Y.....
 800b3e8:	0000002b 00000000 00000000 65000000     +..............e
 800b3f8:	455b7462 3232434e 6c75665d 32325f6c     bt[ENC22]full_22
	...
 800b418:	030b0000 938c8b10 cb6a3b9a ac4e05b0     .........;j...N.
 800b428:	5c856230 40bd1000 75d7da80 2a50afeb     0b.\...@...u..P*
 800b438:	f5dfb3f7 0000e383 00000000 00000000     ................
	...
 800b474:	6c100000 53878881 00fed68e ac6e9017     ...l...S......n.
 800b484:	003313a4 00000000 00000000 00000000     ..3.............
 800b494:	74626500 434e455b 735d3232 74696c70     .ebt[ENC22]split
 800b4a4:	6574735f 325f3070 00000032 00000000     _step0_22.......
 800b4b4:	00000000 8b100203 3b9a938c 05b0cb6a     ...........;j...
 800b4c4:	6230ac4e 10005c85 da8040bd afeb75d7     N.0b.\...@...u..
 800b4d4:	b3f72a50 e383f5df 00000000 00000000     P*..............
	...
 800b530:	74000000 434e455b 735d3232 74696c70     ...t[ENC22]split
 800b540:	6574735f 325f3170 00000032 00000000     _step1_22.......
 800b550:	00000000 8b100308 3b9a938c 05b0cb6a     ...........;j...
 800b560:	6230ac4e 10005c85 da8040bd afeb75d7     N.0b.\...@...u..
 800b570:	b3f72a50 e383f5df 00000000 00000000     P*..............
	...
 800b5b0:	88816c10 d68e5387 901700fe 13a4ac6e     .l...S......n...
 800b5c0:	00000033 00000000 00000000 65000000     3..............e
 800b5d0:	455b7462 3232434e 6c70735d 6e697469     bt[ENC22]splitin
 800b5e0:	735f7469 30706574 0032325f 00000000     it_step0_22.....
 800b5f0:	02010000 938c8b10 cb6a3b9a ac4e05b0     .........;j...N.
 800b600:	5c856230 40bd1000 75d7da80 2a50afeb     0b.\...@...u..P*
 800b610:	f5dfb3f7 0000e383 00000000 00000000     ................
	...
 800b66c:	455b7400 3232434e 6c70735d 6e697469     .t[ENC22]splitin
 800b67c:	735f7469 31706574 0032325f 00000000     it_step1_22.....
 800b68c:	02020000 938c8b10 cb6a3b9a ac4e05b0     .........;j...N.
 800b69c:	5c856230 40bd1000 75d7da80 2a50afeb     0b.\...@...u..P*
 800b6ac:	f5dfb3f7 0000e383 00000000 00000000     ................
	...
 800b708:	455b7400 3232434e 6c70735d 6e697469     .t[ENC22]splitin
 800b718:	735f7469 32706574 0032325f 00000000     it_step2_22.....
 800b728:	03080000 938c8b10 cb6a3b9a ac4e05b0     .........;j...N.
 800b738:	5c856230 40bd1000 75d7da80 2a50afeb     0b.\...@...u..P*
 800b748:	f5dfb3f7 0000e383 00000000 00000000     ................
	...
 800b784:	6c100000 53878881 00fed68e ac6e9017     ...l...S......n.
 800b794:	003313a4 00000000 00000000 00000000     ..3.............
 800b7a4:	74626500 4345445b 665d3232 5f6c6c75     .ebt[DEC22]full_
 800b7b4:	00003232 00000000 00000000 00000000     22..............
 800b7c4:	00000000 a5100315 70835317 b482eedd     .........S.p....
 800b7d4:	0879aa4d 106984b5 b02f4ea4 79589034     M.y...i..N/.4.Xy
 800b7e4:	0302d0fd a6b99232 00000000 00000000     ....2...........
	...
 800b824:	8b516510 877699ef 62f2f6c0 8811e580     .eQ...v....b....
 800b834:	00000073 00000000 00000000 65000000     s..............e
 800b844:	445b7462 32324345 6c70735d 735f7469     bt[DEC22]split_s
 800b854:	30706574 0032325f 00000000 00000000     tep0_22.........
 800b864:	02050000 5317a510 eedd7083 aa4db482     .......S.p....M.
 800b874:	84b50879 4ea41069 9034b02f d0fd7958     y...i..N/.4.Xy..
 800b884:	92320302 0000a6b9 00000000 00000000     ..2.............
	...
 800b8e0:	445b7400 32324345 6c70735d 735f7469     .t[DEC22]split_s
 800b8f0:	31706574 0032325f 00000000 00000000     tep1_22.........
 800b900:	03100000 5317a510 eedd7083 aa4db482     .......S.p....M.
 800b910:	84b50879 4ea41069 9034b02f d0fd7958     y...i..N/.4.Xy..
 800b920:	92320302 0000a6b9 00000000 00000000     ..2.............
	...
 800b95c:	65100000 99ef8b51 f6c08776 e58062f2     ...eQ...v....b..
 800b96c:	00738811 00000000 00000000 00000000     ..s.............
 800b97c:	74626500 4345445b 735d3232 74696c70     .ebt[DEC22]split
 800b98c:	74696e69 6574735f 325f3070 00000032     init_step0_22...
 800b99c:	00000000 a5100201 70835317 b482eedd     .........S.p....
 800b9ac:	0879aa4d 106984b5 b02f4ea4 79589034     M.y...i..N/.4.Xy
 800b9bc:	0302d0fd a6b99232 00000000 00000000     ....2...........
	...
 800ba18:	74000000 4345445b 735d3232 74696c70     ...t[DEC22]split
 800ba28:	74696e69 6574735f 325f3170 00000032     init_step1_22...
 800ba38:	00000000 a5100204 70835317 b482eedd     .........S.p....
 800ba48:	0879aa4d 106984b5 b02f4ea4 79589034     M.y...i..N/.4.Xy
 800ba58:	0302d0fd a6b99232 00000000 00000000     ....2...........
	...
 800bab4:	74000000 4345445b 735d3232 74696c70     ...t[DEC22]split
 800bac4:	74696e69 6574735f 325f3270 00000032     init_step2_22...
 800bad4:	00000000 a5100310 70835317 b482eedd     .........S.p....
 800bae4:	0879aa4d 106984b5 b02f4ea4 79589034     M.y...i..N/.4.Xy
 800baf4:	0302d0fd a6b99232 00000000 00000000     ....2...........
	...
 800bb34:	8b516510 877699ef 62f2f6c0 8811e580     .eQ...v....b....
 800bb44:	00000073 00000000 00000000 65000000     s..............e
 800bb54:	455b7462 3332434e 6c75665d 33325f6c     bt[ENC23]full_23
	...
 800bb74:	030b0000 fbbcc510 b13bd6ca 070cce65     ..........;.e...
 800bb84:	eed39564 844c1044 5d7be8e8 fc4b4b1b     d...D.L...{].KK.
 800bb94:	d614250f 00006f7b 00000000 00000000     .%..{o..........
	...
 800bbd0:	2f100000 f2037f4e c727e4fa 7aa383fd     .../N.....'....z
 800bbe0:	007abd25 00000000 00000000 00000000     %.z.............
 800bbf0:	74626500 434e455b 735d3332 74696c70     .ebt[ENC23]split
 800bc00:	6574735f 325f3070 00000033 00000000     _step0_23.......
 800bc10:	00000000 c5100203 d6cafbbc ce65b13b     ............;.e.
 800bc20:	9564070c 1044eed3 e8e8844c 4b1b5d7b     ..d...D.L...{].K
 800bc30:	250ffc4b 6f7bd614 00000000 00000000     K..%..{o........
	...
 800bc8c:	74000000 434e455b 735d3332 74696c70     ...t[ENC23]split
 800bc9c:	6574735f 325f3170 00000033 00000000     _step1_23.......
 800bcac:	00000000 c5100308 d6cafbbc ce65b13b     ............;.e.
 800bcbc:	9564070c 1044eed3 e8e8844c 4b1b5d7b     ..d...D.L...{].K
 800bccc:	250ffc4b 6f7bd614 00000000 00000000     K..%..{o........
	...
 800bd0c:	7f4e2f10 e4faf203 83fdc727 bd257aa3     ./N.....'....z%.
 800bd1c:	0000007a 00000000 00000000 65000000     z..............e
 800bd2c:	455b7462 3332434e 6c70735d 6e697469     bt[ENC23]splitin
 800bd3c:	735f7469 30706574 0033325f 00000000     it_step0_23.....
 800bd4c:	02010000 fbbcc510 b13bd6ca 070cce65     ..........;.e...
 800bd5c:	eed39564 844c1044 5d7be8e8 fc4b4b1b     d...D.L...{].KK.
 800bd6c:	d614250f 00006f7b 00000000 00000000     .%..{o..........
	...
 800bdc8:	455b7400 3332434e 6c70735d 6e697469     .t[ENC23]splitin
 800bdd8:	735f7469 31706574 0033325f 00000000     it_step1_23.....
 800bde8:	02020000 fbbcc510 b13bd6ca 070cce65     ..........;.e...
 800bdf8:	eed39564 844c1044 5d7be8e8 fc4b4b1b     d...D.L...{].KK.
 800be08:	d614250f 00006f7b 00000000 00000000     .%..{o..........
	...
 800be64:	455b7400 3332434e 6c70735d 6e697469     .t[ENC23]splitin
 800be74:	735f7469 32706574 0033325f 00000000     it_step2_23.....
 800be84:	03080000 fbbcc510 b13bd6ca 070cce65     ..........;.e...
 800be94:	eed39564 844c1044 5d7be8e8 fc4b4b1b     d...D.L...{].KK.
 800bea4:	d614250f 00006f7b 00000000 00000000     .%..{o..........
	...
 800bee0:	2f100000 f2037f4e c727e4fa 7aa383fd     .../N.....'....z
 800bef0:	007abd25 00000000 00000000 00000000     %.z.............
 800bf00:	74626500 4345445b 665d3332 5f6c6c75     .ebt[DEC23]full_
 800bf10:	00003332 00000000 00000000 00000000     23..............
 800bf20:	00000000 b0100315 5e516460 e55b6b67     ........`dQ^gk[.
 800bf30:	b021165b 1027b127 9b9fa54d c9fb0216     [.!.'.'.M.......
 800bf40:	88375023 7e321a15 00000000 00000000     #P7...2~........
	...
 800bf80:	bd546610 adbb29bb 3e84f240 69bb157d     .fT..)..@..>}..i
 800bf90:	00000009 00000000 00000000 65000000     ...............e
 800bfa0:	445b7462 33324345 6c70735d 735f7469     bt[DEC23]split_s
 800bfb0:	30706574 0033325f 00000000 00000000     tep0_23.........
 800bfc0:	02050000 6460b010 6b675e51 165be55b     ......`dQ^gk[.[.
 800bfd0:	b127b021 a54d1027 02169b9f 5023c9fb     !.'.'.M.......#P
 800bfe0:	1a158837 00007e32 00000000 00000000     7...2~..........
	...
 800c03c:	445b7400 33324345 6c70735d 735f7469     .t[DEC23]split_s
 800c04c:	31706574 0033325f 00000000 00000000     tep1_23.........
 800c05c:	03100000 6460b010 6b675e51 165be55b     ......`dQ^gk[.[.
 800c06c:	b127b021 a54d1027 02169b9f 5023c9fb     !.'.'.M.......#P
 800c07c:	1a158837 00007e32 00000000 00000000     7...2~..........
	...
 800c0b8:	66100000 29bbbd54 f240adbb 157d3e84     ...fT..)..@..>}.
 800c0c8:	000969bb 00000000 00000000 00000000     .i..............
 800c0d8:	74626500 4345445b 735d3332 74696c70     .ebt[DEC23]split
 800c0e8:	74696e69 6574735f 325f3070 00000033     init_step0_23...
 800c0f8:	00000000 b0100201 5e516460 e55b6b67     ........`dQ^gk[.
 800c108:	b021165b 1027b127 9b9fa54d c9fb0216     [.!.'.'.M.......
 800c118:	88375023 7e321a15 00000000 00000000     #P7...2~........
	...
 800c174:	74000000 4345445b 735d3332 74696c70     ...t[DEC23]split
 800c184:	74696e69 6574735f 325f3170 00000033     init_step1_23...
 800c194:	00000000 b0100204 5e516460 e55b6b67     ........`dQ^gk[.
 800c1a4:	b021165b 1027b127 9b9fa54d c9fb0216     [.!.'.'.M.......
 800c1b4:	88375023 7e321a15 00000000 00000000     #P7...2~........
	...
 800c210:	74000000 4345445b 735d3332 74696c70     ...t[DEC23]split
 800c220:	74696e69 6574735f 325f3270 00000033     init_step2_23...
 800c230:	00000000 b0100310 5e516460 e55b6b67     ........`dQ^gk[.
 800c240:	b021165b 1027b127 9b9fa54d c9fb0216     [.!.'.'.M.......
 800c250:	88375023 7e321a15 00000000 00000000     #P7...2~........
	...
 800c290:	bd546610 adbb29bb 3e84f240 69bb157d     .fT..)..@..>}..i
 800c2a0:	00000009 00000000 00000000 65000000     ...............e
 800c2b0:	455b7462 3432434e 6c75665d 34325f6c     bt[ENC24]full_24
	...
 800c2d0:	030b0000 87cf8310 c02ddf5a 018a96c6     ........Z.-.....
 800c2e0:	1695cc1d d28e10f6 4be7c928 38ef55b1     ........(..K.U.8
 800c2f0:	91988224 0000d312 00000000 00000000     $...............
	...
 800c32c:	09100000 05685995 038e922c 83936b87     .....Yh.,....k..
 800c33c:	007e2eca 00000000 00000000 00000000     ..~.............
 800c34c:	74626500 434e455b 735d3432 74696c70     .ebt[ENC24]split
 800c35c:	6574735f 325f3070 00000034 00000000     _step0_24.......
 800c36c:	00000000 83100203 df5a87cf 96c6c02d     ..........Z.-...
 800c37c:	cc1d018a 10f61695 c928d28e 55b14be7     ..........(..K.U
 800c38c:	822438ef d3129198 00000000 00000000     .8$.............
	...
 800c3e8:	74000000 434e455b 735d3432 74696c70     ...t[ENC24]split
 800c3f8:	6574735f 325f3170 00000034 00000000     _step1_24.......
 800c408:	00000000 83100308 df5a87cf 96c6c02d     ..........Z.-...
 800c418:	cc1d018a 10f61695 c928d28e 55b14be7     ..........(..K.U
 800c428:	822438ef d3129198 00000000 00000000     .8$.............
	...
 800c468:	59950910 922c0568 6b87038e 2eca8393     ...Yh.,....k....
 800c478:	0000007e 00000000 00000000 65000000     ~..............e
 800c488:	455b7462 3432434e 6c70735d 6e697469     bt[ENC24]splitin
 800c498:	735f7469 30706574 0034325f 00000000     it_step0_24.....
 800c4a8:	02010000 87cf8310 c02ddf5a 018a96c6     ........Z.-.....
 800c4b8:	1695cc1d d28e10f6 4be7c928 38ef55b1     ........(..K.U.8
 800c4c8:	91988224 0000d312 00000000 00000000     $...............
	...
 800c524:	455b7400 3432434e 6c70735d 6e697469     .t[ENC24]splitin
 800c534:	735f7469 31706574 0034325f 00000000     it_step1_24.....
 800c544:	02020000 87cf8310 c02ddf5a 018a96c6     ........Z.-.....
 800c554:	1695cc1d d28e10f6 4be7c928 38ef55b1     ........(..K.U.8
 800c564:	91988224 0000d312 00000000 00000000     $...............
	...
 800c5c0:	455b7400 3432434e 6c70735d 6e697469     .t[ENC24]splitin
 800c5d0:	735f7469 32706574 0034325f 00000000     it_step2_24.....
 800c5e0:	03080000 87cf8310 c02ddf5a 018a96c6     ........Z.-.....
 800c5f0:	1695cc1d d28e10f6 4be7c928 38ef55b1     ........(..K.U.8
 800c600:	91988224 0000d312 00000000 00000000     $...............
	...
 800c63c:	09100000 05685995 038e922c 83936b87     .....Yh.,....k..
 800c64c:	007e2eca 00000000 00000000 00000000     ..~.............
 800c65c:	74626500 4345445b 665d3432 5f6c6c75     .ebt[DEC24]full_
 800c66c:	00003432 00000000 00000000 00000000     24..............
 800c67c:	00000000 64100315 0bacf137 1d5c1fff     .......d7.....\.
 800c68c:	71f98c50 107e6b70 a24cced0 b5e7a2d9     P..qpk~...L.....
 800c69c:	0819d810 27ed7dd5 00000000 00000000     .....}.'........
	...
 800c6dc:	67490210 9be2a8d8 4d566451 1ac0d1df     ..Ig....QdVM....
 800c6ec:	000000cd 00000000 00000000 65000000     ...............e
 800c6fc:	445b7462 34324345 6c70735d 735f7469     bt[DEC24]split_s
 800c70c:	30706574 0034325f 00000000 00000000     tep0_24.........
 800c71c:	02050000 f1376410 1fff0bac 8c501d5c     .....d7.....\.P.
 800c72c:	6b7071f9 ced0107e a2d9a24c d810b5e7     .qpk~...L.......
 800c73c:	7dd50819 000027ed 00000000 00000000     ...}.'..........
	...
 800c798:	445b7400 34324345 6c70735d 735f7469     .t[DEC24]split_s
 800c7a8:	31706574 0034325f 00000000 00000000     tep1_24.........
 800c7b8:	03100000 f1376410 1fff0bac 8c501d5c     .....d7.....\.P.
 800c7c8:	6b7071f9 ced0107e a2d9a24c d810b5e7     .qpk~...L.......
 800c7d8:	7dd50819 000027ed 00000000 00000000     ...}.'..........
	...
 800c814:	02100000 a8d86749 64519be2 d1df4d56     ....Ig....QdVM..
 800c824:	00cd1ac0 00000000 00000000 00000000     ................
 800c834:	74626500 4345445b 735d3432 74696c70     .ebt[DEC24]split
 800c844:	74696e69 6574735f 325f3070 00000034     init_step0_24...
 800c854:	00000000 64100201 0bacf137 1d5c1fff     .......d7.....\.
 800c864:	71f98c50 107e6b70 a24cced0 b5e7a2d9     P..qpk~...L.....
 800c874:	0819d810 27ed7dd5 00000000 00000000     .....}.'........
	...
 800c8d0:	74000000 4345445b 735d3432 74696c70     ...t[DEC24]split
 800c8e0:	74696e69 6574735f 325f3170 00000034     init_step1_24...
 800c8f0:	00000000 64100204 0bacf137 1d5c1fff     .......d7.....\.
 800c900:	71f98c50 107e6b70 a24cced0 b5e7a2d9     P..qpk~...L.....
 800c910:	0819d810 27ed7dd5 00000000 00000000     .....}.'........
	...
 800c96c:	74000000 4345445b 735d3432 74696c70     ...t[DEC24]split
 800c97c:	74696e69 6574735f 325f3270 00000034     init_step2_24...
 800c98c:	00000000 64100310 0bacf137 1d5c1fff     .......d7.....\.
 800c99c:	71f98c50 107e6b70 a24cced0 b5e7a2d9     P..qpk~...L.....
 800c9ac:	0819d810 27ed7dd5 00000000 00000000     .....}.'........
	...
 800c9ec:	67490210 9be2a8d8 4d566451 1ac0d1df     ..Ig....QdVM....
 800c9fc:	000000cd 00000000 00000000 65000000     ...............e
 800ca0c:	455b7462 3532434e 6c75665d 35325f6c     bt[ENC25]full_25
	...
 800ca2c:	030b0000 abcc5f10 eaec927e a2741b0b     ....._..~.....t.
 800ca3c:	9a7fa236 b8d0105d 11d56b7d 2c91207f     6...]...}k... .,
 800ca4c:	a0f08212 0000a94a 00000000 00000000     ....J...........
	...
 800ca88:	56100000 683473bd 414babe5 8f1d282d     ...V.s4h..KA-(..
 800ca98:	00f82ce2 00000000 00000000 00000000     .,..............
 800caa8:	74626500 434e455b 735d3532 74696c70     .ebt[ENC25]split
 800cab8:	6574735f 325f3070 00000035 00000000     _step0_25.......
 800cac8:	00000000 5f100203 927eabcc 1b0beaec     ......._..~.....
 800cad8:	a236a274 105d9a7f 6b7db8d0 207f11d5     t.6...]...}k... 
 800cae8:	82122c91 a94aa0f0 00000000 00000000     .,....J.........
	...
 800cb44:	74000000 434e455b 735d3532 74696c70     ...t[ENC25]split
 800cb54:	6574735f 325f3170 00000035 00000000     _step1_25.......
 800cb64:	00000000 5f100308 927eabcc 1b0beaec     ......._..~.....
 800cb74:	a236a274 105d9a7f 6b7db8d0 207f11d5     t.6...]...}k... 
 800cb84:	82122c91 a94aa0f0 00000000 00000000     .,....J.........
	...
 800cbc4:	73bd5610 abe56834 282d414b 2ce28f1d     .V.s4h..KA-(...,
 800cbd4:	000000f8 00000000 00000000 65000000     ...............e
 800cbe4:	455b7462 3532434e 6c70735d 6e697469     bt[ENC25]splitin
 800cbf4:	735f7469 30706574 0035325f 00000000     it_step0_25.....
 800cc04:	02010000 abcc5f10 eaec927e a2741b0b     ....._..~.....t.
 800cc14:	9a7fa236 b8d0105d 11d56b7d 2c91207f     6...]...}k... .,
 800cc24:	a0f08212 0000a94a 00000000 00000000     ....J...........
	...
 800cc80:	455b7400 3532434e 6c70735d 6e697469     .t[ENC25]splitin
 800cc90:	735f7469 31706574 0035325f 00000000     it_step1_25.....
 800cca0:	02020000 abcc5f10 eaec927e a2741b0b     ....._..~.....t.
 800ccb0:	9a7fa236 b8d0105d 11d56b7d 2c91207f     6...]...}k... .,
 800ccc0:	a0f08212 0000a94a 00000000 00000000     ....J...........
	...
 800cd1c:	455b7400 3532434e 6c70735d 6e697469     .t[ENC25]splitin
 800cd2c:	735f7469 32706574 0035325f 00000000     it_step2_25.....
 800cd3c:	03080000 abcc5f10 eaec927e a2741b0b     ....._..~.....t.
 800cd4c:	9a7fa236 b8d0105d 11d56b7d 2c91207f     6...]...}k... .,
 800cd5c:	a0f08212 0000a94a 00000000 00000000     ....J...........
	...
 800cd98:	56100000 683473bd 414babe5 8f1d282d     ...V.s4h..KA-(..
 800cda8:	00f82ce2 00000000 00000000 00000000     .,..............
 800cdb8:	74626500 4345445b 665d3532 5f6c6c75     .ebt[DEC25]full_
 800cdc8:	00003532 00000000 00000000 00000000     25..............
 800cdd8:	00000000 20100315 64fbc814 ef7713f7     ....... ...d..w.
 800cde8:	31908d81 1072510b 622ba28c ab3e60e1     ...1.Qr...+b.`>.
 800cdf8:	c39432bb 04c38600 00000000 00000000     .2..............
	...
 800ce38:	a2503110 a0d9a2bf 7d5edfed 82b82c5f     .1P.......^}_,..
 800ce48:	000000b0 00000000 00000000 65000000     ...............e
 800ce58:	445b7462 35324345 6c70735d 735f7469     bt[DEC25]split_s
 800ce68:	30706574 0035325f 00000000 00000000     tep0_25.........
 800ce78:	02050000 c8142010 13f764fb 8d81ef77     ..... ...d..w...
 800ce88:	510b3190 a28c1072 60e1622b 32bbab3e     .1.Qr...+b.`>..2
 800ce98:	8600c394 000004c3 00000000 00000000     ................
	...
 800cef4:	445b7400 35324345 6c70735d 735f7469     .t[DEC25]split_s
 800cf04:	31706574 0035325f 00000000 00000000     tep1_25.........
 800cf14:	03100000 c8142010 13f764fb 8d81ef77     ..... ...d..w...
 800cf24:	510b3190 a28c1072 60e1622b 32bbab3e     .1.Qr...+b.`>..2
 800cf34:	8600c394 000004c3 00000000 00000000     ................
	...
 800cf70:	31100000 a2bfa250 dfeda0d9 2c5f7d5e     ...1P.......^}_,
 800cf80:	00b082b8 00000000 00000000 00000000     ................
 800cf90:	74626500 4345445b 735d3532 74696c70     .ebt[DEC25]split
 800cfa0:	74696e69 6574735f 325f3070 00000035     init_step0_25...
 800cfb0:	00000000 20100201 64fbc814 ef7713f7     ....... ...d..w.
 800cfc0:	31908d81 1072510b 622ba28c ab3e60e1     ...1.Qr...+b.`>.
 800cfd0:	c39432bb 04c38600 00000000 00000000     .2..............
	...
 800d02c:	74000000 4345445b 735d3532 74696c70     ...t[DEC25]split
 800d03c:	74696e69 6574735f 325f3170 00000035     init_step1_25...
 800d04c:	00000000 20100204 64fbc814 ef7713f7     ....... ...d..w.
 800d05c:	31908d81 1072510b 622ba28c ab3e60e1     ...1.Qr...+b.`>.
 800d06c:	c39432bb 04c38600 00000000 00000000     .2..............
	...
 800d0c8:	74000000 4345445b 735d3532 74696c70     ...t[DEC25]split
 800d0d8:	74696e69 6574735f 325f3270 00000035     init_step2_25...
 800d0e8:	00000000 20100310 64fbc814 ef7713f7     ....... ...d..w.
 800d0f8:	31908d81 1072510b 622ba28c ab3e60e1     ...1.Qr...+b.`>.
 800d108:	c39432bb 04c38600 00000000 00000000     .2..............
	...
 800d148:	a2503110 a0d9a2bf 7d5edfed 82b82c5f     .1P.......^}_,..
 800d158:	000000b0 00000000 00000000 65000000     ...............e
 800d168:	455b7462 3632434e 6c75665d 36325f6c     bt[ENC26]full_26
	...
 800d188:	030b0000 c6620f10 458b62c7 dd8f9e9e     ......b..b.E....
 800d198:	25177475 c4eb102e 240c7442 06f7df33     ut.%....Bt.$3...
 800d1a8:	c1abd933 0000155d 00000000 00000000     3...]...........
	...
 800d1e4:	3d100000 afdc4226 1dbb22b2 f397a0c3     ...=&B..."......
 800d1f4:	001caeed 00000000 00000000 00000000     ................
 800d204:	74626500 434e455b 735d3632 74696c70     .ebt[ENC26]split
 800d214:	6574735f 325f3070 00000036 00000000     _step0_26.......
 800d224:	00000000 0f100203 62c7c662 9e9e458b     ........b..b.E..
 800d234:	7475dd8f 102e2517 7442c4eb df33240c     ..ut.%....Bt.$3.
 800d244:	d93306f7 155dc1ab 00000000 00000000     ..3...].........
	...
 800d2a0:	74000000 434e455b 735d3632 74696c70     ...t[ENC26]split
 800d2b0:	6574735f 325f3170 00000036 00000000     _step1_26.......
 800d2c0:	00000000 0f100308 62c7c662 9e9e458b     ........b..b.E..
 800d2d0:	7475dd8f 102e2517 7442c4eb df33240c     ..ut.%....Bt.$3.
 800d2e0:	d93306f7 155dc1ab 00000000 00000000     ..3...].........
	...
 800d320:	42263d10 22b2afdc a0c31dbb aeedf397     .=&B..."........
 800d330:	0000001c 00000000 00000000 65000000     ...............e
 800d340:	455b7462 3632434e 6c70735d 6e697469     bt[ENC26]splitin
 800d350:	735f7469 30706574 0036325f 00000000     it_step0_26.....
 800d360:	02010000 c6620f10 458b62c7 dd8f9e9e     ......b..b.E....
 800d370:	25177475 c4eb102e 240c7442 06f7df33     ut.%....Bt.$3...
 800d380:	c1abd933 0000155d 00000000 00000000     3...]...........
	...
 800d3dc:	455b7400 3632434e 6c70735d 6e697469     .t[ENC26]splitin
 800d3ec:	735f7469 31706574 0036325f 00000000     it_step1_26.....
 800d3fc:	02020000 c6620f10 458b62c7 dd8f9e9e     ......b..b.E....
 800d40c:	25177475 c4eb102e 240c7442 06f7df33     ut.%....Bt.$3...
 800d41c:	c1abd933 0000155d 00000000 00000000     3...]...........
	...
 800d478:	455b7400 3632434e 6c70735d 6e697469     .t[ENC26]splitin
 800d488:	735f7469 32706574 0036325f 00000000     it_step2_26.....
 800d498:	03080000 c6620f10 458b62c7 dd8f9e9e     ......b..b.E....
 800d4a8:	25177475 c4eb102e 240c7442 06f7df33     ut.%....Bt.$3...
 800d4b8:	c1abd933 0000155d 00000000 00000000     3...]...........
	...
 800d4f4:	3d100000 afdc4226 1dbb22b2 f397a0c3     ...=&B..."......
 800d504:	001caeed 00000000 00000000 00000000     ................
 800d514:	74626500 4345445b 665d3632 5f6c6c75     .ebt[DEC26]full_
 800d524:	00003632 00000000 00000000 00000000     26..............
 800d534:	00000000 4e100315 950c69db 31abfa7d     .......N.i..}..1
 800d544:	2283b906 10bccb4d 8c3637b6 85f3c1b3     ..."M....76.....
 800d554:	76144668 5a5e73a4 00000000 00000000     hF.v.s^Z........
	...
 800d594:	98043d10 622af40c 6cc659be 71b3c094     .=....*b.Y.l...q
 800d5a4:	000000d4 00000000 00000000 65000000     ...............e
 800d5b4:	445b7462 36324345 6c70735d 735f7469     bt[DEC26]split_s
 800d5c4:	30706574 0036325f 00000000 00000000     tep0_26.........
 800d5d4:	02050000 69db4e10 fa7d950c b90631ab     .....N.i..}..1..
 800d5e4:	cb4d2283 37b610bc c1b38c36 466885f3     ."M....76.....hF
 800d5f4:	73a47614 00005a5e 00000000 00000000     .v.s^Z..........
	...
 800d650:	445b7400 36324345 6c70735d 735f7469     .t[DEC26]split_s
 800d660:	31706574 0036325f 00000000 00000000     tep1_26.........
 800d670:	03100000 69db4e10 fa7d950c b90631ab     .....N.i..}..1..
 800d680:	cb4d2283 37b610bc c1b38c36 466885f3     ."M....76.....hF
 800d690:	73a47614 00005a5e 00000000 00000000     .v.s^Z..........
	...
 800d6cc:	3d100000 f40c9804 59be622a c0946cc6     ...=....*b.Y.l..
 800d6dc:	00d471b3 00000000 00000000 00000000     .q..............
 800d6ec:	74626500 4345445b 735d3632 74696c70     .ebt[DEC26]split
 800d6fc:	74696e69 6574735f 325f3070 00000036     init_step0_26...
 800d70c:	00000000 4e100201 950c69db 31abfa7d     .......N.i..}..1
 800d71c:	2283b906 10bccb4d 8c3637b6 85f3c1b3     ..."M....76.....
 800d72c:	76144668 5a5e73a4 00000000 00000000     hF.v.s^Z........
	...
 800d788:	74000000 4345445b 735d3632 74696c70     ...t[DEC26]split
 800d798:	74696e69 6574735f 325f3170 00000036     init_step1_26...
 800d7a8:	00000000 4e100204 950c69db 31abfa7d     .......N.i..}..1
 800d7b8:	2283b906 10bccb4d 8c3637b6 85f3c1b3     ..."M....76.....
 800d7c8:	76144668 5a5e73a4 00000000 00000000     hF.v.s^Z........
	...
 800d824:	74000000 4345445b 735d3632 74696c70     ...t[DEC26]split
 800d834:	74696e69 6574735f 325f3270 00000036     init_step2_26...
 800d844:	00000000 4e100310 950c69db 31abfa7d     .......N.i..}..1
 800d854:	2283b906 10bccb4d 8c3637b6 85f3c1b3     ..."M....76.....
 800d864:	76144668 5a5e73a4 00000000 00000000     hF.v.s^Z........
	...
 800d8a4:	98043d10 622af40c 6cc659be 71b3c094     .=....*b.Y.l...q
 800d8b4:	000000d4 00000000 00000000 65000000     ...............e
 800d8c4:	455b7462 3732434e 6c75665d 37325f6c     bt[ENC27]full_27
	...
 800d8e4:	030b0000 3e3e7710 6512f20a 1ab55314     .....w>>...e.S..
 800d8f4:	d5ac6bf5 8aae105d ebcb1d93 98495941     .k..].......AYI.
 800d904:	b37c9ec3 0000dd1e 00000000 00000000     ..|.............
	...
 800d940:	15100000 6f8d8f95 a47b29f9 86da8f03     .......o.){.....
 800d950:	00a5a4c6 00000000 00000000 00000000     ................
 800d960:	74626500 434e455b 735d3732 74696c70     .ebt[ENC27]split
 800d970:	6574735f 325f3070 00000037 00000000     _step0_27.......
 800d980:	00000000 77100203 f20a3e3e 53146512     .......w>>...e.S
 800d990:	6bf51ab5 105dd5ac 1d938aae 5941ebcb     ...k..].......AY
 800d9a0:	9ec39849 dd1eb37c 00000000 00000000     I...|...........
	...
 800d9fc:	74000000 434e455b 735d3732 74696c70     ...t[ENC27]split
 800da0c:	6574735f 325f3170 00000037 00000000     _step1_27.......
 800da1c:	00000000 77100308 f20a3e3e 53146512     .......w>>...e.S
 800da2c:	6bf51ab5 105dd5ac 1d938aae 5941ebcb     ...k..].......AY
 800da3c:	9ec39849 dd1eb37c 00000000 00000000     I...|...........
	...
 800da7c:	8f951510 29f96f8d 8f03a47b a4c686da     .....o.){.......
 800da8c:	000000a5 00000000 00000000 65000000     ...............e
 800da9c:	455b7462 3732434e 6c70735d 6e697469     bt[ENC27]splitin
 800daac:	735f7469 30706574 0037325f 00000000     it_step0_27.....
 800dabc:	02010000 3e3e7710 6512f20a 1ab55314     .....w>>...e.S..
 800dacc:	d5ac6bf5 8aae105d ebcb1d93 98495941     .k..].......AYI.
 800dadc:	b37c9ec3 0000dd1e 00000000 00000000     ..|.............
	...
 800db38:	455b7400 3732434e 6c70735d 6e697469     .t[ENC27]splitin
 800db48:	735f7469 31706574 0037325f 00000000     it_step1_27.....
 800db58:	02020000 3e3e7710 6512f20a 1ab55314     .....w>>...e.S..
 800db68:	d5ac6bf5 8aae105d ebcb1d93 98495941     .k..].......AYI.
 800db78:	b37c9ec3 0000dd1e 00000000 00000000     ..|.............
	...
 800dbd4:	455b7400 3732434e 6c70735d 6e697469     .t[ENC27]splitin
 800dbe4:	735f7469 32706574 0037325f 00000000     it_step2_27.....
 800dbf4:	03080000 3e3e7710 6512f20a 1ab55314     .....w>>...e.S..
 800dc04:	d5ac6bf5 8aae105d ebcb1d93 98495941     .k..].......AYI.
 800dc14:	b37c9ec3 0000dd1e 00000000 00000000     ..|.............
	...
 800dc50:	15100000 6f8d8f95 a47b29f9 86da8f03     .......o.){.....
 800dc60:	00a5a4c6 00000000 00000000 00000000     ................
 800dc70:	74626500 4345445b 665d3732 5f6c6c75     .ebt[DEC27]full_
 800dc80:	00003732 00000000 00000000 00000000     27..............
 800dc90:	00000000 60100315 d5f115cd 6fb31a3e     .......`....>..o
 800dca0:	eab7c414 1002c66c de87a8d8 20d525ec     ....l........%. 
 800dcb0:	63ece186 2e273963 00000000 00000000     ...cc9'.........
	...
 800dcf0:	428a3c10 98c0d448 31a337b9 93867564     .<.BH....7.1du..
 800dd00:	00000071 00000000 00000000 65000000     q..............e
 800dd10:	445b7462 37324345 6c70735d 735f7469     bt[DEC27]split_s
 800dd20:	30706574 0037325f 00000000 00000000     tep0_27.........
 800dd30:	02050000 15cd6010 1a3ed5f1 c4146fb3     .....`....>..o..
 800dd40:	c66ceab7 a8d81002 25ecde87 e18620d5     ..l........%. ..
 800dd50:	396363ec 00002e27 00000000 00000000     .cc9'...........
	...
 800ddac:	445b7400 37324345 6c70735d 735f7469     .t[DEC27]split_s
 800ddbc:	31706574 0037325f 00000000 00000000     tep1_27.........
 800ddcc:	03100000 15cd6010 1a3ed5f1 c4146fb3     .....`....>..o..
 800dddc:	c66ceab7 a8d81002 25ecde87 e18620d5     ..l........%. ..
 800ddec:	396363ec 00002e27 00000000 00000000     .cc9'...........
	...
 800de28:	3c100000 d448428a 37b998c0 756431a3     ...<.BH....7.1du
 800de38:	00719386 00000000 00000000 00000000     ..q.............
 800de48:	74626500 4345445b 735d3732 74696c70     .ebt[DEC27]split
 800de58:	74696e69 6574735f 325f3070 00000037     init_step0_27...
 800de68:	00000000 60100201 d5f115cd 6fb31a3e     .......`....>..o
 800de78:	eab7c414 1002c66c de87a8d8 20d525ec     ....l........%. 
 800de88:	63ece186 2e273963 00000000 00000000     ...cc9'.........
	...
 800dee4:	74000000 4345445b 735d3732 74696c70     ...t[DEC27]split
 800def4:	74696e69 6574735f 325f3170 00000037     init_step1_27...
 800df04:	00000000 60100204 d5f115cd 6fb31a3e     .......`....>..o
 800df14:	eab7c414 1002c66c de87a8d8 20d525ec     ....l........%. 
 800df24:	63ece186 2e273963 00000000 00000000     ...cc9'.........
	...
 800df80:	74000000 4345445b 735d3732 74696c70     ...t[DEC27]split
 800df90:	74696e69 6574735f 325f3270 00000037     init_step2_27...
 800dfa0:	00000000 60100310 d5f115cd 6fb31a3e     .......`....>..o
 800dfb0:	eab7c414 1002c66c de87a8d8 20d525ec     ....l........%. 
 800dfc0:	63ece186 2e273963 00000000 00000000     ...cc9'.........
	...
 800e000:	428a3c10 98c0d448 31a337b9 93867564     .<.BH....7.1du..
 800e010:	00000071 00000000 00000000 65000000     q..............e
 800e020:	455b7462 3832434e 6c75665d 38325f6c     bt[ENC28]full_28
	...
 800e040:	030b0000 8c796010 47da0f67 75c678db     .....`y.g..G.x.u
 800e050:	f3e5e78a 34bc10e0 bed85977 fa9b1b97     .......4wY......
 800e060:	72cca1fa 0000f699 00000000 00000000     ...r............
	...
 800e09c:	80100000 e16c2c44 7163f11a eeea82c1     ....D,l...cq....
 800e0ac:	00d73625 00000000 00000000 00000000     %6..............
 800e0bc:	74626500 434e455b 735d3832 74696c70     .ebt[ENC28]split
 800e0cc:	6574735f 325f3070 00000038 00000000     _step0_28.......
 800e0dc:	00000000 60100203 0f678c79 78db47da     .......`y.g..G.x
 800e0ec:	e78a75c6 10e0f3e5 597734bc 1b97bed8     .u.......4wY....
 800e0fc:	a1fafa9b f69972cc 00000000 00000000     .....r..........
	...
 800e158:	74000000 434e455b 735d3832 74696c70     ...t[ENC28]split
 800e168:	6574735f 325f3170 00000038 00000000     _step1_28.......
 800e178:	00000000 60100308 0f678c79 78db47da     .......`y.g..G.x
 800e188:	e78a75c6 10e0f3e5 597734bc 1b97bed8     .u.......4wY....
 800e198:	a1fafa9b f69972cc 00000000 00000000     .....r..........
	...
 800e1d8:	2c448010 f11ae16c 82c17163 3625eeea     ..D,l...cq....%6
 800e1e8:	000000d7 00000000 00000000 65000000     ...............e
 800e1f8:	455b7462 3832434e 6c70735d 6e697469     bt[ENC28]splitin
 800e208:	735f7469 30706574 0038325f 00000000     it_step0_28.....
 800e218:	02010000 8c796010 47da0f67 75c678db     .....`y.g..G.x.u
 800e228:	f3e5e78a 34bc10e0 bed85977 fa9b1b97     .......4wY......
 800e238:	72cca1fa 0000f699 00000000 00000000     ...r............
	...
 800e294:	455b7400 3832434e 6c70735d 6e697469     .t[ENC28]splitin
 800e2a4:	735f7469 31706574 0038325f 00000000     it_step1_28.....
 800e2b4:	02020000 8c796010 47da0f67 75c678db     .....`y.g..G.x.u
 800e2c4:	f3e5e78a 34bc10e0 bed85977 fa9b1b97     .......4wY......
 800e2d4:	72cca1fa 0000f699 00000000 00000000     ...r............
	...
 800e330:	455b7400 3832434e 6c70735d 6e697469     .t[ENC28]splitin
 800e340:	735f7469 32706574 0038325f 00000000     it_step2_28.....
 800e350:	03080000 8c796010 47da0f67 75c678db     .....`y.g..G.x.u
 800e360:	f3e5e78a 34bc10e0 bed85977 fa9b1b97     .......4wY......
 800e370:	72cca1fa 0000f699 00000000 00000000     ...r............
	...
 800e3ac:	80100000 e16c2c44 7163f11a eeea82c1     ....D,l...cq....
 800e3bc:	00d73625 00000000 00000000 00000000     %6..............
 800e3cc:	74626500 4345445b 665d3832 5f6c6c75     .ebt[DEC28]full_
 800e3dc:	00003832 00000000 00000000 00000000     28..............
 800e3ec:	00000000 81100315 30a8bd82 2c866a7d     ...........0}j.,
 800e3fc:	82b28e5e 1060cbbe c1884c96 18240af7     ^.....`..L....$.
 800e40c:	cf698b5f 95a71032 00000000 00000000     _.i.2...........
	...
 800e44c:	39ed4c10 80724d6f 826aa0fc bda5078f     .L.9oMr...j.....
 800e45c:	00000006 00000000 00000000 65000000     ...............e
 800e46c:	445b7462 38324345 6c70735d 735f7469     bt[DEC28]split_s
 800e47c:	30706574 0038325f 00000000 00000000     tep0_28.........
 800e48c:	02050000 bd828110 6a7d30a8 8e5e2c86     .........0}j.,^.
 800e49c:	cbbe82b2 4c961060 0af7c188 8b5f1824     ....`..L....$._.
 800e4ac:	1032cf69 000095a7 00000000 00000000     i.2.............
	...
 800e508:	445b7400 38324345 6c70735d 735f7469     .t[DEC28]split_s
 800e518:	31706574 0038325f 00000000 00000000     tep1_28.........
 800e528:	03100000 bd828110 6a7d30a8 8e5e2c86     .........0}j.,^.
 800e538:	cbbe82b2 4c961060 0af7c188 8b5f1824     ....`..L....$._.
 800e548:	1032cf69 000095a7 00000000 00000000     i.2.............
	...
 800e584:	4c100000 4d6f39ed a0fc8072 078f826a     ...L.9oMr...j...
 800e594:	0006bda5 00000000 00000000 00000000     ................
 800e5a4:	74626500 4345445b 735d3832 74696c70     .ebt[DEC28]split
 800e5b4:	74696e69 6574735f 325f3070 00000038     init_step0_28...
 800e5c4:	00000000 81100201 30a8bd82 2c866a7d     ...........0}j.,
 800e5d4:	82b28e5e 1060cbbe c1884c96 18240af7     ^.....`..L....$.
 800e5e4:	cf698b5f 95a71032 00000000 00000000     _.i.2...........
	...
 800e640:	74000000 4345445b 735d3832 74696c70     ...t[DEC28]split
 800e650:	74696e69 6574735f 325f3170 00000038     init_step1_28...
 800e660:	00000000 81100204 30a8bd82 2c866a7d     ...........0}j.,
 800e670:	82b28e5e 1060cbbe c1884c96 18240af7     ^.....`..L....$.
 800e680:	cf698b5f 95a71032 00000000 00000000     _.i.2...........
	...
 800e6dc:	74000000 4345445b 735d3832 74696c70     ...t[DEC28]split
 800e6ec:	74696e69 6574735f 325f3270 00000038     init_step2_28...
 800e6fc:	00000000 81100310 30a8bd82 2c866a7d     ...........0}j.,
 800e70c:	82b28e5e 1060cbbe c1884c96 18240af7     ^.....`..L....$.
 800e71c:	cf698b5f 95a71032 00000000 00000000     _.i.2...........
	...
 800e75c:	39ed4c10 80724d6f 826aa0fc bda5078f     .L.9oMr...j.....
 800e76c:	00000006 00000000 00000000 65000000     ...............e
 800e77c:	455b7462 3932434e 6c75665d 39325f6c     bt[ENC29]full_29
	...
 800e79c:	030b0000 3363a310 62eccc71 124174a0     ......c3q..b.tA.
 800e7ac:	e9474a62 126410b5 89f738fa b2af6fe4     bJG...d..8...o..
 800e7bc:	1ccbfa80 000086f7 00000000 00000000     ................
	...
 800e7f8:	a9100000 bb07740e 4eb4e036 768b4db1     .....t..6..N.M.v
 800e808:	000d2ad3 00000000 00000000 00000000     .*..............
 800e818:	74626500 434e455b 735d3932 74696c70     .ebt[ENC29]split
 800e828:	6574735f 325f3070 00000039 00000000     _step0_29.......
 800e838:	00000000 a3100203 cc713363 74a062ec     ........c3q..b.t
 800e848:	4a621241 10b5e947 38fa1264 6fe489f7     A.bJG...d..8...o
 800e858:	fa80b2af 86f71ccb 00000000 00000000     ................
	...
 800e8b4:	74000000 434e455b 735d3932 74696c70     ...t[ENC29]split
 800e8c4:	6574735f 325f3170 00000039 00000000     _step1_29.......
 800e8d4:	00000000 a3100308 cc713363 74a062ec     ........c3q..b.t
 800e8e4:	4a621241 10b5e947 38fa1264 6fe489f7     A.bJG...d..8...o
 800e8f4:	fa80b2af 86f71ccb 00000000 00000000     ................
	...
 800e934:	740ea910 e036bb07 4db14eb4 2ad3768b     ...t..6..N.M.v.*
 800e944:	0000000d 00000000 00000000 65000000     ...............e
 800e954:	455b7462 3932434e 6c70735d 6e697469     bt[ENC29]splitin
 800e964:	735f7469 30706574 0039325f 00000000     it_step0_29.....
 800e974:	02010000 3363a310 62eccc71 124174a0     ......c3q..b.tA.
 800e984:	e9474a62 126410b5 89f738fa b2af6fe4     bJG...d..8...o..
 800e994:	1ccbfa80 000086f7 00000000 00000000     ................
	...
 800e9f0:	455b7400 3932434e 6c70735d 6e697469     .t[ENC29]splitin
 800ea00:	735f7469 31706574 0039325f 00000000     it_step1_29.....
 800ea10:	02020000 3363a310 62eccc71 124174a0     ......c3q..b.tA.
 800ea20:	e9474a62 126410b5 89f738fa b2af6fe4     bJG...d..8...o..
 800ea30:	1ccbfa80 000086f7 00000000 00000000     ................
	...
 800ea8c:	455b7400 3932434e 6c70735d 6e697469     .t[ENC29]splitin
 800ea9c:	735f7469 32706574 0039325f 00000000     it_step2_29.....
 800eaac:	03080000 3363a310 62eccc71 124174a0     ......c3q..b.tA.
 800eabc:	e9474a62 126410b5 89f738fa b2af6fe4     bJG...d..8...o..
 800eacc:	1ccbfa80 000086f7 00000000 00000000     ................
	...
 800eb08:	a9100000 bb07740e 4eb4e036 768b4db1     .....t..6..N.M.v
 800eb18:	000d2ad3 00000000 00000000 00000000     .*..............
 800eb28:	74626500 4345445b 665d3932 5f6c6c75     .ebt[DEC29]full_
 800eb38:	00003932 00000000 00000000 00000000     29..............
 800eb48:	00000000 ef100315 b8d2f226 d07a215b     ........&...[!z.
 800eb58:	d6b284c7 10c6b62d 4faa71ad 374a0de4     ....-....q.O..J7
 800eb68:	6d31e39a 4e9804f1 00000000 00000000     ..1m...N........
	...
 800eba8:	5590f010 ad011b55 5fb58aa0 a8009346     ...UU......_F...
 800ebb8:	000000c0 00000000 00000000 65000000     ...............e
 800ebc8:	445b7462 39324345 6c70735d 735f7469     bt[DEC29]split_s
 800ebd8:	30706574 0039325f 00000000 00000000     tep0_29.........
 800ebe8:	02050000 f226ef10 215bb8d2 84c7d07a     ......&...[!z...
 800ebf8:	b62dd6b2 71ad10c6 0de44faa e39a374a     ..-....q.O..J7..
 800ec08:	04f16d31 00004e98 00000000 00000000     1m...N..........
	...
 800ec64:	445b7400 39324345 6c70735d 735f7469     .t[DEC29]split_s
 800ec74:	31706574 0039325f 00000000 00000000     tep1_29.........
 800ec84:	03100000 f226ef10 215bb8d2 84c7d07a     ......&...[!z...
 800ec94:	b62dd6b2 71ad10c6 0de44faa e39a374a     ..-....q.O..J7..
 800eca4:	04f16d31 00004e98 00000000 00000000     1m...N..........
	...
 800ece0:	f0100000 1b555590 8aa0ad01 93465fb5     .....UU......_F.
 800ecf0:	00c0a800 00000000 00000000 00000000     ................
 800ed00:	74626500 4345445b 735d3932 74696c70     .ebt[DEC29]split
 800ed10:	74696e69 6574735f 325f3070 00000039     init_step0_29...
 800ed20:	00000000 ef100201 b8d2f226 d07a215b     ........&...[!z.
 800ed30:	d6b284c7 10c6b62d 4faa71ad 374a0de4     ....-....q.O..J7
 800ed40:	6d31e39a 4e9804f1 00000000 00000000     ..1m...N........
	...
 800ed9c:	74000000 4345445b 735d3932 74696c70     ...t[DEC29]split
 800edac:	74696e69 6574735f 325f3170 00000039     init_step1_29...
 800edbc:	00000000 ef100204 b8d2f226 d07a215b     ........&...[!z.
 800edcc:	d6b284c7 10c6b62d 4faa71ad 374a0de4     ....-....q.O..J7
 800eddc:	6d31e39a 4e9804f1 00000000 00000000     ..1m...N........
	...
 800ee38:	74000000 4345445b 735d3932 74696c70     ...t[DEC29]split
 800ee48:	74696e69 6574735f 325f3270 00000039     init_step2_29...
 800ee58:	00000000 ef100310 b8d2f226 d07a215b     ........&...[!z.
 800ee68:	d6b284c7 10c6b62d 4faa71ad 374a0de4     ....-....q.O..J7
 800ee78:	6d31e39a 4e9804f1 00000000 00000000     ..1m...N........
	...
 800eeb8:	5590f010 ad011b55 5fb58aa0 a8009346     ...UU......_F...
 800eec8:	000000c0 00000000 00000000 65000000     ...............e
 800eed8:	455b7462 3033434e 6c75665d 30335f6c     bt[ENC30]full_30
	...
 800eef8:	030b0000 34dc7f10 4bd81826 7ff83400     .......4&..K.4..
 800ef08:	75241768 cdf51080 fd79e31f 7220af93     h.$u......y... r
 800ef18:	0bb8497a 00005848 00000000 00000000     zI..HX..........
	...
 800ef54:	f0100000 f71ef4bf 2def31ac b845ae09     .........1.-..E.
 800ef64:	002f1386 00000000 00000000 00000000     ../.............
 800ef74:	74626500 434e455b 735d3033 74696c70     .ebt[ENC30]split
 800ef84:	6574735f 335f3070 00000030 00000000     _step0_30.......
 800ef94:	00000000 7f100203 182634dc 34004bd8     .........4&..K.4
 800efa4:	17687ff8 10807524 e31fcdf5 af93fd79     ..h.$u......y...
 800efb4:	497a7220 58480bb8 00000000 00000000      rzI..HX........
	...
 800f010:	74000000 434e455b 735d3033 74696c70     ...t[ENC30]split
 800f020:	6574735f 335f3170 00000030 00000000     _step1_30.......
 800f030:	00000000 7f100308 182634dc 34004bd8     .........4&..K.4
 800f040:	17687ff8 10807524 e31fcdf5 af93fd79     ..h.$u......y...
 800f050:	497a7220 58480bb8 00000000 00000000      rzI..HX........
	...
 800f090:	f4bff010 31acf71e ae092def 1386b845     .......1.-..E...
 800f0a0:	0000002f 00000000 00000000 65000000     /..............e
 800f0b0:	455b7462 3033434e 6c70735d 6e697469     bt[ENC30]splitin
 800f0c0:	735f7469 30706574 0030335f 00000000     it_step0_30.....
 800f0d0:	02010000 34dc7f10 4bd81826 7ff83400     .......4&..K.4..
 800f0e0:	75241768 cdf51080 fd79e31f 7220af93     h.$u......y... r
 800f0f0:	0bb8497a 00005848 00000000 00000000     zI..HX..........
	...
 800f14c:	455b7400 3033434e 6c70735d 6e697469     .t[ENC30]splitin
 800f15c:	735f7469 31706574 0030335f 00000000     it_step1_30.....
 800f16c:	02020000 34dc7f10 4bd81826 7ff83400     .......4&..K.4..
 800f17c:	75241768 cdf51080 fd79e31f 7220af93     h.$u......y... r
 800f18c:	0bb8497a 00005848 00000000 00000000     zI..HX..........
	...
 800f1e8:	455b7400 3033434e 6c70735d 6e697469     .t[ENC30]splitin
 800f1f8:	735f7469 32706574 0030335f 00000000     it_step2_30.....
 800f208:	03080000 34dc7f10 4bd81826 7ff83400     .......4&..K.4..
 800f218:	75241768 cdf51080 fd79e31f 7220af93     h.$u......y... r
 800f228:	0bb8497a 00005848 00000000 00000000     zI..HX..........
	...
 800f264:	f0100000 f71ef4bf 2def31ac b845ae09     .........1.-..E.
 800f274:	002f1386 00000000 00000000 00000000     ../.............
 800f284:	74626500 4345445b 665d3033 5f6c6c75     .ebt[DEC30]full_
 800f294:	00003033 00000000 00000000 00000000     30..............
 800f2a4:	00000000 69100315 92b2a568 0e2742b8     .......ih....B'.
 800f2b4:	8e1089a7 10d8a567 c0a21fa0 9c17f820     ....g....... ...
 800f2c4:	b51b046d f4543c43 00000000 00000000     m...C<T.........
	...
 800f304:	768bc610 ffa69828 76c048c9 426fc0db     ...v(....H.v..oB
 800f314:	00000051 00000000 00000000 65000000     Q..............e
 800f324:	445b7462 30334345 6c70735d 735f7469     bt[DEC30]split_s
 800f334:	30706574 0030335f 00000000 00000000     tep0_30.........
 800f344:	02050000 a5686910 42b892b2 89a70e27     .....ih....B'...
 800f354:	a5678e10 1fa010d8 f820c0a2 046d9c17     ..g....... ...m.
 800f364:	3c43b51b 0000f454 00000000 00000000     ..C<T...........
	...
 800f3c0:	445b7400 30334345 6c70735d 735f7469     .t[DEC30]split_s
 800f3d0:	31706574 0030335f 00000000 00000000     tep1_30.........
 800f3e0:	03100000 a5686910 42b892b2 89a70e27     .....ih....B'...
 800f3f0:	a5678e10 1fa010d8 f820c0a2 046d9c17     ..g....... ...m.
 800f400:	3c43b51b 0000f454 00000000 00000000     ..C<T...........
	...
 800f43c:	c6100000 9828768b 48c9ffa6 c0db76c0     .....v(....H.v..
 800f44c:	0051426f 00000000 00000000 00000000     oBQ.............
 800f45c:	74626500 4345445b 735d3033 74696c70     .ebt[DEC30]split
 800f46c:	74696e69 6574735f 335f3070 00000030     init_step0_30...
 800f47c:	00000000 69100201 92b2a568 0e2742b8     .......ih....B'.
 800f48c:	8e1089a7 10d8a567 c0a21fa0 9c17f820     ....g....... ...
 800f49c:	b51b046d f4543c43 00000000 00000000     m...C<T.........
	...
 800f4f8:	74000000 4345445b 735d3033 74696c70     ...t[DEC30]split
 800f508:	74696e69 6574735f 335f3170 00000030     init_step1_30...
 800f518:	00000000 69100204 92b2a568 0e2742b8     .......ih....B'.
 800f528:	8e1089a7 10d8a567 c0a21fa0 9c17f820     ....g....... ...
 800f538:	b51b046d f4543c43 00000000 00000000     m...C<T.........
	...
 800f594:	74000000 4345445b 735d3033 74696c70     ...t[DEC30]split
 800f5a4:	74696e69 6574735f 335f3270 00000030     init_step2_30...
 800f5b4:	00000000 69100310 92b2a568 0e2742b8     .......ih....B'.
 800f5c4:	8e1089a7 10d8a567 c0a21fa0 9c17f820     ....g....... ...
 800f5d4:	b51b046d f4543c43 00000000 00000000     m...C<T.........
	...
 800f614:	768bc610 ffa69828 76c048c9 426fc0db     ...v(....H.v..oB
 800f624:	00000051 00000000 00000000 65000000     Q..............e
 800f634:	455b7462 3133434e 6c75665d 31335f6c     bt[ENC31]full_31
	...
 800f654:	030b0000 87060d10 e9ccb478 815c4c3c     ........x...<L\.
 800f664:	80b48933 ede810ae 2221e1de 867611f3     3.........!"..v.
 800f674:	cb361b6a 0000c4dd 00000000 00000000     j.6.............
	...
 800f6b0:	35100000 ba819e9d 09fb144f b207479c     ...5....O....G..
 800f6c0:	00e7f7a8 00000000 00000000 00000000     ................
 800f6d0:	74626500 434e455b 735d3133 74696c70     .ebt[ENC31]split
 800f6e0:	6574735f 335f3070 00000031 00000000     _step0_31.......
 800f6f0:	00000000 0d100203 b4788706 4c3ce9cc     ..........x...<L
 800f700:	8933815c 10ae80b4 e1deede8 11f32221     \.3.........!"..
 800f710:	1b6a8676 c4ddcb36 00000000 00000000     v.j.6...........
	...
 800f76c:	74000000 434e455b 735d3133 74696c70     ...t[ENC31]split
 800f77c:	6574735f 335f3170 00000031 00000000     _step1_31.......
 800f78c:	00000000 0d100308 b4788706 4c3ce9cc     ..........x...<L
 800f79c:	8933815c 10ae80b4 e1deede8 11f32221     \.3.........!"..
 800f7ac:	1b6a8676 c4ddcb36 00000000 00000000     v.j.6...........
	...
 800f7ec:	9e9d3510 144fba81 479c09fb f7a8b207     .5....O....G....
 800f7fc:	000000e7 00000000 00000000 65000000     ...............e
 800f80c:	455b7462 3133434e 6c70735d 6e697469     bt[ENC31]splitin
 800f81c:	735f7469 30706574 0031335f 00000000     it_step0_31.....
 800f82c:	02010000 87060d10 e9ccb478 815c4c3c     ........x...<L\.
 800f83c:	80b48933 ede810ae 2221e1de 867611f3     3.........!"..v.
 800f84c:	cb361b6a 0000c4dd 00000000 00000000     j.6.............
	...
 800f8a8:	455b7400 3133434e 6c70735d 6e697469     .t[ENC31]splitin
 800f8b8:	735f7469 31706574 0031335f 00000000     it_step1_31.....
 800f8c8:	02020000 87060d10 e9ccb478 815c4c3c     ........x...<L\.
 800f8d8:	80b48933 ede810ae 2221e1de 867611f3     3.........!"..v.
 800f8e8:	cb361b6a 0000c4dd 00000000 00000000     j.6.............
	...
 800f944:	455b7400 3133434e 6c70735d 6e697469     .t[ENC31]splitin
 800f954:	735f7469 32706574 0031335f 00000000     it_step2_31.....
 800f964:	03080000 87060d10 e9ccb478 815c4c3c     ........x...<L\.
 800f974:	80b48933 ede810ae 2221e1de 867611f3     3.........!"..v.
 800f984:	cb361b6a 0000c4dd 00000000 00000000     j.6.............
	...
 800f9c0:	35100000 ba819e9d 09fb144f b207479c     ...5....O....G..
 800f9d0:	00e7f7a8 00000000 00000000 00000000     ................
 800f9e0:	74626500 4345445b 665d3133 5f6c6c75     .ebt[DEC31]full_
 800f9f0:	00003133 00000000 00000000 00000000     31..............
 800fa00:	00000000 cc100315 bc2821f3 fd19b73f     .........!(.?...
 800fa10:	1e4c2fcb 10a69125 1fe7b1c9 d99e3ae0     ./L.%........:..
 800fa20:	c15b611f c70c2e48 00000000 00000000     .a[.H...........
	...
 800fa60:	90eb2510 c6523297 5df1c652 39301fae     .%...2R.R..]..09
 800fa70:	0000004a 00000000 00000000 65000000     J..............e
 800fa80:	445b7462 31334345 6c70735d 735f7469     bt[DEC31]split_s
 800fa90:	30706574 0031335f 00000000 00000000     tep0_31.........
 800faa0:	02050000 21f3cc10 b73fbc28 2fcbfd19     .......!(.?..../
 800fab0:	91251e4c b1c910a6 3ae01fe7 611fd99e     L.%........:...a
 800fac0:	2e48c15b 0000c70c 00000000 00000000     [.H.............
	...
 800fb1c:	445b7400 31334345 6c70735d 735f7469     .t[DEC31]split_s
 800fb2c:	31706574 0031335f 00000000 00000000     tep1_31.........
 800fb3c:	03100000 21f3cc10 b73fbc28 2fcbfd19     .......!(.?..../
 800fb4c:	91251e4c b1c910a6 3ae01fe7 611fd99e     L.%........:...a
 800fb5c:	2e48c15b 0000c70c 00000000 00000000     [.H.............
	...
 800fb98:	25100000 329790eb c652c652 1fae5df1     ...%...2R.R..]..
 800fba8:	004a3930 00000000 00000000 00000000     09J.............
 800fbb8:	74626500 4345445b 735d3133 74696c70     .ebt[DEC31]split
 800fbc8:	74696e69 6574735f 335f3070 00000031     init_step0_31...
 800fbd8:	00000000 cc100201 bc2821f3 fd19b73f     .........!(.?...
 800fbe8:	1e4c2fcb 10a69125 1fe7b1c9 d99e3ae0     ./L.%........:..
 800fbf8:	c15b611f c70c2e48 00000000 00000000     .a[.H...........
	...
 800fc54:	74000000 4345445b 735d3133 74696c70     ...t[DEC31]split
 800fc64:	74696e69 6574735f 335f3170 00000031     init_step1_31...
 800fc74:	00000000 cc100204 bc2821f3 fd19b73f     .........!(.?...
 800fc84:	1e4c2fcb 10a69125 1fe7b1c9 d99e3ae0     ./L.%........:..
 800fc94:	c15b611f c70c2e48 00000000 00000000     .a[.H...........
	...
 800fcf0:	74000000 4345445b 735d3133 74696c70     ...t[DEC31]split
 800fd00:	74696e69 6574735f 335f3270 00000031     init_step2_31...
 800fd10:	00000000 cc100310 bc2821f3 fd19b73f     .........!(.?...
 800fd20:	1e4c2fcb 10a69125 1fe7b1c9 d99e3ae0     ./L.%........:..
 800fd30:	c15b611f c70c2e48 00000000 00000000     .a[.H...........
	...
 800fd70:	90eb2510 c6523297 5df1c652 39301fae     .%...2R.R..]..09
 800fd80:	0000004a 00000000 00000000 65000000     J..............e
 800fd90:	455b7462 3233434e 6c75665d 32335f6c     bt[ENC32]full_32
	...
 800fdb0:	030b0000 5f8ffd10 faf85276 b43f49b3     ......._vR...I?.
 800fdc0:	2ea59840 d9da10da 72a14b2f 2360458a     @......./K.r.E`#
 800fdd0:	c486e89f 0000d2de 00000000 00000000     ................
	...
 800fe0c:	4a100000 3760e596 6e38b53b 27b7a1c5     ...J..`7;.8n...'
 800fe1c:	00f74742 00000000 00000000 00000000     BG..............
 800fe2c:	74626500 434e455b 735d3233 74696c70     .ebt[ENC32]split
 800fe3c:	6574735f 335f3070 00000032 00000000     _step0_32.......
 800fe4c:	00000000 fd100203 52765f8f 49b3faf8     ........._vR...I
 800fe5c:	9840b43f 10da2ea5 4b2fd9da 458a72a1     ?.@......./K.r.E
 800fe6c:	e89f2360 d2dec486 00000000 00000000     `#..............
	...
 800fec8:	74000000 434e455b 735d3233 74696c70     ...t[ENC32]split
 800fed8:	6574735f 335f3170 00000032 00000000     _step1_32.......
 800fee8:	00000000 fd100308 52765f8f 49b3faf8     ........._vR...I
 800fef8:	9840b43f 10da2ea5 4b2fd9da 458a72a1     ?.@......./K.r.E
 800ff08:	e89f2360 d2dec486 00000000 00000000     `#..............
	...
 800ff48:	e5964a10 b53b3760 a1c56e38 474227b7     .J..`7;.8n...'BG
 800ff58:	000000f7 00000000 00000000 65000000     ...............e
 800ff68:	455b7462 3233434e 6c70735d 6e697469     bt[ENC32]splitin
 800ff78:	735f7469 30706574 0032335f 00000000     it_step0_32.....
 800ff88:	02010000 5f8ffd10 faf85276 b43f49b3     ......._vR...I?.
 800ff98:	2ea59840 d9da10da 72a14b2f 2360458a     @......./K.r.E`#
 800ffa8:	c486e89f 0000d2de 00000000 00000000     ................
	...
 8010004:	455b7400 3233434e 6c70735d 6e697469     .t[ENC32]splitin
 8010014:	735f7469 31706574 0032335f 00000000     it_step1_32.....
 8010024:	02020000 5f8ffd10 faf85276 b43f49b3     ......._vR...I?.
 8010034:	2ea59840 d9da10da 72a14b2f 2360458a     @......./K.r.E`#
 8010044:	c486e89f 0000d2de 00000000 00000000     ................
	...
 80100a0:	455b7400 3233434e 6c70735d 6e697469     .t[ENC32]splitin
 80100b0:	735f7469 32706574 0032335f 00000000     it_step2_32.....
 80100c0:	03080000 5f8ffd10 faf85276 b43f49b3     ......._vR...I?.
 80100d0:	2ea59840 d9da10da 72a14b2f 2360458a     @......./K.r.E`#
 80100e0:	c486e89f 0000d2de 00000000 00000000     ................
	...
 801011c:	4a100000 3760e596 6e38b53b 27b7a1c5     ...J..`7;.8n...'
 801012c:	00f74742 00000000 00000000 00000000     BG..............
 801013c:	74626500 4345445b 665d3233 5f6c6c75     .ebt[DEC32]full_
 801014c:	00003233 00000000 00000000 00000000     32..............
 801015c:	00000000 08100315 a1ee96c0 545e182e     ..............^T
 801016c:	fb95feb5 10e0457c 6408e612 956a313b     ....|E.....d;1j.
 801017c:	fd695dd5 9e3681d0 00000000 00000000     .]i...6.........
	...
 80101bc:	f5e89c10 4c2e4097 d37dfcf8 3942ac6e     .....@.L..}.n.B9
 80101cc:	00000040 00000000 00000000 65000000     @..............e
 80101dc:	445b7462 32334345 6c70735d 735f7469     bt[DEC32]split_s
 80101ec:	30706574 0032335f 00000000 00000000     tep0_32.........
 80101fc:	02050000 96c00810 182ea1ee feb5545e     ............^T..
 801020c:	457cfb95 e61210e0 313b6408 5dd5956a     ..|E.....d;1j..]
 801021c:	81d0fd69 00009e36 00000000 00000000     i...6...........
	...
 8010278:	445b7400 32334345 6c70735d 735f7469     .t[DEC32]split_s
 8010288:	31706574 0032335f 00000000 00000000     tep1_32.........
 8010298:	03100000 96c00810 182ea1ee feb5545e     ............^T..
 80102a8:	457cfb95 e61210e0 313b6408 5dd5956a     ..|E.....d;1j..]
 80102b8:	81d0fd69 00009e36 00000000 00000000     i...6...........
	...
 80102f4:	9c100000 4097f5e8 fcf84c2e ac6ed37d     .......@.L..}.n.
 8010304:	00403942 00000000 00000000 00000000     B9@.............
 8010314:	74626500 4345445b 735d3233 74696c70     .ebt[DEC32]split
 8010324:	74696e69 6574735f 335f3070 00000032     init_step0_32...
 8010334:	00000000 08100201 a1ee96c0 545e182e     ..............^T
 8010344:	fb95feb5 10e0457c 6408e612 956a313b     ....|E.....d;1j.
 8010354:	fd695dd5 9e3681d0 00000000 00000000     .]i...6.........
	...
 80103b0:	74000000 4345445b 735d3233 74696c70     ...t[DEC32]split
 80103c0:	74696e69 6574735f 335f3170 00000032     init_step1_32...
 80103d0:	00000000 08100204 a1ee96c0 545e182e     ..............^T
 80103e0:	fb95feb5 10e0457c 6408e612 956a313b     ....|E.....d;1j.
 80103f0:	fd695dd5 9e3681d0 00000000 00000000     .]i...6.........
	...
 801044c:	74000000 4345445b 735d3233 74696c70     ...t[DEC32]split
 801045c:	74696e69 6574735f 335f3270 00000032     init_step2_32...
 801046c:	00000000 08100310 a1ee96c0 545e182e     ..............^T
 801047c:	fb95feb5 10e0457c 6408e612 956a313b     ....|E.....d;1j.
 801048c:	fd695dd5 9e3681d0 00000000 00000000     .]i...6.........
	...
 80104cc:	f5e89c10 4c2e4097 d37dfcf8 3942ac6e     .....@.L..}.n.B9
 80104dc:	00000040 00000000 00000000 65000000     @..............e
 80104ec:	455b7462 3333434e 6c75665d 33335f6c     bt[ENC33]full_33
	...
 801050c:	030b0000 8ecb9410 2cbde72c 9af1ed1d     ........,..,....
 801051c:	07ca5b1f 37c01053 95f045b7 6ff1ae39     .[..S..7.E..9..o
 801052c:	df5aa319 0000370e 00000000 00000000     ..Z..7..........
	...
 8010568:	cb100000 75aadebb ea5aead5 ab708847     .......u..Z.G.p.
 8010578:	006ce7ba 00000000 00000000 00000000     ..l.............
 8010588:	74626500 434e455b 735d3333 74696c70     .ebt[ENC33]split
 8010598:	6574735f 335f3070 00000033 00000000     _step0_33.......
 80105a8:	00000000 94100203 e72c8ecb ed1d2cbd     ..........,..,..
 80105b8:	5b1f9af1 105307ca 45b737c0 ae3995f0     ...[..S..7.E..9.
 80105c8:	a3196ff1 370edf5a 00000000 00000000     .o..Z..7........
	...
 8010624:	74000000 434e455b 735d3333 74696c70     ...t[ENC33]split
 8010634:	6574735f 335f3170 00000033 00000000     _step1_33.......
 8010644:	00000000 94100308 e72c8ecb ed1d2cbd     ..........,..,..
 8010654:	5b1f9af1 105307ca 45b737c0 ae3995f0     ...[..S..7.E..9.
 8010664:	a3196ff1 370edf5a 00000000 00000000     .o..Z..7........
	...
 80106a4:	debbcb10 ead575aa 8847ea5a e7baab70     .....u..Z.G.p...
 80106b4:	0000006c 00000000 00000000 65000000     l..............e
 80106c4:	455b7462 3333434e 6c70735d 6e697469     bt[ENC33]splitin
 80106d4:	735f7469 30706574 0033335f 00000000     it_step0_33.....
 80106e4:	02010000 8ecb9410 2cbde72c 9af1ed1d     ........,..,....
 80106f4:	07ca5b1f 37c01053 95f045b7 6ff1ae39     .[..S..7.E..9..o
 8010704:	df5aa319 0000370e 00000000 00000000     ..Z..7..........
	...
 8010760:	455b7400 3333434e 6c70735d 6e697469     .t[ENC33]splitin
 8010770:	735f7469 31706574 0033335f 00000000     it_step1_33.....
 8010780:	02020000 8ecb9410 2cbde72c 9af1ed1d     ........,..,....
 8010790:	07ca5b1f 37c01053 95f045b7 6ff1ae39     .[..S..7.E..9..o
 80107a0:	df5aa319 0000370e 00000000 00000000     ..Z..7..........
	...
 80107fc:	455b7400 3333434e 6c70735d 6e697469     .t[ENC33]splitin
 801080c:	735f7469 32706574 0033335f 00000000     it_step2_33.....
 801081c:	03080000 8ecb9410 2cbde72c 9af1ed1d     ........,..,....
 801082c:	07ca5b1f 37c01053 95f045b7 6ff1ae39     .[..S..7.E..9..o
 801083c:	df5aa319 0000370e 00000000 00000000     ..Z..7..........
	...
 8010878:	cb100000 75aadebb ea5aead5 ab708847     .......u..Z.G.p.
 8010888:	006ce7ba 00000000 00000000 00000000     ..l.............
 8010898:	74626500 4345445b 665d3333 5f6c6c75     .ebt[DEC33]full_
 80108a8:	00003333 00000000 00000000 00000000     33..............
 80108b8:	00000000 33100315 4f226afc e4a6cc6c     .......3.j"Ol...
 80108c8:	11e38ebc 1042f9ae b0af8ca3 3f871cf8     ......B........?
 80108d8:	eeba9beb 9bd1b692 00000000 00000000     ................
	...
 8010918:	88db8410 8d8af367 334e1970 65440bfd     ....g...p.N3..De
 8010928:	000000a2 00000000 00000000 65000000     ...............e
 8010938:	445b7462 33334345 6c70735d 735f7469     bt[DEC33]split_s
 8010948:	30706574 0033335f 00000000 00000000     tep0_33.........
 8010958:	02050000 6afc3310 cc6c4f22 8ebce4a6     .....3.j"Ol.....
 8010968:	f9ae11e3 8ca31042 1cf8b0af 9beb3f87     ....B........?..
 8010978:	b692eeba 00009bd1 00000000 00000000     ................
	...
 80109d4:	445b7400 33334345 6c70735d 735f7469     .t[DEC33]split_s
 80109e4:	31706574 0033335f 00000000 00000000     tep1_33.........
 80109f4:	03100000 6afc3310 cc6c4f22 8ebce4a6     .....3.j"Ol.....
 8010a04:	f9ae11e3 8ca31042 1cf8b0af 9beb3f87     ....B........?..
 8010a14:	b692eeba 00009bd1 00000000 00000000     ................
	...
 8010a50:	84100000 f36788db 19708d8a 0bfd334e     ......g...p.N3..
 8010a60:	00a26544 00000000 00000000 00000000     De..............
 8010a70:	74626500 4345445b 735d3333 74696c70     .ebt[DEC33]split
 8010a80:	74696e69 6574735f 335f3070 00000033     init_step0_33...
 8010a90:	00000000 33100201 4f226afc e4a6cc6c     .......3.j"Ol...
 8010aa0:	11e38ebc 1042f9ae b0af8ca3 3f871cf8     ......B........?
 8010ab0:	eeba9beb 9bd1b692 00000000 00000000     ................
	...
 8010b0c:	74000000 4345445b 735d3333 74696c70     ...t[DEC33]split
 8010b1c:	74696e69 6574735f 335f3170 00000033     init_step1_33...
 8010b2c:	00000000 33100204 4f226afc e4a6cc6c     .......3.j"Ol...
 8010b3c:	11e38ebc 1042f9ae b0af8ca3 3f871cf8     ......B........?
 8010b4c:	eeba9beb 9bd1b692 00000000 00000000     ................
	...
 8010ba8:	74000000 4345445b 735d3333 74696c70     ...t[DEC33]split
 8010bb8:	74696e69 6574735f 335f3270 00000033     init_step2_33...
 8010bc8:	00000000 33100310 4f226afc e4a6cc6c     .......3.j"Ol...
 8010bd8:	11e38ebc 1042f9ae b0af8ca3 3f871cf8     ......B........?
 8010be8:	eeba9beb 9bd1b692 00000000 00000000     ................
	...
 8010c28:	88db8410 8d8af367 334e1970 65440bfd     ....g...p.N3..De
 8010c38:	000000a2 00000000 00000000 65000000     ...............e
 8010c48:	455b7462 3433434e 6c75665d 34335f6c     bt[ENC34]full_34
	...
 8010c68:	030b0000 d4469410 262373b6 68e4950c     ......F..s#&...h
 8010c78:	980a7092 85dd10cd 6586992f 9a95a813     .p....../..e....
 8010c88:	958120fc 0000cfa7 00000000 00000000     . ..............
	...
 8010cc4:	b2100000 b28e412e 1075b5dd edfb6291     .....A....u..b..
 8010cd4:	00ad0c7a 00000000 00000000 00000000     z...............
 8010ce4:	74626500 434e455b 735d3433 74696c70     .ebt[ENC34]split
 8010cf4:	6574735f 335f3070 00000034 00000000     _step0_34.......
 8010d04:	00000000 94100203 73b6d446 950c2623     ........F..s#&..
 8010d14:	709268e4 10cd980a 992f85dd a8136586     .h.p....../..e..
 8010d24:	20fc9a95 cfa79581 00000000 00000000     ... ............
	...
 8010d80:	74000000 434e455b 735d3433 74696c70     ...t[ENC34]split
 8010d90:	6574735f 335f3170 00000034 00000000     _step1_34.......
 8010da0:	00000000 94100308 73b6d446 950c2623     ........F..s#&..
 8010db0:	709268e4 10cd980a 992f85dd a8136586     .h.p....../..e..
 8010dc0:	20fc9a95 cfa79581 00000000 00000000     ... ............
	...
 8010e00:	412eb210 b5ddb28e 62911075 0c7aedfb     ...A....u..b..z.
 8010e10:	000000ad 00000000 00000000 65000000     ...............e
 8010e20:	455b7462 3433434e 6c70735d 6e697469     bt[ENC34]splitin
 8010e30:	735f7469 30706574 0034335f 00000000     it_step0_34.....
 8010e40:	02010000 d4469410 262373b6 68e4950c     ......F..s#&...h
 8010e50:	980a7092 85dd10cd 6586992f 9a95a813     .p....../..e....
 8010e60:	958120fc 0000cfa7 00000000 00000000     . ..............
	...
 8010ebc:	455b7400 3433434e 6c70735d 6e697469     .t[ENC34]splitin
 8010ecc:	735f7469 31706574 0034335f 00000000     it_step1_34.....
 8010edc:	02020000 d4469410 262373b6 68e4950c     ......F..s#&...h
 8010eec:	980a7092 85dd10cd 6586992f 9a95a813     .p....../..e....
 8010efc:	958120fc 0000cfa7 00000000 00000000     . ..............
	...
 8010f58:	455b7400 3433434e 6c70735d 6e697469     .t[ENC34]splitin
 8010f68:	735f7469 32706574 0034335f 00000000     it_step2_34.....
 8010f78:	03080000 d4469410 262373b6 68e4950c     ......F..s#&...h
 8010f88:	980a7092 85dd10cd 6586992f 9a95a813     .p....../..e....
 8010f98:	958120fc 0000cfa7 00000000 00000000     . ..............
	...
 8010fd4:	b2100000 b28e412e 1075b5dd edfb6291     .....A....u..b..
 8010fe4:	00ad0c7a 00000000 00000000 00000000     z...............
 8010ff4:	74626500 4345445b 665d3433 5f6c6c75     .ebt[DEC34]full_
 8011004:	00003433 00000000 00000000 00000000     34..............
 8011014:	00000000 b2100315 44d862ac 5fcea07b     .........b.D{.._
 8011024:	38bd0c19 102dbeb8 aac94f89 13a41242     ...8..-..O..B...
 8011034:	433f3e11 0c4658d3 00000000 00000000     .>?C.XF.........
	...
 8011074:	5d2b4110 44531ba9 3fe735dc b2d91dc4     .A+]..SD.5.?....
 8011084:	00000062 00000000 00000000 65000000     b..............e
 8011094:	445b7462 34334345 6c70735d 735f7469     bt[DEC34]split_s
 80110a4:	30706574 0034335f 00000000 00000000     tep0_34.........
 80110b4:	02050000 62acb210 a07b44d8 0c195fce     .......b.D{.._..
 80110c4:	beb838bd 4f89102d 1242aac9 3e1113a4     .8..-..O..B....>
 80110d4:	58d3433f 00000c46 00000000 00000000     ?C.XF...........
	...
 8011130:	445b7400 34334345 6c70735d 735f7469     .t[DEC34]split_s
 8011140:	31706574 0034335f 00000000 00000000     tep1_34.........
 8011150:	03100000 62acb210 a07b44d8 0c195fce     .......b.D{.._..
 8011160:	beb838bd 4f89102d 1242aac9 3e1113a4     .8..-..O..B....>
 8011170:	58d3433f 00000c46 00000000 00000000     ?C.XF...........
	...
 80111ac:	41100000 1ba95d2b 35dc4453 1dc43fe7     ...A+]..SD.5.?..
 80111bc:	0062b2d9 00000000 00000000 00000000     ..b.............
 80111cc:	74626500 4345445b 735d3433 74696c70     .ebt[DEC34]split
 80111dc:	74696e69 6574735f 335f3070 00000034     init_step0_34...
 80111ec:	00000000 b2100201 44d862ac 5fcea07b     .........b.D{.._
 80111fc:	38bd0c19 102dbeb8 aac94f89 13a41242     ...8..-..O..B...
 801120c:	433f3e11 0c4658d3 00000000 00000000     .>?C.XF.........
	...
 8011268:	74000000 4345445b 735d3433 74696c70     ...t[DEC34]split
 8011278:	74696e69 6574735f 335f3170 00000034     init_step1_34...
 8011288:	00000000 b2100204 44d862ac 5fcea07b     .........b.D{.._
 8011298:	38bd0c19 102dbeb8 aac94f89 13a41242     ...8..-..O..B...
 80112a8:	433f3e11 0c4658d3 00000000 00000000     .>?C.XF.........
	...
 8011304:	74000000 4345445b 735d3433 74696c70     ...t[DEC34]split
 8011314:	74696e69 6574735f 335f3270 00000034     init_step2_34...
 8011324:	00000000 b2100310 44d862ac 5fcea07b     .........b.D{.._
 8011334:	38bd0c19 102dbeb8 aac94f89 13a41242     ...8..-..O..B...
 8011344:	433f3e11 0c4658d3 00000000 00000000     .>?C.XF.........
	...
 8011384:	5d2b4110 44531ba9 3fe735dc b2d91dc4     .A+]..SD.5.?....
 8011394:	00000062 00000000 00000000 65000000     b..............e
 80113a4:	455b7462 3533434e 6c75665d 35335f6c     bt[ENC35]full_35
	...
 80113c4:	030b0000 3d3ed310 229b3346 e2db763f     ......>=F3."?v..
 80113d4:	59ee61fd ceed10f4 b3a1e851 18157a8e     .a.Y....Q....z..
 80113e4:	dd613cad 0000cff6 00000000 00000000     .<a.............
	...
 8011420:	97100000 0ee51d0a fd3a73b9 dfffceac     .........s:.....
 8011430:	000f4266 00000000 00000000 00000000     fB..............
 8011440:	74626500 434e455b 735d3533 74696c70     .ebt[ENC35]split
 8011450:	6574735f 335f3070 00000035 00000000     _step0_35.......
 8011460:	00000000 d3100203 33463d3e 763f229b     ........>=F3."?v
 8011470:	61fde2db 10f459ee e851ceed 7a8eb3a1     ...a.Y....Q....z
 8011480:	3cad1815 cff6dd61 00000000 00000000     ...<a...........
	...
 80114dc:	74000000 434e455b 735d3533 74696c70     ...t[ENC35]split
 80114ec:	6574735f 335f3170 00000035 00000000     _step1_35.......
 80114fc:	00000000 d3100308 33463d3e 763f229b     ........>=F3."?v
 801150c:	61fde2db 10f459ee e851ceed 7a8eb3a1     ...a.Y....Q....z
 801151c:	3cad1815 cff6dd61 00000000 00000000     ...<a...........
	...
 801155c:	1d0a9710 73b90ee5 ceacfd3a 4266dfff     .......s:.....fB
 801156c:	0000000f 00000000 00000000 65000000     ...............e
 801157c:	455b7462 3533434e 6c70735d 6e697469     bt[ENC35]splitin
 801158c:	735f7469 30706574 0035335f 00000000     it_step0_35.....
 801159c:	02010000 3d3ed310 229b3346 e2db763f     ......>=F3."?v..
 80115ac:	59ee61fd ceed10f4 b3a1e851 18157a8e     .a.Y....Q....z..
 80115bc:	dd613cad 0000cff6 00000000 00000000     .<a.............
	...
 8011618:	455b7400 3533434e 6c70735d 6e697469     .t[ENC35]splitin
 8011628:	735f7469 31706574 0035335f 00000000     it_step1_35.....
 8011638:	02020000 3d3ed310 229b3346 e2db763f     ......>=F3."?v..
 8011648:	59ee61fd ceed10f4 b3a1e851 18157a8e     .a.Y....Q....z..
 8011658:	dd613cad 0000cff6 00000000 00000000     .<a.............
	...
 80116b4:	455b7400 3533434e 6c70735d 6e697469     .t[ENC35]splitin
 80116c4:	735f7469 32706574 0035335f 00000000     it_step2_35.....
 80116d4:	03080000 3d3ed310 229b3346 e2db763f     ......>=F3."?v..
 80116e4:	59ee61fd ceed10f4 b3a1e851 18157a8e     .a.Y....Q....z..
 80116f4:	dd613cad 0000cff6 00000000 00000000     .<a.............
	...
 8011730:	97100000 0ee51d0a fd3a73b9 dfffceac     .........s:.....
 8011740:	000f4266 00000000 00000000 00000000     fB..............
 8011750:	74626500 4345445b 665d3533 5f6c6c75     .ebt[DEC35]full_
 8011760:	00003533 00000000 00000000 00000000     35..............
 8011770:	00000000 2a100315 4d1f8bd2 873c20e0     .......*...M. <.
 8011780:	8af58bdc 10083481 f75043ac 3d18292b     .....4...CP.+).=
 8011790:	807ef594 ce6d9257 00000000 00000000     ..~.W.m.........
	...
 80117d0:	24a3d810 7d60b540 5b26ecbd 0c3ba93f     ...$@.`}..&[?.;.
 80117e0:	00000044 00000000 00000000 65000000     D..............e
 80117f0:	445b7462 35334345 6c70735d 735f7469     bt[DEC35]split_s
 8011800:	30706574 0035335f 00000000 00000000     tep0_35.........
 8011810:	02050000 8bd22a10 20e04d1f 8bdc873c     .....*...M. <...
 8011820:	34818af5 43ac1008 292bf750 f5943d18     ...4...CP.+).=..
 8011830:	9257807e 0000ce6d 00000000 00000000     ~.W.m...........
	...
 801188c:	445b7400 35334345 6c70735d 735f7469     .t[DEC35]split_s
 801189c:	31706574 0035335f 00000000 00000000     tep1_35.........
 80118ac:	03100000 8bd22a10 20e04d1f 8bdc873c     .....*...M. <...
 80118bc:	34818af5 43ac1008 292bf750 f5943d18     ...4...CP.+).=..
 80118cc:	9257807e 0000ce6d 00000000 00000000     ~.W.m...........
	...
 8011908:	d8100000 b54024a3 ecbd7d60 a93f5b26     .....$@.`}..&[?.
 8011918:	00440c3b 00000000 00000000 00000000     ;.D.............
 8011928:	74626500 4345445b 735d3533 74696c70     .ebt[DEC35]split
 8011938:	74696e69 6574735f 335f3070 00000035     init_step0_35...
 8011948:	00000000 2a100201 4d1f8bd2 873c20e0     .......*...M. <.
 8011958:	8af58bdc 10083481 f75043ac 3d18292b     .....4...CP.+).=
 8011968:	807ef594 ce6d9257 00000000 00000000     ..~.W.m.........
	...
 80119c4:	74000000 4345445b 735d3533 74696c70     ...t[DEC35]split
 80119d4:	74696e69 6574735f 335f3170 00000035     init_step1_35...
 80119e4:	00000000 2a100204 4d1f8bd2 873c20e0     .......*...M. <.
 80119f4:	8af58bdc 10083481 f75043ac 3d18292b     .....4...CP.+).=
 8011a04:	807ef594 ce6d9257 00000000 00000000     ..~.W.m.........
	...
 8011a60:	74000000 4345445b 735d3533 74696c70     ...t[DEC35]split
 8011a70:	74696e69 6574735f 335f3270 00000035     init_step2_35...
 8011a80:	00000000 2a100310 4d1f8bd2 873c20e0     .......*...M. <.
 8011a90:	8af58bdc 10083481 f75043ac 3d18292b     .....4...CP.+).=
 8011aa0:	807ef594 ce6d9257 00000000 00000000     ..~.W.m.........
	...
 8011ae0:	24a3d810 7d60b540 5b26ecbd 0c3ba93f     ...$@.`}..&[?.;.
 8011af0:	00000044 00000000 00000000 65000000     D..............e
 8011b00:	455b7462 3633434e 6c75665d 36335f6c     bt[ENC36]full_36
	...
 8011b20:	030b0000 6d9dd310 04634bf0 71dc3d16     .......m.Kc..=.q
 8011b30:	2a0a35b5 cc1610a6 39b21aef 973d3940     .5.*.......9@9=.
 8011b40:	1744daf8 00002680 00000000 00000000     ..D..&..........
	...
 8011b7c:	1c100000 f004e355 0a781ff8 edad4cf3     ....U.....x..L..
 8011b8c:	0081d6d9 00000000 00000000 00000000     ................
 8011b9c:	74626500 434e455b 735d3633 74696c70     .ebt[ENC36]split
 8011bac:	6574735f 335f3070 00000036 00000000     _step0_36.......
 8011bbc:	00000000 d3100203 4bf06d9d 3d160463     .........m.Kc..=
 8011bcc:	35b571dc 10a62a0a 1aefcc16 394039b2     .q.5.*.......9@9
 8011bdc:	daf8973d 26801744 00000000 00000000     =...D..&........
	...
 8011c38:	74000000 434e455b 735d3633 74696c70     ...t[ENC36]split
 8011c48:	6574735f 335f3170 00000036 00000000     _step1_36.......
 8011c58:	00000000 d3100308 4bf06d9d 3d160463     .........m.Kc..=
 8011c68:	35b571dc 10a62a0a 1aefcc16 394039b2     .q.5.*.......9@9
 8011c78:	daf8973d 26801744 00000000 00000000     =...D..&........
	...
 8011cb8:	e3551c10 1ff8f004 4cf30a78 d6d9edad     ..U.....x..L....
 8011cc8:	00000081 00000000 00000000 65000000     ...............e
 8011cd8:	455b7462 3633434e 6c70735d 6e697469     bt[ENC36]splitin
 8011ce8:	735f7469 30706574 0036335f 00000000     it_step0_36.....
 8011cf8:	02010000 6d9dd310 04634bf0 71dc3d16     .......m.Kc..=.q
 8011d08:	2a0a35b5 cc1610a6 39b21aef 973d3940     .5.*.......9@9=.
 8011d18:	1744daf8 00002680 00000000 00000000     ..D..&..........
	...
 8011d74:	455b7400 3633434e 6c70735d 6e697469     .t[ENC36]splitin
 8011d84:	735f7469 31706574 0036335f 00000000     it_step1_36.....
 8011d94:	02020000 6d9dd310 04634bf0 71dc3d16     .......m.Kc..=.q
 8011da4:	2a0a35b5 cc1610a6 39b21aef 973d3940     .5.*.......9@9=.
 8011db4:	1744daf8 00002680 00000000 00000000     ..D..&..........
	...
 8011e10:	455b7400 3633434e 6c70735d 6e697469     .t[ENC36]splitin
 8011e20:	735f7469 32706574 0036335f 00000000     it_step2_36.....
 8011e30:	03080000 6d9dd310 04634bf0 71dc3d16     .......m.Kc..=.q
 8011e40:	2a0a35b5 cc1610a6 39b21aef 973d3940     .5.*.......9@9=.
 8011e50:	1744daf8 00002680 00000000 00000000     ..D..&..........
	...
 8011e8c:	1c100000 f004e355 0a781ff8 edad4cf3     ....U.....x..L..
 8011e9c:	0081d6d9 00000000 00000000 00000000     ................
 8011eac:	74626500 4345445b 665d3633 5f6c6c75     .ebt[DEC36]full_
 8011ebc:	00003633 00000000 00000000 00000000     36..............
 8011ecc:	00000000 98100315 81b7a224 6742c9c6     ........$.....Bg
 8011edc:	a20ac374 101f9131 51d168cb baf99049     t...1....h.QI...
 8011eec:	e94f24a0 1a0ae413 00000000 00000000     .$O.............
	...
 8011f2c:	2f9c8a10 99cf7b8b f2a57a5f d480aff8     .../.{.._z......
 8011f3c:	00000089 00000000 00000000 65000000     ...............e
 8011f4c:	445b7462 36334345 6c70735d 735f7469     bt[DEC36]split_s
 8011f5c:	30706574 0036335f 00000000 00000000     tep0_36.........
 8011f6c:	02050000 a2249810 c9c681b7 c3746742     ......$.....Bgt.
 8011f7c:	9131a20a 68cb101f 904951d1 24a0baf9     ..1....h.QI....$
 8011f8c:	e413e94f 00001a0a 00000000 00000000     O...............
	...
 8011fe8:	445b7400 36334345 6c70735d 735f7469     .t[DEC36]split_s
 8011ff8:	31706574 0036335f 00000000 00000000     tep1_36.........
 8012008:	03100000 a2249810 c9c681b7 c3746742     ......$.....Bgt.
 8012018:	9131a20a 68cb101f 904951d1 24a0baf9     ..1....h.QI....$
 8012028:	e413e94f 00001a0a 00000000 00000000     O...............
	...
 8012064:	8a100000 7b8b2f9c 7a5f99cf aff8f2a5     ...../.{.._z....
 8012074:	0089d480 00000000 00000000 00000000     ................
 8012084:	74626500 4345445b 735d3633 74696c70     .ebt[DEC36]split
 8012094:	74696e69 6574735f 335f3070 00000036     init_step0_36...
 80120a4:	00000000 98100201 81b7a224 6742c9c6     ........$.....Bg
 80120b4:	a20ac374 101f9131 51d168cb baf99049     t...1....h.QI...
 80120c4:	e94f24a0 1a0ae413 00000000 00000000     .$O.............
	...
 8012120:	74000000 4345445b 735d3633 74696c70     ...t[DEC36]split
 8012130:	74696e69 6574735f 335f3170 00000036     init_step1_36...
 8012140:	00000000 98100204 81b7a224 6742c9c6     ........$.....Bg
 8012150:	a20ac374 101f9131 51d168cb baf99049     t...1....h.QI...
 8012160:	e94f24a0 1a0ae413 00000000 00000000     .$O.............
	...
 80121bc:	74000000 4345445b 735d3633 74696c70     ...t[DEC36]split
 80121cc:	74696e69 6574735f 335f3270 00000036     init_step2_36...
 80121dc:	00000000 98100310 81b7a224 6742c9c6     ........$.....Bg
 80121ec:	a20ac374 101f9131 51d168cb baf99049     t...1....h.QI...
 80121fc:	e94f24a0 1a0ae413 00000000 00000000     .$O.............
	...
 801223c:	2f9c8a10 99cf7b8b f2a57a5f d480aff8     .../.{.._z......
 801224c:	00000089 00000000 00000000 65000000     ...............e
 801225c:	455b7462 3733434e 6c75665d 37335f6c     bt[ENC37]full_37
	...
 801227c:	030b0000 bb4eb110 cce70a59 0271c1f1     ......N.Y.....q.
 801228c:	e039b9a6 396b1053 5a13be74 787f7ad2     ..9.S.k9t..Z.z.x
 801229c:	e2a01b66 0000ca3e 00000000 00000000     f...>...........
	...
 80122d8:	0b100000 b0754721 2123ec11 d9faf9af     ....!Gu...#!....
 80122e8:	00a85322 00000000 00000000 00000000     "S..............
 80122f8:	74626500 434e455b 735d3733 74696c70     .ebt[ENC37]split
 8012308:	6574735f 335f3070 00000037 00000000     _step0_37.......
 8012318:	00000000 b1100203 0a59bb4e c1f1cce7     ........N.Y.....
 8012328:	b9a60271 1053e039 be74396b 7ad25a13     q...9.S.k9t..Z.z
 8012338:	1b66787f ca3ee2a0 00000000 00000000     .xf...>.........
	...
 8012394:	74000000 434e455b 735d3733 74696c70     ...t[ENC37]split
 80123a4:	6574735f 335f3170 00000037 00000000     _step1_37.......
 80123b4:	00000000 b1100308 0a59bb4e c1f1cce7     ........N.Y.....
 80123c4:	b9a60271 1053e039 be74396b 7ad25a13     q...9.S.k9t..Z.z
 80123d4:	1b66787f ca3ee2a0 00000000 00000000     .xf...>.........
	...
 8012414:	47210b10 ec11b075 f9af2123 5322d9fa     ..!Gu...#!...."S
 8012424:	000000a8 00000000 00000000 65000000     ...............e
 8012434:	455b7462 3733434e 6c70735d 6e697469     bt[ENC37]splitin
 8012444:	735f7469 30706574 0037335f 00000000     it_step0_37.....
 8012454:	02010000 bb4eb110 cce70a59 0271c1f1     ......N.Y.....q.
 8012464:	e039b9a6 396b1053 5a13be74 787f7ad2     ..9.S.k9t..Z.z.x
 8012474:	e2a01b66 0000ca3e 00000000 00000000     f...>...........
	...
 80124d0:	455b7400 3733434e 6c70735d 6e697469     .t[ENC37]splitin
 80124e0:	735f7469 31706574 0037335f 00000000     it_step1_37.....
 80124f0:	02020000 bb4eb110 cce70a59 0271c1f1     ......N.Y.....q.
 8012500:	e039b9a6 396b1053 5a13be74 787f7ad2     ..9.S.k9t..Z.z.x
 8012510:	e2a01b66 0000ca3e 00000000 00000000     f...>...........
	...
 801256c:	455b7400 3733434e 6c70735d 6e697469     .t[ENC37]splitin
 801257c:	735f7469 32706574 0037335f 00000000     it_step2_37.....
 801258c:	03080000 bb4eb110 cce70a59 0271c1f1     ......N.Y.....q.
 801259c:	e039b9a6 396b1053 5a13be74 787f7ad2     ..9.S.k9t..Z.z.x
 80125ac:	e2a01b66 0000ca3e 00000000 00000000     f...>...........
	...
 80125e8:	0b100000 b0754721 2123ec11 d9faf9af     ....!Gu...#!....
 80125f8:	00a85322 00000000 00000000 00000000     "S..............
 8012608:	74626500 4345445b 665d3733 5f6c6c75     .ebt[DEC37]full_
 8012618:	00003733 00000000 00000000 00000000     37..............
 8012628:	00000000 0a100315 d3c62bbd 6c0dd58e     .........+.....l
 8012638:	d0b3c9ea 10bea81d 3688befa 7a6a0c86     ...........6..jz
 8012648:	0f7863d9 336fa61c 00000000 00000000     .cx...o3........
	...
 8012688:	594b9710 3271fd49 49fd3c03 0d536224     ..KYI.q2.<.I$bS.
 8012698:	000000af 00000000 00000000 65000000     ...............e
 80126a8:	445b7462 37334345 6c70735d 735f7469     bt[DEC37]split_s
 80126b8:	30706574 0037335f 00000000 00000000     tep0_37.........
 80126c8:	02050000 2bbd0a10 d58ed3c6 c9ea6c0d     .......+.....l..
 80126d8:	a81dd0b3 befa10be 0c863688 63d97a6a     .........6..jz.c
 80126e8:	a61c0f78 0000336f 00000000 00000000     x...o3..........
	...
 8012744:	445b7400 37334345 6c70735d 735f7469     .t[DEC37]split_s
 8012754:	31706574 0037335f 00000000 00000000     tep1_37.........
 8012764:	03100000 2bbd0a10 d58ed3c6 c9ea6c0d     .......+.....l..
 8012774:	a81dd0b3 befa10be 0c863688 63d97a6a     .........6..jz.c
 8012784:	a61c0f78 0000336f 00000000 00000000     x...o3..........
	...
 80127c0:	97100000 fd49594b 3c033271 622449fd     ....KYI.q2.<.I$b
 80127d0:	00af0d53 00000000 00000000 00000000     S...............
 80127e0:	74626500 4345445b 735d3733 74696c70     .ebt[DEC37]split
 80127f0:	74696e69 6574735f 335f3070 00000037     init_step0_37...
 8012800:	00000000 0a100201 d3c62bbd 6c0dd58e     .........+.....l
 8012810:	d0b3c9ea 10bea81d 3688befa 7a6a0c86     ...........6..jz
 8012820:	0f7863d9 336fa61c 00000000 00000000     .cx...o3........
	...
 801287c:	74000000 4345445b 735d3733 74696c70     ...t[DEC37]split
 801288c:	74696e69 6574735f 335f3170 00000037     init_step1_37...
 801289c:	00000000 0a100204 d3c62bbd 6c0dd58e     .........+.....l
 80128ac:	d0b3c9ea 10bea81d 3688befa 7a6a0c86     ...........6..jz
 80128bc:	0f7863d9 336fa61c 00000000 00000000     .cx...o3........
	...
 8012918:	74000000 4345445b 735d3733 74696c70     ...t[DEC37]split
 8012928:	74696e69 6574735f 335f3270 00000037     init_step2_37...
 8012938:	00000000 0a100310 d3c62bbd 6c0dd58e     .........+.....l
 8012948:	d0b3c9ea 10bea81d 3688befa 7a6a0c86     ...........6..jz
 8012958:	0f7863d9 336fa61c 00000000 00000000     .cx...o3........
	...
 8012998:	594b9710 3271fd49 49fd3c03 0d536224     ..KYI.q2.<.I$bS.
 80129a8:	000000af 00000000 00000000 65000000     ...............e
 80129b8:	455b7462 3833434e 6c75665d 38335f6c     bt[ENC38]full_38
	...
 80129d8:	030b0000 ba02b910 c4769f5c 3552d999     ........\.v...R5
 80129e8:	8154c1b7 ccb31087 05b152da 88fe7ca9     ..T......R...|..
 80129f8:	32585f68 0000c427 00000000 00000000     h_X2'...........
	...
 8012a34:	62100000 5009c546 6eb491b2 72c5c52c     ...bF..P...n,..r
 8012a44:	00c5956d 00000000 00000000 00000000     m...............
 8012a54:	74626500 434e455b 735d3833 74696c70     .ebt[ENC38]split
 8012a64:	6574735f 335f3070 00000038 00000000     _step0_38.......
 8012a74:	00000000 b9100203 9f5cba02 d999c476     ..........\.v...
 8012a84:	c1b73552 10878154 52daccb3 7ca905b1     R5..T......R...|
 8012a94:	5f6888fe c4273258 00000000 00000000     ..h_X2'.........
	...
 8012af0:	74000000 434e455b 735d3833 74696c70     ...t[ENC38]split
 8012b00:	6574735f 335f3170 00000038 00000000     _step1_38.......
 8012b10:	00000000 b9100308 9f5cba02 d999c476     ..........\.v...
 8012b20:	c1b73552 10878154 52daccb3 7ca905b1     R5..T......R...|
 8012b30:	5f6888fe c4273258 00000000 00000000     ..h_X2'.........
	...
 8012b70:	c5466210 91b25009 c52c6eb4 956d72c5     .bF..P...n,..rm.
 8012b80:	000000c5 00000000 00000000 65000000     ...............e
 8012b90:	455b7462 3833434e 6c70735d 6e697469     bt[ENC38]splitin
 8012ba0:	735f7469 30706574 0038335f 00000000     it_step0_38.....
 8012bb0:	02010000 ba02b910 c4769f5c 3552d999     ........\.v...R5
 8012bc0:	8154c1b7 ccb31087 05b152da 88fe7ca9     ..T......R...|..
 8012bd0:	32585f68 0000c427 00000000 00000000     h_X2'...........
	...
 8012c2c:	455b7400 3833434e 6c70735d 6e697469     .t[ENC38]splitin
 8012c3c:	735f7469 31706574 0038335f 00000000     it_step1_38.....
 8012c4c:	02020000 ba02b910 c4769f5c 3552d999     ........\.v...R5
 8012c5c:	8154c1b7 ccb31087 05b152da 88fe7ca9     ..T......R...|..
 8012c6c:	32585f68 0000c427 00000000 00000000     h_X2'...........
	...
 8012cc8:	455b7400 3833434e 6c70735d 6e697469     .t[ENC38]splitin
 8012cd8:	735f7469 32706574 0038335f 00000000     it_step2_38.....
 8012ce8:	03080000 ba02b910 c4769f5c 3552d999     ........\.v...R5
 8012cf8:	8154c1b7 ccb31087 05b152da 88fe7ca9     ..T......R...|..
 8012d08:	32585f68 0000c427 00000000 00000000     h_X2'...........
	...
 8012d44:	62100000 5009c546 6eb491b2 72c5c52c     ...bF..P...n,..r
 8012d54:	00c5956d 00000000 00000000 00000000     m...............
 8012d64:	74626500 4345445b 665d3833 5f6c6c75     .ebt[DEC38]full_
 8012d74:	00003833 00000000 00000000 00000000     38..............
 8012d84:	00000000 06100315 5aedcc12 f36badeb     ...........Z..k.
 8012d94:	3d2610cd 105e2c7c a50c748b bc46a589     ..&=|,^..t....F.
 8012da4:	1a973e5b 5b1c9409 00000000 00000000     [>.....[........
	...
 8012de4:	c0b5db10 35abb2e8 2a8835fd c88469b3     .......5.5.*.i..
 8012df4:	0000009e 00000000 00000000 65000000     ...............e
 8012e04:	445b7462 38334345 6c70735d 735f7469     bt[DEC38]split_s
 8012e14:	30706574 0038335f 00000000 00000000     tep0_38.........
 8012e24:	02050000 cc120610 adeb5aed 10cdf36b     .........Z..k...
 8012e34:	2c7c3d26 748b105e a589a50c 3e5bbc46     &=|,^..t....F.[>
 8012e44:	94091a97 00005b1c 00000000 00000000     .....[..........
	...
 8012ea0:	445b7400 38334345 6c70735d 735f7469     .t[DEC38]split_s
 8012eb0:	31706574 0038335f 00000000 00000000     tep1_38.........
 8012ec0:	03100000 cc120610 adeb5aed 10cdf36b     .........Z..k...
 8012ed0:	2c7c3d26 748b105e a589a50c 3e5bbc46     &=|,^..t....F.[>
 8012ee0:	94091a97 00005b1c 00000000 00000000     .....[..........
	...
 8012f1c:	db100000 b2e8c0b5 35fd35ab 69b32a88     .........5.5.*.i
 8012f2c:	009ec884 00000000 00000000 00000000     ................
 8012f3c:	74626500 4345445b 735d3833 74696c70     .ebt[DEC38]split
 8012f4c:	74696e69 6574735f 335f3070 00000038     init_step0_38...
 8012f5c:	00000000 06100201 5aedcc12 f36badeb     ...........Z..k.
 8012f6c:	3d2610cd 105e2c7c a50c748b bc46a589     ..&=|,^..t....F.
 8012f7c:	1a973e5b 5b1c9409 00000000 00000000     [>.....[........
	...
 8012fd8:	74000000 4345445b 735d3833 74696c70     ...t[DEC38]split
 8012fe8:	74696e69 6574735f 335f3170 00000038     init_step1_38...
 8012ff8:	00000000 06100204 5aedcc12 f36badeb     ...........Z..k.
 8013008:	3d2610cd 105e2c7c a50c748b bc46a589     ..&=|,^..t....F.
 8013018:	1a973e5b 5b1c9409 00000000 00000000     [>.....[........
	...
 8013074:	74000000 4345445b 735d3833 74696c70     ...t[DEC38]split
 8013084:	74696e69 6574735f 335f3270 00000038     init_step2_38...
 8013094:	00000000 06100310 5aedcc12 f36badeb     ...........Z..k.
 80130a4:	3d2610cd 105e2c7c a50c748b bc46a589     ..&=|,^..t....F.
 80130b4:	1a973e5b 5b1c9409 00000000 00000000     [>.....[........
	...
 80130f4:	c0b5db10 35abb2e8 2a8835fd c88469b3     .......5.5.*.i..
 8013104:	0000009e 00000000 00000000 65000000     ...............e
 8013114:	455b7462 3933434e 6c75665d 39335f6c     bt[ENC39]full_39
	...
 8013134:	030b0000 86d47010 35f23ef0 b3d647aa     .....p...>.5.G..
 8013144:	c90c2869 82d4104b 11a19acf 0cf41d1c     i(..K...........
 8013154:	c9ab30b5 000058f5 00000000 00000000     .0...X..........
	...
 8013190:	24100000 862e5c43 28faa823 a3c9cce4     ...$C\..#..(....
 80131a0:	00c5b9e3 00000000 00000000 00000000     ................
 80131b0:	74626500 434e455b 735d3933 74696c70     .ebt[ENC39]split
 80131c0:	6574735f 335f3070 00000039 00000000     _step0_39.......
 80131d0:	00000000 70100203 3ef086d4 47aa35f2     .......p...>.5.G
 80131e0:	2869b3d6 104bc90c 9acf82d4 1d1c11a1     ..i(..K.........
 80131f0:	30b50cf4 58f5c9ab 00000000 00000000     ...0...X........
	...
 801324c:	74000000 434e455b 735d3933 74696c70     ...t[ENC39]split
 801325c:	6574735f 335f3170 00000039 00000000     _step1_39.......
 801326c:	00000000 70100308 3ef086d4 47aa35f2     .......p...>.5.G
 801327c:	2869b3d6 104bc90c 9acf82d4 1d1c11a1     ..i(..K.........
 801328c:	30b50cf4 58f5c9ab 00000000 00000000     ...0...X........
	...
 80132cc:	5c432410 a823862e cce428fa b9e3a3c9     .$C\..#..(......
 80132dc:	000000c5 00000000 00000000 65000000     ...............e
 80132ec:	455b7462 3933434e 6c70735d 6e697469     bt[ENC39]splitin
 80132fc:	735f7469 30706574 0039335f 00000000     it_step0_39.....
 801330c:	02010000 86d47010 35f23ef0 b3d647aa     .....p...>.5.G..
 801331c:	c90c2869 82d4104b 11a19acf 0cf41d1c     i(..K...........
 801332c:	c9ab30b5 000058f5 00000000 00000000     .0...X..........
	...
 8013388:	455b7400 3933434e 6c70735d 6e697469     .t[ENC39]splitin
 8013398:	735f7469 31706574 0039335f 00000000     it_step1_39.....
 80133a8:	02020000 86d47010 35f23ef0 b3d647aa     .....p...>.5.G..
 80133b8:	c90c2869 82d4104b 11a19acf 0cf41d1c     i(..K...........
 80133c8:	c9ab30b5 000058f5 00000000 00000000     .0...X..........
	...
 8013424:	455b7400 3933434e 6c70735d 6e697469     .t[ENC39]splitin
 8013434:	735f7469 32706574 0039335f 00000000     it_step2_39.....
 8013444:	03080000 86d47010 35f23ef0 b3d647aa     .....p...>.5.G..
 8013454:	c90c2869 82d4104b 11a19acf 0cf41d1c     i(..K...........
 8013464:	c9ab30b5 000058f5 00000000 00000000     .0...X..........
	...
 80134a0:	24100000 862e5c43 28faa823 a3c9cce4     ...$C\..#..(....
 80134b0:	00c5b9e3 00000000 00000000 00000000     ................
 80134c0:	74626500 4345445b 665d3933 5f6c6c75     .ebt[DEC39]full_
 80134d0:	00003933 00000000 00000000 00000000     39..............
 80134e0:	00000000 d6100315 5e7a3b3a b6e1a40d     ........:;z^....
 80134f0:	530dd432 100b9a3e fd4666d2 a90f860e     2..S>....fF.....
 8013500:	ae45d168 fd91643d 00000000 00000000     h.E.=d..........
	...
 8013540:	ccb3b910 3653753f 6ff77a7e 9f8f2575     ....?uS6~z.ou%..
 8013550:	000000a3 00000000 00000000 65000000     ...............e
 8013560:	445b7462 39334345 6c70735d 735f7469     bt[DEC39]split_s
 8013570:	30706574 0039335f 00000000 00000000     tep0_39.........
 8013580:	02050000 3b3ad610 a40d5e7a d432b6e1     ......:;z^....2.
 8013590:	9a3e530d 66d2100b 860efd46 d168a90f     .S>....fF.....h.
 80135a0:	643dae45 0000fd91 00000000 00000000     E.=d............
	...
 80135fc:	445b7400 39334345 6c70735d 735f7469     .t[DEC39]split_s
 801360c:	31706574 0039335f 00000000 00000000     tep1_39.........
 801361c:	03100000 3b3ad610 a40d5e7a d432b6e1     ......:;z^....2.
 801362c:	9a3e530d 66d2100b 860efd46 d168a90f     .S>....fF.....h.
 801363c:	643dae45 0000fd91 00000000 00000000     E.=d............
	...
 8013678:	b9100000 753fccb3 7a7e3653 25756ff7     ......?uS6~z.ou%
 8013688:	00a39f8f 00000000 00000000 00000000     ................
 8013698:	74626500 4345445b 735d3933 74696c70     .ebt[DEC39]split
 80136a8:	74696e69 6574735f 335f3070 00000039     init_step0_39...
 80136b8:	00000000 d6100201 5e7a3b3a b6e1a40d     ........:;z^....
 80136c8:	530dd432 100b9a3e fd4666d2 a90f860e     2..S>....fF.....
 80136d8:	ae45d168 fd91643d 00000000 00000000     h.E.=d..........
	...
 8013734:	74000000 4345445b 735d3933 74696c70     ...t[DEC39]split
 8013744:	74696e69 6574735f 335f3170 00000039     init_step1_39...
 8013754:	00000000 d6100204 5e7a3b3a b6e1a40d     ........:;z^....
 8013764:	530dd432 100b9a3e fd4666d2 a90f860e     2..S>....fF.....
 8013774:	ae45d168 fd91643d 00000000 00000000     h.E.=d..........
	...
 80137d0:	74000000 4345445b 735d3933 74696c70     ...t[DEC39]split
 80137e0:	74696e69 6574735f 335f3270 00000039     init_step2_39...
 80137f0:	00000000 d6100310 5e7a3b3a b6e1a40d     ........:;z^....
 8013800:	530dd432 100b9a3e fd4666d2 a90f860e     2..S>....fF.....
 8013810:	ae45d168 fd91643d 00000000 00000000     h.E.=d..........
	...
 8013850:	ccb3b910 3653753f 6ff77a7e 9f8f2575     ....?uS6~z.ou%..
 8013860:	000000a3 00000000 00000000 65000000     ...............e
 8013870:	455b7462 3034434e 6c75665d 30345f6c     bt[ENC40]full_40
	...
 8013890:	030b0000 7d9a3110 0dc74b83 cdb1d55f     .....1.}.K.._...
 80138a0:	cf941d79 c18f1049 9bb5a0e9 8c58cd29     y...I.......).X.
 80138b0:	d5a4eb3a 00001c4e 00000000 00000000     :...N...........
	...
 80138ec:	4b100000 3abae305 7c0d5da1 ecb2be9a     ...K...:.].|....
 80138fc:	00b952d8 00000000 00000000 00000000     .R..............
 801390c:	74626500 434e455b 735d3034 74696c70     .ebt[ENC40]split
 801391c:	6574735f 345f3070 00000030 00000000     _step0_40.......
 801392c:	00000000 31100203 4b837d9a d55f0dc7     .......1.}.K.._.
 801393c:	1d79cdb1 1049cf94 a0e9c18f cd299bb5     ..y...I.......).
 801394c:	eb3a8c58 1c4ed5a4 00000000 00000000     X.:...N.........
	...
 80139a8:	74000000 434e455b 735d3034 74696c70     ...t[ENC40]split
 80139b8:	6574735f 345f3170 00000030 00000000     _step1_40.......
 80139c8:	00000000 31100308 4b837d9a d55f0dc7     .......1.}.K.._.
 80139d8:	1d79cdb1 1049cf94 a0e9c18f cd299bb5     ..y...I.......).
 80139e8:	eb3a8c58 1c4ed5a4 00000000 00000000     X.:...N.........
	...
 8013a28:	e3054b10 5da13aba be9a7c0d 52d8ecb2     .K...:.].|.....R
 8013a38:	000000b9 00000000 00000000 65000000     ...............e
 8013a48:	455b7462 3034434e 6c70735d 6e697469     bt[ENC40]splitin
 8013a58:	735f7469 30706574 0030345f 00000000     it_step0_40.....
 8013a68:	02010000 7d9a3110 0dc74b83 cdb1d55f     .....1.}.K.._...
 8013a78:	cf941d79 c18f1049 9bb5a0e9 8c58cd29     y...I.......).X.
 8013a88:	d5a4eb3a 00001c4e 00000000 00000000     :...N...........
	...
 8013ae4:	455b7400 3034434e 6c70735d 6e697469     .t[ENC40]splitin
 8013af4:	735f7469 31706574 0030345f 00000000     it_step1_40.....
 8013b04:	02020000 7d9a3110 0dc74b83 cdb1d55f     .....1.}.K.._...
 8013b14:	cf941d79 c18f1049 9bb5a0e9 8c58cd29     y...I.......).X.
 8013b24:	d5a4eb3a 00001c4e 00000000 00000000     :...N...........
	...
 8013b80:	455b7400 3034434e 6c70735d 6e697469     .t[ENC40]splitin
 8013b90:	735f7469 32706574 0030345f 00000000     it_step2_40.....
 8013ba0:	03080000 7d9a3110 0dc74b83 cdb1d55f     .....1.}.K.._...
 8013bb0:	cf941d79 c18f1049 9bb5a0e9 8c58cd29     y...I.......).X.
 8013bc0:	d5a4eb3a 00001c4e 00000000 00000000     :...N...........
	...
 8013bfc:	4b100000 3abae305 7c0d5da1 ecb2be9a     ...K...:.].|....
 8013c0c:	00b952d8 00000000 00000000 00000000     .R..............
 8013c1c:	74626500 4345445b 665d3034 5f6c6c75     .ebt[DEC40]full_
 8013c2c:	00003034 00000000 00000000 00000000     40..............
 8013c3c:	00000000 bc100315 909a13d5 1e26f052     ............R.&.
 8013c4c:	60a86d13 102e2c28 4b3b1ca0 ba3106d2     .m.`(,....;K..1.
 8013c5c:	4bfbb177 0182a6a7 00000000 00000000     w..K............
	...
 8013c9c:	9795cd10 3fdbe10c 19d0d3bb bc4c67f6     .......?.....gL.
 8013cac:	0000003f 00000000 00000000 65000000     ?..............e
 8013cbc:	445b7462 30344345 6c70735d 735f7469     bt[DEC40]split_s
 8013ccc:	30706574 0030345f 00000000 00000000     tep0_40.........
 8013cdc:	02050000 13d5bc10 f052909a 6d131e26     ..........R.&..m
 8013cec:	2c2860a8 1ca0102e 06d24b3b b177ba31     .`(,....;K..1.w.
 8013cfc:	a6a74bfb 00000182 00000000 00000000     .K..............
	...
 8013d58:	445b7400 30344345 6c70735d 735f7469     .t[DEC40]split_s
 8013d68:	31706574 0030345f 00000000 00000000     tep1_40.........
 8013d78:	03100000 13d5bc10 f052909a 6d131e26     ..........R.&..m
 8013d88:	2c2860a8 1ca0102e 06d24b3b b177ba31     .`(,....;K..1.w.
 8013d98:	a6a74bfb 00000182 00000000 00000000     .K..............
	...
 8013dd4:	cd100000 e10c9795 d3bb3fdb 67f619d0     .........?.....g
 8013de4:	003fbc4c 00000000 00000000 00000000     L.?.............
 8013df4:	74626500 4345445b 735d3034 74696c70     .ebt[DEC40]split
 8013e04:	74696e69 6574735f 345f3070 00000030     init_step0_40...
 8013e14:	00000000 bc100201 909a13d5 1e26f052     ............R.&.
 8013e24:	60a86d13 102e2c28 4b3b1ca0 ba3106d2     .m.`(,....;K..1.
 8013e34:	4bfbb177 0182a6a7 00000000 00000000     w..K............
	...
 8013e90:	74000000 4345445b 735d3034 74696c70     ...t[DEC40]split
 8013ea0:	74696e69 6574735f 345f3170 00000030     init_step1_40...
 8013eb0:	00000000 bc100204 909a13d5 1e26f052     ............R.&.
 8013ec0:	60a86d13 102e2c28 4b3b1ca0 ba3106d2     .m.`(,....;K..1.
 8013ed0:	4bfbb177 0182a6a7 00000000 00000000     w..K............
	...
 8013f2c:	74000000 4345445b 735d3034 74696c70     ...t[DEC40]split
 8013f3c:	74696e69 6574735f 345f3270 00000030     init_step2_40...
 8013f4c:	00000000 bc100310 909a13d5 1e26f052     ............R.&.
 8013f5c:	60a86d13 102e2c28 4b3b1ca0 ba3106d2     .m.`(,....;K..1.
 8013f6c:	4bfbb177 0182a6a7 00000000 00000000     w..K............
	...
 8013fac:	9795cd10 3fdbe10c 19d0d3bb bc4c67f6     .......?.....gL.
 8013fbc:	0000003f 00000000 00000000 65000000     ?..............e
 8013fcc:	455b7462 3134434e 6c75665d 31345f6c     bt[ENC41]full_41
	...
 8013fec:	030b0000 3f0a8510 a21d98ef 75757996     .......?.....yuu
 8013ffc:	015e24c7 bfcf1003 c93fe91a bb6df98e     .$^.......?...m.
 801400c:	86f5a0f7 0000d230 00000000 00000000     ....0...........
	...
 8014048:	63100000 0b87a394 b715801d f69b3266     ...c........f2..
 8014058:	0012f317 00000000 00000000 00000000     ................
 8014068:	74626500 434e455b 735d3134 74696c70     .ebt[ENC41]split
 8014078:	6574735f 345f3070 00000031 00000000     _step0_41.......
 8014088:	00000000 85100203 98ef3f0a 7996a21d     .........?.....y
 8014098:	24c77575 1003015e e91abfcf f98ec93f     uu.$^.......?...
 80140a8:	a0f7bb6d d23086f5 00000000 00000000     m.....0.........
	...
 8014104:	74000000 434e455b 735d3134 74696c70     ...t[ENC41]split
 8014114:	6574735f 345f3170 00000031 00000000     _step1_41.......
 8014124:	00000000 85100308 98ef3f0a 7996a21d     .........?.....y
 8014134:	24c77575 1003015e e91abfcf f98ec93f     uu.$^.......?...
 8014144:	a0f7bb6d d23086f5 00000000 00000000     m.....0.........
	...
 8014184:	a3946310 801d0b87 3266b715 f317f69b     .c........f2....
 8014194:	00000012 00000000 00000000 65000000     ...............e
 80141a4:	455b7462 3134434e 6c70735d 6e697469     bt[ENC41]splitin
 80141b4:	735f7469 30706574 0031345f 00000000     it_step0_41.....
 80141c4:	02010000 3f0a8510 a21d98ef 75757996     .......?.....yuu
 80141d4:	015e24c7 bfcf1003 c93fe91a bb6df98e     .$^.......?...m.
 80141e4:	86f5a0f7 0000d230 00000000 00000000     ....0...........
	...
 8014240:	455b7400 3134434e 6c70735d 6e697469     .t[ENC41]splitin
 8014250:	735f7469 31706574 0031345f 00000000     it_step1_41.....
 8014260:	02020000 3f0a8510 a21d98ef 75757996     .......?.....yuu
 8014270:	015e24c7 bfcf1003 c93fe91a bb6df98e     .$^.......?...m.
 8014280:	86f5a0f7 0000d230 00000000 00000000     ....0...........
	...
 80142dc:	455b7400 3134434e 6c70735d 6e697469     .t[ENC41]splitin
 80142ec:	735f7469 32706574 0031345f 00000000     it_step2_41.....
 80142fc:	03080000 3f0a8510 a21d98ef 75757996     .......?.....yuu
 801430c:	015e24c7 bfcf1003 c93fe91a bb6df98e     .$^.......?...m.
 801431c:	86f5a0f7 0000d230 00000000 00000000     ....0...........
	...
 8014358:	63100000 0b87a394 b715801d f69b3266     ...c........f2..
 8014368:	0012f317 00000000 00000000 00000000     ................
 8014378:	74626500 4345445b 665d3134 5f6c6c75     .ebt[DEC41]full_
 8014388:	00003134 00000000 00000000 00000000     41..............
 8014398:	00000000 78100315 63685f49 097a52bd     .......xI_hc.Rz.
 80143a8:	259df621 10d5dd29 712db286 717d7ac7     !..%).....-q.z}q
 80143b8:	13b5b44f aa0b23d6 00000000 00000000     O....#..........
	...
 80143f8:	48919410 2df21184 fe557bf2 18fba153     ...H...-.{U.S...
 8014408:	000000ab 00000000 00000000 65000000     ...............e
 8014418:	445b7462 31344345 6c70735d 735f7469     bt[DEC41]split_s
 8014428:	30706574 0031345f 00000000 00000000     tep0_41.........
 8014438:	02050000 5f497810 52bd6368 f621097a     .....xI_hc.Rz.!.
 8014448:	dd29259d b28610d5 7ac7712d b44f717d     .%).....-q.z}qO.
 8014458:	23d613b5 0000aa0b 00000000 00000000     ...#............
	...
 80144b4:	445b7400 31344345 6c70735d 735f7469     .t[DEC41]split_s
 80144c4:	31706574 0031345f 00000000 00000000     tep1_41.........
 80144d4:	03100000 5f497810 52bd6368 f621097a     .....xI_hc.Rz.!.
 80144e4:	dd29259d b28610d5 7ac7712d b44f717d     .%).....-q.z}qO.
 80144f4:	23d613b5 0000aa0b 00000000 00000000     ...#............
	...
 8014530:	94100000 11844891 7bf22df2 a153fe55     .....H...-.{U.S.
 8014540:	00ab18fb 00000000 00000000 00000000     ................
 8014550:	74626500 4345445b 735d3134 74696c70     .ebt[DEC41]split
 8014560:	74696e69 6574735f 345f3070 00000031     init_step0_41...
 8014570:	00000000 78100201 63685f49 097a52bd     .......xI_hc.Rz.
 8014580:	259df621 10d5dd29 712db286 717d7ac7     !..%).....-q.z}q
 8014590:	13b5b44f aa0b23d6 00000000 00000000     O....#..........
	...
 80145ec:	74000000 4345445b 735d3134 74696c70     ...t[DEC41]split
 80145fc:	74696e69 6574735f 345f3170 00000031     init_step1_41...
 801460c:	00000000 78100204 63685f49 097a52bd     .......xI_hc.Rz.
 801461c:	259df621 10d5dd29 712db286 717d7ac7     !..%).....-q.z}q
 801462c:	13b5b44f aa0b23d6 00000000 00000000     O....#..........
	...
 8014688:	74000000 4345445b 735d3134 74696c70     ...t[DEC41]split
 8014698:	74696e69 6574735f 345f3270 00000031     init_step2_41...
 80146a8:	00000000 78100310 63685f49 097a52bd     .......xI_hc.Rz.
 80146b8:	259df621 10d5dd29 712db286 717d7ac7     !..%).....-q.z}q
 80146c8:	13b5b44f aa0b23d6 00000000 00000000     O....#..........
	...
 8014708:	48919410 2df21184 fe557bf2 18fba153     ...H...-.{U.S...
 8014718:	000000ab 00000000 00000000 65000000     ...............e
 8014728:	455b7462 3234434e 6c75665d 32345f6c     bt[ENC42]full_42
	...
 8014748:	030b0000 bf44f910 2e4b1f5f f94261d8     ......D._.K..aB.
 8014758:	67fe664f 36fa10e3 0b2c153d df4fcd9a     Of.g...6=.,...O.
 8014768:	7dd1499b 000026f7 00000000 00000000     .I.}.&..........
	...
 80147a4:	0b100000 99b2f830 a81ed1d2 9eccbdd1     ....0...........
 80147b4:	006c1c38 00000000 00000000 00000000     8.l.............
 80147c4:	74626500 434e455b 735d3234 74696c70     .ebt[ENC42]split
 80147d4:	6574735f 345f3070 00000032 00000000     _step0_42.......
 80147e4:	00000000 f9100203 1f5fbf44 61d82e4b     ........D._.K..a
 80147f4:	664ff942 10e367fe 153d36fa cd9a0b2c     B.Of.g...6=.,...
 8014804:	499bdf4f 26f77dd1 00000000 00000000     O..I.}.&........
	...
 8014860:	74000000 434e455b 735d3234 74696c70     ...t[ENC42]split
 8014870:	6574735f 345f3170 00000032 00000000     _step1_42.......
 8014880:	00000000 f9100308 1f5fbf44 61d82e4b     ........D._.K..a
 8014890:	664ff942 10e367fe 153d36fa cd9a0b2c     B.Of.g...6=.,...
 80148a0:	499bdf4f 26f77dd1 00000000 00000000     O..I.}.&........
	...
 80148e0:	f8300b10 d1d299b2 bdd1a81e 1c389ecc     ..0...........8.
 80148f0:	0000006c 00000000 00000000 65000000     l..............e
 8014900:	455b7462 3234434e 6c70735d 6e697469     bt[ENC42]splitin
 8014910:	735f7469 30706574 0032345f 00000000     it_step0_42.....
 8014920:	02010000 bf44f910 2e4b1f5f f94261d8     ......D._.K..aB.
 8014930:	67fe664f 36fa10e3 0b2c153d df4fcd9a     Of.g...6=.,...O.
 8014940:	7dd1499b 000026f7 00000000 00000000     .I.}.&..........
	...
 801499c:	455b7400 3234434e 6c70735d 6e697469     .t[ENC42]splitin
 80149ac:	735f7469 31706574 0032345f 00000000     it_step1_42.....
 80149bc:	02020000 bf44f910 2e4b1f5f f94261d8     ......D._.K..aB.
 80149cc:	67fe664f 36fa10e3 0b2c153d df4fcd9a     Of.g...6=.,...O.
 80149dc:	7dd1499b 000026f7 00000000 00000000     .I.}.&..........
	...
 8014a38:	455b7400 3234434e 6c70735d 6e697469     .t[ENC42]splitin
 8014a48:	735f7469 32706574 0032345f 00000000     it_step2_42.....
 8014a58:	03080000 bf44f910 2e4b1f5f f94261d8     ......D._.K..aB.
 8014a68:	67fe664f 36fa10e3 0b2c153d df4fcd9a     Of.g...6=.,...O.
 8014a78:	7dd1499b 000026f7 00000000 00000000     .I.}.&..........
	...
 8014ab4:	0b100000 99b2f830 a81ed1d2 9eccbdd1     ....0...........
 8014ac4:	006c1c38 00000000 00000000 00000000     8.l.............
 8014ad4:	74626500 4345445b 665d3234 5f6c6c75     .ebt[DEC42]full_
 8014ae4:	00003234 00000000 00000000 00000000     42..............
 8014af4:	00000000 71100315 c7f5d2c0 3fb6d970     .......q....p..?
 8014b04:	80ca81e2 1036b23e 984c61ea f7b5b8e6     ....>.6..aL.....
 8014b14:	20c89d93 77ca556a 00000000 00000000     ... jU.w........
	...
 8014b54:	8a4afc10 7a161d01 083fef1b d37d970c     ..J....z..?...}.
 8014b64:	000000d0 00000000 00000000 65000000     ...............e
 8014b74:	445b7462 32344345 6c70735d 735f7469     bt[DEC42]split_s
 8014b84:	30706574 0032345f 00000000 00000000     tep0_42.........
 8014b94:	02050000 d2c07110 d970c7f5 81e23fb6     .....q....p..?..
 8014ba4:	b23e80ca 61ea1036 b8e6984c 9d93f7b5     ..>.6..aL.......
 8014bb4:	556a20c8 000077ca 00000000 00000000     . jU.w..........
	...
 8014c10:	445b7400 32344345 6c70735d 735f7469     .t[DEC42]split_s
 8014c20:	31706574 0032345f 00000000 00000000     tep1_42.........
 8014c30:	03100000 d2c07110 d970c7f5 81e23fb6     .....q....p..?..
 8014c40:	b23e80ca 61ea1036 b8e6984c 9d93f7b5     ..>.6..aL.......
 8014c50:	556a20c8 000077ca 00000000 00000000     . jU.w..........
	...
 8014c8c:	fc100000 1d018a4a ef1b7a16 970c083f     ....J....z..?...
 8014c9c:	00d0d37d 00000000 00000000 00000000     }...............
 8014cac:	74626500 4345445b 735d3234 74696c70     .ebt[DEC42]split
 8014cbc:	74696e69 6574735f 345f3070 00000032     init_step0_42...
 8014ccc:	00000000 71100201 c7f5d2c0 3fb6d970     .......q....p..?
 8014cdc:	80ca81e2 1036b23e 984c61ea f7b5b8e6     ....>.6..aL.....
 8014cec:	20c89d93 77ca556a 00000000 00000000     ... jU.w........
	...
 8014d48:	74000000 4345445b 735d3234 74696c70     ...t[DEC42]split
 8014d58:	74696e69 6574735f 345f3170 00000032     init_step1_42...
 8014d68:	00000000 71100204 c7f5d2c0 3fb6d970     .......q....p..?
 8014d78:	80ca81e2 1036b23e 984c61ea f7b5b8e6     ....>.6..aL.....
 8014d88:	20c89d93 77ca556a 00000000 00000000     ... jU.w........
	...
 8014de4:	74000000 4345445b 735d3234 74696c70     ...t[DEC42]split
 8014df4:	74696e69 6574735f 345f3270 00000032     init_step2_42...
 8014e04:	00000000 71100310 c7f5d2c0 3fb6d970     .......q....p..?
 8014e14:	80ca81e2 1036b23e 984c61ea f7b5b8e6     ....>.6..aL.....
 8014e24:	20c89d93 77ca556a 00000000 00000000     ... jU.w........
	...
 8014e64:	8a4afc10 7a161d01 083fef1b d37d970c     ..J....z..?...}.
 8014e74:	000000d0 00000000 00000000 65000000     ...............e
 8014e84:	455b7462 3334434e 6c75665d 33345f6c     bt[ENC43]full_43
	...
 8014ea4:	030b0000 91b48110 1cffecd3 c2bec799     ................
 8014eb4:	9b580b8d ac03105b 746a9664 0f250ead     ..X.[...d.jt..%.
 8014ec4:	8ccb733a 000057c0 00000000 00000000     :s...W..........
	...
 8014f00:	a7100000 dc67a6e0 3441ecd5 f88c4dc5     ......g...A4.M..
 8014f10:	005ea600 00000000 00000000 00000000     ..^.............
 8014f20:	74626500 434e455b 735d3334 74696c70     .ebt[ENC43]split
 8014f30:	6574735f 345f3070 00000033 00000000     _step0_43.......
 8014f40:	00000000 81100203 ecd391b4 c7991cff     ................
 8014f50:	0b8dc2be 105b9b58 9664ac03 0ead746a     ....X.[...d.jt..
 8014f60:	733a0f25 57c08ccb 00000000 00000000     %.:s...W........
	...
 8014fbc:	74000000 434e455b 735d3334 74696c70     ...t[ENC43]split
 8014fcc:	6574735f 345f3170 00000033 00000000     _step1_43.......
 8014fdc:	00000000 81100308 ecd391b4 c7991cff     ................
 8014fec:	0b8dc2be 105b9b58 9664ac03 0ead746a     ....X.[...d.jt..
 8014ffc:	733a0f25 57c08ccb 00000000 00000000     %.:s...W........
	...
 801503c:	a6e0a710 ecd5dc67 4dc53441 a600f88c     ....g...A4.M....
 801504c:	0000005e 00000000 00000000 65000000     ^..............e
 801505c:	455b7462 3334434e 6c70735d 6e697469     bt[ENC43]splitin
 801506c:	735f7469 30706574 0033345f 00000000     it_step0_43.....
 801507c:	02010000 91b48110 1cffecd3 c2bec799     ................
 801508c:	9b580b8d ac03105b 746a9664 0f250ead     ..X.[...d.jt..%.
 801509c:	8ccb733a 000057c0 00000000 00000000     :s...W..........
	...
 80150f8:	455b7400 3334434e 6c70735d 6e697469     .t[ENC43]splitin
 8015108:	735f7469 31706574 0033345f 00000000     it_step1_43.....
 8015118:	02020000 91b48110 1cffecd3 c2bec799     ................
 8015128:	9b580b8d ac03105b 746a9664 0f250ead     ..X.[...d.jt..%.
 8015138:	8ccb733a 000057c0 00000000 00000000     :s...W..........
	...
 8015194:	455b7400 3334434e 6c70735d 6e697469     .t[ENC43]splitin
 80151a4:	735f7469 32706574 0033345f 00000000     it_step2_43.....
 80151b4:	03080000 91b48110 1cffecd3 c2bec799     ................
 80151c4:	9b580b8d ac03105b 746a9664 0f250ead     ..X.[...d.jt..%.
 80151d4:	8ccb733a 000057c0 00000000 00000000     :s...W..........
	...
 8015210:	a7100000 dc67a6e0 3441ecd5 f88c4dc5     ......g...A4.M..
 8015220:	005ea600 00000000 00000000 00000000     ..^.............
 8015230:	74626500 4345445b 665d3334 5f6c6c75     .ebt[DEC43]full_
 8015240:	00003334 00000000 00000000 00000000     43..............
 8015250:	00000000 01100315 e8c704e6 0ae5fc4f     ............O...
 8015260:	a3d5ba1c 104775e2 b6341fea b741234a     .....uG...4.J#A.
 8015270:	40ef7163 b1eafb22 00000000 00000000     cq.@"...........
	...
 80152b0:	ab859710 038da7c9 03717636 deb19516     ........6vq.....
 80152c0:	00000025 00000000 00000000 65000000     %..............e
 80152d0:	445b7462 33344345 6c70735d 735f7469     bt[DEC43]split_s
 80152e0:	30706574 0033345f 00000000 00000000     tep0_43.........
 80152f0:	02050000 04e60110 fc4fe8c7 ba1c0ae5     ..........O.....
 8015300:	75e2a3d5 1fea1047 234ab634 7163b741     ...uG...4.J#A.cq
 8015310:	fb2240ef 0000b1ea 00000000 00000000     .@".............
	...
 801536c:	445b7400 33344345 6c70735d 735f7469     .t[DEC43]split_s
 801537c:	31706574 0033345f 00000000 00000000     tep1_43.........
 801538c:	03100000 04e60110 fc4fe8c7 ba1c0ae5     ..........O.....
 801539c:	75e2a3d5 1fea1047 234ab634 7163b741     ...uG...4.J#A.cq
 80153ac:	fb2240ef 0000b1ea 00000000 00000000     .@".............
	...
 80153e8:	97100000 a7c9ab85 7636038d 95160371     ..........6vq...
 80153f8:	0025deb1 00000000 00000000 00000000     ..%.............
 8015408:	74626500 4345445b 735d3334 74696c70     .ebt[DEC43]split
 8015418:	74696e69 6574735f 345f3070 00000033     init_step0_43...
 8015428:	00000000 01100201 e8c704e6 0ae5fc4f     ............O...
 8015438:	a3d5ba1c 104775e2 b6341fea b741234a     .....uG...4.J#A.
 8015448:	40ef7163 b1eafb22 00000000 00000000     cq.@"...........
	...
 80154a4:	74000000 4345445b 735d3334 74696c70     ...t[DEC43]split
 80154b4:	74696e69 6574735f 345f3170 00000033     init_step1_43...
 80154c4:	00000000 01100204 e8c704e6 0ae5fc4f     ............O...
 80154d4:	a3d5ba1c 104775e2 b6341fea b741234a     .....uG...4.J#A.
 80154e4:	40ef7163 b1eafb22 00000000 00000000     cq.@"...........
	...
 8015540:	74000000 4345445b 735d3334 74696c70     ...t[DEC43]split
 8015550:	74696e69 6574735f 345f3270 00000033     init_step2_43...
 8015560:	00000000 01100310 e8c704e6 0ae5fc4f     ............O...
 8015570:	a3d5ba1c 104775e2 b6341fea b741234a     .....uG...4.J#A.
 8015580:	40ef7163 b1eafb22 00000000 00000000     cq.@"...........
	...
 80155c0:	ab859710 038da7c9 03717636 deb19516     ........6vq.....
 80155d0:	00000025 00000000 00000000 65000000     %..............e
 80155e0:	455b7462 3434434e 6c75665d 34345f6c     bt[ENC44]full_44
	...
 8015600:	030b0000 0843f310 ada5348b 18ce6d54     ......C..4..Tm..
 8015610:	3627efc0 c6bc10f8 c5b6c488 a9188bf3     ..'6............
 8015620:	3254f453 0000445e 00000000 00000000     S.T2^D..........
	...
 801565c:	e1100000 3af1b284 6cd7c9c7 16bb8df9     .......:...l....
 801566c:	00b9abc2 00000000 00000000 00000000     ................
 801567c:	74626500 434e455b 735d3434 74696c70     .ebt[ENC44]split
 801568c:	6574735f 345f3070 00000034 00000000     _step0_44.......
 801569c:	00000000 f3100203 348b0843 6d54ada5     ........C..4..Tm
 80156ac:	efc018ce 10f83627 c488c6bc 8bf3c5b6     ....'6..........
 80156bc:	f453a918 445e3254 00000000 00000000     ..S.T2^D........
	...
 8015718:	74000000 434e455b 735d3434 74696c70     ...t[ENC44]split
 8015728:	6574735f 345f3170 00000034 00000000     _step1_44.......
 8015738:	00000000 f3100308 348b0843 6d54ada5     ........C..4..Tm
 8015748:	efc018ce 10f83627 c488c6bc 8bf3c5b6     ....'6..........
 8015758:	f453a918 445e3254 00000000 00000000     ..S.T2^D........
	...
 8015798:	b284e110 c9c73af1 8df96cd7 abc216bb     .....:...l......
 80157a8:	000000b9 00000000 00000000 65000000     ...............e
 80157b8:	455b7462 3434434e 6c70735d 6e697469     bt[ENC44]splitin
 80157c8:	735f7469 30706574 0034345f 00000000     it_step0_44.....
 80157d8:	02010000 0843f310 ada5348b 18ce6d54     ......C..4..Tm..
 80157e8:	3627efc0 c6bc10f8 c5b6c488 a9188bf3     ..'6............
 80157f8:	3254f453 0000445e 00000000 00000000     S.T2^D..........
	...
 8015854:	455b7400 3434434e 6c70735d 6e697469     .t[ENC44]splitin
 8015864:	735f7469 31706574 0034345f 00000000     it_step1_44.....
 8015874:	02020000 0843f310 ada5348b 18ce6d54     ......C..4..Tm..
 8015884:	3627efc0 c6bc10f8 c5b6c488 a9188bf3     ..'6............
 8015894:	3254f453 0000445e 00000000 00000000     S.T2^D..........
	...
 80158f0:	455b7400 3434434e 6c70735d 6e697469     .t[ENC44]splitin
 8015900:	735f7469 32706574 0034345f 00000000     it_step2_44.....
 8015910:	03080000 0843f310 ada5348b 18ce6d54     ......C..4..Tm..
 8015920:	3627efc0 c6bc10f8 c5b6c488 a9188bf3     ..'6............
 8015930:	3254f453 0000445e 00000000 00000000     S.T2^D..........
	...
 801596c:	e1100000 3af1b284 6cd7c9c7 16bb8df9     .......:...l....
 801597c:	00b9abc2 00000000 00000000 00000000     ................
 801598c:	74626500 4345445b 665d3434 5f6c6c75     .ebt[DEC44]full_
 801599c:	00003434 00000000 00000000 00000000     44..............
 80159ac:	00000000 04100315 cacd9d39 8ede44a2     ........9....D..
 80159bc:	c164cac7 10c00678 b38190e1 59d8f8d3     ..d.x..........Y
 80159cc:	4fa52052 d220d238 00000000 00000000     R .O8. .........
	...
 8015a0c:	d49d6810 059190a2 68de7541 10dc2a07     .h......Au.h.*..
 8015a1c:	00000026 00000000 00000000 65000000     &..............e
 8015a2c:	445b7462 34344345 6c70735d 735f7469     bt[DEC44]split_s
 8015a3c:	30706574 0034345f 00000000 00000000     tep0_44.........
 8015a4c:	02050000 9d390410 44a2cacd cac78ede     ......9....D....
 8015a5c:	0678c164 90e110c0 f8d3b381 205259d8     d.x..........YR 
 8015a6c:	d2384fa5 0000d220 00000000 00000000     .O8. ...........
	...
 8015ac8:	445b7400 34344345 6c70735d 735f7469     .t[DEC44]split_s
 8015ad8:	31706574 0034345f 00000000 00000000     tep1_44.........
 8015ae8:	03100000 9d390410 44a2cacd cac78ede     ......9....D....
 8015af8:	0678c164 90e110c0 f8d3b381 205259d8     d.x..........YR 
 8015b08:	d2384fa5 0000d220 00000000 00000000     .O8. ...........
	...
 8015b44:	68100000 90a2d49d 75410591 2a0768de     ...h......Au.h.*
 8015b54:	002610dc 00000000 00000000 00000000     ..&.............
 8015b64:	74626500 4345445b 735d3434 74696c70     .ebt[DEC44]split
 8015b74:	74696e69 6574735f 345f3070 00000034     init_step0_44...
 8015b84:	00000000 04100201 cacd9d39 8ede44a2     ........9....D..
 8015b94:	c164cac7 10c00678 b38190e1 59d8f8d3     ..d.x..........Y
 8015ba4:	4fa52052 d220d238 00000000 00000000     R .O8. .........
	...
 8015c00:	74000000 4345445b 735d3434 74696c70     ...t[DEC44]split
 8015c10:	74696e69 6574735f 345f3170 00000034     init_step1_44...
 8015c20:	00000000 04100204 cacd9d39 8ede44a2     ........9....D..
 8015c30:	c164cac7 10c00678 b38190e1 59d8f8d3     ..d.x..........Y
 8015c40:	4fa52052 d220d238 00000000 00000000     R .O8. .........
	...
 8015c9c:	74000000 4345445b 735d3434 74696c70     ...t[DEC44]split
 8015cac:	74696e69 6574735f 345f3270 00000034     init_step2_44...
 8015cbc:	00000000 04100310 cacd9d39 8ede44a2     ........9....D..
 8015ccc:	c164cac7 10c00678 b38190e1 59d8f8d3     ..d.x..........Y
 8015cdc:	4fa52052 d220d238 00000000 00000000     R .O8. .........
	...
 8015d1c:	d49d6810 059190a2 68de7541 10dc2a07     .h......Au.h.*..
 8015d2c:	00000026 00000000 00000000 65000000     &..............e
 8015d3c:	455b7462 3534434e 6c75665d 35345f6c     bt[ENC45]full_45
	...
 8015d5c:	030b0000 44cd5f10 0b0a6a01 0c137694     ....._.D.j...v..
 8015d6c:	420f3268 3e4c1052 af93c7b4 4219d67d     h2.BR.L>....}..B
 8015d7c:	414ef4d2 000010eb 00000000 00000000     ..NA............
	...
 8015db8:	70100000 c8327e17 767a37ea f1b890da     ...p.~2..7zv....
 8015dc8:	00a6b4fd 00000000 00000000 00000000     ................
 8015dd8:	74626500 434e455b 735d3534 74696c70     .ebt[ENC45]split
 8015de8:	6574735f 345f3070 00000035 00000000     _step0_45.......
 8015df8:	00000000 5f100203 6a0144cd 76940b0a     ......._.D.j...v
 8015e08:	32680c13 1052420f c7b43e4c d67daf93     ..h2.BR.L>....}.
 8015e18:	f4d24219 10eb414e 00000000 00000000     .B..NA..........
	...
 8015e74:	74000000 434e455b 735d3534 74696c70     ...t[ENC45]split
 8015e84:	6574735f 345f3170 00000035 00000000     _step1_45.......
 8015e94:	00000000 5f100308 6a0144cd 76940b0a     ......._.D.j...v
 8015ea4:	32680c13 1052420f c7b43e4c d67daf93     ..h2.BR.L>....}.
 8015eb4:	f4d24219 10eb414e 00000000 00000000     .B..NA..........
	...
 8015ef4:	7e177010 37eac832 90da767a b4fdf1b8     .p.~2..7zv......
 8015f04:	000000a6 00000000 00000000 65000000     ...............e
 8015f14:	455b7462 3534434e 6c70735d 6e697469     bt[ENC45]splitin
 8015f24:	735f7469 30706574 0035345f 00000000     it_step0_45.....
 8015f34:	02010000 44cd5f10 0b0a6a01 0c137694     ....._.D.j...v..
 8015f44:	420f3268 3e4c1052 af93c7b4 4219d67d     h2.BR.L>....}..B
 8015f54:	414ef4d2 000010eb 00000000 00000000     ..NA............
	...
 8015fb0:	455b7400 3534434e 6c70735d 6e697469     .t[ENC45]splitin
 8015fc0:	735f7469 31706574 0035345f 00000000     it_step1_45.....
 8015fd0:	02020000 44cd5f10 0b0a6a01 0c137694     ....._.D.j...v..
 8015fe0:	420f3268 3e4c1052 af93c7b4 4219d67d     h2.BR.L>....}..B
 8015ff0:	414ef4d2 000010eb 00000000 00000000     ..NA............
	...
 801604c:	455b7400 3534434e 6c70735d 6e697469     .t[ENC45]splitin
 801605c:	735f7469 32706574 0035345f 00000000     it_step2_45.....
 801606c:	03080000 44cd5f10 0b0a6a01 0c137694     ....._.D.j...v..
 801607c:	420f3268 3e4c1052 af93c7b4 4219d67d     h2.BR.L>....}..B
 801608c:	414ef4d2 000010eb 00000000 00000000     ..NA............
	...
 80160c8:	70100000 c8327e17 767a37ea f1b890da     ...p.~2..7zv....
 80160d8:	00a6b4fd 00000000 00000000 00000000     ................
 80160e8:	74626500 4345445b 665d3534 5f6c6c75     .ebt[DEC45]full_
 80160f8:	00003534 00000000 00000000 00000000     45..............
 8016108:	00000000 44100315 0c48d904 dd739695     .......D..H...s.
 8016118:	84e8bd5d 104963e5 00912de8 0c59152a     ]....cI..-..*.Y.
 8016128:	c11fdf6a 60ff07df 00000000 00000000     j......`........
	...
 8016168:	5ee92010 f9fee88c cfb9f7e9 931479e1     . .^.........y..
 8016178:	0000007f 00000000 00000000 65000000     ...............e
 8016188:	445b7462 35344345 6c70735d 735f7469     bt[DEC45]split_s
 8016198:	30706574 0035345f 00000000 00000000     tep0_45.........
 80161a8:	02050000 d9044410 96950c48 bd5ddd73     .....D..H...s.].
 80161b8:	63e584e8 2de81049 152a0091 df6a0c59     ...cI..-..*.Y.j.
 80161c8:	07dfc11f 000060ff 00000000 00000000     .....`..........
	...
 8016224:	445b7400 35344345 6c70735d 735f7469     .t[DEC45]split_s
 8016234:	31706574 0035345f 00000000 00000000     tep1_45.........
 8016244:	03100000 d9044410 96950c48 bd5ddd73     .....D..H...s.].
 8016254:	63e584e8 2de81049 152a0091 df6a0c59     ...cI..-..*.Y.j.
 8016264:	07dfc11f 000060ff 00000000 00000000     .....`..........
	...
 80162a0:	20100000 e88c5ee9 f7e9f9fe 79e1cfb9     ... .^.........y
 80162b0:	007f9314 00000000 00000000 00000000     ................
 80162c0:	74626500 4345445b 735d3534 74696c70     .ebt[DEC45]split
 80162d0:	74696e69 6574735f 345f3070 00000035     init_step0_45...
 80162e0:	00000000 44100201 0c48d904 dd739695     .......D..H...s.
 80162f0:	84e8bd5d 104963e5 00912de8 0c59152a     ]....cI..-..*.Y.
 8016300:	c11fdf6a 60ff07df 00000000 00000000     j......`........
	...
 801635c:	74000000 4345445b 735d3534 74696c70     ...t[DEC45]split
 801636c:	74696e69 6574735f 345f3170 00000035     init_step1_45...
 801637c:	00000000 44100204 0c48d904 dd739695     .......D..H...s.
 801638c:	84e8bd5d 104963e5 00912de8 0c59152a     ]....cI..-..*.Y.
 801639c:	c11fdf6a 60ff07df 00000000 00000000     j......`........
	...
 80163f8:	74000000 4345445b 735d3534 74696c70     ...t[DEC45]split
 8016408:	74696e69 6574735f 345f3270 00000035     init_step2_45...
 8016418:	00000000 44100310 0c48d904 dd739695     .......D..H...s.
 8016428:	84e8bd5d 104963e5 00912de8 0c59152a     ]....cI..-..*.Y.
 8016438:	c11fdf6a 60ff07df 00000000 00000000     j......`........
	...
 8016478:	5ee92010 f9fee88c cfb9f7e9 931479e1     . .^.........y..
 8016488:	0000007f 00000000 00000000 65000000     ...............e
 8016498:	455b7462 3634434e 6c75665d 36345f6c     bt[ENC46]full_46
	...
 80164b8:	030b0000 6fd5bd10 f1ae6b5c e6d671a5     .......o\k...q..
 80164c8:	e57b1c53 fea01007 06ad651f 2ad593df     S.{......e.....*
 80164d8:	f6e5489f 0000c678 00000000 00000000     .H..x...........
	...
 8016514:	04100000 1d7aa085 a4881e3a 5f7734e0     ......z.:....4w_
 8016524:	00946096 00000000 00000000 00000000     .`..............
 8016534:	74626500 434e455b 735d3634 74696c70     .ebt[ENC46]split
 8016544:	6574735f 345f3070 00000036 00000000     _step0_46.......
 8016554:	00000000 bd100203 6b5c6fd5 71a5f1ae     .........o\k...q
 8016564:	1c53e6d6 1007e57b 651ffea0 93df06ad     ..S.{......e....
 8016574:	489f2ad5 c678f6e5 00000000 00000000     .*.H..x.........
	...
 80165d0:	74000000 434e455b 735d3634 74696c70     ...t[ENC46]split
 80165e0:	6574735f 345f3170 00000036 00000000     _step1_46.......
 80165f0:	00000000 bd100308 6b5c6fd5 71a5f1ae     .........o\k...q
 8016600:	1c53e6d6 1007e57b 651ffea0 93df06ad     ..S.{......e....
 8016610:	489f2ad5 c678f6e5 00000000 00000000     .*.H..x.........
	...
 8016650:	a0850410 1e3a1d7a 34e0a488 60965f77     ....z.:....4w_.`
 8016660:	00000094 00000000 00000000 65000000     ...............e
 8016670:	455b7462 3634434e 6c70735d 6e697469     bt[ENC46]splitin
 8016680:	735f7469 30706574 0036345f 00000000     it_step0_46.....
 8016690:	02010000 6fd5bd10 f1ae6b5c e6d671a5     .......o\k...q..
 80166a0:	e57b1c53 fea01007 06ad651f 2ad593df     S.{......e.....*
 80166b0:	f6e5489f 0000c678 00000000 00000000     .H..x...........
	...
 801670c:	455b7400 3634434e 6c70735d 6e697469     .t[ENC46]splitin
 801671c:	735f7469 31706574 0036345f 00000000     it_step1_46.....
 801672c:	02020000 6fd5bd10 f1ae6b5c e6d671a5     .......o\k...q..
 801673c:	e57b1c53 fea01007 06ad651f 2ad593df     S.{......e.....*
 801674c:	f6e5489f 0000c678 00000000 00000000     .H..x...........
	...
 80167a8:	455b7400 3634434e 6c70735d 6e697469     .t[ENC46]splitin
 80167b8:	735f7469 32706574 0036345f 00000000     it_step2_46.....
 80167c8:	03080000 6fd5bd10 f1ae6b5c e6d671a5     .......o\k...q..
 80167d8:	e57b1c53 fea01007 06ad651f 2ad593df     S.{......e.....*
 80167e8:	f6e5489f 0000c678 00000000 00000000     .H..x...........
	...
 8016824:	04100000 1d7aa085 a4881e3a 5f7734e0     ......z.:....4w_
 8016834:	00946096 00000000 00000000 00000000     .`..............
 8016844:	74626500 4345445b 665d3634 5f6c6c75     .ebt[DEC46]full_
 8016854:	00003634 00000000 00000000 00000000     46..............
 8016864:	00000000 c6100315 6f7aee3a 8b766804     ........:.zo.hv.
 8016874:	9e6fea56 10b768b5 9659cf5e 253d319d     V.o..h..^.Y..1=%
 8016884:	c7be89ea 8937847f 00000000 00000000     ......7.........
	...
 80168c4:	26528910 3bebf87e 9c0edaf4 e5ccf169     ..R&~..;....i...
 80168d4:	000000d4 00000000 00000000 65000000     ...............e
 80168e4:	445b7462 36344345 6c70735d 735f7469     bt[DEC46]split_s
 80168f4:	30706574 0036345f 00000000 00000000     tep0_46.........
 8016904:	02050000 ee3ac610 68046f7a ea568b76     ......:.zo.hv.V.
 8016914:	68b59e6f cf5e10b7 319d9659 89ea253d     o..h..^.Y..1=%..
 8016924:	847fc7be 00008937 00000000 00000000     ....7...........
	...
 8016980:	445b7400 36344345 6c70735d 735f7469     .t[DEC46]split_s
 8016990:	31706574 0036345f 00000000 00000000     tep1_46.........
 80169a0:	03100000 ee3ac610 68046f7a ea568b76     ......:.zo.hv.V.
 80169b0:	68b59e6f cf5e10b7 319d9659 89ea253d     o..h..^.Y..1=%..
 80169c0:	847fc7be 00008937 00000000 00000000     ....7...........
	...
 80169fc:	89100000 f87e2652 daf43beb f1699c0e     ....R&~..;....i.
 8016a0c:	00d4e5cc 00000000 00000000 00000000     ................
 8016a1c:	74626500 4345445b 735d3634 74696c70     .ebt[DEC46]split
 8016a2c:	74696e69 6574735f 345f3070 00000036     init_step0_46...
 8016a3c:	00000000 c6100201 6f7aee3a 8b766804     ........:.zo.hv.
 8016a4c:	9e6fea56 10b768b5 9659cf5e 253d319d     V.o..h..^.Y..1=%
 8016a5c:	c7be89ea 8937847f 00000000 00000000     ......7.........
	...
 8016ab8:	74000000 4345445b 735d3634 74696c70     ...t[DEC46]split
 8016ac8:	74696e69 6574735f 345f3170 00000036     init_step1_46...
 8016ad8:	00000000 c6100204 6f7aee3a 8b766804     ........:.zo.hv.
 8016ae8:	9e6fea56 10b768b5 9659cf5e 253d319d     V.o..h..^.Y..1=%
 8016af8:	c7be89ea 8937847f 00000000 00000000     ......7.........
	...
 8016b54:	74000000 4345445b 735d3634 74696c70     ...t[DEC46]split
 8016b64:	74696e69 6574735f 345f3270 00000036     init_step2_46...
 8016b74:	00000000 c6100310 6f7aee3a 8b766804     ........:.zo.hv.
 8016b84:	9e6fea56 10b768b5 9659cf5e 253d319d     V.o..h..^.Y..1=%
 8016b94:	c7be89ea 8937847f 00000000 00000000     ......7.........
	...
 8016bd4:	26528910 3bebf87e 9c0edaf4 e5ccf169     ..R&~..;....i...
 8016be4:	000000d4 00000000 00000000 65000000     ...............e
 8016bf4:	455b7462 3734434e 6c75665d 37345f6c     bt[ENC47]full_47
	...
 8016c14:	030b0000 b0d06210 434abff8 df0c0e73     .....b....JCs...
 8016c24:	5965d340 37da103f 61ce7b2e 94ba25d1     @.eY?..7.{.a.%..
 8016c34:	015e79d4 0000f41d 00000000 00000000     .y^.............
	...
 8016c70:	c9100000 92c14f38 ba09dcd8 a0451f5b     ....8O......[.E.
 8016c80:	00c2dc6c 00000000 00000000 00000000     l...............
 8016c90:	74626500 434e455b 735d3734 74696c70     .ebt[ENC47]split
 8016ca0:	6574735f 345f3070 00000037 00000000     _step0_47.......
 8016cb0:	00000000 62100203 bff8b0d0 0e73434a     .......b....JCs.
 8016cc0:	d340df0c 103f5965 7b2e37da 25d161ce     ..@.eY?..7.{.a.%
 8016cd0:	79d494ba f41d015e 00000000 00000000     ...y^...........
	...
 8016d2c:	74000000 434e455b 735d3734 74696c70     ...t[ENC47]split
 8016d3c:	6574735f 345f3170 00000037 00000000     _step1_47.......
 8016d4c:	00000000 62100308 bff8b0d0 0e73434a     .......b....JCs.
 8016d5c:	d340df0c 103f5965 7b2e37da 25d161ce     ..@.eY?..7.{.a.%
 8016d6c:	79d494ba f41d015e 00000000 00000000     ...y^...........
	...
 8016dac:	4f38c910 dcd892c1 1f5bba09 dc6ca045     ..8O......[.E.l.
 8016dbc:	000000c2 00000000 00000000 65000000     ...............e
 8016dcc:	455b7462 3734434e 6c70735d 6e697469     bt[ENC47]splitin
 8016ddc:	735f7469 30706574 0037345f 00000000     it_step0_47.....
 8016dec:	02010000 b0d06210 434abff8 df0c0e73     .....b....JCs...
 8016dfc:	5965d340 37da103f 61ce7b2e 94ba25d1     @.eY?..7.{.a.%..
 8016e0c:	015e79d4 0000f41d 00000000 00000000     .y^.............
	...
 8016e68:	455b7400 3734434e 6c70735d 6e697469     .t[ENC47]splitin
 8016e78:	735f7469 31706574 0037345f 00000000     it_step1_47.....
 8016e88:	02020000 b0d06210 434abff8 df0c0e73     .....b....JCs...
 8016e98:	5965d340 37da103f 61ce7b2e 94ba25d1     @.eY?..7.{.a.%..
 8016ea8:	015e79d4 0000f41d 00000000 00000000     .y^.............
	...
 8016f04:	455b7400 3734434e 6c70735d 6e697469     .t[ENC47]splitin
 8016f14:	735f7469 32706574 0037345f 00000000     it_step2_47.....
 8016f24:	03080000 b0d06210 434abff8 df0c0e73     .....b....JCs...
 8016f34:	5965d340 37da103f 61ce7b2e 94ba25d1     @.eY?..7.{.a.%..
 8016f44:	015e79d4 0000f41d 00000000 00000000     .y^.............
	...
 8016f80:	c9100000 92c14f38 ba09dcd8 a0451f5b     ....8O......[.E.
 8016f90:	00c2dc6c 00000000 00000000 00000000     l...............
 8016fa0:	74626500 4345445b 665d3734 5f6c6c75     .ebt[DEC47]full_
 8016fb0:	00003734 00000000 00000000 00000000     47..............
 8016fc0:	00000000 b2100315 74108138 08fb1a80     ........8..t....
 8016fd0:	22e6db9f 10b83fe6 cd1f5fd2 6028d2d0     ...".?..._....(`
 8016fe0:	f8744961 ed4cfcf5 00000000 00000000     aIt...L.........
	...
 8017020:	8df2b010 22676fcb 855a0045 bbbed4bc     .....og"E.Z.....
 8017030:	000000d8 00000000 00000000 65000000     ...............e
 8017040:	445b7462 37344345 6c70735d 735f7469     bt[DEC47]split_s
 8017050:	30706574 0037345f 00000000 00000000     tep0_47.........
 8017060:	02050000 8138b210 1a807410 db9f08fb     ......8..t......
 8017070:	3fe622e6 5fd210b8 d2d0cd1f 49616028     .".?..._....(`aI
 8017080:	fcf5f874 0000ed4c 00000000 00000000     t...L...........
	...
 80170dc:	445b7400 37344345 6c70735d 735f7469     .t[DEC47]split_s
 80170ec:	31706574 0037345f 00000000 00000000     tep1_47.........
 80170fc:	03100000 8138b210 1a807410 db9f08fb     ......8..t......
 801710c:	3fe622e6 5fd210b8 d2d0cd1f 49616028     .".?..._....(`aI
 801711c:	fcf5f874 0000ed4c 00000000 00000000     t...L...........
	...
 8017158:	b0100000 6fcb8df2 00452267 d4bc855a     .......og"E.Z...
 8017168:	00d8bbbe 00000000 00000000 00000000     ................
 8017178:	74626500 4345445b 735d3734 74696c70     .ebt[DEC47]split
 8017188:	74696e69 6574735f 345f3070 00000037     init_step0_47...
 8017198:	00000000 b2100201 74108138 08fb1a80     ........8..t....
 80171a8:	22e6db9f 10b83fe6 cd1f5fd2 6028d2d0     ...".?..._....(`
 80171b8:	f8744961 ed4cfcf5 00000000 00000000     aIt...L.........
	...
 8017214:	74000000 4345445b 735d3734 74696c70     ...t[DEC47]split
 8017224:	74696e69 6574735f 345f3170 00000037     init_step1_47...
 8017234:	00000000 b2100204 74108138 08fb1a80     ........8..t....
 8017244:	22e6db9f 10b83fe6 cd1f5fd2 6028d2d0     ...".?..._....(`
 8017254:	f8744961 ed4cfcf5 00000000 00000000     aIt...L.........
	...
 80172b0:	74000000 4345445b 735d3734 74696c70     ...t[DEC47]split
 80172c0:	74696e69 6574735f 345f3270 00000037     init_step2_47...
 80172d0:	00000000 b2100310 74108138 08fb1a80     ........8..t....
 80172e0:	22e6db9f 10b83fe6 cd1f5fd2 6028d2d0     ...".?..._....(`
 80172f0:	f8744961 ed4cfcf5 00000000 00000000     aIt...L.........
	...
 8017330:	8df2b010 22676fcb 855a0045 bbbed4bc     .....og"E.Z.....
 8017340:	000000d8 00000000 00000000 65000000     ...............e
 8017350:	455b7462 3834434e 6c75665d 38345f6c     bt[ENC48]full_48
	...
 8017370:	030b0000 f9427c10 2a43db1d 146c7ba4     .....|B...C*.{l.
 8017380:	aea2dd90 768610fa a53bad50 8febe70f     .......vP.;.....
 8017390:	b2d32490 00004a94 00000000 00000000     .$...J..........
	...
 80173cc:	b0100000 0582076a e2c3ae0c bd94608f     ....j........`..
 80173dc:	00bf15db 00000000 00000000 00000000     ................
 80173ec:	74626500 434e455b 735d3834 74696c70     .ebt[ENC48]split
 80173fc:	6574735f 345f3070 00000038 00000000     _step0_48.......
 801740c:	00000000 7c100203 db1df942 7ba42a43     .......|B...C*.{
 801741c:	dd90146c 10faaea2 ad507686 e70fa53b     l........vP.;...
 801742c:	24908feb 4a94b2d3 00000000 00000000     ...$...J........
	...
 8017488:	74000000 434e455b 735d3834 74696c70     ...t[ENC48]split
 8017498:	6574735f 345f3170 00000038 00000000     _step1_48.......
 80174a8:	00000000 7c100308 db1df942 7ba42a43     .......|B...C*.{
 80174b8:	dd90146c 10faaea2 ad507686 e70fa53b     l........vP.;...
 80174c8:	24908feb 4a94b2d3 00000000 00000000     ...$...J........
	...
 8017508:	076ab010 ae0c0582 608fe2c3 15dbbd94     ..j........`....
 8017518:	000000bf 00000000 00000000 65000000     ...............e
 8017528:	455b7462 3834434e 6c70735d 6e697469     bt[ENC48]splitin
 8017538:	735f7469 30706574 0038345f 00000000     it_step0_48.....
 8017548:	02010000 f9427c10 2a43db1d 146c7ba4     .....|B...C*.{l.
 8017558:	aea2dd90 768610fa a53bad50 8febe70f     .......vP.;.....
 8017568:	b2d32490 00004a94 00000000 00000000     .$...J..........
	...
 80175c4:	455b7400 3834434e 6c70735d 6e697469     .t[ENC48]splitin
 80175d4:	735f7469 31706574 0038345f 00000000     it_step1_48.....
 80175e4:	02020000 f9427c10 2a43db1d 146c7ba4     .....|B...C*.{l.
 80175f4:	aea2dd90 768610fa a53bad50 8febe70f     .......vP.;.....
 8017604:	b2d32490 00004a94 00000000 00000000     .$...J..........
	...
 8017660:	455b7400 3834434e 6c70735d 6e697469     .t[ENC48]splitin
 8017670:	735f7469 32706574 0038345f 00000000     it_step2_48.....
 8017680:	03080000 f9427c10 2a43db1d 146c7ba4     .....|B...C*.{l.
 8017690:	aea2dd90 768610fa a53bad50 8febe70f     .......vP.;.....
 80176a0:	b2d32490 00004a94 00000000 00000000     .$...J..........
	...
 80176dc:	b0100000 0582076a e2c3ae0c bd94608f     ....j........`..
 80176ec:	00bf15db 00000000 00000000 00000000     ................
 80176fc:	74626500 4345445b 665d3834 5f6c6c75     .ebt[DEC48]full_
 801770c:	00003834 00000000 00000000 00000000     48..............
 801771c:	00000000 81100315 47b93f33 bd0d770b     ........3?.G.w..
 801772c:	590ac61d 10032ed8 1b85a314 cc1d7ca5     ...Y.........|..
 801773c:	cf2e6c92 468b0332 00000000 00000000     .l..2..F........
	...
 801777c:	435d4710 72142f44 b6f289a6 031d3c17     .G]CD/.r.....<..
 801778c:	000000e9 00000000 00000000 65000000     ...............e
 801779c:	445b7462 38344345 6c70735d 735f7469     bt[DEC48]split_s
 80177ac:	30706574 0038345f 00000000 00000000     tep0_48.........
 80177bc:	02050000 3f338110 770b47b9 c61dbd0d     ......3?.G.w....
 80177cc:	2ed8590a a3141003 7ca51b85 6c92cc1d     .Y.........|...l
 80177dc:	0332cf2e 0000468b 00000000 00000000     ..2..F..........
	...
 8017838:	445b7400 38344345 6c70735d 735f7469     .t[DEC48]split_s
 8017848:	31706574 0038345f 00000000 00000000     tep1_48.........
 8017858:	03100000 3f338110 770b47b9 c61dbd0d     ......3?.G.w....
 8017868:	2ed8590a a3141003 7ca51b85 6c92cc1d     .Y.........|...l
 8017878:	0332cf2e 0000468b 00000000 00000000     ..2..F..........
	...
 80178b4:	47100000 2f44435d 89a67214 3c17b6f2     ...G]CD/.r.....<
 80178c4:	00e9031d 00000000 00000000 00000000     ................
 80178d4:	74626500 4345445b 735d3834 74696c70     .ebt[DEC48]split
 80178e4:	74696e69 6574735f 345f3070 00000038     init_step0_48...
 80178f4:	00000000 81100201 47b93f33 bd0d770b     ........3?.G.w..
 8017904:	590ac61d 10032ed8 1b85a314 cc1d7ca5     ...Y.........|..
 8017914:	cf2e6c92 468b0332 00000000 00000000     .l..2..F........
	...
 8017970:	74000000 4345445b 735d3834 74696c70     ...t[DEC48]split
 8017980:	74696e69 6574735f 345f3170 00000038     init_step1_48...
 8017990:	00000000 81100204 47b93f33 bd0d770b     ........3?.G.w..
 80179a0:	590ac61d 10032ed8 1b85a314 cc1d7ca5     ...Y.........|..
 80179b0:	cf2e6c92 468b0332 00000000 00000000     .l..2..F........
	...
 8017a0c:	74000000 4345445b 735d3834 74696c70     ...t[DEC48]split
 8017a1c:	74696e69 6574735f 345f3270 00000038     init_step2_48...
 8017a2c:	00000000 81100310 47b93f33 bd0d770b     ........3?.G.w..
 8017a3c:	590ac61d 10032ed8 1b85a314 cc1d7ca5     ...Y.........|..
 8017a4c:	cf2e6c92 468b0332 00000000 00000000     .l..2..F........
	...
 8017a8c:	435d4710 72142f44 b6f289a6 031d3c17     .G]CD/.r.....<..
 8017a9c:	000000e9 00000000 00000000 65000000     ...............e
 8017aac:	455b7462 3934434e 6c75665d 39345f6c     bt[ENC49]full_49
	...
 8017acc:	030b0000 0d365a10 6fbd9a60 49cd9266     .....Z6.`..of..I
 8017adc:	91fc0546 1fc910d0 1a64cd40 01419288     F.......@.d...A.
 8017aec:	36c7c92a 0000542c 00000000 00000000     *..6,T..........
	...
 8017b28:	3e100000 776a501c 265e83c6 b94ca487     ...>.Pjw..^&..L.
 8017b38:	0075afb4 00000000 00000000 00000000     ..u.............
 8017b48:	74626500 434e455b 735d3934 74696c70     .ebt[ENC49]split
 8017b58:	6574735f 345f3070 00000039 00000000     _step0_49.......
 8017b68:	00000000 5a100203 9a600d36 92666fbd     .......Z6.`..of.
 8017b78:	054649cd 10d091fc cd401fc9 92881a64     .IF.......@.d...
 8017b88:	c92a0141 542c36c7 00000000 00000000     A.*..6,T........
	...
 8017be4:	74000000 434e455b 735d3934 74696c70     ...t[ENC49]split
 8017bf4:	6574735f 345f3170 00000039 00000000     _step1_49.......
 8017c04:	00000000 5a100308 9a600d36 92666fbd     .......Z6.`..of.
 8017c14:	054649cd 10d091fc cd401fc9 92881a64     .IF.......@.d...
 8017c24:	c92a0141 542c36c7 00000000 00000000     A.*..6,T........
	...
 8017c64:	501c3e10 83c6776a a487265e afb4b94c     .>.Pjw..^&..L...
 8017c74:	00000075 00000000 00000000 65000000     u..............e
 8017c84:	455b7462 3934434e 6c70735d 6e697469     bt[ENC49]splitin
 8017c94:	735f7469 30706574 0039345f 00000000     it_step0_49.....
 8017ca4:	02010000 0d365a10 6fbd9a60 49cd9266     .....Z6.`..of..I
 8017cb4:	91fc0546 1fc910d0 1a64cd40 01419288     F.......@.d...A.
 8017cc4:	36c7c92a 0000542c 00000000 00000000     *..6,T..........
	...
 8017d20:	455b7400 3934434e 6c70735d 6e697469     .t[ENC49]splitin
 8017d30:	735f7469 31706574 0039345f 00000000     it_step1_49.....
 8017d40:	02020000 0d365a10 6fbd9a60 49cd9266     .....Z6.`..of..I
 8017d50:	91fc0546 1fc910d0 1a64cd40 01419288     F.......@.d...A.
 8017d60:	36c7c92a 0000542c 00000000 00000000     *..6,T..........
	...
 8017dbc:	455b7400 3934434e 6c70735d 6e697469     .t[ENC49]splitin
 8017dcc:	735f7469 32706574 0039345f 00000000     it_step2_49.....
 8017ddc:	03080000 0d365a10 6fbd9a60 49cd9266     .....Z6.`..of..I
 8017dec:	91fc0546 1fc910d0 1a64cd40 01419288     F.......@.d...A.
 8017dfc:	36c7c92a 0000542c 00000000 00000000     *..6,T..........
	...
 8017e38:	3e100000 776a501c 265e83c6 b94ca487     ...>.Pjw..^&..L.
 8017e48:	0075afb4 00000000 00000000 00000000     ..u.............
 8017e58:	74626500 4345445b 665d3934 5f6c6c75     .ebt[DEC49]full_
 8017e68:	00003934 00000000 00000000 00000000     49..............
 8017e78:	00000000 6e100315 55be616c 29f9f90d     .......nla.U...)
 8017e88:	0fcd55e4 10d2e582 a1633e0f 2d24530c     .U.......>c..S$-
 8017e98:	77b73002 cb78ec74 00000000 00000000     .0.wt.x.........
	...
 8017ed8:	ac9b6310 beab8b3f 28d43dc7 061fc02d     .c..?....=.(-...
 8017ee8:	00000005 00000000 00000000 65000000     ...............e
 8017ef8:	445b7462 39344345 6c70735d 735f7469     bt[DEC49]split_s
 8017f08:	30706574 0039345f 00000000 00000000     tep0_49.........
 8017f18:	02050000 616c6e10 f90d55be 55e429f9     .....nla.U...).U
 8017f28:	e5820fcd 3e0f10d2 530ca163 30022d24     .......>c..S$-.0
 8017f38:	ec7477b7 0000cb78 00000000 00000000     .wt.x...........
	...
 8017f94:	445b7400 39344345 6c70735d 735f7469     .t[DEC49]split_s
 8017fa4:	31706574 0039345f 00000000 00000000     tep1_49.........
 8017fb4:	03100000 616c6e10 f90d55be 55e429f9     .....nla.U...).U
 8017fc4:	e5820fcd 3e0f10d2 530ca163 30022d24     .......>c..S$-.0
 8017fd4:	ec7477b7 0000cb78 00000000 00000000     .wt.x...........
	...
 8018010:	63100000 8b3fac9b 3dc7beab c02d28d4     ...c..?....=.(-.
 8018020:	0005061f 00000000 00000000 00000000     ................
 8018030:	74626500 4345445b 735d3934 74696c70     .ebt[DEC49]split
 8018040:	74696e69 6574735f 345f3070 00000039     init_step0_49...
 8018050:	00000000 6e100201 55be616c 29f9f90d     .......nla.U...)
 8018060:	0fcd55e4 10d2e582 a1633e0f 2d24530c     .U.......>c..S$-
 8018070:	77b73002 cb78ec74 00000000 00000000     .0.wt.x.........
	...
 80180cc:	74000000 4345445b 735d3934 74696c70     ...t[DEC49]split
 80180dc:	74696e69 6574735f 345f3170 00000039     init_step1_49...
 80180ec:	00000000 6e100204 55be616c 29f9f90d     .......nla.U...)
 80180fc:	0fcd55e4 10d2e582 a1633e0f 2d24530c     .U.......>c..S$-
 801810c:	77b73002 cb78ec74 00000000 00000000     .0.wt.x.........
	...
 8018168:	74000000 4345445b 735d3934 74696c70     ...t[DEC49]split
 8018178:	74696e69 6574735f 345f3270 00000039     init_step2_49...
 8018188:	00000000 6e100310 55be616c 29f9f90d     .......nla.U...)
 8018198:	0fcd55e4 10d2e582 a1633e0f 2d24530c     .U.......>c..S$-
 80181a8:	77b73002 cb78ec74 00000000 00000000     .0.wt.x.........
	...
 80181e8:	ac9b6310 beab8b3f 28d43dc7 061fc02d     .c..?....=.(-...
 80181f8:	00000005 00000000 00000000 65000000     ...............e
 8018208:	455b7462 3035434e 6c75665d 30355f6c     bt[ENC50]full_50
	...
 8018228:	030b0000 c10c8c10 21955365 df7eeb9f     ........eS.!..~.
 8018238:	7654beed 0b69102f 802b30a0 f209cb37     ..Tv/.i..0+.7...
 8018248:	930d5930 000011e1 00000000 00000000     0Y..............
	...
 8018284:	a1100000 8fe72aa3 806504cc 4c1619ca     .....*....e....L
 8018294:	000e3043 00000000 00000000 00000000     C0..............
 80182a4:	74626500 434e455b 735d3035 74696c70     .ebt[ENC50]split
 80182b4:	6574735f 355f3070 00000030 00000000     _step0_50.......
 80182c4:	00000000 8c100203 5365c10c eb9f2195     ..........eS.!..
 80182d4:	beeddf7e 102f7654 30a00b69 cb37802b     ~...Tv/.i..0+.7.
 80182e4:	5930f209 11e1930d 00000000 00000000     ..0Y............
	...
 8018340:	74000000 434e455b 735d3035 74696c70     ...t[ENC50]split
 8018350:	6574735f 355f3170 00000030 00000000     _step1_50.......
 8018360:	00000000 8c100308 5365c10c eb9f2195     ..........eS.!..
 8018370:	beeddf7e 102f7654 30a00b69 cb37802b     ~...Tv/.i..0+.7.
 8018380:	5930f209 11e1930d 00000000 00000000     ..0Y............
	...
 80183c0:	2aa3a110 04cc8fe7 19ca8065 30434c16     ...*....e....LC0
 80183d0:	0000000e 00000000 00000000 65000000     ...............e
 80183e0:	455b7462 3035434e 6c70735d 6e697469     bt[ENC50]splitin
 80183f0:	735f7469 30706574 0030355f 00000000     it_step0_50.....
 8018400:	02010000 c10c8c10 21955365 df7eeb9f     ........eS.!..~.
 8018410:	7654beed 0b69102f 802b30a0 f209cb37     ..Tv/.i..0+.7...
 8018420:	930d5930 000011e1 00000000 00000000     0Y..............
	...
 801847c:	455b7400 3035434e 6c70735d 6e697469     .t[ENC50]splitin
 801848c:	735f7469 31706574 0030355f 00000000     it_step1_50.....
 801849c:	02020000 c10c8c10 21955365 df7eeb9f     ........eS.!..~.
 80184ac:	7654beed 0b69102f 802b30a0 f209cb37     ..Tv/.i..0+.7...
 80184bc:	930d5930 000011e1 00000000 00000000     0Y..............
	...
 8018518:	455b7400 3035434e 6c70735d 6e697469     .t[ENC50]splitin
 8018528:	735f7469 32706574 0030355f 00000000     it_step2_50.....
 8018538:	03080000 c10c8c10 21955365 df7eeb9f     ........eS.!..~.
 8018548:	7654beed 0b69102f 802b30a0 f209cb37     ..Tv/.i..0+.7...
 8018558:	930d5930 000011e1 00000000 00000000     0Y..............
	...
 8018594:	a1100000 8fe72aa3 806504cc 4c1619ca     .....*....e....L
 80185a4:	000e3043 00000000 00000000 00000000     C0..............
 80185b4:	74626500 4345445b 665d3035 5f6c6c75     .ebt[DEC50]full_
 80185c4:	00003035 00000000 00000000 00000000     50..............
 80185d4:	00000000 a7100315 3a69a4a3 e428d228     ..........i:(.(.
 80185e4:	ea3ae27c 10270a1b dfb49820 4be124bd     |.:...'. ....$.K
 80185f4:	2dd9ba6b 4bcb2fa5 00000000 00000000     k..-./.K........
	...
 8018634:	e1d28d10 b54cf6da 032e082a 5de8f732     ......L.*...2..]
 8018644:	000000ef 00000000 00000000 65000000     ...............e
 8018654:	445b7462 30354345 6c70735d 735f7469     bt[DEC50]split_s
 8018664:	30706574 0030355f 00000000 00000000     tep0_50.........
 8018674:	02050000 a4a3a710 d2283a69 e27ce428     ........i:(.(.|.
 8018684:	0a1bea3a 98201027 24bddfb4 ba6b4be1     :...'. ....$.Kk.
 8018694:	2fa52dd9 00004bcb 00000000 00000000     .-./.K..........
	...
 80186f0:	445b7400 30354345 6c70735d 735f7469     .t[DEC50]split_s
 8018700:	31706574 0030355f 00000000 00000000     tep1_50.........
 8018710:	03100000 a4a3a710 d2283a69 e27ce428     ........i:(.(.|.
 8018720:	0a1bea3a 98201027 24bddfb4 ba6b4be1     :...'. ....$.Kk.
 8018730:	2fa52dd9 00004bcb 00000000 00000000     .-./.K..........
	...
 801876c:	8d100000 f6dae1d2 082ab54c f732032e     ........L.*...2.
 801877c:	00ef5de8 00000000 00000000 00000000     .]..............
 801878c:	74626500 4345445b 735d3035 74696c70     .ebt[DEC50]split
 801879c:	74696e69 6574735f 355f3070 00000030     init_step0_50...
 80187ac:	00000000 a7100201 3a69a4a3 e428d228     ..........i:(.(.
 80187bc:	ea3ae27c 10270a1b dfb49820 4be124bd     |.:...'. ....$.K
 80187cc:	2dd9ba6b 4bcb2fa5 00000000 00000000     k..-./.K........
	...
 8018828:	74000000 4345445b 735d3035 74696c70     ...t[DEC50]split
 8018838:	74696e69 6574735f 355f3170 00000030     init_step1_50...
 8018848:	00000000 a7100204 3a69a4a3 e428d228     ..........i:(.(.
 8018858:	ea3ae27c 10270a1b dfb49820 4be124bd     |.:...'. ....$.K
 8018868:	2dd9ba6b 4bcb2fa5 00000000 00000000     k..-./.K........
	...
 80188c4:	74000000 4345445b 735d3035 74696c70     ...t[DEC50]split
 80188d4:	74696e69 6574735f 355f3270 00000030     init_step2_50...
 80188e4:	00000000 a7100310 3a69a4a3 e428d228     ..........i:(.(.
 80188f4:	ea3ae27c 10270a1b dfb49820 4be124bd     |.:...'. ....$.K
 8018904:	2dd9ba6b 4bcb2fa5 00000000 00000000     k..-./.K........
	...
 8018944:	e1d28d10 b54cf6da 032e082a 5de8f732     ......L.*...2..]
 8018954:	000000ef 00000000 00000000 65000000     ...............e
 8018964:	455b7462 3135434e 6c75665d 31355f6c     bt[ENC51]full_51
	...
 8018984:	030b0000 2874ae10 901f9513 dc148f6c     ......t(....l...
 8018994:	8414978d d0ab1092 fd0d515c c720753c     ........\Q..<u .
 80189a4:	5c333fc6 000096a5 00000000 00000000     .?3\............
	...
 80189e0:	bd100000 8df5dab4 a2079724 f8fc1e34     ........$...4...
 80189f0:	00344918 00000000 00000000 00000000     .I4.............
 8018a00:	74626500 434e455b 735d3135 74696c70     .ebt[ENC51]split
 8018a10:	6574735f 355f3070 00000031 00000000     _step0_51.......
 8018a20:	00000000 ae100203 95132874 8f6c901f     ........t(....l.
 8018a30:	978ddc14 10928414 515cd0ab 753cfd0d     ..........\Q..<u
 8018a40:	3fc6c720 96a55c33 00000000 00000000      ..?3\..........
	...
 8018a9c:	74000000 434e455b 735d3135 74696c70     ...t[ENC51]split
 8018aac:	6574735f 355f3170 00000031 00000000     _step1_51.......
 8018abc:	00000000 ae100308 95132874 8f6c901f     ........t(....l.
 8018acc:	978ddc14 10928414 515cd0ab 753cfd0d     ..........\Q..<u
 8018adc:	3fc6c720 96a55c33 00000000 00000000      ..?3\..........
	...
 8018b1c:	dab4bd10 97248df5 1e34a207 4918f8fc     ......$...4....I
 8018b2c:	00000034 00000000 00000000 65000000     4..............e
 8018b3c:	455b7462 3135434e 6c70735d 6e697469     bt[ENC51]splitin
 8018b4c:	735f7469 30706574 0031355f 00000000     it_step0_51.....
 8018b5c:	02010000 2874ae10 901f9513 dc148f6c     ......t(....l...
 8018b6c:	8414978d d0ab1092 fd0d515c c720753c     ........\Q..<u .
 8018b7c:	5c333fc6 000096a5 00000000 00000000     .?3\............
	...
 8018bd8:	455b7400 3135434e 6c70735d 6e697469     .t[ENC51]splitin
 8018be8:	735f7469 31706574 0031355f 00000000     it_step1_51.....
 8018bf8:	02020000 2874ae10 901f9513 dc148f6c     ......t(....l...
 8018c08:	8414978d d0ab1092 fd0d515c c720753c     ........\Q..<u .
 8018c18:	5c333fc6 000096a5 00000000 00000000     .?3\............
	...
 8018c74:	455b7400 3135434e 6c70735d 6e697469     .t[ENC51]splitin
 8018c84:	735f7469 32706574 0031355f 00000000     it_step2_51.....
 8018c94:	03080000 2874ae10 901f9513 dc148f6c     ......t(....l...
 8018ca4:	8414978d d0ab1092 fd0d515c c720753c     ........\Q..<u .
 8018cb4:	5c333fc6 000096a5 00000000 00000000     .?3\............
	...
 8018cf0:	bd100000 8df5dab4 a2079724 f8fc1e34     ........$...4...
 8018d00:	00344918 00000000 00000000 00000000     .I4.............
 8018d10:	74626500 4345445b 665d3135 5f6c6c75     .ebt[DEC51]full_
 8018d20:	00003135 00000000 00000000 00000000     51..............
 8018d30:	00000000 0b100315 8a7d464a 5bb183c8     ........JF}....[
 8018d40:	963a6b8f 10d11d2c 576c2aa3 50c50dd4     .k:.,....*lW...P
 8018d50:	fad403e2 fac0e9d1 00000000 00000000     ................
	...
 8018d90:	afabb410 4eab61f1 29c5be7d f9239df9     .....a.N}..)..#.
 8018da0:	0000001c 00000000 00000000 65000000     ...............e
 8018db0:	445b7462 31354345 6c70735d 735f7469     bt[DEC51]split_s
 8018dc0:	30706574 0031355f 00000000 00000000     tep0_51.........
 8018dd0:	02050000 464a0b10 83c88a7d 6b8f5bb1     ......JF}....[.k
 8018de0:	1d2c963a 2aa310d1 0dd4576c 03e250c5     :.,....*lW...P..
 8018df0:	e9d1fad4 0000fac0 00000000 00000000     ................
	...
 8018e4c:	445b7400 31354345 6c70735d 735f7469     .t[DEC51]split_s
 8018e5c:	31706574 0031355f 00000000 00000000     tep1_51.........
 8018e6c:	03100000 464a0b10 83c88a7d 6b8f5bb1     ......JF}....[.k
 8018e7c:	1d2c963a 2aa310d1 0dd4576c 03e250c5     :.,....*lW...P..
 8018e8c:	e9d1fad4 0000fac0 00000000 00000000     ................
	...
 8018ec8:	b4100000 61f1afab be7d4eab 9df929c5     .......a.N}..)..
 8018ed8:	001cf923 00000000 00000000 00000000     #...............
 8018ee8:	74626500 4345445b 735d3135 74696c70     .ebt[DEC51]split
 8018ef8:	74696e69 6574735f 355f3070 00000031     init_step0_51...
 8018f08:	00000000 0b100201 8a7d464a 5bb183c8     ........JF}....[
 8018f18:	963a6b8f 10d11d2c 576c2aa3 50c50dd4     .k:.,....*lW...P
 8018f28:	fad403e2 fac0e9d1 00000000 00000000     ................
	...
 8018f84:	74000000 4345445b 735d3135 74696c70     ...t[DEC51]split
 8018f94:	74696e69 6574735f 355f3170 00000031     init_step1_51...
 8018fa4:	00000000 0b100204 8a7d464a 5bb183c8     ........JF}....[
 8018fb4:	963a6b8f 10d11d2c 576c2aa3 50c50dd4     .k:.,....*lW...P
 8018fc4:	fad403e2 fac0e9d1 00000000 00000000     ................
	...
 8019020:	74000000 4345445b 735d3135 74696c70     ...t[DEC51]split
 8019030:	74696e69 6574735f 355f3270 00000031     init_step2_51...
 8019040:	00000000 0b100310 8a7d464a 5bb183c8     ........JF}....[
 8019050:	963a6b8f 10d11d2c 576c2aa3 50c50dd4     .k:.,....*lW...P
 8019060:	fad403e2 fac0e9d1 00000000 00000000     ................
	...
 80190a0:	afabb410 4eab61f1 29c5be7d f9239df9     .....a.N}..)..#.
 80190b0:	0000001c 00000000 00000000 65000000     ...............e
 80190c0:	455b7462 3235434e 6c75665d 32355f6c     bt[ENC52]full_52
	...
 80190e0:	030b0000 b852f810 6eed9bc3 d4486954     ......R....nTiH.
 80190f0:	c9fc5994 c0f41026 89f21f6f a859fca9     .Y..&...o.....Y.
 8019100:	3873fe3e 0000adad 00000000 00000000     >.s8............
	...
 801913c:	ce100000 1d157467 24afe6ca 6b384b00     ....gt.....$.K8k
 801914c:	00c1224f 00000000 00000000 00000000     O"..............
 801915c:	74626500 434e455b 735d3235 74696c70     .ebt[ENC52]split
 801916c:	6574735f 355f3070 00000032 00000000     _step0_52.......
 801917c:	00000000 f8100203 9bc3b852 69546eed     ........R....nTi
 801918c:	5994d448 1026c9fc 1f6fc0f4 fca989f2     H..Y..&...o.....
 801919c:	fe3ea859 adad3873 00000000 00000000     Y.>.s8..........
	...
 80191f8:	74000000 434e455b 735d3235 74696c70     ...t[ENC52]split
 8019208:	6574735f 355f3170 00000032 00000000     _step1_52.......
 8019218:	00000000 f8100308 9bc3b852 69546eed     ........R....nTi
 8019228:	5994d448 1026c9fc 1f6fc0f4 fca989f2     H..Y..&...o.....
 8019238:	fe3ea859 adad3873 00000000 00000000     Y.>.s8..........
	...
 8019278:	7467ce10 e6ca1d15 4b0024af 224f6b38     ..gt.....$.K8kO"
 8019288:	000000c1 00000000 00000000 65000000     ...............e
 8019298:	455b7462 3235434e 6c70735d 6e697469     bt[ENC52]splitin
 80192a8:	735f7469 30706574 0032355f 00000000     it_step0_52.....
 80192b8:	02010000 b852f810 6eed9bc3 d4486954     ......R....nTiH.
 80192c8:	c9fc5994 c0f41026 89f21f6f a859fca9     .Y..&...o.....Y.
 80192d8:	3873fe3e 0000adad 00000000 00000000     >.s8............
	...
 8019334:	455b7400 3235434e 6c70735d 6e697469     .t[ENC52]splitin
 8019344:	735f7469 31706574 0032355f 00000000     it_step1_52.....
 8019354:	02020000 b852f810 6eed9bc3 d4486954     ......R....nTiH.
 8019364:	c9fc5994 c0f41026 89f21f6f a859fca9     .Y..&...o.....Y.
 8019374:	3873fe3e 0000adad 00000000 00000000     >.s8............
	...
 80193d0:	455b7400 3235434e 6c70735d 6e697469     .t[ENC52]splitin
 80193e0:	735f7469 32706574 0032355f 00000000     it_step2_52.....
 80193f0:	03080000 b852f810 6eed9bc3 d4486954     ......R....nTiH.
 8019400:	c9fc5994 c0f41026 89f21f6f a859fca9     .Y..&...o.....Y.
 8019410:	3873fe3e 0000adad 00000000 00000000     >.s8............
	...
 801944c:	ce100000 1d157467 24afe6ca 6b384b00     ....gt.....$.K8k
 801945c:	00c1224f 00000000 00000000 00000000     O"..............
 801946c:	74626500 4345445b 665d3235 5f6c6c75     .ebt[DEC52]full_
 801947c:	00003235 00000000 00000000 00000000     52..............
 801948c:	00000000 8c100315 fa5e6ebd 317130a2     .........n^..0q1
 801949c:	ca2bac60 1010bfb6 b17224fc 1e966e40     `.+......$r.@n..
 80194ac:	d9f13057 a4099637 00000000 00000000     W0..7...........
	...
 80194ec:	7182e210 9b0144df 9027ac34 5e100f8e     ...q.D..4.'....^
 80194fc:	000000d2 00000000 00000000 65000000     ...............e
 801950c:	445b7462 32354345 6c70735d 735f7469     bt[DEC52]split_s
 801951c:	30706574 0032355f 00000000 00000000     tep0_52.........
 801952c:	02050000 6ebd8c10 30a2fa5e ac603171     .......n^..0q1`.
 801953c:	bfb6ca2b 24fc1010 6e40b172 30571e96     +......$r.@n..W0
 801954c:	9637d9f1 0000a409 00000000 00000000     ..7.............
	...
 80195a8:	445b7400 32354345 6c70735d 735f7469     .t[DEC52]split_s
 80195b8:	31706574 0032355f 00000000 00000000     tep1_52.........
 80195c8:	03100000 6ebd8c10 30a2fa5e ac603171     .......n^..0q1`.
 80195d8:	bfb6ca2b 24fc1010 6e40b172 30571e96     +......$r.@n..W0
 80195e8:	9637d9f1 0000a409 00000000 00000000     ..7.............
	...
 8019624:	e2100000 44df7182 ac349b01 0f8e9027     .....q.D..4.'...
 8019634:	00d25e10 00000000 00000000 00000000     .^..............
 8019644:	74626500 4345445b 735d3235 74696c70     .ebt[DEC52]split
 8019654:	74696e69 6574735f 355f3070 00000032     init_step0_52...
 8019664:	00000000 8c100201 fa5e6ebd 317130a2     .........n^..0q1
 8019674:	ca2bac60 1010bfb6 b17224fc 1e966e40     `.+......$r.@n..
 8019684:	d9f13057 a4099637 00000000 00000000     W0..7...........
	...
 80196e0:	74000000 4345445b 735d3235 74696c70     ...t[DEC52]split
 80196f0:	74696e69 6574735f 355f3170 00000032     init_step1_52...
 8019700:	00000000 8c100204 fa5e6ebd 317130a2     .........n^..0q1
 8019710:	ca2bac60 1010bfb6 b17224fc 1e966e40     `.+......$r.@n..
 8019720:	d9f13057 a4099637 00000000 00000000     W0..7...........
	...
 801977c:	74000000 4345445b 735d3235 74696c70     ...t[DEC52]split
 801978c:	74696e69 6574735f 355f3270 00000032     init_step2_52...
 801979c:	00000000 8c100310 fa5e6ebd 317130a2     .........n^..0q1
 80197ac:	ca2bac60 1010bfb6 b17224fc 1e966e40     `.+......$r.@n..
 80197bc:	d9f13057 a4099637 00000000 00000000     W0..7...........
	...
 80197fc:	7182e210 9b0144df 9027ac34 5e100f8e     ...q.D..4.'....^
 801980c:	000000d2 00000000 00000000 65000000     ...............e
 801981c:	455b7462 3335434e 6c75665d 33355f6c     bt[ENC53]full_53
	...
 801983c:	030b0000 45b76910 01a23fec ea1937dd     .....i.E.?...7..
 801984c:	7940dcba e628105a 18640938 34d740cf     ..@yZ.(.8.d..@.4
 801985c:	fe125207 00006deb 00000000 00000000     .R...m..........
	...
 8019898:	71100000 f214ca19 9d0b7bbc 1dc80603     ...q.....{......
 80198a8:	00d288e4 00000000 00000000 00000000     ................
 80198b8:	74626500 434e455b 735d3335 74696c70     .ebt[ENC53]split
 80198c8:	6574735f 355f3070 00000033 00000000     _step0_53.......
 80198d8:	00000000 69100203 3fec45b7 37dd01a2     .......i.E.?...7
 80198e8:	dcbaea19 105a7940 0938e628 40cf1864     ....@yZ.(.8.d..@
 80198f8:	520734d7 6debfe12 00000000 00000000     .4.R...m........
	...
 8019954:	74000000 434e455b 735d3335 74696c70     ...t[ENC53]split
 8019964:	6574735f 355f3170 00000033 00000000     _step1_53.......
 8019974:	00000000 69100308 3fec45b7 37dd01a2     .......i.E.?...7
 8019984:	dcbaea19 105a7940 0938e628 40cf1864     ....@yZ.(.8.d..@
 8019994:	520734d7 6debfe12 00000000 00000000     .4.R...m........
	...
 80199d4:	ca197110 7bbcf214 06039d0b 88e41dc8     .q.....{........
 80199e4:	000000d2 00000000 00000000 65000000     ...............e
 80199f4:	455b7462 3335434e 6c70735d 6e697469     bt[ENC53]splitin
 8019a04:	735f7469 30706574 0033355f 00000000     it_step0_53.....
 8019a14:	02010000 45b76910 01a23fec ea1937dd     .....i.E.?...7..
 8019a24:	7940dcba e628105a 18640938 34d740cf     ..@yZ.(.8.d..@.4
 8019a34:	fe125207 00006deb 00000000 00000000     .R...m..........
	...
 8019a90:	455b7400 3335434e 6c70735d 6e697469     .t[ENC53]splitin
 8019aa0:	735f7469 31706574 0033355f 00000000     it_step1_53.....
 8019ab0:	02020000 45b76910 01a23fec ea1937dd     .....i.E.?...7..
 8019ac0:	7940dcba e628105a 18640938 34d740cf     ..@yZ.(.8.d..@.4
 8019ad0:	fe125207 00006deb 00000000 00000000     .R...m..........
	...
 8019b2c:	455b7400 3335434e 6c70735d 6e697469     .t[ENC53]splitin
 8019b3c:	735f7469 32706574 0033355f 00000000     it_step2_53.....
 8019b4c:	03080000 45b76910 01a23fec ea1937dd     .....i.E.?...7..
 8019b5c:	7940dcba e628105a 18640938 34d740cf     ..@yZ.(.8.d..@.4
 8019b6c:	fe125207 00006deb 00000000 00000000     .R...m..........
	...
 8019ba8:	71100000 f214ca19 9d0b7bbc 1dc80603     ...q.....{......
 8019bb8:	00d288e4 00000000 00000000 00000000     ................
 8019bc8:	74626500 4345445b 665d3335 5f6c6c75     .ebt[DEC53]full_
 8019bd8:	00003335 00000000 00000000 00000000     53..............
 8019be8:	00000000 56100315 7fbefb1a 7e6df907     .......V......m~
 8019bf8:	bdde48b0 1060f51b 71924e1a df243cbe     .H....`..N.q.<$.
 8019c08:	181d4a8f d119df28 00000000 00000000     .J..(...........
	...
 8019c48:	2a4e1010 22789ce7 5500e0d5 81eca06a     ..N*..x"...Uj...
 8019c58:	00000039 00000000 00000000 65000000     9..............e
 8019c68:	445b7462 33354345 6c70735d 735f7469     bt[DEC53]split_s
 8019c78:	30706574 0033355f 00000000 00000000     tep0_53.........
 8019c88:	02050000 fb1a5610 f9077fbe 48b07e6d     .....V......m~.H
 8019c98:	f51bbdde 4e1a1060 3cbe7192 4a8fdf24     ....`..N.q.<$..J
 8019ca8:	df28181d 0000d119 00000000 00000000     ..(.............
	...
 8019d04:	445b7400 33354345 6c70735d 735f7469     .t[DEC53]split_s
 8019d14:	31706574 0033355f 00000000 00000000     tep1_53.........
 8019d24:	03100000 fb1a5610 f9077fbe 48b07e6d     .....V......m~.H
 8019d34:	f51bbdde 4e1a1060 3cbe7192 4a8fdf24     ....`..N.q.<$..J
 8019d44:	df28181d 0000d119 00000000 00000000     ..(.............
	...
 8019d80:	10100000 9ce72a4e e0d52278 a06a5500     ....N*..x"...Uj.
 8019d90:	003981ec 00000000 00000000 00000000     ..9.............
 8019da0:	74626500 4345445b 735d3335 74696c70     .ebt[DEC53]split
 8019db0:	74696e69 6574735f 355f3070 00000033     init_step0_53...
 8019dc0:	00000000 56100201 7fbefb1a 7e6df907     .......V......m~
 8019dd0:	bdde48b0 1060f51b 71924e1a df243cbe     .H....`..N.q.<$.
 8019de0:	181d4a8f d119df28 00000000 00000000     .J..(...........
	...
 8019e3c:	74000000 4345445b 735d3335 74696c70     ...t[DEC53]split
 8019e4c:	74696e69 6574735f 355f3170 00000033     init_step1_53...
 8019e5c:	00000000 56100204 7fbefb1a 7e6df907     .......V......m~
 8019e6c:	bdde48b0 1060f51b 71924e1a df243cbe     .H....`..N.q.<$.
 8019e7c:	181d4a8f d119df28 00000000 00000000     .J..(...........
	...
 8019ed8:	74000000 4345445b 735d3335 74696c70     ...t[DEC53]split
 8019ee8:	74696e69 6574735f 355f3270 00000033     init_step2_53...
 8019ef8:	00000000 56100310 7fbefb1a 7e6df907     .......V......m~
 8019f08:	bdde48b0 1060f51b 71924e1a df243cbe     .H....`..N.q.<$.
 8019f18:	181d4a8f d119df28 00000000 00000000     .J..(...........
	...
 8019f58:	2a4e1010 22789ce7 5500e0d5 81eca06a     ..N*..x"...Uj...
 8019f68:	00000039 00000000 00000000 65000000     9..............e
 8019f78:	455b7462 3435434e 6c75665d 34355f6c     bt[ENC54]full_54
	...
 8019f98:	030b0000 8aaff710 cea41d63 3a64a5ff     ........c.....d:
 8019fa8:	f3b8a742 3be510b6 c3e5ca95 25d2f032     B......;....2..%
 8019fb8:	b5d3f727 0000e82e 00000000 00000000     '...............
	...
 8019ff4:	e8100000 a8a0c92f b6389c42 1e21dcd3     ..../...B.8...!.
 801a004:	005d3b83 00000000 00000000 00000000     .;].............
 801a014:	74626500 434e455b 735d3435 74696c70     .ebt[ENC54]split
 801a024:	6574735f 355f3070 00000034 00000000     _step0_54.......
 801a034:	00000000 f7100203 1d638aaf a5ffcea4     ..........c.....
 801a044:	a7423a64 10b6f3b8 ca953be5 f032c3e5     d:B......;....2.
 801a054:	f72725d2 e82eb5d3 00000000 00000000     .%'.............
	...
 801a0b0:	74000000 434e455b 735d3435 74696c70     ...t[ENC54]split
 801a0c0:	6574735f 355f3170 00000034 00000000     _step1_54.......
 801a0d0:	00000000 f7100308 1d638aaf a5ffcea4     ..........c.....
 801a0e0:	a7423a64 10b6f3b8 ca953be5 f032c3e5     d:B......;....2.
 801a0f0:	f72725d2 e82eb5d3 00000000 00000000     .%'.............
	...
 801a130:	c92fe810 9c42a8a0 dcd3b638 3b831e21     ../...B.8...!..;
 801a140:	0000005d 00000000 00000000 65000000     ]..............e
 801a150:	455b7462 3435434e 6c70735d 6e697469     bt[ENC54]splitin
 801a160:	735f7469 30706574 0034355f 00000000     it_step0_54.....
 801a170:	02010000 8aaff710 cea41d63 3a64a5ff     ........c.....d:
 801a180:	f3b8a742 3be510b6 c3e5ca95 25d2f032     B......;....2..%
 801a190:	b5d3f727 0000e82e 00000000 00000000     '...............
	...
 801a1ec:	455b7400 3435434e 6c70735d 6e697469     .t[ENC54]splitin
 801a1fc:	735f7469 31706574 0034355f 00000000     it_step1_54.....
 801a20c:	02020000 8aaff710 cea41d63 3a64a5ff     ........c.....d:
 801a21c:	f3b8a742 3be510b6 c3e5ca95 25d2f032     B......;....2..%
 801a22c:	b5d3f727 0000e82e 00000000 00000000     '...............
	...
 801a288:	455b7400 3435434e 6c70735d 6e697469     .t[ENC54]splitin
 801a298:	735f7469 32706574 0034355f 00000000     it_step2_54.....
 801a2a8:	03080000 8aaff710 cea41d63 3a64a5ff     ........c.....d:
 801a2b8:	f3b8a742 3be510b6 c3e5ca95 25d2f032     B......;....2..%
 801a2c8:	b5d3f727 0000e82e 00000000 00000000     '...............
	...
 801a304:	e8100000 a8a0c92f b6389c42 1e21dcd3     ..../...B.8...!.
 801a314:	005d3b83 00000000 00000000 00000000     .;].............
 801a324:	74626500 4345445b 665d3435 5f6c6c75     .ebt[DEC54]full_
 801a334:	00003435 00000000 00000000 00000000     54..............
 801a344:	00000000 f7100315 5da4edf3 e4803e45     ...........]E>..
 801a354:	152050b5 10a36629 62fd85e7 173d4d2a     .P .)f.....b*M=.
 801a364:	723d24df 7b4fb66d 00000000 00000000     .$=rm.O{........
	...
 801a3a4:	2fa1bf10 a4ad40d1 ed9ca525 cc7c63f8     .../.@..%....c|.
 801a3b4:	00000076 00000000 00000000 65000000     v..............e
 801a3c4:	445b7462 34354345 6c70735d 735f7469     bt[DEC54]split_s
 801a3d4:	30706574 0034355f 00000000 00000000     tep0_54.........
 801a3e4:	02050000 edf3f710 3e455da4 50b5e480     .........]E>...P
 801a3f4:	66291520 85e710a3 4d2a62fd 24df173d      .)f.....b*M=..$
 801a404:	b66d723d 00007b4f 00000000 00000000     =rm.O{..........
	...
 801a460:	445b7400 34354345 6c70735d 735f7469     .t[DEC54]split_s
 801a470:	31706574 0034355f 00000000 00000000     tep1_54.........
 801a480:	03100000 edf3f710 3e455da4 50b5e480     .........]E>...P
 801a490:	66291520 85e710a3 4d2a62fd 24df173d      .)f.....b*M=..$
 801a4a0:	b66d723d 00007b4f 00000000 00000000     =rm.O{..........
	...
 801a4dc:	bf100000 40d12fa1 a525a4ad 63f8ed9c     ...../.@..%....c
 801a4ec:	0076cc7c 00000000 00000000 00000000     |.v.............
 801a4fc:	74626500 4345445b 735d3435 74696c70     .ebt[DEC54]split
 801a50c:	74696e69 6574735f 355f3070 00000034     init_step0_54...
 801a51c:	00000000 f7100201 5da4edf3 e4803e45     ...........]E>..
 801a52c:	152050b5 10a36629 62fd85e7 173d4d2a     .P .)f.....b*M=.
 801a53c:	723d24df 7b4fb66d 00000000 00000000     .$=rm.O{........
	...
 801a598:	74000000 4345445b 735d3435 74696c70     ...t[DEC54]split
 801a5a8:	74696e69 6574735f 355f3170 00000034     init_step1_54...
 801a5b8:	00000000 f7100204 5da4edf3 e4803e45     ...........]E>..
 801a5c8:	152050b5 10a36629 62fd85e7 173d4d2a     .P .)f.....b*M=.
 801a5d8:	723d24df 7b4fb66d 00000000 00000000     .$=rm.O{........
	...
 801a634:	74000000 4345445b 735d3435 74696c70     ...t[DEC54]split
 801a644:	74696e69 6574735f 355f3270 00000034     init_step2_54...
 801a654:	00000000 f7100310 5da4edf3 e4803e45     ...........]E>..
 801a664:	152050b5 10a36629 62fd85e7 173d4d2a     .P .)f.....b*M=.
 801a674:	723d24df 7b4fb66d 00000000 00000000     .$=rm.O{........
	...
 801a6b4:	2fa1bf10 a4ad40d1 ed9ca525 cc7c63f8     .../.@..%....c|.
 801a6c4:	00000076 00000000 00000000 65000000     v..............e
 801a6d4:	455b7462 3535434e 6c75665d 35355f6c     bt[ENC55]full_55
	...
 801a6f4:	030b0000 c0f6f010 27835f40 29d1084b     ........@_.'K..)
 801a704:	7d426cd8 e43410a7 8f29447f 1b59911d     .lB}..4..D)...Y.
 801a714:	cb94b8b8 000058a9 00000000 00000000     .....X..........
	...
 801a750:	e1100000 30e2dd0f 85d2c94e 12c1b1bd     .......0N.......
 801a760:	00361f66 00000000 00000000 00000000     f.6.............
 801a770:	74626500 434e455b 735d3535 74696c70     .ebt[ENC55]split
 801a780:	6574735f 355f3070 00000035 00000000     _step0_55.......
 801a790:	00000000 f0100203 5f40c0f6 084b2783     ..........@_.'K.
 801a7a0:	6cd829d1 10a77d42 447fe434 911d8f29     .).lB}..4..D)...
 801a7b0:	b8b81b59 58a9cb94 00000000 00000000     Y......X........
	...
 801a80c:	74000000 434e455b 735d3535 74696c70     ...t[ENC55]split
 801a81c:	6574735f 355f3170 00000035 00000000     _step1_55.......
 801a82c:	00000000 f0100308 5f40c0f6 084b2783     ..........@_.'K.
 801a83c:	6cd829d1 10a77d42 447fe434 911d8f29     .).lB}..4..D)...
 801a84c:	b8b81b59 58a9cb94 00000000 00000000     Y......X........
	...
 801a88c:	dd0fe110 c94e30e2 b1bd85d2 1f6612c1     .....0N.......f.
 801a89c:	00000036 00000000 00000000 65000000     6..............e
 801a8ac:	455b7462 3535434e 6c70735d 6e697469     bt[ENC55]splitin
 801a8bc:	735f7469 30706574 0035355f 00000000     it_step0_55.....
 801a8cc:	02010000 c0f6f010 27835f40 29d1084b     ........@_.'K..)
 801a8dc:	7d426cd8 e43410a7 8f29447f 1b59911d     .lB}..4..D)...Y.
 801a8ec:	cb94b8b8 000058a9 00000000 00000000     .....X..........
	...
 801a948:	455b7400 3535434e 6c70735d 6e697469     .t[ENC55]splitin
 801a958:	735f7469 31706574 0035355f 00000000     it_step1_55.....
 801a968:	02020000 c0f6f010 27835f40 29d1084b     ........@_.'K..)
 801a978:	7d426cd8 e43410a7 8f29447f 1b59911d     .lB}..4..D)...Y.
 801a988:	cb94b8b8 000058a9 00000000 00000000     .....X..........
	...
 801a9e4:	455b7400 3535434e 6c70735d 6e697469     .t[ENC55]splitin
 801a9f4:	735f7469 32706574 0035355f 00000000     it_step2_55.....
 801aa04:	03080000 c0f6f010 27835f40 29d1084b     ........@_.'K..)
 801aa14:	7d426cd8 e43410a7 8f29447f 1b59911d     .lB}..4..D)...Y.
 801aa24:	cb94b8b8 000058a9 00000000 00000000     .....X..........
	...
 801aa60:	e1100000 30e2dd0f 85d2c94e 12c1b1bd     .......0N.......
 801aa70:	00361f66 00000000 00000000 00000000     f.6.............
 801aa80:	74626500 4345445b 665d3535 5f6c6c75     .ebt[DEC55]full_
 801aa90:	00003535 00000000 00000000 00000000     55..............
 801aaa0:	00000000 30100315 4c0fa952 417712f2     .......0R..L..wA
 801aab0:	b5e035d4 101c7eb1 adff69de 24416552     .5...~...i..ReA$
 801aac0:	96d5f4b3 6e392626 00000000 00000000     ....&&9n........
	...
 801ab00:	544ec310 1145abec ecbd02f9 f24c92a3     ..NT..E.......L.
 801ab10:	00000046 00000000 00000000 65000000     F..............e
 801ab20:	445b7462 35354345 6c70735d 735f7469     bt[DEC55]split_s
 801ab30:	30706574 0035355f 00000000 00000000     tep0_55.........
 801ab40:	02050000 a9523010 12f24c0f 35d44177     .....0R..L..wA.5
 801ab50:	7eb1b5e0 69de101c 6552adff f4b32441     ...~...i..ReA$..
 801ab60:	262696d5 00006e39 00000000 00000000     ..&&9n..........
	...
 801abbc:	445b7400 35354345 6c70735d 735f7469     .t[DEC55]split_s
 801abcc:	31706574 0035355f 00000000 00000000     tep1_55.........
 801abdc:	03100000 a9523010 12f24c0f 35d44177     .....0R..L..wA.5
 801abec:	7eb1b5e0 69de101c 6552adff f4b32441     ...~...i..ReA$..
 801abfc:	262696d5 00006e39 00000000 00000000     ..&&9n..........
	...
 801ac38:	c3100000 abec544e 02f91145 92a3ecbd     ....NT..E.......
 801ac48:	0046f24c 00000000 00000000 00000000     L.F.............
 801ac58:	74626500 4345445b 735d3535 74696c70     .ebt[DEC55]split
 801ac68:	74696e69 6574735f 355f3070 00000035     init_step0_55...
 801ac78:	00000000 30100201 4c0fa952 417712f2     .......0R..L..wA
 801ac88:	b5e035d4 101c7eb1 adff69de 24416552     .5...~...i..ReA$
 801ac98:	96d5f4b3 6e392626 00000000 00000000     ....&&9n........
	...
 801acf4:	74000000 4345445b 735d3535 74696c70     ...t[DEC55]split
 801ad04:	74696e69 6574735f 355f3170 00000035     init_step1_55...
 801ad14:	00000000 30100204 4c0fa952 417712f2     .......0R..L..wA
 801ad24:	b5e035d4 101c7eb1 adff69de 24416552     .5...~...i..ReA$
 801ad34:	96d5f4b3 6e392626 00000000 00000000     ....&&9n........
	...
 801ad90:	74000000 4345445b 735d3535 74696c70     ...t[DEC55]split
 801ada0:	74696e69 6574735f 355f3270 00000035     init_step2_55...
 801adb0:	00000000 30100310 4c0fa952 417712f2     .......0R..L..wA
 801adc0:	b5e035d4 101c7eb1 adff69de 24416552     .5...~...i..ReA$
 801add0:	96d5f4b3 6e392626 00000000 00000000     ....&&9n........
	...
 801ae10:	544ec310 1145abec ecbd02f9 f24c92a3     ..NT..E.......L.
 801ae20:	00000046 00000000 00000000 65000000     F..............e
 801ae30:	455b7462 3635434e 6c75665d 36355f6c     bt[ENC56]full_56
	...
 801ae50:	030b0000 fdf34f10 2c1c2fcb e01b7032     .....O.../.,2p..
 801ae60:	2be9572e 6e5b10ab 7502a1a8 01f1abb5     .W.+..[n...u....
 801ae70:	d853d075 00001b13 00000000 00000000     u.S.............
	...
 801aeac:	af100000 570079f9 f020c587 a4540fff     .....y.W.. ...T.
 801aebc:	00ecedfc 00000000 00000000 00000000     ................
 801aecc:	74626500 434e455b 735d3635 74696c70     .ebt[ENC56]split
 801aedc:	6574735f 355f3070 00000036 00000000     _step0_56.......
 801aeec:	00000000 4f100203 2fcbfdf3 70322c1c     .......O.../.,2p
 801aefc:	572ee01b 10ab2be9 a1a86e5b abb57502     ...W.+..[n...u..
 801af0c:	d07501f1 1b13d853 00000000 00000000     ..u.S...........
	...
 801af68:	74000000 434e455b 735d3635 74696c70     ...t[ENC56]split
 801af78:	6574735f 355f3170 00000036 00000000     _step1_56.......
 801af88:	00000000 4f100308 2fcbfdf3 70322c1c     .......O.../.,2p
 801af98:	572ee01b 10ab2be9 a1a86e5b abb57502     ...W.+..[n...u..
 801afa8:	d07501f1 1b13d853 00000000 00000000     ..u.S...........
	...
 801afe8:	79f9af10 c5875700 0ffff020 edfca454     ...y.W.. ...T...
 801aff8:	000000ec 00000000 00000000 65000000     ...............e
 801b008:	455b7462 3635434e 6c70735d 6e697469     bt[ENC56]splitin
 801b018:	735f7469 30706574 0036355f 00000000     it_step0_56.....
 801b028:	02010000 fdf34f10 2c1c2fcb e01b7032     .....O.../.,2p..
 801b038:	2be9572e 6e5b10ab 7502a1a8 01f1abb5     .W.+..[n...u....
 801b048:	d853d075 00001b13 00000000 00000000     u.S.............
	...
 801b0a4:	455b7400 3635434e 6c70735d 6e697469     .t[ENC56]splitin
 801b0b4:	735f7469 31706574 0036355f 00000000     it_step1_56.....
 801b0c4:	02020000 fdf34f10 2c1c2fcb e01b7032     .....O.../.,2p..
 801b0d4:	2be9572e 6e5b10ab 7502a1a8 01f1abb5     .W.+..[n...u....
 801b0e4:	d853d075 00001b13 00000000 00000000     u.S.............
	...
 801b140:	455b7400 3635434e 6c70735d 6e697469     .t[ENC56]splitin
 801b150:	735f7469 32706574 0036355f 00000000     it_step2_56.....
 801b160:	03080000 fdf34f10 2c1c2fcb e01b7032     .....O.../.,2p..
 801b170:	2be9572e 6e5b10ab 7502a1a8 01f1abb5     .W.+..[n...u....
 801b180:	d853d075 00001b13 00000000 00000000     u.S.............
	...
 801b1bc:	af100000 570079f9 f020c587 a4540fff     .....y.W.. ...T.
 801b1cc:	00ecedfc 00000000 00000000 00000000     ................
 801b1dc:	74626500 4345445b 665d3635 5f6c6c75     .ebt[DEC56]full_
 801b1ec:	00003635 00000000 00000000 00000000     56..............
 801b1fc:	00000000 4f100315 fec0feaa 0f943a75     .......O....u:..
 801b20c:	87e95a2e 10e31298 503f9591 30953aeb     .Z........?P.:.0
 801b21c:	7a1470b6 557d7d2f 00000000 00000000     .p.z/}}U........
	...
 801b25c:	6b61e010 d34d548f 324f3a3b abc902e4     ..ak.TM.;:O2....
 801b26c:	00000065 00000000 00000000 65000000     e..............e
 801b27c:	445b7462 36354345 6c70735d 735f7469     bt[DEC56]split_s
 801b28c:	30706574 0036355f 00000000 00000000     tep0_56.........
 801b29c:	02050000 feaa4f10 3a75fec0 5a2e0f94     .....O....u:...Z
 801b2ac:	129887e9 959110e3 3aeb503f 70b63095     ........?P.:.0.p
 801b2bc:	7d2f7a14 0000557d 00000000 00000000     .z/}}U..........
	...
 801b318:	445b7400 36354345 6c70735d 735f7469     .t[DEC56]split_s
 801b328:	31706574 0036355f 00000000 00000000     tep1_56.........
 801b338:	03100000 feaa4f10 3a75fec0 5a2e0f94     .....O....u:...Z
 801b348:	129887e9 959110e3 3aeb503f 70b63095     ........?P.:.0.p
 801b358:	7d2f7a14 0000557d 00000000 00000000     .z/}}U..........
	...
 801b394:	e0100000 548f6b61 3a3bd34d 02e4324f     ....ak.TM.;:O2..
 801b3a4:	0065abc9 00000000 00000000 00000000     ..e.............
 801b3b4:	74626500 4345445b 735d3635 74696c70     .ebt[DEC56]split
 801b3c4:	74696e69 6574735f 355f3070 00000036     init_step0_56...
 801b3d4:	00000000 4f100201 fec0feaa 0f943a75     .......O....u:..
 801b3e4:	87e95a2e 10e31298 503f9591 30953aeb     .Z........?P.:.0
 801b3f4:	7a1470b6 557d7d2f 00000000 00000000     .p.z/}}U........
	...
 801b450:	74000000 4345445b 735d3635 74696c70     ...t[DEC56]split
 801b460:	74696e69 6574735f 355f3170 00000036     init_step1_56...
 801b470:	00000000 4f100204 fec0feaa 0f943a75     .......O....u:..
 801b480:	87e95a2e 10e31298 503f9591 30953aeb     .Z........?P.:.0
 801b490:	7a1470b6 557d7d2f 00000000 00000000     .p.z/}}U........
	...
 801b4ec:	74000000 4345445b 735d3635 74696c70     ...t[DEC56]split
 801b4fc:	74696e69 6574735f 355f3270 00000036     init_step2_56...
 801b50c:	00000000 4f100310 fec0feaa 0f943a75     .......O....u:..
 801b51c:	87e95a2e 10e31298 503f9591 30953aeb     .Z........?P.:.0
 801b52c:	7a1470b6 557d7d2f 00000000 00000000     .p.z/}}U........
	...
 801b56c:	6b61e010 d34d548f 324f3a3b abc902e4     ..ak.TM.;:O2....
 801b57c:	00000065 00000000 00000000 65000000     e..............e
 801b58c:	455b7462 3735434e 6c75665d 37355f6c     bt[ENC57]full_57
	...
 801b5ac:	030b0000 3c0e7510 24ec10c2 efdc9832     .....u.<...$2...
 801b5bc:	89331f44 fd93100d 65ce49b9 a637ad2b     D.3......I.e+.7.
 801b5cc:	4737d240 0000ee2e 00000000 00000000     @.7G............
	...
 801b608:	89100000 e72ecc94 12ea8ca8 f926449e     .............D&.
 801b618:	00bed39a 00000000 00000000 00000000     ................
 801b628:	74626500 434e455b 735d3735 74696c70     .ebt[ENC57]split
 801b638:	6574735f 355f3070 00000037 00000000     _step0_57.......
 801b648:	00000000 75100203 10c23c0e 983224ec     .......u.<...$2.
 801b658:	1f44efdc 100d8933 49b9fd93 ad2b65ce     ..D.3......I.e+.
 801b668:	d240a637 ee2e4737 00000000 00000000     7.@.7G..........
	...
 801b6c4:	74000000 434e455b 735d3735 74696c70     ...t[ENC57]split
 801b6d4:	6574735f 355f3170 00000037 00000000     _step1_57.......
 801b6e4:	00000000 75100308 10c23c0e 983224ec     .......u.<...$2.
 801b6f4:	1f44efdc 100d8933 49b9fd93 ad2b65ce     ..D.3......I.e+.
 801b704:	d240a637 ee2e4737 00000000 00000000     7.@.7G..........
	...
 801b744:	cc948910 8ca8e72e 449e12ea d39af926     ...........D&...
 801b754:	000000be 00000000 00000000 65000000     ...............e
 801b764:	455b7462 3735434e 6c70735d 6e697469     bt[ENC57]splitin
 801b774:	735f7469 30706574 0037355f 00000000     it_step0_57.....
 801b784:	02010000 3c0e7510 24ec10c2 efdc9832     .....u.<...$2...
 801b794:	89331f44 fd93100d 65ce49b9 a637ad2b     D.3......I.e+.7.
 801b7a4:	4737d240 0000ee2e 00000000 00000000     @.7G............
	...
 801b800:	455b7400 3735434e 6c70735d 6e697469     .t[ENC57]splitin
 801b810:	735f7469 31706574 0037355f 00000000     it_step1_57.....
 801b820:	02020000 3c0e7510 24ec10c2 efdc9832     .....u.<...$2...
 801b830:	89331f44 fd93100d 65ce49b9 a637ad2b     D.3......I.e+.7.
 801b840:	4737d240 0000ee2e 00000000 00000000     @.7G............
	...
 801b89c:	455b7400 3735434e 6c70735d 6e697469     .t[ENC57]splitin
 801b8ac:	735f7469 32706574 0037355f 00000000     it_step2_57.....
 801b8bc:	03080000 3c0e7510 24ec10c2 efdc9832     .....u.<...$2...
 801b8cc:	89331f44 fd93100d 65ce49b9 a637ad2b     D.3......I.e+.7.
 801b8dc:	4737d240 0000ee2e 00000000 00000000     @.7G............
	...
 801b918:	89100000 e72ecc94 12ea8ca8 f926449e     .............D&.
 801b928:	00bed39a 00000000 00000000 00000000     ................
 801b938:	74626500 4345445b 665d3735 5f6c6c75     .ebt[DEC57]full_
 801b948:	00003735 00000000 00000000 00000000     57..............
 801b958:	00000000 2f100315 991cde5e 235a06e9     ......./^.....Z#
 801b968:	27c47ed1 10ea22a2 ff56150f a1f3d069     .~.'."....V.i...
 801b978:	99f3d00a 886334e8 00000000 00000000     .....4c.........
	...
 801b9b8:	40761310 36d2e95d 82002f28 e3984c92     ..v@]..6(/...L..
 801b9c8:	00000060 00000000 00000000 65000000     `..............e
 801b9d8:	445b7462 37354345 6c70735d 735f7469     bt[DEC57]split_s
 801b9e8:	30706574 0037355f 00000000 00000000     tep0_57.........
 801b9f8:	02050000 de5e2f10 06e9991c 7ed1235a     ...../^.....Z#.~
 801ba08:	22a227c4 150f10ea d069ff56 d00aa1f3     .'."....V.i.....
 801ba18:	34e899f3 00008863 00000000 00000000     ...4c...........
	...
 801ba74:	445b7400 37354345 6c70735d 735f7469     .t[DEC57]split_s
 801ba84:	31706574 0037355f 00000000 00000000     tep1_57.........
 801ba94:	03100000 de5e2f10 06e9991c 7ed1235a     ...../^.....Z#.~
 801baa4:	22a227c4 150f10ea d069ff56 d00aa1f3     .'."....V.i.....
 801bab4:	34e899f3 00008863 00000000 00000000     ...4c...........
	...
 801baf0:	13100000 e95d4076 2f2836d2 4c928200     ....v@]..6(/...L
 801bb00:	0060e398 00000000 00000000 00000000     ..`.............
 801bb10:	74626500 4345445b 735d3735 74696c70     .ebt[DEC57]split
 801bb20:	74696e69 6574735f 355f3070 00000037     init_step0_57...
 801bb30:	00000000 2f100201 991cde5e 235a06e9     ......./^.....Z#
 801bb40:	27c47ed1 10ea22a2 ff56150f a1f3d069     .~.'."....V.i...
 801bb50:	99f3d00a 886334e8 00000000 00000000     .....4c.........
	...
 801bbac:	74000000 4345445b 735d3735 74696c70     ...t[DEC57]split
 801bbbc:	74696e69 6574735f 355f3170 00000037     init_step1_57...
 801bbcc:	00000000 2f100204 991cde5e 235a06e9     ......./^.....Z#
 801bbdc:	27c47ed1 10ea22a2 ff56150f a1f3d069     .~.'."....V.i...
 801bbec:	99f3d00a 886334e8 00000000 00000000     .....4c.........
	...
 801bc48:	74000000 4345445b 735d3735 74696c70     ...t[DEC57]split
 801bc58:	74696e69 6574735f 355f3270 00000037     init_step2_57...
 801bc68:	00000000 2f100310 991cde5e 235a06e9     ......./^.....Z#
 801bc78:	27c47ed1 10ea22a2 ff56150f a1f3d069     .~.'."....V.i...
 801bc88:	99f3d00a 886334e8 00000000 00000000     .....4c.........
	...
 801bcc8:	40761310 36d2e95d 82002f28 e3984c92     ..v@]..6(/...L..
 801bcd8:	00000060 00000000 00000000 65000000     `..............e
 801bce8:	455b7462 3835434e 6c75665d 38355f6c     bt[ENC58]full_58
	...
 801bd08:	030b0000 6a745310 9ebb600e c3a74fd7     .....Stj.`...O..
 801bd18:	f9ad1c0e 30e11027 e0d43960 f702ac69     ....'..0`9..i...
 801bd28:	679fe8a4 000060f1 00000000 00000000     ...g.`..........
	...
 801bd64:	47100000 fdd7dd4d 4316e3ae 76d2dfce     ...GM......C...v
 801bd74:	007f8226 00000000 00000000 00000000     &...............
 801bd84:	74626500 434e455b 735d3835 74696c70     .ebt[ENC58]split
 801bd94:	6574735f 355f3070 00000038 00000000     _step0_58.......
 801bda4:	00000000 53100203 600e6a74 4fd79ebb     .......Stj.`...O
 801bdb4:	1c0ec3a7 1027f9ad 396030e1 ac69e0d4     ......'..0`9..i.
 801bdc4:	e8a4f702 60f1679f 00000000 00000000     .....g.`........
	...
 801be20:	74000000 434e455b 735d3835 74696c70     ...t[ENC58]split
 801be30:	6574735f 355f3170 00000038 00000000     _step1_58.......
 801be40:	00000000 53100308 600e6a74 4fd79ebb     .......Stj.`...O
 801be50:	1c0ec3a7 1027f9ad 396030e1 ac69e0d4     ......'..0`9..i.
 801be60:	e8a4f702 60f1679f 00000000 00000000     .....g.`........
	...
 801bea0:	dd4d4710 e3aefdd7 dfce4316 822676d2     .GM......C...v&.
 801beb0:	0000007f 00000000 00000000 65000000     ...............e
 801bec0:	455b7462 3835434e 6c70735d 6e697469     bt[ENC58]splitin
 801bed0:	735f7469 30706574 0038355f 00000000     it_step0_58.....
 801bee0:	02010000 6a745310 9ebb600e c3a74fd7     .....Stj.`...O..
 801bef0:	f9ad1c0e 30e11027 e0d43960 f702ac69     ....'..0`9..i...
 801bf00:	679fe8a4 000060f1 00000000 00000000     ...g.`..........
	...
 801bf5c:	455b7400 3835434e 6c70735d 6e697469     .t[ENC58]splitin
 801bf6c:	735f7469 31706574 0038355f 00000000     it_step1_58.....
 801bf7c:	02020000 6a745310 9ebb600e c3a74fd7     .....Stj.`...O..
 801bf8c:	f9ad1c0e 30e11027 e0d43960 f702ac69     ....'..0`9..i...
 801bf9c:	679fe8a4 000060f1 00000000 00000000     ...g.`..........
	...
 801bff8:	455b7400 3835434e 6c70735d 6e697469     .t[ENC58]splitin
 801c008:	735f7469 32706574 0038355f 00000000     it_step2_58.....
 801c018:	03080000 6a745310 9ebb600e c3a74fd7     .....Stj.`...O..
 801c028:	f9ad1c0e 30e11027 e0d43960 f702ac69     ....'..0`9..i...
 801c038:	679fe8a4 000060f1 00000000 00000000     ...g.`..........
	...
 801c074:	47100000 fdd7dd4d 4316e3ae 76d2dfce     ...GM......C...v
 801c084:	007f8226 00000000 00000000 00000000     &...............
 801c094:	74626500 4345445b 665d3835 5f6c6c75     .ebt[DEC58]full_
 801c0a4:	00003835 00000000 00000000 00000000     58..............
 801c0b4:	00000000 70100315 a255eee0 f2646edd     .......p..U..nd.
 801c0c4:	703785f6 1019fcf1 c735e1fd 45041c86     ..7p......5....E
 801c0d4:	56a67b3b 663ef54e 00000000 00000000     ;{.VN.>f........
	...
 801c114:	d38bac10 925df1e2 efdf6cda c160f723     ......]..l..#.`.
 801c124:	000000fa 00000000 00000000 65000000     ...............e
 801c134:	445b7462 38354345 6c70735d 735f7469     bt[DEC58]split_s
 801c144:	30706574 0038355f 00000000 00000000     tep0_58.........
 801c154:	02050000 eee07010 6edda255 85f6f264     .....p..U..nd...
 801c164:	fcf17037 e1fd1019 1c86c735 7b3b4504     7p......5....E;{
 801c174:	f54e56a6 0000663e 00000000 00000000     .VN.>f..........
	...
 801c1d0:	445b7400 38354345 6c70735d 735f7469     .t[DEC58]split_s
 801c1e0:	31706574 0038355f 00000000 00000000     tep1_58.........
 801c1f0:	03100000 eee07010 6edda255 85f6f264     .....p..U..nd...
 801c200:	fcf17037 e1fd1019 1c86c735 7b3b4504     7p......5....E;{
 801c210:	f54e56a6 0000663e 00000000 00000000     .VN.>f..........
	...
 801c24c:	ac100000 f1e2d38b 6cda925d f723efdf     ........]..l..#.
 801c25c:	00fac160 00000000 00000000 00000000     `...............
 801c26c:	74626500 4345445b 735d3835 74696c70     .ebt[DEC58]split
 801c27c:	74696e69 6574735f 355f3070 00000038     init_step0_58...
 801c28c:	00000000 70100201 a255eee0 f2646edd     .......p..U..nd.
 801c29c:	703785f6 1019fcf1 c735e1fd 45041c86     ..7p......5....E
 801c2ac:	56a67b3b 663ef54e 00000000 00000000     ;{.VN.>f........
	...
 801c308:	74000000 4345445b 735d3835 74696c70     ...t[DEC58]split
 801c318:	74696e69 6574735f 355f3170 00000038     init_step1_58...
 801c328:	00000000 70100204 a255eee0 f2646edd     .......p..U..nd.
 801c338:	703785f6 1019fcf1 c735e1fd 45041c86     ..7p......5....E
 801c348:	56a67b3b 663ef54e 00000000 00000000     ;{.VN.>f........
	...
 801c3a4:	74000000 4345445b 735d3835 74696c70     ...t[DEC58]split
 801c3b4:	74696e69 6574735f 355f3270 00000038     init_step2_58...
 801c3c4:	00000000 70100310 a255eee0 f2646edd     .......p..U..nd.
 801c3d4:	703785f6 1019fcf1 c735e1fd 45041c86     ..7p......5....E
 801c3e4:	56a67b3b 663ef54e 00000000 00000000     ;{.VN.>f........
	...
 801c424:	d38bac10 925df1e2 efdf6cda c160f723     ......]..l..#.`.
 801c434:	000000fa 00000000 00000000 65000000     ...............e
 801c444:	455b7462 3935434e 6c75665d 39355f6c     bt[ENC59]full_59
	...
 801c464:	030b0000 dd66fc10 2afaa068 0f85a90e     ......f.h..*....
 801c474:	6e1aac96 393d1053 31655338 1418db35     ...nS.=98Se15...
 801c484:	ac0eafa3 00006f94 00000000 00000000     .....o..........
	...
 801c4c0:	85100000 4481968f 3760e919 ca121a09     .......D..`7....
 801c4d0:	00af4b10 00000000 00000000 00000000     .K..............
 801c4e0:	74626500 434e455b 735d3935 74696c70     .ebt[ENC59]split
 801c4f0:	6574735f 355f3070 00000039 00000000     _step0_59.......
 801c500:	00000000 fc100203 a068dd66 a90e2afa     ........f.h..*..
 801c510:	ac960f85 10536e1a 5338393d db353165     .....nS.=98Se15.
 801c520:	afa31418 6f94ac0e 00000000 00000000     .......o........
	...
 801c57c:	74000000 434e455b 735d3935 74696c70     ...t[ENC59]split
 801c58c:	6574735f 355f3170 00000039 00000000     _step1_59.......
 801c59c:	00000000 fc100308 a068dd66 a90e2afa     ........f.h..*..
 801c5ac:	ac960f85 10536e1a 5338393d db353165     .....nS.=98Se15.
 801c5bc:	afa31418 6f94ac0e 00000000 00000000     .......o........
	...
 801c5fc:	968f8510 e9194481 1a093760 4b10ca12     .....D..`7.....K
 801c60c:	000000af 00000000 00000000 65000000     ...............e
 801c61c:	455b7462 3935434e 6c70735d 6e697469     bt[ENC59]splitin
 801c62c:	735f7469 30706574 0039355f 00000000     it_step0_59.....
 801c63c:	02010000 dd66fc10 2afaa068 0f85a90e     ......f.h..*....
 801c64c:	6e1aac96 393d1053 31655338 1418db35     ...nS.=98Se15...
 801c65c:	ac0eafa3 00006f94 00000000 00000000     .....o..........
	...
 801c6b8:	455b7400 3935434e 6c70735d 6e697469     .t[ENC59]splitin
 801c6c8:	735f7469 31706574 0039355f 00000000     it_step1_59.....
 801c6d8:	02020000 dd66fc10 2afaa068 0f85a90e     ......f.h..*....
 801c6e8:	6e1aac96 393d1053 31655338 1418db35     ...nS.=98Se15...
 801c6f8:	ac0eafa3 00006f94 00000000 00000000     .....o..........
	...
 801c754:	455b7400 3935434e 6c70735d 6e697469     .t[ENC59]splitin
 801c764:	735f7469 32706574 0039355f 00000000     it_step2_59.....
 801c774:	03080000 dd66fc10 2afaa068 0f85a90e     ......f.h..*....
 801c784:	6e1aac96 393d1053 31655338 1418db35     ...nS.=98Se15...
 801c794:	ac0eafa3 00006f94 00000000 00000000     .....o..........
	...
 801c7d0:	85100000 4481968f 3760e919 ca121a09     .......D..`7....
 801c7e0:	00af4b10 00000000 00000000 00000000     .K..............
 801c7f0:	74626500 4345445b 665d3935 5f6c6c75     .ebt[DEC59]full_
 801c800:	00003935 00000000 00000000 00000000     59..............
 801c810:	00000000 1d100315 a20233be 7711b2ad     .........3.....w
 801c820:	c0fc0cfb 107351fa 2272f160 d1c32479     .....Qs.`.r"y$..
 801c830:	247b09fa bf1ef0b9 00000000 00000000     ..{$............
	...
 801c870:	9eeb1110 a15f94d3 c23daa28 73f45f4f     ......_.(.=.O_.s
 801c880:	000000e9 00000000 00000000 65000000     ...............e
 801c890:	445b7462 39354345 6c70735d 735f7469     bt[DEC59]split_s
 801c8a0:	30706574 0039355f 00000000 00000000     tep0_59.........
 801c8b0:	02050000 33be1d10 b2ada202 0cfb7711     .......3.....w..
 801c8c0:	51fac0fc f1601073 24792272 09fad1c3     ...Qs.`.r"y$....
 801c8d0:	f0b9247b 0000bf1e 00000000 00000000     {$..............
	...
 801c92c:	445b7400 39354345 6c70735d 735f7469     .t[DEC59]split_s
 801c93c:	31706574 0039355f 00000000 00000000     tep1_59.........
 801c94c:	03100000 33be1d10 b2ada202 0cfb7711     .......3.....w..
 801c95c:	51fac0fc f1601073 24792272 09fad1c3     ...Qs.`.r"y$....
 801c96c:	f0b9247b 0000bf1e 00000000 00000000     {$..............
	...
 801c9a8:	11100000 94d39eeb aa28a15f 5f4fc23d     ........_.(.=.O_
 801c9b8:	00e973f4 00000000 00000000 00000000     .s..............
 801c9c8:	74626500 4345445b 735d3935 74696c70     .ebt[DEC59]split
 801c9d8:	74696e69 6574735f 355f3070 00000039     init_step0_59...
 801c9e8:	00000000 1d100201 a20233be 7711b2ad     .........3.....w
 801c9f8:	c0fc0cfb 107351fa 2272f160 d1c32479     .....Qs.`.r"y$..
 801ca08:	247b09fa bf1ef0b9 00000000 00000000     ..{$............
	...
 801ca64:	74000000 4345445b 735d3935 74696c70     ...t[DEC59]split
 801ca74:	74696e69 6574735f 355f3170 00000039     init_step1_59...
 801ca84:	00000000 1d100204 a20233be 7711b2ad     .........3.....w
 801ca94:	c0fc0cfb 107351fa 2272f160 d1c32479     .....Qs.`.r"y$..
 801caa4:	247b09fa bf1ef0b9 00000000 00000000     ..{$............
	...
 801cb00:	74000000 4345445b 735d3935 74696c70     ...t[DEC59]split
 801cb10:	74696e69 6574735f 355f3270 00000039     init_step2_59...
 801cb20:	00000000 1d100310 a20233be 7711b2ad     .........3.....w
 801cb30:	c0fc0cfb 107351fa 2272f160 d1c32479     .....Qs.`.r"y$..
 801cb40:	247b09fa bf1ef0b9 00000000 00000000     ..{$............
	...
 801cb80:	9eeb1110 a15f94d3 c23daa28 73f45f4f     ......_.(.=.O_.s
 801cb90:	000000e9 00000000 00000000 65000000     ...............e
 801cba0:	455b7462 3036434e 6c75665d 30365f6c     bt[ENC60]full_60
	...
 801cbc0:	030b0000 957eb810 922a6078 c6bc5288     ......~.x`*..R..
 801cbd0:	bddbd3ac 0bef10e9 cdf560b1 4665582c     .........`..,XeF
 801cbe0:	ab6a4aec 0000f3ab 00000000 00000000     .Jj.............
	...
 801cc1c:	1f100000 37e038e8 27188346 35052b0f     .....8.7F..'.+.5
 801cc2c:	0097b193 00000000 00000000 00000000     ................
 801cc3c:	74626500 434e455b 735d3036 74696c70     .ebt[ENC60]split
 801cc4c:	6574735f 365f3070 00000030 00000000     _step0_60.......
 801cc5c:	00000000 b8100203 6078957e 5288922a     ........~.x`*..R
 801cc6c:	d3acc6bc 10e9bddb 60b10bef 582ccdf5     ...........`..,X
 801cc7c:	4aec4665 f3abab6a 00000000 00000000     eF.Jj...........
	...
 801ccd8:	74000000 434e455b 735d3036 74696c70     ...t[ENC60]split
 801cce8:	6574735f 365f3170 00000030 00000000     _step1_60.......
 801ccf8:	00000000 b8100308 6078957e 5288922a     ........~.x`*..R
 801cd08:	d3acc6bc 10e9bddb 60b10bef 582ccdf5     ...........`..,X
 801cd18:	4aec4665 f3abab6a 00000000 00000000     eF.Jj...........
	...
 801cd58:	38e81f10 834637e0 2b0f2718 b1933505     ...8.7F..'.+.5..
 801cd68:	00000097 00000000 00000000 65000000     ...............e
 801cd78:	455b7462 3036434e 6c70735d 6e697469     bt[ENC60]splitin
 801cd88:	735f7469 30706574 0030365f 00000000     it_step0_60.....
 801cd98:	02010000 957eb810 922a6078 c6bc5288     ......~.x`*..R..
 801cda8:	bddbd3ac 0bef10e9 cdf560b1 4665582c     .........`..,XeF
 801cdb8:	ab6a4aec 0000f3ab 00000000 00000000     .Jj.............
	...
 801ce14:	455b7400 3036434e 6c70735d 6e697469     .t[ENC60]splitin
 801ce24:	735f7469 31706574 0030365f 00000000     it_step1_60.....
 801ce34:	02020000 957eb810 922a6078 c6bc5288     ......~.x`*..R..
 801ce44:	bddbd3ac 0bef10e9 cdf560b1 4665582c     .........`..,XeF
 801ce54:	ab6a4aec 0000f3ab 00000000 00000000     .Jj.............
	...
 801ceb0:	455b7400 3036434e 6c70735d 6e697469     .t[ENC60]splitin
 801cec0:	735f7469 32706574 0030365f 00000000     it_step2_60.....
 801ced0:	03080000 957eb810 922a6078 c6bc5288     ......~.x`*..R..
 801cee0:	bddbd3ac 0bef10e9 cdf560b1 4665582c     .........`..,XeF
 801cef0:	ab6a4aec 0000f3ab 00000000 00000000     .Jj.............
	...
 801cf2c:	1f100000 37e038e8 27188346 35052b0f     .....8.7F..'.+.5
 801cf3c:	0097b193 00000000 00000000 00000000     ................
 801cf4c:	74626500 4345445b 665d3036 5f6c6c75     .ebt[DEC60]full_
 801cf5c:	00003036 00000000 00000000 00000000     60..............
 801cf6c:	00000000 a7100315 92f0b75e 83ac67fb     ........^....g..
 801cf7c:	f207e60b 103bc8c1 1ab8083e 91a6bf39     ......;.>...9...
 801cf8c:	cbb01d6a eb675242 00000000 00000000     j...BRg.........
	...
 801cfcc:	41203f10 88c0d811 c5ebe5d4 d79586bf     .? A............
 801cfdc:	000000f1 00000000 00000000 65000000     ...............e
 801cfec:	445b7462 30364345 6c70735d 735f7469     bt[DEC60]split_s
 801cffc:	30706574 0030365f 00000000 00000000     tep0_60.........
 801d00c:	02050000 b75ea710 67fb92f0 e60b83ac     ......^....g....
 801d01c:	c8c1f207 083e103b bf391ab8 1d6a91a6     ....;.>...9...j.
 801d02c:	5242cbb0 0000eb67 00000000 00000000     ..BRg...........
	...
 801d088:	445b7400 30364345 6c70735d 735f7469     .t[DEC60]split_s
 801d098:	31706574 0030365f 00000000 00000000     tep1_60.........
 801d0a8:	03100000 b75ea710 67fb92f0 e60b83ac     ......^....g....
 801d0b8:	c8c1f207 083e103b bf391ab8 1d6a91a6     ....;.>...9...j.
 801d0c8:	5242cbb0 0000eb67 00000000 00000000     ..BRg...........
	...
 801d104:	3f100000 d8114120 e5d488c0 86bfc5eb     ...? A..........
 801d114:	00f1d795 00000000 00000000 00000000     ................
 801d124:	74626500 4345445b 735d3036 74696c70     .ebt[DEC60]split
 801d134:	74696e69 6574735f 365f3070 00000030     init_step0_60...
 801d144:	00000000 a7100201 92f0b75e 83ac67fb     ........^....g..
 801d154:	f207e60b 103bc8c1 1ab8083e 91a6bf39     ......;.>...9...
 801d164:	cbb01d6a eb675242 00000000 00000000     j...BRg.........
	...
 801d1c0:	74000000 4345445b 735d3036 74696c70     ...t[DEC60]split
 801d1d0:	74696e69 6574735f 365f3170 00000030     init_step1_60...
 801d1e0:	00000000 a7100204 92f0b75e 83ac67fb     ........^....g..
 801d1f0:	f207e60b 103bc8c1 1ab8083e 91a6bf39     ......;.>...9...
 801d200:	cbb01d6a eb675242 00000000 00000000     j...BRg.........
	...
 801d25c:	74000000 4345445b 735d3036 74696c70     ...t[DEC60]split
 801d26c:	74696e69 6574735f 365f3270 00000030     init_step2_60...
 801d27c:	00000000 a7100310 92f0b75e 83ac67fb     ........^....g..
 801d28c:	f207e60b 103bc8c1 1ab8083e 91a6bf39     ......;.>...9...
 801d29c:	cbb01d6a eb675242 00000000 00000000     j...BRg.........
	...
 801d2dc:	41203f10 88c0d811 c5ebe5d4 d79586bf     .? A............
 801d2ec:	000000f1 00000000 00000000 65000000     ...............e
 801d2fc:	455b7462 3136434e 6c75665d 31365f6c     bt[ENC61]full_61
	...
 801d31c:	030b0000 14d85310 d3a28915 e5b59d4e     .....S......N...
 801d32c:	6f9ec2b5 644010a2 58f708b2 d68fff92     ...o..@d...X....
 801d33c:	c5903445 0000b8db 00000000 00000000     E4..............
	...
 801d378:	7f100000 e39a1561 c3c3e6de 123f1a13     ....a.........?.
 801d388:	004d6807 00000000 00000000 00000000     .hM.............
 801d398:	74626500 434e455b 735d3136 74696c70     .ebt[ENC61]split
 801d3a8:	6574735f 365f3070 00000031 00000000     _step0_61.......
 801d3b8:	00000000 53100203 891514d8 9d4ed3a2     .......S......N.
 801d3c8:	c2b5e5b5 10a26f9e 08b26440 ff9258f7     .....o..@d...X..
 801d3d8:	3445d68f b8dbc590 00000000 00000000     ..E4............
	...
 801d434:	74000000 434e455b 735d3136 74696c70     ...t[ENC61]split
 801d444:	6574735f 365f3170 00000031 00000000     _step1_61.......
 801d454:	00000000 53100308 891514d8 9d4ed3a2     .......S......N.
 801d464:	c2b5e5b5 10a26f9e 08b26440 ff9258f7     .....o..@d...X..
 801d474:	3445d68f b8dbc590 00000000 00000000     ..E4............
	...
 801d4b4:	15617f10 e6dee39a 1a13c3c3 6807123f     ..a.........?..h
 801d4c4:	0000004d 00000000 00000000 65000000     M..............e
 801d4d4:	455b7462 3136434e 6c70735d 6e697469     bt[ENC61]splitin
 801d4e4:	735f7469 30706574 0031365f 00000000     it_step0_61.....
 801d4f4:	02010000 14d85310 d3a28915 e5b59d4e     .....S......N...
 801d504:	6f9ec2b5 644010a2 58f708b2 d68fff92     ...o..@d...X....
 801d514:	c5903445 0000b8db 00000000 00000000     E4..............
	...
 801d570:	455b7400 3136434e 6c70735d 6e697469     .t[ENC61]splitin
 801d580:	735f7469 31706574 0031365f 00000000     it_step1_61.....
 801d590:	02020000 14d85310 d3a28915 e5b59d4e     .....S......N...
 801d5a0:	6f9ec2b5 644010a2 58f708b2 d68fff92     ...o..@d...X....
 801d5b0:	c5903445 0000b8db 00000000 00000000     E4..............
	...
 801d60c:	455b7400 3136434e 6c70735d 6e697469     .t[ENC61]splitin
 801d61c:	735f7469 32706574 0031365f 00000000     it_step2_61.....
 801d62c:	03080000 14d85310 d3a28915 e5b59d4e     .....S......N...
 801d63c:	6f9ec2b5 644010a2 58f708b2 d68fff92     ...o..@d...X....
 801d64c:	c5903445 0000b8db 00000000 00000000     E4..............
	...
 801d688:	7f100000 e39a1561 c3c3e6de 123f1a13     ....a.........?.
 801d698:	004d6807 00000000 00000000 00000000     .hM.............
 801d6a8:	74626500 4345445b 665d3136 5f6c6c75     .ebt[DEC61]full_
 801d6b8:	00003136 00000000 00000000 00000000     61..............
 801d6c8:	00000000 f4100315 f5d8510a 66ff5676     .........Q..vV.f
 801d6d8:	94246054 10076c38 fdf789e4 da3a1ca8     T`$.8l........:.
 801d6e8:	2f0bf98e 93badf11 00000000 00000000     .../............
	...
 801d728:	789ed510 1273d137 29bd17b8 dabc2a8c     ...x7.s....).*..
 801d738:	00000081 00000000 00000000 65000000     ...............e
 801d748:	445b7462 31364345 6c70735d 735f7469     bt[DEC61]split_s
 801d758:	30706574 0031365f 00000000 00000000     tep0_61.........
 801d768:	02050000 510af410 5676f5d8 605466ff     .......Q..vV.fT`
 801d778:	6c389424 89e41007 1ca8fdf7 f98eda3a     $.8l........:...
 801d788:	df112f0b 000093ba 00000000 00000000     ./..............
	...
 801d7e4:	445b7400 31364345 6c70735d 735f7469     .t[DEC61]split_s
 801d7f4:	31706574 0031365f 00000000 00000000     tep1_61.........
 801d804:	03100000 510af410 5676f5d8 605466ff     .......Q..vV.fT`
 801d814:	6c389424 89e41007 1ca8fdf7 f98eda3a     $.8l........:...
 801d824:	df112f0b 000093ba 00000000 00000000     ./..............
	...
 801d860:	d5100000 d137789e 17b81273 2a8c29bd     .....x7.s....).*
 801d870:	0081dabc 00000000 00000000 00000000     ................
 801d880:	74626500 4345445b 735d3136 74696c70     .ebt[DEC61]split
 801d890:	74696e69 6574735f 365f3070 00000031     init_step0_61...
 801d8a0:	00000000 f4100201 f5d8510a 66ff5676     .........Q..vV.f
 801d8b0:	94246054 10076c38 fdf789e4 da3a1ca8     T`$.8l........:.
 801d8c0:	2f0bf98e 93badf11 00000000 00000000     .../............
	...
 801d91c:	74000000 4345445b 735d3136 74696c70     ...t[DEC61]split
 801d92c:	74696e69 6574735f 365f3170 00000031     init_step1_61...
 801d93c:	00000000 f4100204 f5d8510a 66ff5676     .........Q..vV.f
 801d94c:	94246054 10076c38 fdf789e4 da3a1ca8     T`$.8l........:.
 801d95c:	2f0bf98e 93badf11 00000000 00000000     .../............
	...
 801d9b8:	74000000 4345445b 735d3136 74696c70     ...t[DEC61]split
 801d9c8:	74696e69 6574735f 365f3270 00000031     init_step2_61...
 801d9d8:	00000000 f4100310 f5d8510a 66ff5676     .........Q..vV.f
 801d9e8:	94246054 10076c38 fdf789e4 da3a1ca8     T`$.8l........:.
 801d9f8:	2f0bf98e 93badf11 00000000 00000000     .../............
	...
 801da38:	789ed510 1273d137 29bd17b8 dabc2a8c     ...x7.s....).*..
 801da48:	00000081 00000000 00000000 65000000     ...............e
 801da58:	455b7462 3236434e 6c75665d 32365f6c     bt[ENC62]full_62
	...
 801da78:	030b0000 441c0c10 340d7de9 dd7e1c1b     .......D.}.4..~.
 801da88:	6c60835d fd9f1047 2f701b02 80da5814     ].`lG.....p/.X..
 801da98:	e7701fa0 00002c2e 00000000 00000000     ..p..,..........
	...
 801dad4:	17100000 f839a139 35a03da7 6e5457eb     ....9.9..=.5.WTn
 801dae4:	009182bb 00000000 00000000 00000000     ................
 801daf4:	74626500 434e455b 735d3236 74696c70     .ebt[ENC62]split
 801db04:	6574735f 365f3070 00000032 00000000     _step0_62.......
 801db14:	00000000 0c100203 7de9441c 1c1b340d     .........D.}.4..
 801db24:	835ddd7e 10476c60 1b02fd9f 58142f70     ~.].`lG.....p/.X
 801db34:	1fa080da 2c2ee770 00000000 00000000     ....p..,........
	...
 801db90:	74000000 434e455b 735d3236 74696c70     ...t[ENC62]split
 801dba0:	6574735f 365f3170 00000032 00000000     _step1_62.......
 801dbb0:	00000000 0c100308 7de9441c 1c1b340d     .........D.}.4..
 801dbc0:	835ddd7e 10476c60 1b02fd9f 58142f70     ~.].`lG.....p/.X
 801dbd0:	1fa080da 2c2ee770 00000000 00000000     ....p..,........
	...
 801dc10:	a1391710 3da7f839 57eb35a0 82bb6e54     ..9.9..=.5.WTn..
 801dc20:	00000091 00000000 00000000 65000000     ...............e
 801dc30:	455b7462 3236434e 6c70735d 6e697469     bt[ENC62]splitin
 801dc40:	735f7469 30706574 0032365f 00000000     it_step0_62.....
 801dc50:	02010000 441c0c10 340d7de9 dd7e1c1b     .......D.}.4..~.
 801dc60:	6c60835d fd9f1047 2f701b02 80da5814     ].`lG.....p/.X..
 801dc70:	e7701fa0 00002c2e 00000000 00000000     ..p..,..........
	...
 801dccc:	455b7400 3236434e 6c70735d 6e697469     .t[ENC62]splitin
 801dcdc:	735f7469 31706574 0032365f 00000000     it_step1_62.....
 801dcec:	02020000 441c0c10 340d7de9 dd7e1c1b     .......D.}.4..~.
 801dcfc:	6c60835d fd9f1047 2f701b02 80da5814     ].`lG.....p/.X..
 801dd0c:	e7701fa0 00002c2e 00000000 00000000     ..p..,..........
	...
 801dd68:	455b7400 3236434e 6c70735d 6e697469     .t[ENC62]splitin
 801dd78:	735f7469 32706574 0032365f 00000000     it_step2_62.....
 801dd88:	03080000 441c0c10 340d7de9 dd7e1c1b     .......D.}.4..~.
 801dd98:	6c60835d fd9f1047 2f701b02 80da5814     ].`lG.....p/.X..
 801dda8:	e7701fa0 00002c2e 00000000 00000000     ..p..,..........
	...
 801dde4:	17100000 f839a139 35a03da7 6e5457eb     ....9.9..=.5.WTn
 801ddf4:	009182bb 00000000 00000000 00000000     ................
 801de04:	74626500 4345445b 665d3236 5f6c6c75     .ebt[DEC62]full_
 801de14:	00003236 00000000 00000000 00000000     62..............
 801de24:	00000000 f7100315 5286148a aee7ef0b     ...........R....
 801de34:	35148c85 103e065e 4514dc3b 7e69db22     ...5^.>.;..E".i~
 801de44:	d4b94714 8b124837 00000000 00000000     .G..7H..........
	...
 801de84:	29c5ec10 3911c206 17dc61d7 f864ea8e     ...)...9.a....d.
 801de94:	00000039 00000000 00000000 65000000     9..............e
 801dea4:	445b7462 32364345 6c70735d 735f7469     bt[DEC62]split_s
 801deb4:	30706574 0032365f 00000000 00000000     tep0_62.........
 801dec4:	02050000 148af710 ef0b5286 8c85aee7     .........R......
 801ded4:	065e3514 dc3b103e db224514 47147e69     .5^.>.;..E".i~.G
 801dee4:	4837d4b9 00008b12 00000000 00000000     ..7H............
	...
 801df40:	445b7400 32364345 6c70735d 735f7469     .t[DEC62]split_s
 801df50:	31706574 0032365f 00000000 00000000     tep1_62.........
 801df60:	03100000 148af710 ef0b5286 8c85aee7     .........R......
 801df70:	065e3514 dc3b103e db224514 47147e69     .5^.>.;..E".i~.G
 801df80:	4837d4b9 00008b12 00000000 00000000     ..7H............
	...
 801dfbc:	ec100000 c20629c5 61d73911 ea8e17dc     .....)...9.a....
 801dfcc:	0039f864 00000000 00000000 00000000     d.9.............
 801dfdc:	74626500 4345445b 735d3236 74696c70     .ebt[DEC62]split
 801dfec:	74696e69 6574735f 365f3070 00000032     init_step0_62...
 801dffc:	00000000 f7100201 5286148a aee7ef0b     ...........R....
 801e00c:	35148c85 103e065e 4514dc3b 7e69db22     ...5^.>.;..E".i~
 801e01c:	d4b94714 8b124837 00000000 00000000     .G..7H..........
	...
 801e078:	74000000 4345445b 735d3236 74696c70     ...t[DEC62]split
 801e088:	74696e69 6574735f 365f3170 00000032     init_step1_62...
 801e098:	00000000 f7100204 5286148a aee7ef0b     ...........R....
 801e0a8:	35148c85 103e065e 4514dc3b 7e69db22     ...5^.>.;..E".i~
 801e0b8:	d4b94714 8b124837 00000000 00000000     .G..7H..........
	...
 801e114:	74000000 4345445b 735d3236 74696c70     ...t[DEC62]split
 801e124:	74696e69 6574735f 365f3270 00000032     init_step2_62...
 801e134:	00000000 f7100310 5286148a aee7ef0b     ...........R....
 801e144:	35148c85 103e065e 4514dc3b 7e69db22     ...5^.>.;..E".i~
 801e154:	d4b94714 8b124837 00000000 00000000     .G..7H..........
	...
 801e194:	29c5ec10 3911c206 17dc61d7 f864ea8e     ...)...9.a....d.
 801e1a4:	00000039 00000000 00000000 65000000     9..............e
 801e1b4:	455b7462 3336434e 6c75665d 33365f6c     bt[ENC63]full_63
	...
 801e1d4:	030b0000 c793e710 7a9a8e08 8a9f066a     ...........zj...
 801e1e4:	e83299ba 3ab610f6 e5aae0f2 99ac800b     ..2....:........
 801e1f4:	284784a8 00005640 00000000 00000000     ..G(@V..........
	...
 801e230:	6a100000 ba7eb801 cd1b32be b54e9b64     ...j..~..2..d.N.
 801e240:	00f4fe7b 00000000 00000000 00000000     {...............
 801e250:	74626500 434e455b 735d3336 74696c70     .ebt[ENC63]split
 801e260:	6574735f 365f3070 00000033 00000000     _step0_63.......
 801e270:	00000000 e7100203 8e08c793 066a7a9a     .............zj.
 801e280:	99ba8a9f 10f6e832 e0f23ab6 800be5aa     ....2....:......
 801e290:	84a899ac 56402847 00000000 00000000     ....G(@V........
	...
 801e2ec:	74000000 434e455b 735d3336 74696c70     ...t[ENC63]split
 801e2fc:	6574735f 365f3170 00000033 00000000     _step1_63.......
 801e30c:	00000000 e7100308 8e08c793 066a7a9a     .............zj.
 801e31c:	99ba8a9f 10f6e832 e0f23ab6 800be5aa     ....2....:......
 801e32c:	84a899ac 56402847 00000000 00000000     ....G(@V........
	...
 801e36c:	b8016a10 32beba7e 9b64cd1b fe7bb54e     .j..~..2..d.N.{.
 801e37c:	000000f4 00000000 00000000 65000000     ...............e
 801e38c:	455b7462 3336434e 6c70735d 6e697469     bt[ENC63]splitin
 801e39c:	735f7469 30706574 0033365f 00000000     it_step0_63.....
 801e3ac:	02010000 c793e710 7a9a8e08 8a9f066a     ...........zj...
 801e3bc:	e83299ba 3ab610f6 e5aae0f2 99ac800b     ..2....:........
 801e3cc:	284784a8 00005640 00000000 00000000     ..G(@V..........
	...
 801e428:	455b7400 3336434e 6c70735d 6e697469     .t[ENC63]splitin
 801e438:	735f7469 31706574 0033365f 00000000     it_step1_63.....
 801e448:	02020000 c793e710 7a9a8e08 8a9f066a     ...........zj...
 801e458:	e83299ba 3ab610f6 e5aae0f2 99ac800b     ..2....:........
 801e468:	284784a8 00005640 00000000 00000000     ..G(@V..........
	...
 801e4c4:	455b7400 3336434e 6c70735d 6e697469     .t[ENC63]splitin
 801e4d4:	735f7469 32706574 0033365f 00000000     it_step2_63.....
 801e4e4:	03080000 c793e710 7a9a8e08 8a9f066a     ...........zj...
 801e4f4:	e83299ba 3ab610f6 e5aae0f2 99ac800b     ..2....:........
 801e504:	284784a8 00005640 00000000 00000000     ..G(@V..........
	...
 801e540:	6a100000 ba7eb801 cd1b32be b54e9b64     ...j..~..2..d.N.
 801e550:	00f4fe7b 00000000 00000000 00000000     {...............
 801e560:	74626500 4345445b 665d3336 5f6c6c75     .ebt[DEC63]full_
 801e570:	00003336 00000000 00000000 00000000     63..............
 801e580:	00000000 4c100315 08ab5ada 3ec326e5     .......L.Z...&.>
 801e590:	fa507633 102da3aa 7c0e6490 32e33402     3vP...-..d.|.4.2
 801e5a0:	66a3049c 3abaa7a6 00000000 00000000     ...f...:........
	...
 801e5e0:	79ceac10 50cf1a42 93363793 a9e73f5f     ...yB..P.76._?..
 801e5f0:	00000010 00000000 00000000 65000000     ...............e
 801e600:	445b7462 33364345 6c70735d 735f7469     bt[DEC63]split_s
 801e610:	30706574 0033365f 00000000 00000000     tep0_63.........
 801e620:	02050000 5ada4c10 26e508ab 76333ec3     .....L.Z...&.>3v
 801e630:	a3aafa50 6490102d 34027c0e 049c32e3     P...-..d.|.4.2..
 801e640:	a7a666a3 00003aba 00000000 00000000     .f...:..........
	...
 801e69c:	445b7400 33364345 6c70735d 735f7469     .t[DEC63]split_s
 801e6ac:	31706574 0033365f 00000000 00000000     tep1_63.........
 801e6bc:	03100000 5ada4c10 26e508ab 76333ec3     .....L.Z...&.>3v
 801e6cc:	a3aafa50 6490102d 34027c0e 049c32e3     P...-..d.|.4.2..
 801e6dc:	a7a666a3 00003aba 00000000 00000000     .f...:..........
	...
 801e718:	ac100000 1a4279ce 379350cf 3f5f9336     .....yB..P.76._?
 801e728:	0010a9e7 00000000 00000000 00000000     ................
 801e738:	74626500 4345445b 735d3336 74696c70     .ebt[DEC63]split
 801e748:	74696e69 6574735f 365f3070 00000033     init_step0_63...
 801e758:	00000000 4c100201 08ab5ada 3ec326e5     .......L.Z...&.>
 801e768:	fa507633 102da3aa 7c0e6490 32e33402     3vP...-..d.|.4.2
 801e778:	66a3049c 3abaa7a6 00000000 00000000     ...f...:........
	...
 801e7d4:	74000000 4345445b 735d3336 74696c70     ...t[DEC63]split
 801e7e4:	74696e69 6574735f 365f3170 00000033     init_step1_63...
 801e7f4:	00000000 4c100204 08ab5ada 3ec326e5     .......L.Z...&.>
 801e804:	fa507633 102da3aa 7c0e6490 32e33402     3vP...-..d.|.4.2
 801e814:	66a3049c 3abaa7a6 00000000 00000000     ...f...:........
	...
 801e870:	74000000 4345445b 735d3336 74696c70     ...t[DEC63]split
 801e880:	74696e69 6574735f 365f3270 00000033     init_step2_63...
 801e890:	00000000 4c100310 08ab5ada 3ec326e5     .......L.Z...&.>
 801e8a0:	fa507633 102da3aa 7c0e6490 32e33402     3vP...-..d.|.4.2
 801e8b0:	66a3049c 3abaa7a6 00000000 00000000     ...f...:........
	...
 801e8f0:	79ceac10 50cf1a42 93363793 a9e73f5f     ...yB..P.76._?..
 801e900:	00000010 00000000 00000000 65000000     ...............e
 801e910:	455b7462 3436434e 6c75665d 34365f6c     bt[ENC64]full_64
	...
 801e930:	030b0000 7acf2110 3bb54856 c6d3c52e     .....!.zVH.;....
 801e940:	91148e92 974610ca 08e2af7d e531518b     ......F.}....Q1.
 801e950:	b8164283 00007454 00000000 00000000     .B..Tt..........
	...
 801e98c:	01100000 d27876a8 90287a93 90725f16     .....vx..z(.._r.
 801e99c:	00cad77f 00000000 00000000 00000000     ................
 801e9ac:	74626500 434e455b 735d3436 74696c70     .ebt[ENC64]split
 801e9bc:	6574735f 365f3070 00000034 00000000     _step0_64.......
 801e9cc:	00000000 21100203 48567acf c52e3bb5     .......!.zVH.;..
 801e9dc:	8e92c6d3 10ca9114 af7d9746 518b08e2     ........F.}....Q
 801e9ec:	4283e531 7454b816 00000000 00000000     1..B..Tt........
	...
 801ea48:	74000000 434e455b 735d3436 74696c70     ...t[ENC64]split
 801ea58:	6574735f 365f3170 00000034 00000000     _step1_64.......
 801ea68:	00000000 21100308 48567acf c52e3bb5     .......!.zVH.;..
 801ea78:	8e92c6d3 10ca9114 af7d9746 518b08e2     ........F.}....Q
 801ea88:	4283e531 7454b816 00000000 00000000     1..B..Tt........
	...
 801eac8:	76a80110 7a93d278 5f169028 d77f9072     ...vx..z(.._r...
 801ead8:	000000ca 00000000 00000000 65000000     ...............e
 801eae8:	455b7462 3436434e 6c70735d 6e697469     bt[ENC64]splitin
 801eaf8:	735f7469 30706574 0034365f 00000000     it_step0_64.....
 801eb08:	02010000 7acf2110 3bb54856 c6d3c52e     .....!.zVH.;....
 801eb18:	91148e92 974610ca 08e2af7d e531518b     ......F.}....Q1.
 801eb28:	b8164283 00007454 00000000 00000000     .B..Tt..........
	...
 801eb84:	455b7400 3436434e 6c70735d 6e697469     .t[ENC64]splitin
 801eb94:	735f7469 31706574 0034365f 00000000     it_step1_64.....
 801eba4:	02020000 7acf2110 3bb54856 c6d3c52e     .....!.zVH.;....
 801ebb4:	91148e92 974610ca 08e2af7d e531518b     ......F.}....Q1.
 801ebc4:	b8164283 00007454 00000000 00000000     .B..Tt..........
	...
 801ec20:	455b7400 3436434e 6c70735d 6e697469     .t[ENC64]splitin
 801ec30:	735f7469 32706574 0034365f 00000000     it_step2_64.....
 801ec40:	03080000 7acf2110 3bb54856 c6d3c52e     .....!.zVH.;....
 801ec50:	91148e92 974610ca 08e2af7d e531518b     ......F.}....Q1.
 801ec60:	b8164283 00007454 00000000 00000000     .B..Tt..........
	...
 801ec9c:	01100000 d27876a8 90287a93 90725f16     .....vx..z(.._r.
 801ecac:	00cad77f 00000000 00000000 00000000     ................
 801ecbc:	74626500 4345445b 665d3436 5f6c6c75     .ebt[DEC64]full_
 801eccc:	00003436 00000000 00000000 00000000     64..............
 801ecdc:	00000000 92100315 d6cc9848 7539b145     ........H...E.9u
 801ecec:	a9ea76a8 1089c149 189f5caf 26b60daa     .v..I....\.....&
 801ecfc:	ee019096 844fa7cf 00000000 00000000     ......O.........
	...
 801ed3c:	cb9b9c10 c0c637fa da5fde98 1a5ea626     .....7...._.&.^.
 801ed4c:	000000a1 00000000 00000000 65000000     ...............e
 801ed5c:	445b7462 34364345 6c70735d 735f7469     bt[DEC64]split_s
 801ed6c:	30706574 0034365f 00000000 00000000     tep0_64.........
 801ed7c:	02050000 98489210 b145d6cc 76a87539     ......H...E.9u.v
 801ed8c:	c149a9ea 5caf1089 0daa189f 909626b6     ..I....\.....&..
 801ed9c:	a7cfee01 0000844f 00000000 00000000     ....O...........
	...
 801edf8:	445b7400 34364345 6c70735d 735f7469     .t[DEC64]split_s
 801ee08:	31706574 0034365f 00000000 00000000     tep1_64.........
 801ee18:	03100000 98489210 b145d6cc 76a87539     ......H...E.9u.v
 801ee28:	c149a9ea 5caf1089 0daa189f 909626b6     ..I....\.....&..
 801ee38:	a7cfee01 0000844f 00000000 00000000     ....O...........
	...
 801ee74:	9c100000 37facb9b de98c0c6 a626da5f     .......7...._.&.
 801ee84:	00a11a5e 00000000 00000000 00000000     ^...............
 801ee94:	74626500 4345445b 735d3436 74696c70     .ebt[DEC64]split
 801eea4:	74696e69 6574735f 365f3070 00000034     init_step0_64...
 801eeb4:	00000000 92100201 d6cc9848 7539b145     ........H...E.9u
 801eec4:	a9ea76a8 1089c149 189f5caf 26b60daa     .v..I....\.....&
 801eed4:	ee019096 844fa7cf 00000000 00000000     ......O.........
	...
 801ef30:	74000000 4345445b 735d3436 74696c70     ...t[DEC64]split
 801ef40:	74696e69 6574735f 365f3170 00000034     init_step1_64...
 801ef50:	00000000 92100204 d6cc9848 7539b145     ........H...E.9u
 801ef60:	a9ea76a8 1089c149 189f5caf 26b60daa     .v..I....\.....&
 801ef70:	ee019096 844fa7cf 00000000 00000000     ......O.........
	...
 801efcc:	74000000 4345445b 735d3436 74696c70     ...t[DEC64]split
 801efdc:	74696e69 6574735f 365f3270 00000034     init_step2_64...
 801efec:	00000000 92100310 d6cc9848 7539b145     ........H...E.9u
 801effc:	a9ea76a8 1089c149 189f5caf 26b60daa     .v..I....\.....&
 801f00c:	ee019096 844fa7cf 00000000 00000000     ......O.........
	...
 801f04c:	cb9b9c10 c0c637fa da5fde98 1a5ea626     .....7...._.&.^.
 801f05c:	000000a1 00000000 00000000 65000000     ...............e
 801f06c:	455b7462 3536434e 6c75665d 35365f6c     bt[ENC65]full_65
	...
 801f08c:	030b0000 67f78810 40b8f2f5 de80fe4c     .......g...@L...
 801f09c:	b805a36a adc3101e 22379158 a5af731e     j.......X.7".s..
 801f0ac:	a5c7562b 0000fb4e 00000000 00000000     +V..N...........
	...
 801f0e8:	09100000 dc70afc8 696cb75a 2de7d343     ......p.Z.liC..-
 801f0f8:	002d79d5 00000000 00000000 00000000     .y-.............
 801f108:	74626500 434e455b 735d3536 74696c70     .ebt[ENC65]split
 801f118:	6574735f 365f3070 00000035 00000000     _step0_65.......
 801f128:	00000000 88100203 f2f567f7 fe4c40b8     .........g...@L.
 801f138:	a36ade80 101eb805 9158adc3 731e2237     ..j.......X.7".s
 801f148:	562ba5af fb4ea5c7 00000000 00000000     ..+V..N.........
	...
 801f1a4:	74000000 434e455b 735d3536 74696c70     ...t[ENC65]split
 801f1b4:	6574735f 365f3170 00000035 00000000     _step1_65.......
 801f1c4:	00000000 88100308 f2f567f7 fe4c40b8     .........g...@L.
 801f1d4:	a36ade80 101eb805 9158adc3 731e2237     ..j.......X.7".s
 801f1e4:	562ba5af fb4ea5c7 00000000 00000000     ..+V..N.........
	...
 801f224:	afc80910 b75adc70 d343696c 79d52de7     ....p.Z.liC..-.y
 801f234:	0000002d 00000000 00000000 65000000     -..............e
 801f244:	455b7462 3536434e 6c70735d 6e697469     bt[ENC65]splitin
 801f254:	735f7469 30706574 0035365f 00000000     it_step0_65.....
 801f264:	02010000 67f78810 40b8f2f5 de80fe4c     .......g...@L...
 801f274:	b805a36a adc3101e 22379158 a5af731e     j.......X.7".s..
 801f284:	a5c7562b 0000fb4e 00000000 00000000     +V..N...........
	...
 801f2e0:	455b7400 3536434e 6c70735d 6e697469     .t[ENC65]splitin
 801f2f0:	735f7469 31706574 0035365f 00000000     it_step1_65.....
 801f300:	02020000 67f78810 40b8f2f5 de80fe4c     .......g...@L...
 801f310:	b805a36a adc3101e 22379158 a5af731e     j.......X.7".s..
 801f320:	a5c7562b 0000fb4e 00000000 00000000     +V..N...........
	...
 801f37c:	455b7400 3536434e 6c70735d 6e697469     .t[ENC65]splitin
 801f38c:	735f7469 32706574 0035365f 00000000     it_step2_65.....
 801f39c:	03080000 67f78810 40b8f2f5 de80fe4c     .......g...@L...
 801f3ac:	b805a36a adc3101e 22379158 a5af731e     j.......X.7".s..
 801f3bc:	a5c7562b 0000fb4e 00000000 00000000     +V..N...........
	...
 801f3f8:	09100000 dc70afc8 696cb75a 2de7d343     ......p.Z.liC..-
 801f408:	002d79d5 00000000 00000000 00000000     .y-.............
 801f418:	74626500 4345445b 665d3536 5f6c6c75     .ebt[DEC65]full_
 801f428:	00003536 00000000 00000000 00000000     65..............
 801f438:	00000000 38100315 c8be5217 fea97588     .......8.R...u..
 801f448:	097fed24 1034317b 7d1641f4 5cb33c6f     $...{14..A.}o<.\
 801f458:	44f7e86f 7b1e2bdf 00000000 00000000     o..D.+.{........
	...
 801f498:	9f9c7010 83a79178 6b73bb67 a4c68678     .p..x...g.skx...
 801f4a8:	00000069 00000000 00000000 65000000     i..............e
 801f4b8:	445b7462 35364345 6c70735d 735f7469     bt[DEC65]split_s
 801f4c8:	30706574 0035365f 00000000 00000000     tep0_65.........
 801f4d8:	02050000 52173810 7588c8be ed24fea9     .....8.R...u..$.
 801f4e8:	317b097f 41f41034 3c6f7d16 e86f5cb3     ..{14..A.}o<.\o.
 801f4f8:	2bdf44f7 00007b1e 00000000 00000000     .D.+.{..........
	...
 801f554:	445b7400 35364345 6c70735d 735f7469     .t[DEC65]split_s
 801f564:	31706574 0035365f 00000000 00000000     tep1_65.........
 801f574:	03100000 52173810 7588c8be ed24fea9     .....8.R...u..$.
 801f584:	317b097f 41f41034 3c6f7d16 e86f5cb3     ..{14..A.}o<.\o.
 801f594:	2bdf44f7 00007b1e 00000000 00000000     .D.+.{..........
	...
 801f5d0:	70100000 91789f9c bb6783a7 86786b73     ...p..x...g.skx.
 801f5e0:	0069a4c6 00000000 00000000 00000000     ..i.............
 801f5f0:	74626500 4345445b 735d3536 74696c70     .ebt[DEC65]split
 801f600:	74696e69 6574735f 365f3070 00000035     init_step0_65...
 801f610:	00000000 38100201 c8be5217 fea97588     .......8.R...u..
 801f620:	097fed24 1034317b 7d1641f4 5cb33c6f     $...{14..A.}o<.\
 801f630:	44f7e86f 7b1e2bdf 00000000 00000000     o..D.+.{........
	...
 801f68c:	74000000 4345445b 735d3536 74696c70     ...t[DEC65]split
 801f69c:	74696e69 6574735f 365f3170 00000035     init_step1_65...
 801f6ac:	00000000 38100204 c8be5217 fea97588     .......8.R...u..
 801f6bc:	097fed24 1034317b 7d1641f4 5cb33c6f     $...{14..A.}o<.\
 801f6cc:	44f7e86f 7b1e2bdf 00000000 00000000     o..D.+.{........
	...
 801f728:	74000000 4345445b 735d3536 74696c70     ...t[DEC65]split
 801f738:	74696e69 6574735f 365f3270 00000035     init_step2_65...
 801f748:	00000000 38100310 c8be5217 fea97588     .......8.R...u..
 801f758:	097fed24 1034317b 7d1641f4 5cb33c6f     $...{14..A.}o<.\
 801f768:	44f7e86f 7b1e2bdf 00000000 00000000     o..D.+.{........
	...
 801f7a8:	9f9c7010 83a79178 6b73bb67 a4c68678     .p..x...g.skx...
 801f7b8:	00000069 00000000 00000000 65000000     i..............e
 801f7c8:	455b7462 3636434e 6c75665d 36365f6c     bt[ENC66]full_66
	...
 801f7e8:	030b0000 b33a7e10 c0015968 0d483d87     .....~:.hY...=H.
 801f7f8:	799a3d13 41651032 5ce2faed b8f6f4c6     .=.y2.eA...\....
 801f808:	d2964326 000057de 00000000 00000000     &C...W..........
	...
 801f844:	2c100000 d4a02a60 49aae218 9ad0c740     ...,`*.....I@...
 801f854:	007feb21 00000000 00000000 00000000     !...............
 801f864:	74626500 434e455b 735d3636 74696c70     .ebt[ENC66]split
 801f874:	6574735f 365f3070 00000036 00000000     _step0_66.......
 801f884:	00000000 7e100203 5968b33a 3d87c001     .......~:.hY...=
 801f894:	3d130d48 1032799a faed4165 f4c65ce2     H..=.y2.eA...\..
 801f8a4:	4326b8f6 57ded296 00000000 00000000     ..&C...W........
	...
 801f900:	74000000 434e455b 735d3636 74696c70     ...t[ENC66]split
 801f910:	6574735f 365f3170 00000036 00000000     _step1_66.......
 801f920:	00000000 7e100308 5968b33a 3d87c001     .......~:.hY...=
 801f930:	3d130d48 1032799a faed4165 f4c65ce2     H..=.y2.eA...\..
 801f940:	4326b8f6 57ded296 00000000 00000000     ..&C...W........
	...
 801f980:	2a602c10 e218d4a0 c74049aa eb219ad0     .,`*.....I@...!.
 801f990:	0000007f 00000000 00000000 65000000     ...............e
 801f9a0:	455b7462 3636434e 6c70735d 6e697469     bt[ENC66]splitin
 801f9b0:	735f7469 30706574 0036365f 00000000     it_step0_66.....
 801f9c0:	02010000 b33a7e10 c0015968 0d483d87     .....~:.hY...=H.
 801f9d0:	799a3d13 41651032 5ce2faed b8f6f4c6     .=.y2.eA...\....
 801f9e0:	d2964326 000057de 00000000 00000000     &C...W..........
	...
 801fa3c:	455b7400 3636434e 6c70735d 6e697469     .t[ENC66]splitin
 801fa4c:	735f7469 31706574 0036365f 00000000     it_step1_66.....
 801fa5c:	02020000 b33a7e10 c0015968 0d483d87     .....~:.hY...=H.
 801fa6c:	799a3d13 41651032 5ce2faed b8f6f4c6     .=.y2.eA...\....
 801fa7c:	d2964326 000057de 00000000 00000000     &C...W..........
	...
 801fad8:	455b7400 3636434e 6c70735d 6e697469     .t[ENC66]splitin
 801fae8:	735f7469 32706574 0036365f 00000000     it_step2_66.....
 801faf8:	03080000 b33a7e10 c0015968 0d483d87     .....~:.hY...=H.
 801fb08:	799a3d13 41651032 5ce2faed b8f6f4c6     .=.y2.eA...\....
 801fb18:	d2964326 000057de 00000000 00000000     &C...W..........
	...
 801fb54:	2c100000 d4a02a60 49aae218 9ad0c740     ...,`*.....I@...
 801fb64:	007feb21 00000000 00000000 00000000     !...............
 801fb74:	74626500 4345445b 665d3636 5f6c6c75     .ebt[DEC66]full_
 801fb84:	00003636 00000000 00000000 00000000     66..............
 801fb94:	00000000 7f100315 bca75128 cfb56a57     ........(Q..Wj..
 801fba4:	19eda11a 10d567be b57087f4 a259e05f     .....g....p._.Y.
 801fbb4:	a8a744af cc9456a7 00000000 00000000     .D...V..........
	...
 801fbf4:	17e58710 ce0a1260 c44917f7 173aab18     ....`.....I...:.
 801fc04:	000000ec 00000000 00000000 65000000     ...............e
 801fc14:	445b7462 36364345 6c70735d 735f7469     bt[DEC66]split_s
 801fc24:	30706574 0036365f 00000000 00000000     tep0_66.........
 801fc34:	02050000 51287f10 6a57bca7 a11acfb5     ......(Q..Wj....
 801fc44:	67be19ed 87f410d5 e05fb570 44afa259     ...g....p._.Y..D
 801fc54:	56a7a8a7 0000cc94 00000000 00000000     ...V............
	...
 801fcb0:	445b7400 36364345 6c70735d 735f7469     .t[DEC66]split_s
 801fcc0:	31706574 0036365f 00000000 00000000     tep1_66.........
 801fcd0:	03100000 51287f10 6a57bca7 a11acfb5     ......(Q..Wj....
 801fce0:	67be19ed 87f410d5 e05fb570 44afa259     ...g....p._.Y..D
 801fcf0:	56a7a8a7 0000cc94 00000000 00000000     ...V............
	...
 801fd2c:	87100000 126017e5 17f7ce0a ab18c449     ......`.....I...
 801fd3c:	00ec173a 00000000 00000000 00000000     :...............
 801fd4c:	74626500 4345445b 735d3636 74696c70     .ebt[DEC66]split
 801fd5c:	74696e69 6574735f 365f3070 00000036     init_step0_66...
 801fd6c:	00000000 7f100201 bca75128 cfb56a57     ........(Q..Wj..
 801fd7c:	19eda11a 10d567be b57087f4 a259e05f     .....g....p._.Y.
 801fd8c:	a8a744af cc9456a7 00000000 00000000     .D...V..........
	...
 801fde8:	74000000 4345445b 735d3636 74696c70     ...t[DEC66]split
 801fdf8:	74696e69 6574735f 365f3170 00000036     init_step1_66...
 801fe08:	00000000 7f100204 bca75128 cfb56a57     ........(Q..Wj..
 801fe18:	19eda11a 10d567be b57087f4 a259e05f     .....g....p._.Y.
 801fe28:	a8a744af cc9456a7 00000000 00000000     .D...V..........
	...
 801fe84:	74000000 4345445b 735d3636 74696c70     ...t[DEC66]split
 801fe94:	74696e69 6574735f 365f3270 00000036     init_step2_66...
 801fea4:	00000000 7f100310 bca75128 cfb56a57     ........(Q..Wj..
 801feb4:	19eda11a 10d567be b57087f4 a259e05f     .....g....p._.Y.
 801fec4:	a8a744af cc9456a7 00000000 00000000     .D...V..........
	...
 801ff04:	17e58710 ce0a1260 c44917f7 173aab18     ....`.....I...:.
 801ff14:	000000ec 00000000 00000000 65000000     ...............e
 801ff24:	455b7462 3736434e 6c75665d 37365f6c     bt[ENC67]full_67
	...
 801ff44:	030b0000 cc4fa310 53cc3767 8a84216f     ......O.g7.So!..
 801ff54:	881570bc fd541011 76916ab2 cf474f28     .p....T..j.v(OG.
 801ff64:	13702e31 0000dd0c 00000000 00000000     1.p.............
	...
 801ffa0:	a9100000 217bae58 72912b02 d027f7bc     ....X.{!.+.r..'.
 801ffb0:	00f695bc 00000000 00000000 00000000     ................
 801ffc0:	74626500 434e455b 735d3736 74696c70     .ebt[ENC67]split
 801ffd0:	6574735f 365f3070 00000037 00000000     _step0_67.......
 801ffe0:	00000000 a3100203 3767cc4f 216f53cc     ........O.g7.So!
 801fff0:	70bc8a84 10118815 6ab2fd54 4f287691     ...p....T..j.v(O
 8020000:	2e31cf47 dd0c1370 00000000 00000000     G.1.p...........
	...
 802005c:	74000000 434e455b 735d3736 74696c70     ...t[ENC67]split
 802006c:	6574735f 365f3170 00000037 00000000     _step1_67.......
 802007c:	00000000 a3100308 3767cc4f 216f53cc     ........O.g7.So!
 802008c:	70bc8a84 10118815 6ab2fd54 4f287691     ...p....T..j.v(O
 802009c:	2e31cf47 dd0c1370 00000000 00000000     G.1.p...........
	...
 80200dc:	ae58a910 2b02217b f7bc7291 95bcd027     ..X.{!.+.r..'...
 80200ec:	000000f6 00000000 00000000 65000000     ...............e
 80200fc:	455b7462 3736434e 6c70735d 6e697469     bt[ENC67]splitin
 802010c:	735f7469 30706574 0037365f 00000000     it_step0_67.....
 802011c:	02010000 cc4fa310 53cc3767 8a84216f     ......O.g7.So!..
 802012c:	881570bc fd541011 76916ab2 cf474f28     .p....T..j.v(OG.
 802013c:	13702e31 0000dd0c 00000000 00000000     1.p.............
	...
 8020198:	455b7400 3736434e 6c70735d 6e697469     .t[ENC67]splitin
 80201a8:	735f7469 31706574 0037365f 00000000     it_step1_67.....
 80201b8:	02020000 cc4fa310 53cc3767 8a84216f     ......O.g7.So!..
 80201c8:	881570bc fd541011 76916ab2 cf474f28     .p....T..j.v(OG.
 80201d8:	13702e31 0000dd0c 00000000 00000000     1.p.............
	...
 8020234:	455b7400 3736434e 6c70735d 6e697469     .t[ENC67]splitin
 8020244:	735f7469 32706574 0037365f 00000000     it_step2_67.....
 8020254:	03080000 cc4fa310 53cc3767 8a84216f     ......O.g7.So!..
 8020264:	881570bc fd541011 76916ab2 cf474f28     .p....T..j.v(OG.
 8020274:	13702e31 0000dd0c 00000000 00000000     1.p.............
	...
 80202b0:	a9100000 217bae58 72912b02 d027f7bc     ....X.{!.+.r..'.
 80202c0:	00f695bc 00000000 00000000 00000000     ................
 80202d0:	74626500 4345445b 665d3736 5f6c6c75     .ebt[DEC67]full_
 80202e0:	00003736 00000000 00000000 00000000     67..............
 80202f0:	00000000 0d100315 7b25f1b3 71dac809     ..........%{...q
 8020300:	b09f39cd 102f8364 1c4343a7 e2006821     .9..d./..CC.!h..
 8020310:	fa198738 3b2ca703 00000000 00000000     8.....,;........
	...
 8020350:	e5c1a210 e585289a b0696a85 5ac7f8f4     .....(...ji....Z
 8020360:	0000003f 00000000 00000000 65000000     ?..............e
 8020370:	445b7462 37364345 6c70735d 735f7469     bt[DEC67]split_s
 8020380:	30706574 0037365f 00000000 00000000     tep0_67.........
 8020390:	02050000 f1b30d10 c8097b25 39cd71da     ........%{...q.9
 80203a0:	8364b09f 43a7102f 68211c43 8738e200     ..d./..CC.!h..8.
 80203b0:	a703fa19 00003b2c 00000000 00000000     ....,;..........
	...
 802040c:	445b7400 37364345 6c70735d 735f7469     .t[DEC67]split_s
 802041c:	31706574 0037365f 00000000 00000000     tep1_67.........
 802042c:	03100000 f1b30d10 c8097b25 39cd71da     ........%{...q.9
 802043c:	8364b09f 43a7102f 68211c43 8738e200     ..d./..CC.!h..8.
 802044c:	a703fa19 00003b2c 00000000 00000000     ....,;..........
	...
 8020488:	a2100000 289ae5c1 6a85e585 f8f4b069     .......(...ji...
 8020498:	003f5ac7 00000000 00000000 00000000     .Z?.............
 80204a8:	74626500 4345445b 735d3736 74696c70     .ebt[DEC67]split
 80204b8:	74696e69 6574735f 365f3070 00000037     init_step0_67...
 80204c8:	00000000 0d100201 7b25f1b3 71dac809     ..........%{...q
 80204d8:	b09f39cd 102f8364 1c4343a7 e2006821     .9..d./..CC.!h..
 80204e8:	fa198738 3b2ca703 00000000 00000000     8.....,;........
	...
 8020544:	74000000 4345445b 735d3736 74696c70     ...t[DEC67]split
 8020554:	74696e69 6574735f 365f3170 00000037     init_step1_67...
 8020564:	00000000 0d100204 7b25f1b3 71dac809     ..........%{...q
 8020574:	b09f39cd 102f8364 1c4343a7 e2006821     .9..d./..CC.!h..
 8020584:	fa198738 3b2ca703 00000000 00000000     8.....,;........
	...
 80205e0:	74000000 4345445b 735d3736 74696c70     ...t[DEC67]split
 80205f0:	74696e69 6574735f 365f3270 00000037     init_step2_67...
 8020600:	00000000 0d100310 7b25f1b3 71dac809     ..........%{...q
 8020610:	b09f39cd 102f8364 1c4343a7 e2006821     .9..d./..CC.!h..
 8020620:	fa198738 3b2ca703 00000000 00000000     8.....,;........
	...
 8020660:	e5c1a210 e585289a b0696a85 5ac7f8f4     .....(...ji....Z
 8020670:	0000003f 00000000 00000000 65000000     ?..............e
 8020680:	455b7462 3836434e 6c75665d 38365f6c     bt[ENC68]full_68
	...
 80206a0:	030b0000 f9b63d10 9ac1d234 c5958e4f     .....=..4...O...
 80206b0:	ae59b079 f2df10e7 459dc4ee 94ce20c4     y.Y........E. ..
 80206c0:	7ef3cdcb 0000b618 00000000 00000000     ...~............
	...
 80206fc:	e9100000 84a0b8cf 749ba448 eab83e0f     ........H..t.>..
 802070c:	002ef7c1 00000000 00000000 00000000     ................
 802071c:	74626500 434e455b 735d3836 74696c70     .ebt[ENC68]split
 802072c:	6574735f 365f3070 00000038 00000000     _step0_68.......
 802073c:	00000000 3d100203 d234f9b6 8e4f9ac1     .......=..4...O.
 802074c:	b079c595 10e7ae59 c4eef2df 20c4459d     ..y.Y........E. 
 802075c:	cdcb94ce b6187ef3 00000000 00000000     .....~..........
	...
 80207b8:	74000000 434e455b 735d3836 74696c70     ...t[ENC68]split
 80207c8:	6574735f 365f3170 00000038 00000000     _step1_68.......
 80207d8:	00000000 3d100308 d234f9b6 8e4f9ac1     .......=..4...O.
 80207e8:	b079c595 10e7ae59 c4eef2df 20c4459d     ..y.Y........E. 
 80207f8:	cdcb94ce b6187ef3 00000000 00000000     .....~..........
	...
 8020838:	b8cfe910 a44884a0 3e0f749b f7c1eab8     ......H..t.>....
 8020848:	0000002e 00000000 00000000 65000000     ...............e
 8020858:	455b7462 3836434e 6c70735d 6e697469     bt[ENC68]splitin
 8020868:	735f7469 30706574 0038365f 00000000     it_step0_68.....
 8020878:	02010000 f9b63d10 9ac1d234 c5958e4f     .....=..4...O...
 8020888:	ae59b079 f2df10e7 459dc4ee 94ce20c4     y.Y........E. ..
 8020898:	7ef3cdcb 0000b618 00000000 00000000     ...~............
	...
 80208f4:	455b7400 3836434e 6c70735d 6e697469     .t[ENC68]splitin
 8020904:	735f7469 31706574 0038365f 00000000     it_step1_68.....
 8020914:	02020000 f9b63d10 9ac1d234 c5958e4f     .....=..4...O...
 8020924:	ae59b079 f2df10e7 459dc4ee 94ce20c4     y.Y........E. ..
 8020934:	7ef3cdcb 0000b618 00000000 00000000     ...~............
	...
 8020990:	455b7400 3836434e 6c70735d 6e697469     .t[ENC68]splitin
 80209a0:	735f7469 32706574 0038365f 00000000     it_step2_68.....
 80209b0:	03080000 f9b63d10 9ac1d234 c5958e4f     .....=..4...O...
 80209c0:	ae59b079 f2df10e7 459dc4ee 94ce20c4     y.Y........E. ..
 80209d0:	7ef3cdcb 0000b618 00000000 00000000     ...~............
	...
 8020a0c:	e9100000 84a0b8cf 749ba448 eab83e0f     ........H..t.>..
 8020a1c:	002ef7c1 00000000 00000000 00000000     ................
 8020a2c:	74626500 4345445b 665d3836 5f6c6c75     .ebt[DEC68]full_
 8020a3c:	00003836 00000000 00000000 00000000     68..............
 8020a4c:	00000000 92100315 1c6becc2 172efc62     ..........k.b...
 8020a5c:	1fdd0fdd 10171635 222b82ac 07eacb3d     ....5.....+"=...
 8020a6c:	1061b5ff 3ad935b9 00000000 00000000     ..a..5.:........
	...
 8020aac:	e9063310 54995b00 ccbac61b 11eb2e4b     .3...[.T....K...
 8020abc:	00000018 00000000 00000000 65000000     ...............e
 8020acc:	445b7462 38364345 6c70735d 735f7469     bt[DEC68]split_s
 8020adc:	30706574 0038365f 00000000 00000000     tep0_68.........
 8020aec:	02050000 ecc29210 fc621c6b 0fdd172e     ........k.b.....
 8020afc:	16351fdd 82ac1017 cb3d222b b5ff07ea     ..5.....+"=.....
 8020b0c:	35b91061 00003ad9 00000000 00000000     a..5.:..........
	...
 8020b68:	445b7400 38364345 6c70735d 735f7469     .t[DEC68]split_s
 8020b78:	31706574 0038365f 00000000 00000000     tep1_68.........
 8020b88:	03100000 ecc29210 fc621c6b 0fdd172e     ........k.b.....
 8020b98:	16351fdd 82ac1017 cb3d222b b5ff07ea     ..5.....+"=.....
 8020ba8:	35b91061 00003ad9 00000000 00000000     a..5.:..........
	...
 8020be4:	33100000 5b00e906 c61b5499 2e4bccba     ...3...[.T....K.
 8020bf4:	001811eb 00000000 00000000 00000000     ................
 8020c04:	74626500 4345445b 735d3836 74696c70     .ebt[DEC68]split
 8020c14:	74696e69 6574735f 365f3070 00000038     init_step0_68...
 8020c24:	00000000 92100201 1c6becc2 172efc62     ..........k.b...
 8020c34:	1fdd0fdd 10171635 222b82ac 07eacb3d     ....5.....+"=...
 8020c44:	1061b5ff 3ad935b9 00000000 00000000     ..a..5.:........
	...
 8020ca0:	74000000 4345445b 735d3836 74696c70     ...t[DEC68]split
 8020cb0:	74696e69 6574735f 365f3170 00000038     init_step1_68...
 8020cc0:	00000000 92100204 1c6becc2 172efc62     ..........k.b...
 8020cd0:	1fdd0fdd 10171635 222b82ac 07eacb3d     ....5.....+"=...
 8020ce0:	1061b5ff 3ad935b9 00000000 00000000     ..a..5.:........
	...
 8020d3c:	74000000 4345445b 735d3836 74696c70     ...t[DEC68]split
 8020d4c:	74696e69 6574735f 365f3270 00000038     init_step2_68...
 8020d5c:	00000000 92100310 1c6becc2 172efc62     ..........k.b...
 8020d6c:	1fdd0fdd 10171635 222b82ac 07eacb3d     ....5.....+"=...
 8020d7c:	1061b5ff 3ad935b9 00000000 00000000     ..a..5.:........
	...
 8020dbc:	e9063310 54995b00 ccbac61b 11eb2e4b     .3...[.T....K...
 8020dcc:	00000018 00000000 00000000 65000000     ...............e
 8020ddc:	455b7462 3936434e 6c75665d 39365f6c     bt[ENC69]full_69
	...
 8020dfc:	030b0000 8edaa710 0865c679 8d444ff1     ........y.e..OD.
 8020e0c:	bf78bacb cd9e1047 9c9fb9e2 b08e6a70     ..x.G.......pj..
 8020e1c:	339f1b38 0000f9de 00000000 00000000     8..3............
	...
 8020e58:	10100000 077d9358 0bd55c13 10cc211b     ....X.}..\...!..
 8020e68:	00ea12d3 00000000 00000000 00000000     ................
 8020e78:	74626500 434e455b 735d3936 74696c70     .ebt[ENC69]split
 8020e88:	6574735f 365f3070 00000039 00000000     _step0_69.......
 8020e98:	00000000 a7100203 c6798eda 4ff10865     ..........y.e..O
 8020ea8:	bacb8d44 1047bf78 b9e2cd9e 6a709c9f     D...x.G.......pj
 8020eb8:	1b38b08e f9de339f 00000000 00000000     ..8..3..........
	...
 8020f14:	74000000 434e455b 735d3936 74696c70     ...t[ENC69]split
 8020f24:	6574735f 365f3170 00000039 00000000     _step1_69.......
 8020f34:	00000000 a7100308 c6798eda 4ff10865     ..........y.e..O
 8020f44:	bacb8d44 1047bf78 b9e2cd9e 6a709c9f     D...x.G.......pj
 8020f54:	1b38b08e f9de339f 00000000 00000000     ..8..3..........
	...
 8020f94:	93581010 5c13077d 211b0bd5 12d310cc     ..X.}..\...!....
 8020fa4:	000000ea 00000000 00000000 65000000     ...............e
 8020fb4:	455b7462 3936434e 6c70735d 6e697469     bt[ENC69]splitin
 8020fc4:	735f7469 30706574 0039365f 00000000     it_step0_69.....
 8020fd4:	02010000 8edaa710 0865c679 8d444ff1     ........y.e..OD.
 8020fe4:	bf78bacb cd9e1047 9c9fb9e2 b08e6a70     ..x.G.......pj..
 8020ff4:	339f1b38 0000f9de 00000000 00000000     8..3............
	...
 8021050:	455b7400 3936434e 6c70735d 6e697469     .t[ENC69]splitin
 8021060:	735f7469 31706574 0039365f 00000000     it_step1_69.....
 8021070:	02020000 8edaa710 0865c679 8d444ff1     ........y.e..OD.
 8021080:	bf78bacb cd9e1047 9c9fb9e2 b08e6a70     ..x.G.......pj..
 8021090:	339f1b38 0000f9de 00000000 00000000     8..3............
	...
 80210ec:	455b7400 3936434e 6c70735d 6e697469     .t[ENC69]splitin
 80210fc:	735f7469 32706574 0039365f 00000000     it_step2_69.....
 802110c:	03080000 8edaa710 0865c679 8d444ff1     ........y.e..OD.
 802111c:	bf78bacb cd9e1047 9c9fb9e2 b08e6a70     ..x.G.......pj..
 802112c:	339f1b38 0000f9de 00000000 00000000     8..3............
	...
 8021168:	10100000 077d9358 0bd55c13 10cc211b     ....X.}..\...!..
 8021178:	00ea12d3 00000000 00000000 00000000     ................
 8021188:	74626500 4345445b 665d3936 5f6c6c75     .ebt[DEC69]full_
 8021198:	00003936 00000000 00000000 00000000     69..............
 80211a8:	00000000 7f100315 124c5ad0 027cdcd4     .........ZL...|.
 80211b8:	6f84c2c6 10268d58 e055ea8d d8f40527     ...oX.&...U.'...
 80211c8:	fb79b513 bc6d1efb 00000000 00000000     ..y...m.........
	...
 8021208:	3ccfac10 c7447826 585733ae bf51103e     ...<&xD..3WX>.Q.
 8021218:	000000a1 00000000 00000000 65000000     ...............e
 8021228:	445b7462 39364345 6c70735d 735f7469     bt[DEC69]split_s
 8021238:	30706574 0039365f 00000000 00000000     tep0_69.........
 8021248:	02050000 5ad07f10 dcd4124c c2c6027c     .......ZL...|...
 8021258:	8d586f84 ea8d1026 0527e055 b513d8f4     .oX.&...U.'.....
 8021268:	1efbfb79 0000bc6d 00000000 00000000     y...m...........
	...
 80212c4:	445b7400 39364345 6c70735d 735f7469     .t[DEC69]split_s
 80212d4:	31706574 0039365f 00000000 00000000     tep1_69.........
 80212e4:	03100000 5ad07f10 dcd4124c c2c6027c     .......ZL...|...
 80212f4:	8d586f84 ea8d1026 0527e055 b513d8f4     .oX.&...U.'.....
 8021304:	1efbfb79 0000bc6d 00000000 00000000     y...m...........
	...
 8021340:	ac100000 78263ccf 33aec744 103e5857     .....<&xD..3WX>.
 8021350:	00a1bf51 00000000 00000000 00000000     Q...............
 8021360:	74626500 4345445b 735d3936 74696c70     .ebt[DEC69]split
 8021370:	74696e69 6574735f 365f3070 00000039     init_step0_69...
 8021380:	00000000 7f100201 124c5ad0 027cdcd4     .........ZL...|.
 8021390:	6f84c2c6 10268d58 e055ea8d d8f40527     ...oX.&...U.'...
 80213a0:	fb79b513 bc6d1efb 00000000 00000000     ..y...m.........
	...
 80213fc:	74000000 4345445b 735d3936 74696c70     ...t[DEC69]split
 802140c:	74696e69 6574735f 365f3170 00000039     init_step1_69...
 802141c:	00000000 7f100204 124c5ad0 027cdcd4     .........ZL...|.
 802142c:	6f84c2c6 10268d58 e055ea8d d8f40527     ...oX.&...U.'...
 802143c:	fb79b513 bc6d1efb 00000000 00000000     ..y...m.........
	...
 8021498:	74000000 4345445b 735d3936 74696c70     ...t[DEC69]split
 80214a8:	74696e69 6574735f 365f3270 00000039     init_step2_69...
 80214b8:	00000000 7f100310 124c5ad0 027cdcd4     .........ZL...|.
 80214c8:	6f84c2c6 10268d58 e055ea8d d8f40527     ...oX.&...U.'...
 80214d8:	fb79b513 bc6d1efb 00000000 00000000     ..y...m.........
	...
 8021518:	3ccfac10 c7447826 585733ae bf51103e     ...<&xD..3WX>.Q.
 8021528:	000000a1 00000000 00000000 65000000     ...............e
 8021538:	455b7462 3037434e 6c75665d 30375f6c     bt[ENC70]full_70
	...
 8021558:	030b0000 bf0d7f10 2e7d1d43 c41fa87c     ........C.}.|...
 8021568:	21c7f993 9fd310ab 751b798c cdd526f4     ...!.....y.u.&..
 8021578:	76155a92 00003cd4 00000000 00000000     .Z.v.<..........
	...
 80215b4:	a7100000 780b7343 8450a336 4bee4497     ....Cs.x6.P..D.K
 80215c4:	00a7628f 00000000 00000000 00000000     .b..............
 80215d4:	74626500 434e455b 735d3037 74696c70     .ebt[ENC70]split
 80215e4:	6574735f 375f3070 00000030 00000000     _step0_70.......
 80215f4:	00000000 7f100203 1d43bf0d a87c2e7d     ..........C.}.|.
 8021604:	f993c41f 10ab21c7 798c9fd3 26f4751b     .....!.....y.u.&
 8021614:	5a92cdd5 3cd47615 00000000 00000000     ...Z.v.<........
	...
 8021670:	74000000 434e455b 735d3037 74696c70     ...t[ENC70]split
 8021680:	6574735f 375f3170 00000030 00000000     _step1_70.......
 8021690:	00000000 7f100308 1d43bf0d a87c2e7d     ..........C.}.|.
 80216a0:	f993c41f 10ab21c7 798c9fd3 26f4751b     .....!.....y.u.&
 80216b0:	5a92cdd5 3cd47615 00000000 00000000     ...Z.v.<........
	...
 80216f0:	7343a710 a336780b 44978450 628f4bee     ..Cs.x6.P..D.K.b
 8021700:	000000a7 00000000 00000000 65000000     ...............e
 8021710:	455b7462 3037434e 6c70735d 6e697469     bt[ENC70]splitin
 8021720:	735f7469 30706574 0030375f 00000000     it_step0_70.....
 8021730:	02010000 bf0d7f10 2e7d1d43 c41fa87c     ........C.}.|...
 8021740:	21c7f993 9fd310ab 751b798c cdd526f4     ...!.....y.u.&..
 8021750:	76155a92 00003cd4 00000000 00000000     .Z.v.<..........
	...
 80217ac:	455b7400 3037434e 6c70735d 6e697469     .t[ENC70]splitin
 80217bc:	735f7469 31706574 0030375f 00000000     it_step1_70.....
 80217cc:	02020000 bf0d7f10 2e7d1d43 c41fa87c     ........C.}.|...
 80217dc:	21c7f993 9fd310ab 751b798c cdd526f4     ...!.....y.u.&..
 80217ec:	76155a92 00003cd4 00000000 00000000     .Z.v.<..........
	...
 8021848:	455b7400 3037434e 6c70735d 6e697469     .t[ENC70]splitin
 8021858:	735f7469 32706574 0030375f 00000000     it_step2_70.....
 8021868:	03080000 bf0d7f10 2e7d1d43 c41fa87c     ........C.}.|...
 8021878:	21c7f993 9fd310ab 751b798c cdd526f4     ...!.....y.u.&..
 8021888:	76155a92 00003cd4 00000000 00000000     .Z.v.<..........
	...
 80218c4:	a7100000 780b7343 8450a336 4bee4497     ....Cs.x6.P..D.K
 80218d4:	00a7628f 00000000 00000000 00000000     .b..............
 80218e4:	74626500 4345445b 665d3037 5f6c6c75     .ebt[DEC70]full_
 80218f4:	00003037 00000000 00000000 00000000     70..............
 8021904:	00000000 27100315 df2615b7 c0175a37     .......'..&.7Z..
 8021914:	5c3481d4 106451d1 22788be5 92355a52     ..4\.Qd...x"RZ5.
 8021924:	0db7e477 0d5b6a47 00000000 00000000     w...Gj[.........
	...
 8021964:	6fbfed10 42b003ea cbcd82f5 16d03947     ...o...B....G9..
 8021974:	0000006f 00000000 00000000 65000000     o..............e
 8021984:	445b7462 30374345 6c70735d 735f7469     bt[DEC70]split_s
 8021994:	30706574 0030375f 00000000 00000000     tep0_70.........
 80219a4:	02050000 15b72710 5a37df26 81d4c017     .....'..&.7Z....
 80219b4:	51d15c34 8be51064 5a522278 e4779235     4\.Qd...x"RZ5.w.
 80219c4:	6a470db7 00000d5b 00000000 00000000     ..Gj[...........
	...
 8021a20:	445b7400 30374345 6c70735d 735f7469     .t[DEC70]split_s
 8021a30:	31706574 0030375f 00000000 00000000     tep1_70.........
 8021a40:	03100000 15b72710 5a37df26 81d4c017     .....'..&.7Z....
 8021a50:	51d15c34 8be51064 5a522278 e4779235     4\.Qd...x"RZ5.w.
 8021a60:	6a470db7 00000d5b 00000000 00000000     ..Gj[...........
	...
 8021a9c:	ed100000 03ea6fbf 82f542b0 3947cbcd     .....o...B....G9
 8021aac:	006f16d0 00000000 00000000 00000000     ..o.............
 8021abc:	74626500 4345445b 735d3037 74696c70     .ebt[DEC70]split
 8021acc:	74696e69 6574735f 375f3070 00000030     init_step0_70...
 8021adc:	00000000 27100201 df2615b7 c0175a37     .......'..&.7Z..
 8021aec:	5c3481d4 106451d1 22788be5 92355a52     ..4\.Qd...x"RZ5.
 8021afc:	0db7e477 0d5b6a47 00000000 00000000     w...Gj[.........
	...
 8021b58:	74000000 4345445b 735d3037 74696c70     ...t[DEC70]split
 8021b68:	74696e69 6574735f 375f3170 00000030     init_step1_70...
 8021b78:	00000000 27100204 df2615b7 c0175a37     .......'..&.7Z..
 8021b88:	5c3481d4 106451d1 22788be5 92355a52     ..4\.Qd...x"RZ5.
 8021b98:	0db7e477 0d5b6a47 00000000 00000000     w...Gj[.........
	...
 8021bf4:	74000000 4345445b 735d3037 74696c70     ...t[DEC70]split
 8021c04:	74696e69 6574735f 375f3270 00000030     init_step2_70...
 8021c14:	00000000 27100310 df2615b7 c0175a37     .......'..&.7Z..
 8021c24:	5c3481d4 106451d1 22788be5 92355a52     ..4\.Qd...x"RZ5.
 8021c34:	0db7e477 0d5b6a47 00000000 00000000     w...Gj[.........
	...
 8021c74:	6fbfed10 42b003ea cbcd82f5 16d03947     ...o...B....G9..
 8021c84:	0000006f 00000000 00000000 65000000     o..............e
 8021c94:	455b7462 3137434e 6c75665d 31375f6c     bt[ENC71]full_71
	...
 8021cb4:	030b0000 e1627c10 daa5e1b3 66254433     .....|b.....3D%f
 8021cc4:	5691103e 46da1091 2c425b1b f6523cca     >..V...F.[B,.<R.
 8021cd4:	c8762764 000072e0 00000000 00000000     d'v..r..........
	...
 8021d10:	86100000 d217cefa 5e814aab 4c8fef61     .........J.^a..L
 8021d20:	00693baf 00000000 00000000 00000000     .;i.............
 8021d30:	74626500 434e455b 735d3137 74696c70     .ebt[ENC71]split
 8021d40:	6574735f 375f3070 00000031 00000000     _step0_71.......
 8021d50:	00000000 7c100203 e1b3e162 4433daa5     .......|b.....3D
 8021d60:	103e6625 10915691 5b1b46da 3cca2c42     %f>..V...F.[B,.<
 8021d70:	2764f652 72e0c876 00000000 00000000     R.d'v..r........
	...
 8021dcc:	74000000 434e455b 735d3137 74696c70     ...t[ENC71]split
 8021ddc:	6574735f 375f3170 00000031 00000000     _step1_71.......
 8021dec:	00000000 7c100308 e1b3e162 4433daa5     .......|b.....3D
 8021dfc:	103e6625 10915691 5b1b46da 3cca2c42     %f>..V...F.[B,.<
 8021e0c:	2764f652 72e0c876 00000000 00000000     R.d'v..r........
	...
 8021e4c:	cefa8610 4aabd217 ef615e81 3baf4c8f     .......J.^a..L.;
 8021e5c:	00000069 00000000 00000000 65000000     i..............e
 8021e6c:	455b7462 3137434e 6c70735d 6e697469     bt[ENC71]splitin
 8021e7c:	735f7469 30706574 0031375f 00000000     it_step0_71.....
 8021e8c:	02010000 e1627c10 daa5e1b3 66254433     .....|b.....3D%f
 8021e9c:	5691103e 46da1091 2c425b1b f6523cca     >..V...F.[B,.<R.
 8021eac:	c8762764 000072e0 00000000 00000000     d'v..r..........
	...
 8021f08:	455b7400 3137434e 6c70735d 6e697469     .t[ENC71]splitin
 8021f18:	735f7469 31706574 0031375f 00000000     it_step1_71.....
 8021f28:	02020000 e1627c10 daa5e1b3 66254433     .....|b.....3D%f
 8021f38:	5691103e 46da1091 2c425b1b f6523cca     >..V...F.[B,.<R.
 8021f48:	c8762764 000072e0 00000000 00000000     d'v..r..........
	...
 8021fa4:	455b7400 3137434e 6c70735d 6e697469     .t[ENC71]splitin
 8021fb4:	735f7469 32706574 0031375f 00000000     it_step2_71.....
 8021fc4:	03080000 e1627c10 daa5e1b3 66254433     .....|b.....3D%f
 8021fd4:	5691103e 46da1091 2c425b1b f6523cca     >..V...F.[B,.<R.
 8021fe4:	c8762764 000072e0 00000000 00000000     d'v..r..........
	...
 8022020:	86100000 d217cefa 5e814aab 4c8fef61     .........J.^a..L
 8022030:	00693baf 00000000 00000000 00000000     .;i.............
 8022040:	74626500 4345445b 665d3137 5f6c6c75     .ebt[DEC71]full_
 8022050:	00003137 00000000 00000000 00000000     71..............
 8022060:	00000000 a1100315 7493350f 7424b5b2     .........5.t..$t
 8022070:	969f5835 106cf4d3 26483bdf b67bf1c4     5X....l..;H&..{.
 8022080:	8ca3fc2a 37f59aaf 00000000 00000000     *......7........
	...
 80220c0:	e4c4e510 3730f4af c34e2230 65394aa6     ......070"N..J9e
 80220d0:	000000ed 00000000 00000000 65000000     ...............e
 80220e0:	445b7462 31374345 6c70735d 735f7469     bt[DEC71]split_s
 80220f0:	30706574 0031375f 00000000 00000000     tep0_71.........
 8022100:	02050000 350fa110 b5b27493 58357424     .......5.t..$t5X
 8022110:	f4d3969f 3bdf106c f1c42648 fc2ab67b     ....l..;H&..{.*.
 8022120:	9aaf8ca3 000037f5 00000000 00000000     .....7..........
	...
 802217c:	445b7400 31374345 6c70735d 735f7469     .t[DEC71]split_s
 802218c:	31706574 0031375f 00000000 00000000     tep1_71.........
 802219c:	03100000 350fa110 b5b27493 58357424     .......5.t..$t5X
 80221ac:	f4d3969f 3bdf106c f1c42648 fc2ab67b     ....l..;H&..{.*.
 80221bc:	9aaf8ca3 000037f5 00000000 00000000     .....7..........
	...
 80221f8:	e5100000 f4afe4c4 22303730 4aa6c34e     ........070"N..J
 8022208:	00ed6539 00000000 00000000 00000000     9e..............
 8022218:	74626500 4345445b 735d3137 74696c70     .ebt[DEC71]split
 8022228:	74696e69 6574735f 375f3070 00000031     init_step0_71...
 8022238:	00000000 a1100201 7493350f 7424b5b2     .........5.t..$t
 8022248:	969f5835 106cf4d3 26483bdf b67bf1c4     5X....l..;H&..{.
 8022258:	8ca3fc2a 37f59aaf 00000000 00000000     *......7........
	...
 80222b4:	74000000 4345445b 735d3137 74696c70     ...t[DEC71]split
 80222c4:	74696e69 6574735f 375f3170 00000031     init_step1_71...
 80222d4:	00000000 a1100204 7493350f 7424b5b2     .........5.t..$t
 80222e4:	969f5835 106cf4d3 26483bdf b67bf1c4     5X....l..;H&..{.
 80222f4:	8ca3fc2a 37f59aaf 00000000 00000000     *......7........
	...
 8022350:	74000000 4345445b 735d3137 74696c70     ...t[DEC71]split
 8022360:	74696e69 6574735f 375f3270 00000031     init_step2_71...
 8022370:	00000000 a1100310 7493350f 7424b5b2     .........5.t..$t
 8022380:	969f5835 106cf4d3 26483bdf b67bf1c4     5X....l..;H&..{.
 8022390:	8ca3fc2a 37f59aaf 00000000 00000000     *......7........
	...
 80223d0:	e4c4e510 3730f4af c34e2230 65394aa6     ......070"N..J9e
 80223e0:	000000ed 00000000 00000000 65000000     ...............e
 80223f0:	455b7462 3237434e 6c75665d 32375f6c     bt[ENC72]full_72
	...
 8022410:	030b0000 a8e3a910 0109283c 0c6863bf     ........<(...ch.
 8022420:	977eb882 c0ad10ba 1804cd80 a3ce9b91     ..~.............
 8022430:	c754931f 00009832 00000000 00000000     ..T.2...........
	...
 802246c:	3d100000 d5737323 9619f2e4 0af87f7f     ...=#ss.........
 802247c:	00710037 00000000 00000000 00000000     7.q.............
 802248c:	74626500 434e455b 735d3237 74696c70     .ebt[ENC72]split
 802249c:	6574735f 375f3070 00000032 00000000     _step0_72.......
 80224ac:	00000000 a9100203 283ca8e3 63bf0109     ..........<(...c
 80224bc:	b8820c68 10ba977e cd80c0ad 9b911804     h...~...........
 80224cc:	931fa3ce 9832c754 00000000 00000000     ....T.2.........
	...
 8022528:	74000000 434e455b 735d3237 74696c70     ...t[ENC72]split
 8022538:	6574735f 375f3170 00000032 00000000     _step1_72.......
 8022548:	00000000 a9100308 283ca8e3 63bf0109     ..........<(...c
 8022558:	b8820c68 10ba977e cd80c0ad 9b911804     h...~...........
 8022568:	931fa3ce 9832c754 00000000 00000000     ....T.2.........
	...
 80225a8:	73233d10 f2e4d573 7f7f9619 00370af8     .=#ss.........7.
 80225b8:	00000071 00000000 00000000 65000000     q..............e
 80225c8:	455b7462 3237434e 6c70735d 6e697469     bt[ENC72]splitin
 80225d8:	735f7469 30706574 0032375f 00000000     it_step0_72.....
 80225e8:	02010000 a8e3a910 0109283c 0c6863bf     ........<(...ch.
 80225f8:	977eb882 c0ad10ba 1804cd80 a3ce9b91     ..~.............
 8022608:	c754931f 00009832 00000000 00000000     ..T.2...........
	...
 8022664:	455b7400 3237434e 6c70735d 6e697469     .t[ENC72]splitin
 8022674:	735f7469 31706574 0032375f 00000000     it_step1_72.....
 8022684:	02020000 a8e3a910 0109283c 0c6863bf     ........<(...ch.
 8022694:	977eb882 c0ad10ba 1804cd80 a3ce9b91     ..~.............
 80226a4:	c754931f 00009832 00000000 00000000     ..T.2...........
	...
 8022700:	455b7400 3237434e 6c70735d 6e697469     .t[ENC72]splitin
 8022710:	735f7469 32706574 0032375f 00000000     it_step2_72.....
 8022720:	03080000 a8e3a910 0109283c 0c6863bf     ........<(...ch.
 8022730:	977eb882 c0ad10ba 1804cd80 a3ce9b91     ..~.............
 8022740:	c754931f 00009832 00000000 00000000     ..T.2...........
	...
 802277c:	3d100000 d5737323 9619f2e4 0af87f7f     ...=#ss.........
 802278c:	00710037 00000000 00000000 00000000     7.q.............
 802279c:	74626500 4345445b 665d3237 5f6c6c75     .ebt[DEC72]full_
 80227ac:	00003237 00000000 00000000 00000000     72..............
 80227bc:	00000000 7f100315 a96b16be 30fe6dc7     ..........k..m.0
 80227cc:	272d4287 10949f30 6f92197f 93e9de2d     .B-'0......o-...
 80227dc:	463786d9 4ed0b3c5 00000000 00000000     ..7F...N........
	...
 802281c:	5251bc10 659d61a8 b94021d3 9d81b858     ..QR.a.e.!@.X...
 802282c:	0000009a 00000000 00000000 65000000     ...............e
 802283c:	445b7462 32374345 6c70735d 735f7469     bt[DEC72]split_s
 802284c:	30706574 0032375f 00000000 00000000     tep0_72.........
 802285c:	02050000 16be7f10 6dc7a96b 428730fe     ........k..m.0.B
 802286c:	9f30272d 197f1094 de2d6f92 86d993e9     -'0......o-.....
 802287c:	b3c54637 00004ed0 00000000 00000000     7F...N..........
	...
 80228d8:	445b7400 32374345 6c70735d 735f7469     .t[DEC72]split_s
 80228e8:	31706574 0032375f 00000000 00000000     tep1_72.........
 80228f8:	03100000 16be7f10 6dc7a96b 428730fe     ........k..m.0.B
 8022908:	9f30272d 197f1094 de2d6f92 86d993e9     -'0......o-.....
 8022918:	b3c54637 00004ed0 00000000 00000000     7F...N..........
	...
 8022954:	bc100000 61a85251 21d3659d b858b940     ....QR.a.e.!@.X.
 8022964:	009a9d81 00000000 00000000 00000000     ................
 8022974:	74626500 4345445b 735d3237 74696c70     .ebt[DEC72]split
 8022984:	74696e69 6574735f 375f3070 00000032     init_step0_72...
 8022994:	00000000 7f100201 a96b16be 30fe6dc7     ..........k..m.0
 80229a4:	272d4287 10949f30 6f92197f 93e9de2d     .B-'0......o-...
 80229b4:	463786d9 4ed0b3c5 00000000 00000000     ..7F...N........
	...
 8022a10:	74000000 4345445b 735d3237 74696c70     ...t[DEC72]split
 8022a20:	74696e69 6574735f 375f3170 00000032     init_step1_72...
 8022a30:	00000000 7f100204 a96b16be 30fe6dc7     ..........k..m.0
 8022a40:	272d4287 10949f30 6f92197f 93e9de2d     .B-'0......o-...
 8022a50:	463786d9 4ed0b3c5 00000000 00000000     ..7F...N........
	...
 8022aac:	74000000 4345445b 735d3237 74696c70     ...t[DEC72]split
 8022abc:	74696e69 6574735f 375f3270 00000032     init_step2_72...
 8022acc:	00000000 7f100310 a96b16be 30fe6dc7     ..........k..m.0
 8022adc:	272d4287 10949f30 6f92197f 93e9de2d     .B-'0......o-...
 8022aec:	463786d9 4ed0b3c5 00000000 00000000     ..7F...N........
	...
 8022b2c:	5251bc10 659d61a8 b94021d3 9d81b858     ..QR.a.e.!@.X...
 8022b3c:	0000009a 00000000 00000000 65000000     ...............e
 8022b4c:	455b7462 3337434e 6c75665d 33375f6c     bt[ENC73]full_73
	...
 8022b6c:	030b0000 5d438110 88b0b749 b8e1986e     ......C]I...n...
 8022b7c:	d112eb4b 18e61095 855887c3 d9d8cc8f     K.........X.....
 8022b8c:	fc3a1009 000099d2 00000000 00000000     ..:.............
	...
 8022bc8:	c7100000 2f1493c3 7c64a71f 8566b4ae     ......./..d|..f.
 8022bd8:	00e4dce0 00000000 00000000 00000000     ................
 8022be8:	74626500 434e455b 735d3337 74696c70     .ebt[ENC73]split
 8022bf8:	6574735f 375f3070 00000033 00000000     _step0_73.......
 8022c08:	00000000 81100203 b7495d43 986e88b0     ........C]I...n.
 8022c18:	eb4bb8e1 1095d112 87c318e6 cc8f8558     ..K.........X...
 8022c28:	1009d9d8 99d2fc3a 00000000 00000000     ....:...........
	...
 8022c84:	74000000 434e455b 735d3337 74696c70     ...t[ENC73]split
 8022c94:	6574735f 375f3170 00000033 00000000     _step1_73.......
 8022ca4:	00000000 81100308 b7495d43 986e88b0     ........C]I...n.
 8022cb4:	eb4bb8e1 1095d112 87c318e6 cc8f8558     ..K.........X...
 8022cc4:	1009d9d8 99d2fc3a 00000000 00000000     ....:...........
	...
 8022d04:	93c3c710 a71f2f14 b4ae7c64 dce08566     ...../..d|..f...
 8022d14:	000000e4 00000000 00000000 65000000     ...............e
 8022d24:	455b7462 3337434e 6c70735d 6e697469     bt[ENC73]splitin
 8022d34:	735f7469 30706574 0033375f 00000000     it_step0_73.....
 8022d44:	02010000 5d438110 88b0b749 b8e1986e     ......C]I...n...
 8022d54:	d112eb4b 18e61095 855887c3 d9d8cc8f     K.........X.....
 8022d64:	fc3a1009 000099d2 00000000 00000000     ..:.............
	...
 8022dc0:	455b7400 3337434e 6c70735d 6e697469     .t[ENC73]splitin
 8022dd0:	735f7469 31706574 0033375f 00000000     it_step1_73.....
 8022de0:	02020000 5d438110 88b0b749 b8e1986e     ......C]I...n...
 8022df0:	d112eb4b 18e61095 855887c3 d9d8cc8f     K.........X.....
 8022e00:	fc3a1009 000099d2 00000000 00000000     ..:.............
	...
 8022e5c:	455b7400 3337434e 6c70735d 6e697469     .t[ENC73]splitin
 8022e6c:	735f7469 32706574 0033375f 00000000     it_step2_73.....
 8022e7c:	03080000 5d438110 88b0b749 b8e1986e     ......C]I...n...
 8022e8c:	d112eb4b 18e61095 855887c3 d9d8cc8f     K.........X.....
 8022e9c:	fc3a1009 000099d2 00000000 00000000     ..:.............
	...
 8022ed8:	c7100000 2f1493c3 7c64a71f 8566b4ae     ......./..d|..f.
 8022ee8:	00e4dce0 00000000 00000000 00000000     ................
 8022ef8:	74626500 4345445b 665d3337 5f6c6c75     .ebt[DEC73]full_
 8022f08:	00003337 00000000 00000000 00000000     73..............
 8022f18:	00000000 a5100315 85e94843 5b3945af     ........CH...E9[
 8022f28:	01f093a9 10030ee5 d27383ab 753e894b     ..........s.K.>u
 8022f38:	f889bea1 2886d75c 00000000 00000000     ....\..(........
	...
 8022f78:	9ba58e10 fd96f7b6 42d47ab6 5e2535ae     .........z.B.5%^
 8022f88:	000000a5 00000000 00000000 65000000     ...............e
 8022f98:	445b7462 33374345 6c70735d 735f7469     bt[DEC73]split_s
 8022fa8:	30706574 0033375f 00000000 00000000     tep0_73.........
 8022fb8:	02050000 4843a510 45af85e9 93a95b39     ......CH...E9[..
 8022fc8:	0ee501f0 83ab1003 894bd273 bea1753e     ........s.K.>u..
 8022fd8:	d75cf889 00002886 00000000 00000000     ..\..(..........
	...
 8023034:	445b7400 33374345 6c70735d 735f7469     .t[DEC73]split_s
 8023044:	31706574 0033375f 00000000 00000000     tep1_73.........
 8023054:	03100000 4843a510 45af85e9 93a95b39     ......CH...E9[..
 8023064:	0ee501f0 83ab1003 894bd273 bea1753e     ........s.K.>u..
 8023074:	d75cf889 00002886 00000000 00000000     ..\..(..........
	...
 80230b0:	8e100000 f7b69ba5 7ab6fd96 35ae42d4     ...........z.B.5
 80230c0:	00a55e25 00000000 00000000 00000000     %^..............
 80230d0:	74626500 4345445b 735d3337 74696c70     .ebt[DEC73]split
 80230e0:	74696e69 6574735f 375f3070 00000033     init_step0_73...
 80230f0:	00000000 a5100201 85e94843 5b3945af     ........CH...E9[
 8023100:	01f093a9 10030ee5 d27383ab 753e894b     ..........s.K.>u
 8023110:	f889bea1 2886d75c 00000000 00000000     ....\..(........
	...
 802316c:	74000000 4345445b 735d3337 74696c70     ...t[DEC73]split
 802317c:	74696e69 6574735f 375f3170 00000033     init_step1_73...
 802318c:	00000000 a5100204 85e94843 5b3945af     ........CH...E9[
 802319c:	01f093a9 10030ee5 d27383ab 753e894b     ..........s.K.>u
 80231ac:	f889bea1 2886d75c 00000000 00000000     ....\..(........
	...
 8023208:	74000000 4345445b 735d3337 74696c70     ...t[DEC73]split
 8023218:	74696e69 6574735f 375f3270 00000033     init_step2_73...
 8023228:	00000000 a5100310 85e94843 5b3945af     ........CH...E9[
 8023238:	01f093a9 10030ee5 d27383ab 753e894b     ..........s.K.>u
 8023248:	f889bea1 2886d75c 00000000 00000000     ....\..(........
	...
 8023288:	9ba58e10 fd96f7b6 42d47ab6 5e2535ae     .........z.B.5%^
 8023298:	000000a5 00000000 00000000 65000000     ...............e
 80232a8:	455b7462 3437434e 6c75665d 34375f6c     bt[ENC74]full_74
	...
 80232c8:	030b0000 fe48d210 1aeb99a9 183abff3     ......H.......:.
 80232d8:	55dd2201 c08f10da 83bda23d c9dba9dc     .".U....=.......
 80232e8:	1f256cfc 00008580 00000000 00000000     .l%.............
	...
 8023324:	37100000 041a2fcb 95d3a3b6 df49bb35     ...7./......5.I.
 8023334:	006bd3b0 00000000 00000000 00000000     ..k.............
 8023344:	74626500 434e455b 735d3437 74696c70     .ebt[ENC74]split
 8023354:	6574735f 375f3070 00000034 00000000     _step0_74.......
 8023364:	00000000 d2100203 99a9fe48 bff31aeb     ........H.......
 8023374:	2201183a 10da55dd a23dc08f a9dc83bd     :..".U....=.....
 8023384:	6cfcc9db 85801f25 00000000 00000000     ...l%...........
	...
 80233e0:	74000000 434e455b 735d3437 74696c70     ...t[ENC74]split
 80233f0:	6574735f 375f3170 00000034 00000000     _step1_74.......
 8023400:	00000000 d2100308 99a9fe48 bff31aeb     ........H.......
 8023410:	2201183a 10da55dd a23dc08f a9dc83bd     :..".U....=.....
 8023420:	6cfcc9db 85801f25 00000000 00000000     ...l%...........
	...
 8023460:	2fcb3710 a3b6041a bb3595d3 d3b0df49     .7./......5.I...
 8023470:	0000006b 00000000 00000000 65000000     k..............e
 8023480:	455b7462 3437434e 6c70735d 6e697469     bt[ENC74]splitin
 8023490:	735f7469 30706574 0034375f 00000000     it_step0_74.....
 80234a0:	02010000 fe48d210 1aeb99a9 183abff3     ......H.......:.
 80234b0:	55dd2201 c08f10da 83bda23d c9dba9dc     .".U....=.......
 80234c0:	1f256cfc 00008580 00000000 00000000     .l%.............
	...
 802351c:	455b7400 3437434e 6c70735d 6e697469     .t[ENC74]splitin
 802352c:	735f7469 31706574 0034375f 00000000     it_step1_74.....
 802353c:	02020000 fe48d210 1aeb99a9 183abff3     ......H.......:.
 802354c:	55dd2201 c08f10da 83bda23d c9dba9dc     .".U....=.......
 802355c:	1f256cfc 00008580 00000000 00000000     .l%.............
	...
 80235b8:	455b7400 3437434e 6c70735d 6e697469     .t[ENC74]splitin
 80235c8:	735f7469 32706574 0034375f 00000000     it_step2_74.....
 80235d8:	03080000 fe48d210 1aeb99a9 183abff3     ......H.......:.
 80235e8:	55dd2201 c08f10da 83bda23d c9dba9dc     .".U....=.......
 80235f8:	1f256cfc 00008580 00000000 00000000     .l%.............
	...
 8023634:	37100000 041a2fcb 95d3a3b6 df49bb35     ...7./......5.I.
 8023644:	006bd3b0 00000000 00000000 00000000     ..k.............
 8023654:	74626500 4345445b 665d3437 5f6c6c75     .ebt[DEC74]full_
 8023664:	00003437 00000000 00000000 00000000     74..............
 8023674:	00000000 d0100315 9f52ee6d dece5302     ........m.R..S..
 8023684:	4090745a 10c3784a 355308fc 11c8e55b     Zt.@Jx....S5[...
 8023694:	849f3f69 a08c6564 00000000 00000000     i?..de..........
	...
 80236d4:	22bb8f10 fd3138dd 8a4e87a6 6a096665     ...".81...N.ef.j
 80236e4:	000000ad 00000000 00000000 65000000     ...............e
 80236f4:	445b7462 34374345 6c70735d 735f7469     bt[DEC74]split_s
 8023704:	30706574 0034375f 00000000 00000000     tep0_74.........
 8023714:	02050000 ee6dd010 53029f52 745adece     ......m.R..S..Zt
 8023724:	784a4090 08fc10c3 e55b3553 3f6911c8     .@Jx....S5[...i?
 8023734:	6564849f 0000a08c 00000000 00000000     ..de............
	...
 8023790:	445b7400 34374345 6c70735d 735f7469     .t[DEC74]split_s
 80237a0:	31706574 0034375f 00000000 00000000     tep1_74.........
 80237b0:	03100000 ee6dd010 53029f52 745adece     ......m.R..S..Zt
 80237c0:	784a4090 08fc10c3 e55b3553 3f6911c8     .@Jx....S5[...i?
 80237d0:	6564849f 0000a08c 00000000 00000000     ..de............
	...
 802380c:	8f100000 38dd22bb 87a6fd31 66658a4e     .....".81...N.ef
 802381c:	00ad6a09 00000000 00000000 00000000     .j..............
 802382c:	74626500 4345445b 735d3437 74696c70     .ebt[DEC74]split
 802383c:	74696e69 6574735f 375f3070 00000034     init_step0_74...
 802384c:	00000000 d0100201 9f52ee6d dece5302     ........m.R..S..
 802385c:	4090745a 10c3784a 355308fc 11c8e55b     Zt.@Jx....S5[...
 802386c:	849f3f69 a08c6564 00000000 00000000     i?..de..........
	...
 80238c8:	74000000 4345445b 735d3437 74696c70     ...t[DEC74]split
 80238d8:	74696e69 6574735f 375f3170 00000034     init_step1_74...
 80238e8:	00000000 d0100204 9f52ee6d dece5302     ........m.R..S..
 80238f8:	4090745a 10c3784a 355308fc 11c8e55b     Zt.@Jx....S5[...
 8023908:	849f3f69 a08c6564 00000000 00000000     i?..de..........
	...
 8023964:	74000000 4345445b 735d3437 74696c70     ...t[DEC74]split
 8023974:	74696e69 6574735f 375f3270 00000034     init_step2_74...
 8023984:	00000000 d0100310 9f52ee6d dece5302     ........m.R..S..
 8023994:	4090745a 10c3784a 355308fc 11c8e55b     Zt.@Jx....S5[...
 80239a4:	849f3f69 a08c6564 00000000 00000000     i?..de..........
	...
 80239e4:	22bb8f10 fd3138dd 8a4e87a6 6a096665     ...".81...N.ef.j
 80239f4:	000000ad 00000000 00000000 65000000     ...............e
 8023a04:	455b7462 3537434e 6c75665d 35375f6c     bt[ENC75]full_75
	...
 8023a24:	030b0000 e3a85410 b8eb0cf3 38b14588     .....T.......E.8
 8023a34:	b0bd77dc 043c10f8 2fc0c758 e4565e36     .w....<.X../6^V.
 8023a44:	de4214be 00001fa4 00000000 00000000     ..B.............
	...
 8023a80:	e4100000 f2e58e60 3d2df970 35a28ac7     ....`...p.-=...5
 8023a90:	00ead786 00000000 00000000 00000000     ................
 8023aa0:	74626500 434e455b 735d3537 74696c70     .ebt[ENC75]split
 8023ab0:	6574735f 375f3070 00000035 00000000     _step0_75.......
 8023ac0:	00000000 54100203 0cf3e3a8 4588b8eb     .......T.......E
 8023ad0:	77dc38b1 10f8b0bd c758043c 5e362fc0     .8.w....<.X../6^
 8023ae0:	14bee456 1fa4de42 00000000 00000000     V...B...........
	...
 8023b3c:	74000000 434e455b 735d3537 74696c70     ...t[ENC75]split
 8023b4c:	6574735f 375f3170 00000035 00000000     _step1_75.......
 8023b5c:	00000000 54100308 0cf3e3a8 4588b8eb     .......T.......E
 8023b6c:	77dc38b1 10f8b0bd c758043c 5e362fc0     .8.w....<.X../6^
 8023b7c:	14bee456 1fa4de42 00000000 00000000     V...B...........
	...
 8023bbc:	8e60e410 f970f2e5 8ac73d2d d78635a2     ..`...p.-=...5..
 8023bcc:	000000ea 00000000 00000000 65000000     ...............e
 8023bdc:	455b7462 3537434e 6c70735d 6e697469     bt[ENC75]splitin
 8023bec:	735f7469 30706574 0035375f 00000000     it_step0_75.....
 8023bfc:	02010000 e3a85410 b8eb0cf3 38b14588     .....T.......E.8
 8023c0c:	b0bd77dc 043c10f8 2fc0c758 e4565e36     .w....<.X../6^V.
 8023c1c:	de4214be 00001fa4 00000000 00000000     ..B.............
	...
 8023c78:	455b7400 3537434e 6c70735d 6e697469     .t[ENC75]splitin
 8023c88:	735f7469 31706574 0035375f 00000000     it_step1_75.....
 8023c98:	02020000 e3a85410 b8eb0cf3 38b14588     .....T.......E.8
 8023ca8:	b0bd77dc 043c10f8 2fc0c758 e4565e36     .w....<.X../6^V.
 8023cb8:	de4214be 00001fa4 00000000 00000000     ..B.............
	...
 8023d14:	455b7400 3537434e 6c70735d 6e697469     .t[ENC75]splitin
 8023d24:	735f7469 32706574 0035375f 00000000     it_step2_75.....
 8023d34:	03080000 e3a85410 b8eb0cf3 38b14588     .....T.......E.8
 8023d44:	b0bd77dc 043c10f8 2fc0c758 e4565e36     .w....<.X../6^V.
 8023d54:	de4214be 00001fa4 00000000 00000000     ..B.............
	...
 8023d90:	e4100000 f2e58e60 3d2df970 35a28ac7     ....`...p.-=...5
 8023da0:	00ead786 00000000 00000000 00000000     ................
 8023db0:	74626500 4345445b 665d3537 5f6c6c75     .ebt[DEC75]full_
 8023dc0:	00003537 00000000 00000000 00000000     75..............
 8023dd0:	00000000 97100315 22e452e3 c1f12e01     .........R."....
 8023de0:	cdbfcd6d 10970269 71b8e95c 1bafb380     m...i...\..q....
 8023df0:	f24fc2ad 9a31b938 00000000 00000000     ..O.8.1.........
	...
 8023e30:	832d8510 ec31e7b7 69cf76be 23fa3cbc     ..-...1..v.i.<.#
 8023e40:	000000e2 00000000 00000000 65000000     ...............e
 8023e50:	445b7462 35374345 6c70735d 735f7469     bt[DEC75]split_s
 8023e60:	30706574 0035375f 00000000 00000000     tep0_75.........
 8023e70:	02050000 52e39710 2e0122e4 cd6dc1f1     .......R."....m.
 8023e80:	0269cdbf e95c1097 b38071b8 c2ad1baf     ..i...\..q......
 8023e90:	b938f24f 00009a31 00000000 00000000     O.8.1...........
	...
 8023eec:	445b7400 35374345 6c70735d 735f7469     .t[DEC75]split_s
 8023efc:	31706574 0035375f 00000000 00000000     tep1_75.........
 8023f0c:	03100000 52e39710 2e0122e4 cd6dc1f1     .......R."....m.
 8023f1c:	0269cdbf e95c1097 b38071b8 c2ad1baf     ..i...\..q......
 8023f2c:	b938f24f 00009a31 00000000 00000000     O.8.1...........
	...
 8023f68:	85100000 e7b7832d 76beec31 3cbc69cf     ....-...1..v.i.<
 8023f78:	00e223fa 00000000 00000000 00000000     .#..............
 8023f88:	74626500 4345445b 735d3537 74696c70     .ebt[DEC75]split
 8023f98:	74696e69 6574735f 375f3070 00000035     init_step0_75...
 8023fa8:	00000000 97100201 22e452e3 c1f12e01     .........R."....
 8023fb8:	cdbfcd6d 10970269 71b8e95c 1bafb380     m...i...\..q....
 8023fc8:	f24fc2ad 9a31b938 00000000 00000000     ..O.8.1.........
	...
 8024024:	74000000 4345445b 735d3537 74696c70     ...t[DEC75]split
 8024034:	74696e69 6574735f 375f3170 00000035     init_step1_75...
 8024044:	00000000 97100204 22e452e3 c1f12e01     .........R."....
 8024054:	cdbfcd6d 10970269 71b8e95c 1bafb380     m...i...\..q....
 8024064:	f24fc2ad 9a31b938 00000000 00000000     ..O.8.1.........
	...
 80240c0:	74000000 4345445b 735d3537 74696c70     ...t[DEC75]split
 80240d0:	74696e69 6574735f 375f3270 00000035     init_step2_75...
 80240e0:	00000000 97100310 22e452e3 c1f12e01     .........R."....
 80240f0:	cdbfcd6d 10970269 71b8e95c 1bafb380     m...i...\..q....
 8024100:	f24fc2ad 9a31b938 00000000 00000000     ..O.8.1.........
	...
 8024140:	832d8510 ec31e7b7 69cf76be 23fa3cbc     ..-...1..v.i.<.#
 8024150:	000000e2 00000000 00000000 65000000     ...............e
 8024160:	455b7462 3637434e 6c75665d 36375f6c     bt[ENC76]full_76
	...
 8024180:	030b0000 7d5d7b10 cfe60f60 ea682a33     .....{]}`...3*h.
 8024190:	1930db6b a54310ca 670d8290 e9740514     k.0...C....g..t.
 80241a0:	598279dd 0000fab7 00000000 00000000     .y.Y............
	...
 80241dc:	02100000 8c9473ad fbabb0ac 599d6ebf     .....s.......n.Y
 80241ec:	00bceeca 00000000 00000000 00000000     ................
 80241fc:	74626500 434e455b 735d3637 74696c70     .ebt[ENC76]split
 802420c:	6574735f 375f3070 00000036 00000000     _step0_76.......
 802421c:	00000000 7b100203 0f607d5d 2a33cfe6     .......{]}`...3*
 802422c:	db6bea68 10ca1930 8290a543 0514670d     h.k.0...C....g..
 802423c:	79dde974 fab75982 00000000 00000000     t..y.Y..........
	...
 8024298:	74000000 434e455b 735d3637 74696c70     ...t[ENC76]split
 80242a8:	6574735f 375f3170 00000036 00000000     _step1_76.......
 80242b8:	00000000 7b100308 0f607d5d 2a33cfe6     .......{]}`...3*
 80242c8:	db6bea68 10ca1930 8290a543 0514670d     h.k.0...C....g..
 80242d8:	79dde974 fab75982 00000000 00000000     t..y.Y..........
	...
 8024318:	73ad0210 b0ac8c94 6ebffbab eeca599d     ...s.......n.Y..
 8024328:	000000bc 00000000 00000000 65000000     ...............e
 8024338:	455b7462 3637434e 6c70735d 6e697469     bt[ENC76]splitin
 8024348:	735f7469 30706574 0036375f 00000000     it_step0_76.....
 8024358:	02010000 7d5d7b10 cfe60f60 ea682a33     .....{]}`...3*h.
 8024368:	1930db6b a54310ca 670d8290 e9740514     k.0...C....g..t.
 8024378:	598279dd 0000fab7 00000000 00000000     .y.Y............
	...
 80243d4:	455b7400 3637434e 6c70735d 6e697469     .t[ENC76]splitin
 80243e4:	735f7469 31706574 0036375f 00000000     it_step1_76.....
 80243f4:	02020000 7d5d7b10 cfe60f60 ea682a33     .....{]}`...3*h.
 8024404:	1930db6b a54310ca 670d8290 e9740514     k.0...C....g..t.
 8024414:	598279dd 0000fab7 00000000 00000000     .y.Y............
	...
 8024470:	455b7400 3637434e 6c70735d 6e697469     .t[ENC76]splitin
 8024480:	735f7469 32706574 0036375f 00000000     it_step2_76.....
 8024490:	03080000 7d5d7b10 cfe60f60 ea682a33     .....{]}`...3*h.
 80244a0:	1930db6b a54310ca 670d8290 e9740514     k.0...C....g..t.
 80244b0:	598279dd 0000fab7 00000000 00000000     .y.Y............
	...
 80244ec:	02100000 8c9473ad fbabb0ac 599d6ebf     .....s.......n.Y
 80244fc:	00bceeca 00000000 00000000 00000000     ................
 802450c:	74626500 4345445b 665d3637 5f6c6c75     .ebt[DEC76]full_
 802451c:	00003637 00000000 00000000 00000000     76..............
 802452c:	00000000 17100315 e27b7660 98812be7     ........`v{..+..
 802453c:	a21800b3 1013f033 54fefb20 88888918     ....3... ..T....
 802454c:	33ab3b73 1a85fbe7 00000000 00000000     s;.3............
	...
 802458c:	84e43610 57e9438a 5d56d283 008e5b99     .6...C.W..V].[..
 802459c:	0000007e 00000000 00000000 65000000     ~..............e
 80245ac:	445b7462 36374345 6c70735d 735f7469     bt[DEC76]split_s
 80245bc:	30706574 0036375f 00000000 00000000     tep0_76.........
 80245cc:	02050000 76601710 2be7e27b 00b39881     ......`v{..+....
 80245dc:	f033a218 fb201013 891854fe 3b738888     ..3... ..T....s;
 80245ec:	fbe733ab 00001a85 00000000 00000000     .3..............
	...
 8024648:	445b7400 36374345 6c70735d 735f7469     .t[DEC76]split_s
 8024658:	31706574 0036375f 00000000 00000000     tep1_76.........
 8024668:	03100000 76601710 2be7e27b 00b39881     ......`v{..+....
 8024678:	f033a218 fb201013 891854fe 3b738888     ..3... ..T....s;
 8024688:	fbe733ab 00001a85 00000000 00000000     .3..............
	...
 80246c4:	36100000 438a84e4 d28357e9 5b995d56     ...6...C.W..V].[
 80246d4:	007e008e 00000000 00000000 00000000     ..~.............
 80246e4:	74626500 4345445b 735d3637 74696c70     .ebt[DEC76]split
 80246f4:	74696e69 6574735f 375f3070 00000036     init_step0_76...
 8024704:	00000000 17100201 e27b7660 98812be7     ........`v{..+..
 8024714:	a21800b3 1013f033 54fefb20 88888918     ....3... ..T....
 8024724:	33ab3b73 1a85fbe7 00000000 00000000     s;.3............
	...
 8024780:	74000000 4345445b 735d3637 74696c70     ...t[DEC76]split
 8024790:	74696e69 6574735f 375f3170 00000036     init_step1_76...
 80247a0:	00000000 17100204 e27b7660 98812be7     ........`v{..+..
 80247b0:	a21800b3 1013f033 54fefb20 88888918     ....3... ..T....
 80247c0:	33ab3b73 1a85fbe7 00000000 00000000     s;.3............
	...
 802481c:	74000000 4345445b 735d3637 74696c70     ...t[DEC76]split
 802482c:	74696e69 6574735f 375f3270 00000036     init_step2_76...
 802483c:	00000000 17100310 e27b7660 98812be7     ........`v{..+..
 802484c:	a21800b3 1013f033 54fefb20 88888918     ....3... ..T....
 802485c:	33ab3b73 1a85fbe7 00000000 00000000     s;.3............
	...
 802489c:	84e43610 57e9438a 5d56d283 008e5b99     .6...C.W..V].[..
 80248ac:	0000007e 00000000 00000000 65000000     ~..............e
 80248bc:	455b7462 3737434e 6c75665d 37375f6c     bt[ENC77]full_77
	...
 80248dc:	030b0000 9b0ab910 8c0d37ae 0a144040     .........7..@@..
 80248ec:	ba180fa2 c1ce10dc da456aae e241a929     .........jE.).A.
 80248fc:	5deb5043 00002fe9 00000000 00000000     CP.]./..........
	...
 8024938:	b1100000 8ebdeb56 d0786471 5260fab2     ....V...qdx...`R
 8024948:	00ae74ee 00000000 00000000 00000000     .t..............
 8024958:	74626500 434e455b 735d3737 74696c70     .ebt[ENC77]split
 8024968:	6574735f 375f3070 00000037 00000000     _step0_77.......
 8024978:	00000000 b9100203 37ae9b0a 40408c0d     ...........7..@@
 8024988:	0fa20a14 10dcba18 6aaec1ce a929da45     ...........jE.).
 8024998:	5043e241 2fe95deb 00000000 00000000     A.CP.]./........
	...
 80249f4:	74000000 434e455b 735d3737 74696c70     ...t[ENC77]split
 8024a04:	6574735f 375f3170 00000037 00000000     _step1_77.......
 8024a14:	00000000 b9100308 37ae9b0a 40408c0d     ...........7..@@
 8024a24:	0fa20a14 10dcba18 6aaec1ce a929da45     ...........jE.).
 8024a34:	5043e241 2fe95deb 00000000 00000000     A.CP.]./........
	...
 8024a74:	eb56b110 64718ebd fab2d078 74ee5260     ..V...qdx...`R.t
 8024a84:	000000ae 00000000 00000000 65000000     ...............e
 8024a94:	455b7462 3737434e 6c70735d 6e697469     bt[ENC77]splitin
 8024aa4:	735f7469 30706574 0037375f 00000000     it_step0_77.....
 8024ab4:	02010000 9b0ab910 8c0d37ae 0a144040     .........7..@@..
 8024ac4:	ba180fa2 c1ce10dc da456aae e241a929     .........jE.).A.
 8024ad4:	5deb5043 00002fe9 00000000 00000000     CP.]./..........
	...
 8024b30:	455b7400 3737434e 6c70735d 6e697469     .t[ENC77]splitin
 8024b40:	735f7469 31706574 0037375f 00000000     it_step1_77.....
 8024b50:	02020000 9b0ab910 8c0d37ae 0a144040     .........7..@@..
 8024b60:	ba180fa2 c1ce10dc da456aae e241a929     .........jE.).A.
 8024b70:	5deb5043 00002fe9 00000000 00000000     CP.]./..........
	...
 8024bcc:	455b7400 3737434e 6c70735d 6e697469     .t[ENC77]splitin
 8024bdc:	735f7469 32706574 0037375f 00000000     it_step2_77.....
 8024bec:	03080000 9b0ab910 8c0d37ae 0a144040     .........7..@@..
 8024bfc:	ba180fa2 c1ce10dc da456aae e241a929     .........jE.).A.
 8024c0c:	5deb5043 00002fe9 00000000 00000000     CP.]./..........
	...
 8024c48:	b1100000 8ebdeb56 d0786471 5260fab2     ....V...qdx...`R
 8024c58:	00ae74ee 00000000 00000000 00000000     .t..............
 8024c68:	74626500 4345445b 665d3737 5f6c6c75     .ebt[DEC77]full_
 8024c78:	00003737 00000000 00000000 00000000     77..............
 8024c88:	00000000 6a100315 406d3e3c 616ff5cc     .......j<>m@..oa
 8024c98:	730e9b36 101a53e0 2bc0a46d 25161f37     6..s.S..m..+7..%
 8024ca8:	3f70f8c0 6dbdd708 00000000 00000000     ..p?...m........
	...
 8024ce8:	40a9ab10 57f11b48 ba89bd5a 74f2c408     ...@H..WZ......t
 8024cf8:	00000098 00000000 00000000 65000000     ...............e
 8024d08:	445b7462 37374345 6c70735d 735f7469     bt[DEC77]split_s
 8024d18:	30706574 0037375f 00000000 00000000     tep0_77.........
 8024d28:	02050000 3e3c6a10 f5cc406d 9b36616f     .....j<>m@..oa6.
 8024d38:	53e0730e a46d101a 1f372bc0 f8c02516     .s.S..m..+7..%..
 8024d48:	d7083f70 00006dbd 00000000 00000000     p?...m..........
	...
 8024da4:	445b7400 37374345 6c70735d 735f7469     .t[DEC77]split_s
 8024db4:	31706574 0037375f 00000000 00000000     tep1_77.........
 8024dc4:	03100000 3e3c6a10 f5cc406d 9b36616f     .....j<>m@..oa6.
 8024dd4:	53e0730e a46d101a 1f372bc0 f8c02516     .s.S..m..+7..%..
 8024de4:	d7083f70 00006dbd 00000000 00000000     p?...m..........
	...
 8024e20:	ab100000 1b4840a9 bd5a57f1 c408ba89     .....@H..WZ.....
 8024e30:	009874f2 00000000 00000000 00000000     .t..............
 8024e40:	74626500 4345445b 735d3737 74696c70     .ebt[DEC77]split
 8024e50:	74696e69 6574735f 375f3070 00000037     init_step0_77...
 8024e60:	00000000 6a100201 406d3e3c 616ff5cc     .......j<>m@..oa
 8024e70:	730e9b36 101a53e0 2bc0a46d 25161f37     6..s.S..m..+7..%
 8024e80:	3f70f8c0 6dbdd708 00000000 00000000     ..p?...m........
	...
 8024edc:	74000000 4345445b 735d3737 74696c70     ...t[DEC77]split
 8024eec:	74696e69 6574735f 375f3170 00000037     init_step1_77...
 8024efc:	00000000 6a100204 406d3e3c 616ff5cc     .......j<>m@..oa
 8024f0c:	730e9b36 101a53e0 2bc0a46d 25161f37     6..s.S..m..+7..%
 8024f1c:	3f70f8c0 6dbdd708 00000000 00000000     ..p?...m........
	...
 8024f78:	74000000 4345445b 735d3737 74696c70     ...t[DEC77]split
 8024f88:	74696e69 6574735f 375f3270 00000037     init_step2_77...
 8024f98:	00000000 6a100310 406d3e3c 616ff5cc     .......j<>m@..oa
 8024fa8:	730e9b36 101a53e0 2bc0a46d 25161f37     6..s.S..m..+7..%
 8024fb8:	3f70f8c0 6dbdd708 00000000 00000000     ..p?...m........
	...
 8024ff8:	40a9ab10 57f11b48 ba89bd5a 74f2c408     ...@H..WZ......t
 8025008:	00000098 00000000 00000000 65000000     ...............e
 8025018:	455b7462 3837434e 6c75665d 38375f6c     bt[ENC78]full_78
	...
 8025038:	030b0000 ec2d2910 2535ebfa eefc5aeb     .....)-...5%.Z..
 8025048:	08769573 f9e7108c 81f0c106 d56d6895     s.v..........hm.
 8025058:	10a10cf2 000032a5 00000000 00000000     .....2..........
	...
 8025094:	be100000 417d4e1e 1522e82f 775cad72     .....N}A/.".r.\w
 80250a4:	007dc77e 00000000 00000000 00000000     ~.}.............
 80250b4:	74626500 434e455b 735d3837 74696c70     .ebt[ENC78]split
 80250c4:	6574735f 375f3070 00000038 00000000     _step0_78.......
 80250d4:	00000000 29100203 ebfaec2d 5aeb2535     .......)-...5%.Z
 80250e4:	9573eefc 108c0876 c106f9e7 689581f0     ..s.v..........h
 80250f4:	0cf2d56d 32a510a1 00000000 00000000     m......2........
	...
 8025150:	74000000 434e455b 735d3837 74696c70     ...t[ENC78]split
 8025160:	6574735f 375f3170 00000038 00000000     _step1_78.......
 8025170:	00000000 29100308 ebfaec2d 5aeb2535     .......)-...5%.Z
 8025180:	9573eefc 108c0876 c106f9e7 689581f0     ..s.v..........h
 8025190:	0cf2d56d 32a510a1 00000000 00000000     m......2........
	...
 80251d0:	4e1ebe10 e82f417d ad721522 c77e775c     ...N}A/.".r.\w~.
 80251e0:	0000007d 00000000 00000000 65000000     }..............e
 80251f0:	455b7462 3837434e 6c70735d 6e697469     bt[ENC78]splitin
 8025200:	735f7469 30706574 0038375f 00000000     it_step0_78.....
 8025210:	02010000 ec2d2910 2535ebfa eefc5aeb     .....)-...5%.Z..
 8025220:	08769573 f9e7108c 81f0c106 d56d6895     s.v..........hm.
 8025230:	10a10cf2 000032a5 00000000 00000000     .....2..........
	...
 802528c:	455b7400 3837434e 6c70735d 6e697469     .t[ENC78]splitin
 802529c:	735f7469 31706574 0038375f 00000000     it_step1_78.....
 80252ac:	02020000 ec2d2910 2535ebfa eefc5aeb     .....)-...5%.Z..
 80252bc:	08769573 f9e7108c 81f0c106 d56d6895     s.v..........hm.
 80252cc:	10a10cf2 000032a5 00000000 00000000     .....2..........
	...
 8025328:	455b7400 3837434e 6c70735d 6e697469     .t[ENC78]splitin
 8025338:	735f7469 32706574 0038375f 00000000     it_step2_78.....
 8025348:	03080000 ec2d2910 2535ebfa eefc5aeb     .....)-...5%.Z..
 8025358:	08769573 f9e7108c 81f0c106 d56d6895     s.v..........hm.
 8025368:	10a10cf2 000032a5 00000000 00000000     .....2..........
	...
 80253a4:	be100000 417d4e1e 1522e82f 775cad72     .....N}A/.".r.\w
 80253b4:	007dc77e 00000000 00000000 00000000     ~.}.............
 80253c4:	74626500 4345445b 665d3837 5f6c6c75     .ebt[DEC78]full_
 80253d4:	00003837 00000000 00000000 00000000     78..............
 80253e4:	00000000 e8100315 dd88d34b 1e9cd383     ........K.......
 80253f4:	ffa7ee45 10911c17 9e82da66 9416c969     E.......f...i...
 8025404:	3043897d e34833f2 00000000 00000000     }.C0.3H.........
	...
 8025444:	45dcbc10 0ae46b1f b1870832 36977233     ...E.k..2...3r.6
 8025454:	00000084 00000000 00000000 65000000     ...............e
 8025464:	445b7462 38374345 6c70735d 735f7469     bt[DEC78]split_s
 8025474:	30706574 0038375f 00000000 00000000     tep0_78.........
 8025484:	02050000 d34be810 d383dd88 ee451e9c     ......K.......E.
 8025494:	1c17ffa7 da661091 c9699e82 897d9416     ......f...i...}.
 80254a4:	33f23043 0000e348 00000000 00000000     C0.3H...........
	...
 8025500:	445b7400 38374345 6c70735d 735f7469     .t[DEC78]split_s
 8025510:	31706574 0038375f 00000000 00000000     tep1_78.........
 8025520:	03100000 d34be810 d383dd88 ee451e9c     ......K.......E.
 8025530:	1c17ffa7 da661091 c9699e82 897d9416     ......f...i...}.
 8025540:	33f23043 0000e348 00000000 00000000     C0.3H...........
	...
 802557c:	bc100000 6b1f45dc 08320ae4 7233b187     .....E.k..2...3r
 802558c:	00843697 00000000 00000000 00000000     .6..............
 802559c:	74626500 4345445b 735d3837 74696c70     .ebt[DEC78]split
 80255ac:	74696e69 6574735f 375f3070 00000038     init_step0_78...
 80255bc:	00000000 e8100201 dd88d34b 1e9cd383     ........K.......
 80255cc:	ffa7ee45 10911c17 9e82da66 9416c969     E.......f...i...
 80255dc:	3043897d e34833f2 00000000 00000000     }.C0.3H.........
	...
 8025638:	74000000 4345445b 735d3837 74696c70     ...t[DEC78]split
 8025648:	74696e69 6574735f 375f3170 00000038     init_step1_78...
 8025658:	00000000 e8100204 dd88d34b 1e9cd383     ........K.......
 8025668:	ffa7ee45 10911c17 9e82da66 9416c969     E.......f...i...
 8025678:	3043897d e34833f2 00000000 00000000     }.C0.3H.........
	...
 80256d4:	74000000 4345445b 735d3837 74696c70     ...t[DEC78]split
 80256e4:	74696e69 6574735f 375f3270 00000038     init_step2_78...
 80256f4:	00000000 e8100310 dd88d34b 1e9cd383     ........K.......
 8025704:	ffa7ee45 10911c17 9e82da66 9416c969     E.......f...i...
 8025714:	3043897d e34833f2 00000000 00000000     }.C0.3H.........
	...
 8025754:	45dcbc10 0ae46b1f b1870832 36977233     ...E.k..2...3r.6
 8025764:	00000084 00000000 00000000 65000000     ...............e
 8025774:	455b7462 3937434e 6c75665d 39375f6c     bt[ENC79]full_79
	...
 8025794:	030b0000 54152e10 69549590 e28ec5a8     .......T..Ti....
 80257a4:	43dd8090 de0410d0 ff26568b 0f1c3ef7     ...C.....V&..>..
 80257b4:	c4865468 00009c44 00000000 00000000     hT..D...........
	...
 80257f0:	81100000 7b44d5eb 2542ed63 d877bcc2     ......D{c.B%..w.
 8025800:	0041bfca 00000000 00000000 00000000     ..A.............
 8025810:	74626500 434e455b 735d3937 74696c70     .ebt[ENC79]split
 8025820:	6574735f 375f3070 00000039 00000000     _step0_79.......
 8025830:	00000000 2e100203 95905415 c5a86954     .........T..Ti..
 8025840:	8090e28e 10d043dd 568bde04 3ef7ff26     .....C.....V&..>
 8025850:	54680f1c 9c44c486 00000000 00000000     ..hT..D.........
	...
 80258ac:	74000000 434e455b 735d3937 74696c70     ...t[ENC79]split
 80258bc:	6574735f 375f3170 00000039 00000000     _step1_79.......
 80258cc:	00000000 2e100308 95905415 c5a86954     .........T..Ti..
 80258dc:	8090e28e 10d043dd 568bde04 3ef7ff26     .....C.....V&..>
 80258ec:	54680f1c 9c44c486 00000000 00000000     ..hT..D.........
	...
 802592c:	d5eb8110 ed637b44 bcc22542 bfcad877     ....D{c.B%..w...
 802593c:	00000041 00000000 00000000 65000000     A..............e
 802594c:	455b7462 3937434e 6c70735d 6e697469     bt[ENC79]splitin
 802595c:	735f7469 30706574 0039375f 00000000     it_step0_79.....
 802596c:	02010000 54152e10 69549590 e28ec5a8     .......T..Ti....
 802597c:	43dd8090 de0410d0 ff26568b 0f1c3ef7     ...C.....V&..>..
 802598c:	c4865468 00009c44 00000000 00000000     hT..D...........
	...
 80259e8:	455b7400 3937434e 6c70735d 6e697469     .t[ENC79]splitin
 80259f8:	735f7469 31706574 0039375f 00000000     it_step1_79.....
 8025a08:	02020000 54152e10 69549590 e28ec5a8     .......T..Ti....
 8025a18:	43dd8090 de0410d0 ff26568b 0f1c3ef7     ...C.....V&..>..
 8025a28:	c4865468 00009c44 00000000 00000000     hT..D...........
	...
 8025a84:	455b7400 3937434e 6c70735d 6e697469     .t[ENC79]splitin
 8025a94:	735f7469 32706574 0039375f 00000000     it_step2_79.....
 8025aa4:	03080000 54152e10 69549590 e28ec5a8     .......T..Ti....
 8025ab4:	43dd8090 de0410d0 ff26568b 0f1c3ef7     ...C.....V&..>..
 8025ac4:	c4865468 00009c44 00000000 00000000     hT..D...........
	...
 8025b00:	81100000 7b44d5eb 2542ed63 d877bcc2     ......D{c.B%..w.
 8025b10:	0041bfca 00000000 00000000 00000000     ..A.............
 8025b20:	74626500 4345445b 665d3937 5f6c6c75     .ebt[DEC79]full_
 8025b30:	00003937 00000000 00000000 00000000     79..............
 8025b40:	00000000 54100315 3bd7bd65 285076b4     .......Te..;.vP(
 8025b50:	8bd3079e 10e76b3c 9826e12b 4a34feb3     ....<k..+.&...4J
 8025b60:	ff92ae95 8adeae96 00000000 00000000     ................
	...
 8025ba0:	bcf12a10 333675b6 171d9ff1 06819014     .*...u63........
 8025bb0:	000000a6 00000000 00000000 65000000     ...............e
 8025bc0:	445b7462 39374345 6c70735d 735f7469     bt[DEC79]split_s
 8025bd0:	30706574 0039375f 00000000 00000000     tep0_79.........
 8025be0:	02050000 bd655410 76b43bd7 079e2850     .....Te..;.vP(..
 8025bf0:	6b3c8bd3 e12b10e7 feb39826 ae954a34     ..<k..+.&...4J..
 8025c00:	ae96ff92 00008ade 00000000 00000000     ................
	...
 8025c5c:	445b7400 39374345 6c70735d 735f7469     .t[DEC79]split_s
 8025c6c:	31706574 0039375f 00000000 00000000     tep1_79.........
 8025c7c:	03100000 bd655410 76b43bd7 079e2850     .....Te..;.vP(..
 8025c8c:	6b3c8bd3 e12b10e7 feb39826 ae954a34     ..<k..+.&...4J..
 8025c9c:	ae96ff92 00008ade 00000000 00000000     ................
	...
 8025cd8:	2a100000 75b6bcf1 9ff13336 9014171d     ...*...u63......
 8025ce8:	00a60681 00000000 00000000 00000000     ................
 8025cf8:	74626500 4345445b 735d3937 74696c70     .ebt[DEC79]split
 8025d08:	74696e69 6574735f 375f3070 00000039     init_step0_79...
 8025d18:	00000000 54100201 3bd7bd65 285076b4     .......Te..;.vP(
 8025d28:	8bd3079e 10e76b3c 9826e12b 4a34feb3     ....<k..+.&...4J
 8025d38:	ff92ae95 8adeae96 00000000 00000000     ................
	...
 8025d94:	74000000 4345445b 735d3937 74696c70     ...t[DEC79]split
 8025da4:	74696e69 6574735f 375f3170 00000039     init_step1_79...
 8025db4:	00000000 54100204 3bd7bd65 285076b4     .......Te..;.vP(
 8025dc4:	8bd3079e 10e76b3c 9826e12b 4a34feb3     ....<k..+.&...4J
 8025dd4:	ff92ae95 8adeae96 00000000 00000000     ................
	...
 8025e30:	74000000 4345445b 735d3937 74696c70     ...t[DEC79]split
 8025e40:	74696e69 6574735f 375f3270 00000039     init_step2_79...
 8025e50:	00000000 54100310 3bd7bd65 285076b4     .......Te..;.vP(
 8025e60:	8bd3079e 10e76b3c 9826e12b 4a34feb3     ....<k..+.&...4J
 8025e70:	ff92ae95 8adeae96 00000000 00000000     ................
	...
 8025eb0:	bcf12a10 333675b6 171d9ff1 06819014     .*...u63........
 8025ec0:	000000a6 00000000 00000000 65000000     ...............e
 8025ed0:	455b7462 3038434e 6c75665d 30385f6c     bt[ENC80]full_80
	...
 8025ef0:	030b0000 b20ed510 377db4af d341d931     ..........}71.A.
 8025f00:	e1a28ae0 3c5110b7 51182938 7e04a825     ......Q<8).Q%..~
 8025f10:	7a99d579 0000e3f1 00000000 00000000     y..z............
	...
 8025f4c:	cb100000 28fff875 de546cb2 72862be0     ....u..(.lT..+.r
 8025f5c:	00cb7ca9 00000000 00000000 00000000     .|..............
 8025f6c:	74626500 434e455b 735d3038 74696c70     .ebt[ENC80]split
 8025f7c:	6574735f 385f3070 00000030 00000000     _step0_80.......
 8025f8c:	00000000 d5100203 b4afb20e d931377d     ............}71.
 8025f9c:	8ae0d341 10b7e1a2 29383c51 a8255118     A.......Q<8).Q%.
 8025fac:	d5797e04 e3f17a99 00000000 00000000     .~y..z..........
	...
 8026008:	74000000 434e455b 735d3038 74696c70     ...t[ENC80]split
 8026018:	6574735f 385f3170 00000030 00000000     _step1_80.......
 8026028:	00000000 d5100308 b4afb20e d931377d     ............}71.
 8026038:	8ae0d341 10b7e1a2 29383c51 a8255118     A.......Q<8).Q%.
 8026048:	d5797e04 e3f17a99 00000000 00000000     .~y..z..........
	...
 8026088:	f875cb10 6cb228ff 2be0de54 7ca97286     ..u..(.lT..+.r.|
 8026098:	000000cb 00000000 00000000 65000000     ...............e
 80260a8:	455b7462 3038434e 6c70735d 6e697469     bt[ENC80]splitin
 80260b8:	735f7469 30706574 0030385f 00000000     it_step0_80.....
 80260c8:	02010000 b20ed510 377db4af d341d931     ..........}71.A.
 80260d8:	e1a28ae0 3c5110b7 51182938 7e04a825     ......Q<8).Q%..~
 80260e8:	7a99d579 0000e3f1 00000000 00000000     y..z............
	...
 8026144:	455b7400 3038434e 6c70735d 6e697469     .t[ENC80]splitin
 8026154:	735f7469 31706574 0030385f 00000000     it_step1_80.....
 8026164:	02020000 b20ed510 377db4af d341d931     ..........}71.A.
 8026174:	e1a28ae0 3c5110b7 51182938 7e04a825     ......Q<8).Q%..~
 8026184:	7a99d579 0000e3f1 00000000 00000000     y..z............
	...
 80261e0:	455b7400 3038434e 6c70735d 6e697469     .t[ENC80]splitin
 80261f0:	735f7469 32706574 0030385f 00000000     it_step2_80.....
 8026200:	03080000 b20ed510 377db4af d341d931     ..........}71.A.
 8026210:	e1a28ae0 3c5110b7 51182938 7e04a825     ......Q<8).Q%..~
 8026220:	7a99d579 0000e3f1 00000000 00000000     y..z............
	...
 802625c:	cb100000 28fff875 de546cb2 72862be0     ....u..(.lT..+.r
 802626c:	00cb7ca9 00000000 00000000 00000000     .|..............
 802627c:	74626500 4345445b 665d3038 5f6c6c75     .ebt[DEC80]full_
 802628c:	00003038 00000000 00000000 00000000     80..............
 802629c:	00000000 90100315 199da44c 6ecd4a98     ........L....J.n
 80262ac:	f32bb643 101751b4 5482587f 3d875503     C.+..Q...X.T.U.=
 80262bc:	8452918f 7bea5b85 00000000 00000000     ..R..[.{........
	...
 80262fc:	2346d810 34e36e65 2f9f1dc9 881546c7     ..F#en.4.../.F..
 802630c:	0000008d 00000000 00000000 65000000     ...............e
 802631c:	445b7462 30384345 6c70735d 735f7469     bt[DEC80]split_s
 802632c:	30706574 0030385f 00000000 00000000     tep0_80.........
 802633c:	02050000 a44c9010 4a98199d b6436ecd     ......L....J.nC.
 802634c:	51b4f32b 587f1017 55035482 918f3d87     +..Q...X.T.U.=..
 802635c:	5b858452 00007bea 00000000 00000000     R..[.{..........
	...
 80263b8:	445b7400 30384345 6c70735d 735f7469     .t[DEC80]split_s
 80263c8:	31706574 0030385f 00000000 00000000     tep1_80.........
 80263d8:	03100000 a44c9010 4a98199d b6436ecd     ......L....J.nC.
 80263e8:	51b4f32b 587f1017 55035482 918f3d87     +..Q...X.T.U.=..
 80263f8:	5b858452 00007bea 00000000 00000000     R..[.{..........
	...
 8026434:	d8100000 6e652346 1dc934e3 46c72f9f     ....F#en.4.../.F
 8026444:	008d8815 00000000 00000000 00000000     ................
 8026454:	74626500 4345445b 735d3038 74696c70     .ebt[DEC80]split
 8026464:	74696e69 6574735f 385f3070 00000030     init_step0_80...
 8026474:	00000000 90100201 199da44c 6ecd4a98     ........L....J.n
 8026484:	f32bb643 101751b4 5482587f 3d875503     C.+..Q...X.T.U.=
 8026494:	8452918f 7bea5b85 00000000 00000000     ..R..[.{........
	...
 80264f0:	74000000 4345445b 735d3038 74696c70     ...t[DEC80]split
 8026500:	74696e69 6574735f 385f3170 00000030     init_step1_80...
 8026510:	00000000 90100204 199da44c 6ecd4a98     ........L....J.n
 8026520:	f32bb643 101751b4 5482587f 3d875503     C.+..Q...X.T.U.=
 8026530:	8452918f 7bea5b85 00000000 00000000     ..R..[.{........
	...
 802658c:	74000000 4345445b 735d3038 74696c70     ...t[DEC80]split
 802659c:	74696e69 6574735f 385f3270 00000030     init_step2_80...
 80265ac:	00000000 90100310 199da44c 6ecd4a98     ........L....J.n
 80265bc:	f32bb643 101751b4 5482587f 3d875503     C.+..Q...X.T.U.=
 80265cc:	8452918f 7bea5b85 00000000 00000000     ..R..[.{........
	...
 802660c:	2346d810 34e36e65 2f9f1dc9 881546c7     ..F#en.4.../.F..
 802661c:	0000008d 00000000 00000000 65000000     ...............e
 802662c:	455b7462 3138434e 6c75665d 31385f6c     bt[ENC81]full_81
	...
 802664c:	030b0000 24e98d10 5b449ee0 f29f3b3c     .......$..D[<;..
 802665c:	cecff9b7 5f6c10d9 3f158b95 6a20a850     ......l_...?P. j
 802666c:	79323807 0000e400 00000000 00000000     .82y............
	...
 80266a8:	08100000 b98995bd 0bf71626 bad330dd     ........&....0..
 80266b8:	0099ecf1 00000000 00000000 00000000     ................
 80266c8:	74626500 434e455b 735d3138 74696c70     .ebt[ENC81]split
 80266d8:	6574735f 385f3070 00000031 00000000     _step0_81.......
 80266e8:	00000000 8d100203 9ee024e9 3b3c5b44     .........$..D[<;
 80266f8:	f9b7f29f 10d9cecf 8b955f6c a8503f15     ........l_...?P.
 8026708:	38076a20 e4007932 00000000 00000000      j.82y..........
	...
 8026764:	74000000 434e455b 735d3138 74696c70     ...t[ENC81]split
 8026774:	6574735f 385f3170 00000031 00000000     _step1_81.......
 8026784:	00000000 8d100308 9ee024e9 3b3c5b44     .........$..D[<;
 8026794:	f9b7f29f 10d9cecf 8b955f6c a8503f15     ........l_...?P.
 80267a4:	38076a20 e4007932 00000000 00000000      j.82y..........
	...
 80267e4:	95bd0810 1626b989 30dd0bf7 ecf1bad3     ......&....0....
 80267f4:	00000099 00000000 00000000 65000000     ...............e
 8026804:	455b7462 3138434e 6c70735d 6e697469     bt[ENC81]splitin
 8026814:	735f7469 30706574 0031385f 00000000     it_step0_81.....
 8026824:	02010000 24e98d10 5b449ee0 f29f3b3c     .......$..D[<;..
 8026834:	cecff9b7 5f6c10d9 3f158b95 6a20a850     ......l_...?P. j
 8026844:	79323807 0000e400 00000000 00000000     .82y............
	...
 80268a0:	455b7400 3138434e 6c70735d 6e697469     .t[ENC81]splitin
 80268b0:	735f7469 31706574 0031385f 00000000     it_step1_81.....
 80268c0:	02020000 24e98d10 5b449ee0 f29f3b3c     .......$..D[<;..
 80268d0:	cecff9b7 5f6c10d9 3f158b95 6a20a850     ......l_...?P. j
 80268e0:	79323807 0000e400 00000000 00000000     .82y............
	...
 802693c:	455b7400 3138434e 6c70735d 6e697469     .t[ENC81]splitin
 802694c:	735f7469 32706574 0031385f 00000000     it_step2_81.....
 802695c:	03080000 24e98d10 5b449ee0 f29f3b3c     .......$..D[<;..
 802696c:	cecff9b7 5f6c10d9 3f158b95 6a20a850     ......l_...?P. j
 802697c:	79323807 0000e400 00000000 00000000     .82y............
	...
 80269b8:	08100000 b98995bd 0bf71626 bad330dd     ........&....0..
 80269c8:	0099ecf1 00000000 00000000 00000000     ................
 80269d8:	74626500 4345445b 665d3138 5f6c6c75     .ebt[DEC81]full_
 80269e8:	00003138 00000000 00000000 00000000     81..............
 80269f8:	00000000 aa100315 5c815621 2703c396     ........!V.\...'
 8026a08:	772ae317 10d04743 55b448fd ecfda408     ..*wCG...H.U....
 8026a18:	11ab0f11 d59aec9d 00000000 00000000     ................
	...
 8026a58:	3b7f2910 f8d99431 33a5b500 b911e780     .).;1......3....
 8026a68:	000000b4 00000000 00000000 65000000     ...............e
 8026a78:	445b7462 31384345 6c70735d 735f7469     bt[DEC81]split_s
 8026a88:	30706574 0031385f 00000000 00000000     tep0_81.........
 8026a98:	02050000 5621aa10 c3965c81 e3172703     ......!V.\...'..
 8026aa8:	4743772a 48fd10d0 a40855b4 0f11ecfd     *wCG...H.U......
 8026ab8:	ec9d11ab 0000d59a 00000000 00000000     ................
	...
 8026b14:	445b7400 31384345 6c70735d 735f7469     .t[DEC81]split_s
 8026b24:	31706574 0031385f 00000000 00000000     tep1_81.........
 8026b34:	03100000 5621aa10 c3965c81 e3172703     ......!V.\...'..
 8026b44:	4743772a 48fd10d0 a40855b4 0f11ecfd     *wCG...H.U......
 8026b54:	ec9d11ab 0000d59a 00000000 00000000     ................
	...
 8026b90:	29100000 94313b7f b500f8d9 e78033a5     ...).;1......3..
 8026ba0:	00b4b911 00000000 00000000 00000000     ................
 8026bb0:	74626500 4345445b 735d3138 74696c70     .ebt[DEC81]split
 8026bc0:	74696e69 6574735f 385f3070 00000031     init_step0_81...
 8026bd0:	00000000 aa100201 5c815621 2703c396     ........!V.\...'
 8026be0:	772ae317 10d04743 55b448fd ecfda408     ..*wCG...H.U....
 8026bf0:	11ab0f11 d59aec9d 00000000 00000000     ................
	...
 8026c4c:	74000000 4345445b 735d3138 74696c70     ...t[DEC81]split
 8026c5c:	74696e69 6574735f 385f3170 00000031     init_step1_81...
 8026c6c:	00000000 aa100204 5c815621 2703c396     ........!V.\...'
 8026c7c:	772ae317 10d04743 55b448fd ecfda408     ..*wCG...H.U....
 8026c8c:	11ab0f11 d59aec9d 00000000 00000000     ................
	...
 8026ce8:	74000000 4345445b 735d3138 74696c70     ...t[DEC81]split
 8026cf8:	74696e69 6574735f 385f3270 00000031     init_step2_81...
 8026d08:	00000000 aa100310 5c815621 2703c396     ........!V.\...'
 8026d18:	772ae317 10d04743 55b448fd ecfda408     ..*wCG...H.U....
 8026d28:	11ab0f11 d59aec9d 00000000 00000000     ................
	...
 8026d68:	3b7f2910 f8d99431 33a5b500 b911e780     .).;1......3....
 8026d78:	000000b4 00000000 00000000 65000000     ...............e
 8026d88:	455b7462 3238434e 6c75665d 32385f6c     bt[ENC82]full_82
	...
 8026da8:	030b0000 b5bb5610 186a2286 42b77cd7     .....V..."j..|.B
 8026db8:	af0b4d24 d50410f2 3b597b0d 7e79332c     $M.......{Y;,3y~
 8026dc8:	20cce650 00006cb6 00000000 00000000     P.. .l..........
	...
 8026e04:	51100000 05b68d56 26ad8f96 f42b5b51     ...QV......&Q[+.
 8026e14:	009aa4ed 00000000 00000000 00000000     ................
 8026e24:	74626500 434e455b 735d3238 74696c70     .ebt[ENC82]split
 8026e34:	6574735f 385f3070 00000032 00000000     _step0_82.......
 8026e44:	00000000 56100203 2286b5bb 7cd7186a     .......V..."j..|
 8026e54:	4d2442b7 10f2af0b 7b0dd504 332c3b59     .B$M.......{Y;,3
 8026e64:	e6507e79 6cb620cc 00000000 00000000     y~P.. .l........
	...
 8026ec0:	74000000 434e455b 735d3238 74696c70     ...t[ENC82]split
 8026ed0:	6574735f 385f3170 00000032 00000000     _step1_82.......
 8026ee0:	00000000 56100308 2286b5bb 7cd7186a     .......V..."j..|
 8026ef0:	4d2442b7 10f2af0b 7b0dd504 332c3b59     .B$M.......{Y;,3
 8026f00:	e6507e79 6cb620cc 00000000 00000000     y~P.. .l........
	...
 8026f40:	8d565110 8f9605b6 5b5126ad a4edf42b     .QV......&Q[+...
 8026f50:	0000009a 00000000 00000000 65000000     ...............e
 8026f60:	455b7462 3238434e 6c70735d 6e697469     bt[ENC82]splitin
 8026f70:	735f7469 30706574 0032385f 00000000     it_step0_82.....
 8026f80:	02010000 b5bb5610 186a2286 42b77cd7     .....V..."j..|.B
 8026f90:	af0b4d24 d50410f2 3b597b0d 7e79332c     $M.......{Y;,3y~
 8026fa0:	20cce650 00006cb6 00000000 00000000     P.. .l..........
	...
 8026ffc:	455b7400 3238434e 6c70735d 6e697469     .t[ENC82]splitin
 802700c:	735f7469 31706574 0032385f 00000000     it_step1_82.....
 802701c:	02020000 b5bb5610 186a2286 42b77cd7     .....V..."j..|.B
 802702c:	af0b4d24 d50410f2 3b597b0d 7e79332c     $M.......{Y;,3y~
 802703c:	20cce650 00006cb6 00000000 00000000     P.. .l..........
	...
 8027098:	455b7400 3238434e 6c70735d 6e697469     .t[ENC82]splitin
 80270a8:	735f7469 32706574 0032385f 00000000     it_step2_82.....
 80270b8:	03080000 b5bb5610 186a2286 42b77cd7     .....V..."j..|.B
 80270c8:	af0b4d24 d50410f2 3b597b0d 7e79332c     $M.......{Y;,3y~
 80270d8:	20cce650 00006cb6 00000000 00000000     P.. .l..........
	...
 8027114:	51100000 05b68d56 26ad8f96 f42b5b51     ...QV......&Q[+.
 8027124:	009aa4ed 00000000 00000000 00000000     ................
 8027134:	74626500 4345445b 665d3238 5f6c6c75     .ebt[DEC82]full_
 8027144:	00003238 00000000 00000000 00000000     82..............
 8027154:	00000000 aa100315 650bd1bb c465293b     ...........e;)e.
 8027164:	f9dd574e 10632c06 829d3197 7ac4e6b3     NW...,c..1.....z
 8027174:	29004a91 892013d8 00000000 00000000     .J.).. .........
	...
 80271b4:	ea634510 1f932022 b97edbef e49c9727     .Ec." ....~.'...
 80271c4:	000000eb 00000000 00000000 65000000     ...............e
 80271d4:	445b7462 32384345 6c70735d 735f7469     bt[DEC82]split_s
 80271e4:	30706574 0032385f 00000000 00000000     tep0_82.........
 80271f4:	02050000 d1bbaa10 293b650b 574ec465     .........e;)e.NW
 8027204:	2c06f9dd 31971063 e6b3829d 4a917ac4     ...,c..1.....z.J
 8027214:	13d82900 00008920 00000000 00000000     .).. ...........
	...
 8027270:	445b7400 32384345 6c70735d 735f7469     .t[DEC82]split_s
 8027280:	31706574 0032385f 00000000 00000000     tep1_82.........
 8027290:	03100000 d1bbaa10 293b650b 574ec465     .........e;)e.NW
 80272a0:	2c06f9dd 31971063 e6b3829d 4a917ac4     ...,c..1.....z.J
 80272b0:	13d82900 00008920 00000000 00000000     .).. ...........
	...
 80272ec:	45100000 2022ea63 dbef1f93 9727b97e     ...Ec." ....~.'.
 80272fc:	00ebe49c 00000000 00000000 00000000     ................
 802730c:	74626500 4345445b 735d3238 74696c70     .ebt[DEC82]split
 802731c:	74696e69 6574735f 385f3070 00000032     init_step0_82...
 802732c:	00000000 aa100201 650bd1bb c465293b     ...........e;)e.
 802733c:	f9dd574e 10632c06 829d3197 7ac4e6b3     NW...,c..1.....z
 802734c:	29004a91 892013d8 00000000 00000000     .J.).. .........
	...
 80273a8:	74000000 4345445b 735d3238 74696c70     ...t[DEC82]split
 80273b8:	74696e69 6574735f 385f3170 00000032     init_step1_82...
 80273c8:	00000000 aa100204 650bd1bb c465293b     ...........e;)e.
 80273d8:	f9dd574e 10632c06 829d3197 7ac4e6b3     NW...,c..1.....z
 80273e8:	29004a91 892013d8 00000000 00000000     .J.).. .........
	...
 8027444:	74000000 4345445b 735d3238 74696c70     ...t[DEC82]split
 8027454:	74696e69 6574735f 385f3270 00000032     init_step2_82...
 8027464:	00000000 aa100310 650bd1bb c465293b     ...........e;)e.
 8027474:	f9dd574e 10632c06 829d3197 7ac4e6b3     NW...,c..1.....z
 8027484:	29004a91 892013d8 00000000 00000000     .J.).. .........
	...
 80274c4:	ea634510 1f932022 b97edbef e49c9727     .Ec." ....~.'...
 80274d4:	000000eb 00000000 00000000 65000000     ...............e
 80274e4:	455b7462 3338434e 6c75665d 33385f6c     bt[ENC83]full_83
	...
 8027504:	030b0000 38646410 1b10dff7 1e6d4d6b     .....dd8....kMm.
 8027514:	89ce958b ba851010 c8af0cf8 fd5ad074     ............t.Z.
 8027524:	f20b6891 00000516 00000000 00000000     .h..............
	...
 8027560:	61100000 bd3ebef3 05743cb9 9823812f     ...a..>..<t./.#.
 8027570:	002168c9 00000000 00000000 00000000     .h!.............
 8027580:	74626500 434e455b 735d3338 74696c70     .ebt[ENC83]split
 8027590:	6574735f 385f3070 00000033 00000000     _step0_83.......
 80275a0:	00000000 64100203 dff73864 4d6b1b10     .......dd8....kM
 80275b0:	958b1e6d 101089ce 0cf8ba85 d074c8af     m.............t.
 80275c0:	6891fd5a 0516f20b 00000000 00000000     Z..h............
	...
 802761c:	74000000 434e455b 735d3338 74696c70     ...t[ENC83]split
 802762c:	6574735f 385f3170 00000033 00000000     _step1_83.......
 802763c:	00000000 64100308 dff73864 4d6b1b10     .......dd8....kM
 802764c:	958b1e6d 101089ce 0cf8ba85 d074c8af     m.............t.
 802765c:	6891fd5a 0516f20b 00000000 00000000     Z..h............
	...
 802769c:	bef36110 3cb9bd3e 812f0574 68c99823     .a..>..<t./.#..h
 80276ac:	00000021 00000000 00000000 65000000     !..............e
 80276bc:	455b7462 3338434e 6c70735d 6e697469     bt[ENC83]splitin
 80276cc:	735f7469 30706574 0033385f 00000000     it_step0_83.....
 80276dc:	02010000 38646410 1b10dff7 1e6d4d6b     .....dd8....kMm.
 80276ec:	89ce958b ba851010 c8af0cf8 fd5ad074     ............t.Z.
 80276fc:	f20b6891 00000516 00000000 00000000     .h..............
	...
 8027758:	455b7400 3338434e 6c70735d 6e697469     .t[ENC83]splitin
 8027768:	735f7469 31706574 0033385f 00000000     it_step1_83.....
 8027778:	02020000 38646410 1b10dff7 1e6d4d6b     .....dd8....kMm.
 8027788:	89ce958b ba851010 c8af0cf8 fd5ad074     ............t.Z.
 8027798:	f20b6891 00000516 00000000 00000000     .h..............
	...
 80277f4:	455b7400 3338434e 6c70735d 6e697469     .t[ENC83]splitin
 8027804:	735f7469 32706574 0033385f 00000000     it_step2_83.....
 8027814:	03080000 38646410 1b10dff7 1e6d4d6b     .....dd8....kMm.
 8027824:	89ce958b ba851010 c8af0cf8 fd5ad074     ............t.Z.
 8027834:	f20b6891 00000516 00000000 00000000     .h..............
	...
 8027870:	61100000 bd3ebef3 05743cb9 9823812f     ...a..>..<t./.#.
 8027880:	002168c9 00000000 00000000 00000000     .h!.............
 8027890:	74626500 4345445b 665d3338 5f6c6c75     .ebt[DEC83]full_
 80278a0:	00003338 00000000 00000000 00000000     83..............
 80278b0:	00000000 2a100315 dce9b0a1 ba72d924     .......*....$.r.
 80278c0:	8fe1460f 10793b8f db4fe3dd 15656199     .F...;y...O..ae.
 80278d0:	152f3bc5 c01d15ff 00000000 00000000     .;/.............
	...
 8027910:	dc250710 a39e4e43 73ce7e40 706eed93     ..%.CN..@~.s..np
 8027920:	000000b6 00000000 00000000 65000000     ...............e
 8027930:	445b7462 33384345 6c70735d 735f7469     bt[DEC83]split_s
 8027940:	30706574 0033385f 00000000 00000000     tep0_83.........
 8027950:	02050000 b0a12a10 d924dce9 460fba72     .....*....$.r..F
 8027960:	3b8f8fe1 e3dd1079 6199db4f 3bc51565     ...;y...O..ae..;
 8027970:	15ff152f 0000c01d 00000000 00000000     /...............
	...
 80279cc:	445b7400 33384345 6c70735d 735f7469     .t[DEC83]split_s
 80279dc:	31706574 0033385f 00000000 00000000     tep1_83.........
 80279ec:	03100000 b0a12a10 d924dce9 460fba72     .....*....$.r..F
 80279fc:	3b8f8fe1 e3dd1079 6199db4f 3bc51565     ...;y...O..ae..;
 8027a0c:	15ff152f 0000c01d 00000000 00000000     /...............
	...
 8027a48:	07100000 4e43dc25 7e40a39e ed9373ce     ....%.CN..@~.s..
 8027a58:	00b6706e 00000000 00000000 00000000     np..............
 8027a68:	74626500 4345445b 735d3338 74696c70     .ebt[DEC83]split
 8027a78:	74696e69 6574735f 385f3070 00000033     init_step0_83...
 8027a88:	00000000 2a100201 dce9b0a1 ba72d924     .......*....$.r.
 8027a98:	8fe1460f 10793b8f db4fe3dd 15656199     .F...;y...O..ae.
 8027aa8:	152f3bc5 c01d15ff 00000000 00000000     .;/.............
	...
 8027b04:	74000000 4345445b 735d3338 74696c70     ...t[DEC83]split
 8027b14:	74696e69 6574735f 385f3170 00000033     init_step1_83...
 8027b24:	00000000 2a100204 dce9b0a1 ba72d924     .......*....$.r.
 8027b34:	8fe1460f 10793b8f db4fe3dd 15656199     .F...;y...O..ae.
 8027b44:	152f3bc5 c01d15ff 00000000 00000000     .;/.............
	...
 8027ba0:	74000000 4345445b 735d3338 74696c70     ...t[DEC83]split
 8027bb0:	74696e69 6574735f 385f3270 00000033     init_step2_83...
 8027bc0:	00000000 2a100310 dce9b0a1 ba72d924     .......*....$.r.
 8027bd0:	8fe1460f 10793b8f db4fe3dd 15656199     .F...;y...O..ae.
 8027be0:	152f3bc5 c01d15ff 00000000 00000000     .;/.............
	...
 8027c20:	dc250710 a39e4e43 73ce7e40 706eed93     ..%.CN..@~.s..np
 8027c30:	000000b6 00000000 00000000 65000000     ...............e
 8027c40:	455b7462 3438434e 6c75665d 34385f6c     bt[ENC84]full_84
	...
 8027c60:	030b0000 7a67d610 e33e87ab 124c929b     ......gz..>...L.
 8027c70:	560e0c2c 1f2210ba 3a8f6be4 8c8b87d6     ,..V.."..k.:....
 8027c80:	cb269959 0000aa04 00000000 00000000     Y.&.............
	...
 8027cbc:	51100000 453bfedb 7edfeb90 6ccadc01     ...Q..;E...~...l
 8027ccc:	00602a5a 00000000 00000000 00000000     Z*`.............
 8027cdc:	74626500 434e455b 735d3438 74696c70     .ebt[ENC84]split
 8027cec:	6574735f 385f3070 00000034 00000000     _step0_84.......
 8027cfc:	00000000 d6100203 87ab7a67 929be33e     ........gz..>...
 8027d0c:	0c2c124c 10ba560e 6be41f22 87d63a8f     L.,..V.."..k.:..
 8027d1c:	99598c8b aa04cb26 00000000 00000000     ..Y.&...........
	...
 8027d78:	74000000 434e455b 735d3438 74696c70     ...t[ENC84]split
 8027d88:	6574735f 385f3170 00000034 00000000     _step1_84.......
 8027d98:	00000000 d6100308 87ab7a67 929be33e     ........gz..>...
 8027da8:	0c2c124c 10ba560e 6be41f22 87d63a8f     L.,..V.."..k.:..
 8027db8:	99598c8b aa04cb26 00000000 00000000     ..Y.&...........
	...
 8027df8:	fedb5110 eb90453b dc017edf 2a5a6cca     .Q..;E...~...lZ*
 8027e08:	00000060 00000000 00000000 65000000     `..............e
 8027e18:	455b7462 3438434e 6c70735d 6e697469     bt[ENC84]splitin
 8027e28:	735f7469 30706574 0034385f 00000000     it_step0_84.....
 8027e38:	02010000 7a67d610 e33e87ab 124c929b     ......gz..>...L.
 8027e48:	560e0c2c 1f2210ba 3a8f6be4 8c8b87d6     ,..V.."..k.:....
 8027e58:	cb269959 0000aa04 00000000 00000000     Y.&.............
	...
 8027eb4:	455b7400 3438434e 6c70735d 6e697469     .t[ENC84]splitin
 8027ec4:	735f7469 31706574 0034385f 00000000     it_step1_84.....
 8027ed4:	02020000 7a67d610 e33e87ab 124c929b     ......gz..>...L.
 8027ee4:	560e0c2c 1f2210ba 3a8f6be4 8c8b87d6     ,..V.."..k.:....
 8027ef4:	cb269959 0000aa04 00000000 00000000     Y.&.............
	...
 8027f50:	455b7400 3438434e 6c70735d 6e697469     .t[ENC84]splitin
 8027f60:	735f7469 32706574 0034385f 00000000     it_step2_84.....
 8027f70:	03080000 7a67d610 e33e87ab 124c929b     ......gz..>...L.
 8027f80:	560e0c2c 1f2210ba 3a8f6be4 8c8b87d6     ,..V.."..k.:....
 8027f90:	cb269959 0000aa04 00000000 00000000     Y.&.............
	...
 8027fcc:	51100000 453bfedb 7edfeb90 6ccadc01     ...Q..;E...~...l
 8027fdc:	00602a5a 00000000 00000000 00000000     Z*`.............
 8027fec:	74626500 4345445b 665d3438 5f6c6c75     .ebt[DEC84]full_
 8027ffc:	00003438 00000000 00000000 00000000     84..............
 802800c:	00000000 ea100315 d55d4188 8838f1e9     .........A]...8.
 802801c:	5d1e97fb 10db7bcc e1644b43 efd44813     ...].{..CKd..H..
 802802c:	5a7e7374 c64d4cd7 00000000 00000000     ts~Z.LM.........
	...
 802806c:	f7172e10 cd806a68 eb7f8539 53cef09e     ....hj..9......S
 802807c:	000000df 00000000 00000000 65000000     ...............e
 802808c:	445b7462 34384345 6c70735d 735f7469     bt[DEC84]split_s
 802809c:	30706574 0034385f 00000000 00000000     tep0_84.........
 80280ac:	02050000 4188ea10 f1e9d55d 97fb8838     .......A]...8...
 80280bc:	7bcc5d1e 4b4310db 4813e164 7374efd4     .].{..CKd..H..ts
 80280cc:	4cd75a7e 0000c64d 00000000 00000000     ~Z.LM...........
	...
 8028128:	445b7400 34384345 6c70735d 735f7469     .t[DEC84]split_s
 8028138:	31706574 0034385f 00000000 00000000     tep1_84.........
 8028148:	03100000 4188ea10 f1e9d55d 97fb8838     .......A]...8...
 8028158:	7bcc5d1e 4b4310db 4813e164 7374efd4     .].{..CKd..H..ts
 8028168:	4cd75a7e 0000c64d 00000000 00000000     ~Z.LM...........
	...
 80281a4:	2e100000 6a68f717 8539cd80 f09eeb7f     ......hj..9.....
 80281b4:	00df53ce 00000000 00000000 00000000     .S..............
 80281c4:	74626500 4345445b 735d3438 74696c70     .ebt[DEC84]split
 80281d4:	74696e69 6574735f 385f3070 00000034     init_step0_84...
 80281e4:	00000000 ea100201 d55d4188 8838f1e9     .........A]...8.
 80281f4:	5d1e97fb 10db7bcc e1644b43 efd44813     ...].{..CKd..H..
 8028204:	5a7e7374 c64d4cd7 00000000 00000000     ts~Z.LM.........
	...
 8028260:	74000000 4345445b 735d3438 74696c70     ...t[DEC84]split
 8028270:	74696e69 6574735f 385f3170 00000034     init_step1_84...
 8028280:	00000000 ea100204 d55d4188 8838f1e9     .........A]...8.
 8028290:	5d1e97fb 10db7bcc e1644b43 efd44813     ...].{..CKd..H..
 80282a0:	5a7e7374 c64d4cd7 00000000 00000000     ts~Z.LM.........
	...
 80282fc:	74000000 4345445b 735d3438 74696c70     ...t[DEC84]split
 802830c:	74696e69 6574735f 385f3270 00000034     init_step2_84...
 802831c:	00000000 ea100310 d55d4188 8838f1e9     .........A]...8.
 802832c:	5d1e97fb 10db7bcc e1644b43 efd44813     ...].{..CKd..H..
 802833c:	5a7e7374 c64d4cd7 00000000 00000000     ts~Z.LM.........
	...
 802837c:	f7172e10 cd806a68 eb7f8539 53cef09e     ....hj..9......S
 802838c:	000000df 00000000 00000000 65000000     ...............e
 802839c:	455b7462 3538434e 6c75665d 35385f6c     bt[ENC85]full_85
	...
 80283bc:	030b0000 5bf3fc10 1c1e3f5d a1647b5f     .......[]?.._{d.
 80283cc:	a70f368e d7a51021 b5eaaac0 0ee7fa99     .6..!...........
 80283dc:	b43679cf 0000c022 00000000 00000000     .y6."...........
	...
 8028418:	c0100000 b5397557 be1d3a5a d2647460     ....Wu9.Z:..`td.
 8028428:	00ab2f8e 00000000 00000000 00000000     ./..............
 8028438:	74626500 434e455b 735d3538 74696c70     .ebt[ENC85]split
 8028448:	6574735f 385f3070 00000035 00000000     _step0_85.......
 8028458:	00000000 fc100203 3f5d5bf3 7b5f1c1e     .........[]?.._{
 8028468:	368ea164 1021a70f aac0d7a5 fa99b5ea     d..6..!.........
 8028478:	79cf0ee7 c022b436 00000000 00000000     ...y6.".........
	...
 80284d4:	74000000 434e455b 735d3538 74696c70     ...t[ENC85]split
 80284e4:	6574735f 385f3170 00000035 00000000     _step1_85.......
 80284f4:	00000000 fc100308 3f5d5bf3 7b5f1c1e     .........[]?.._{
 8028504:	368ea164 1021a70f aac0d7a5 fa99b5ea     d..6..!.........
 8028514:	79cf0ee7 c022b436 00000000 00000000     ...y6.".........
	...
 8028554:	7557c010 3a5ab539 7460be1d 2f8ed264     ..Wu9.Z:..`td../
 8028564:	000000ab 00000000 00000000 65000000     ...............e
 8028574:	455b7462 3538434e 6c70735d 6e697469     bt[ENC85]splitin
 8028584:	735f7469 30706574 0035385f 00000000     it_step0_85.....
 8028594:	02010000 5bf3fc10 1c1e3f5d a1647b5f     .......[]?.._{d.
 80285a4:	a70f368e d7a51021 b5eaaac0 0ee7fa99     .6..!...........
 80285b4:	b43679cf 0000c022 00000000 00000000     .y6."...........
	...
 8028610:	455b7400 3538434e 6c70735d 6e697469     .t[ENC85]splitin
 8028620:	735f7469 31706574 0035385f 00000000     it_step1_85.....
 8028630:	02020000 5bf3fc10 1c1e3f5d a1647b5f     .......[]?.._{d.
 8028640:	a70f368e d7a51021 b5eaaac0 0ee7fa99     .6..!...........
 8028650:	b43679cf 0000c022 00000000 00000000     .y6."...........
	...
 80286ac:	455b7400 3538434e 6c70735d 6e697469     .t[ENC85]splitin
 80286bc:	735f7469 32706574 0035385f 00000000     it_step2_85.....
 80286cc:	03080000 5bf3fc10 1c1e3f5d a1647b5f     .......[]?.._{d.
 80286dc:	a70f368e d7a51021 b5eaaac0 0ee7fa99     .6..!...........
 80286ec:	b43679cf 0000c022 00000000 00000000     .y6."...........
	...
 8028728:	c0100000 b5397557 be1d3a5a d2647460     ....Wu9.Z:..`td.
 8028738:	00ab2f8e 00000000 00000000 00000000     ./..............
 8028748:	74626500 4345445b 665d3538 5f6c6c75     .ebt[DEC85]full_
 8028758:	00003538 00000000 00000000 00000000     85..............
 8028768:	00000000 74100315 a376bbf9 850bd6e0     .......t..v.....
 8028778:	e5dfad72 108c925e 0d819a77 b65b2cf5     r...^...w....,[.
 8028788:	240a56b0 3e185a99 00000000 00000000     .V.$.Z.>........
	...
 80287c8:	b879f610 d10c1fc6 b8ee2df5 e3c15c90     ..y......-...\..
 80287d8:	00000004 00000000 00000000 65000000     ...............e
 80287e8:	445b7462 35384345 6c70735d 735f7469     bt[DEC85]split_s
 80287f8:	30706574 0035385f 00000000 00000000     tep0_85.........
 8028808:	02050000 bbf97410 d6e0a376 ad72850b     .....t..v.....r.
 8028818:	925ee5df 9a77108c 2cf50d81 56b0b65b     ..^...w....,[..V
 8028828:	5a99240a 00003e18 00000000 00000000     .$.Z.>..........
	...
 8028884:	445b7400 35384345 6c70735d 735f7469     .t[DEC85]split_s
 8028894:	31706574 0035385f 00000000 00000000     tep1_85.........
 80288a4:	03100000 bbf97410 d6e0a376 ad72850b     .....t..v.....r.
 80288b4:	925ee5df 9a77108c 2cf50d81 56b0b65b     ..^...w....,[..V
 80288c4:	5a99240a 00003e18 00000000 00000000     .$.Z.>..........
	...
 8028900:	f6100000 1fc6b879 2df5d10c 5c90b8ee     ....y......-...\
 8028910:	0004e3c1 00000000 00000000 00000000     ................
 8028920:	74626500 4345445b 735d3538 74696c70     .ebt[DEC85]split
 8028930:	74696e69 6574735f 385f3070 00000035     init_step0_85...
 8028940:	00000000 74100201 a376bbf9 850bd6e0     .......t..v.....
 8028950:	e5dfad72 108c925e 0d819a77 b65b2cf5     r...^...w....,[.
 8028960:	240a56b0 3e185a99 00000000 00000000     .V.$.Z.>........
	...
 80289bc:	74000000 4345445b 735d3538 74696c70     ...t[DEC85]split
 80289cc:	74696e69 6574735f 385f3170 00000035     init_step1_85...
 80289dc:	00000000 74100204 a376bbf9 850bd6e0     .......t..v.....
 80289ec:	e5dfad72 108c925e 0d819a77 b65b2cf5     r...^...w....,[.
 80289fc:	240a56b0 3e185a99 00000000 00000000     .V.$.Z.>........
	...
 8028a58:	74000000 4345445b 735d3538 74696c70     ...t[DEC85]split
 8028a68:	74696e69 6574735f 385f3270 00000035     init_step2_85...
 8028a78:	00000000 74100310 a376bbf9 850bd6e0     .......t..v.....
 8028a88:	e5dfad72 108c925e 0d819a77 b65b2cf5     r...^...w....,[.
 8028a98:	240a56b0 3e185a99 00000000 00000000     .V.$.Z.>........
	...
 8028ad8:	b879f610 d10c1fc6 b8ee2df5 e3c15c90     ..y......-...\..
 8028ae8:	00000004 00000000 00000000 65000000     ...............e
 8028af8:	455b7462 3638434e 6c75665d 36385f6c     bt[ENC86]full_86
	...
 8028b18:	030b0000 dc0b2710 7b85f2d9 1f31e7da     .....'.....{..1.
 8028b28:	67483888 12aa104c f8f2bf93 158a3fef     .8HgL........?..
 8028b38:	df8a1c43 0000b79b 00000000 00000000     C...............
	...
 8028b74:	b9100000 5f4e8ab9 b7d27bbc a86c30f7     ......N_.{...0l.
 8028b84:	0011c608 00000000 00000000 00000000     ................
 8028b94:	74626500 434e455b 735d3638 74696c70     .ebt[ENC86]split
 8028ba4:	6574735f 385f3070 00000036 00000000     _step0_86.......
 8028bb4:	00000000 27100203 f2d9dc0b e7da7b85     .......'.....{..
 8028bc4:	38881f31 104c6748 bf9312aa 3feff8f2     1..8HgL........?
 8028bd4:	1c43158a b79bdf8a 00000000 00000000     ..C.............
	...
 8028c30:	74000000 434e455b 735d3638 74696c70     ...t[ENC86]split
 8028c40:	6574735f 385f3170 00000036 00000000     _step1_86.......
 8028c50:	00000000 27100308 f2d9dc0b e7da7b85     .......'.....{..
 8028c60:	38881f31 104c6748 bf9312aa 3feff8f2     1..8HgL........?
 8028c70:	1c43158a b79bdf8a 00000000 00000000     ..C.............
	...
 8028cb0:	8ab9b910 7bbc5f4e 30f7b7d2 c608a86c     ....N_.{...0l...
 8028cc0:	00000011 00000000 00000000 65000000     ...............e
 8028cd0:	455b7462 3638434e 6c70735d 6e697469     bt[ENC86]splitin
 8028ce0:	735f7469 30706574 0036385f 00000000     it_step0_86.....
 8028cf0:	02010000 dc0b2710 7b85f2d9 1f31e7da     .....'.....{..1.
 8028d00:	67483888 12aa104c f8f2bf93 158a3fef     .8HgL........?..
 8028d10:	df8a1c43 0000b79b 00000000 00000000     C...............
	...
 8028d6c:	455b7400 3638434e 6c70735d 6e697469     .t[ENC86]splitin
 8028d7c:	735f7469 31706574 0036385f 00000000     it_step1_86.....
 8028d8c:	02020000 dc0b2710 7b85f2d9 1f31e7da     .....'.....{..1.
 8028d9c:	67483888 12aa104c f8f2bf93 158a3fef     .8HgL........?..
 8028dac:	df8a1c43 0000b79b 00000000 00000000     C...............
	...
 8028e08:	455b7400 3638434e 6c70735d 6e697469     .t[ENC86]splitin
 8028e18:	735f7469 32706574 0036385f 00000000     it_step2_86.....
 8028e28:	03080000 dc0b2710 7b85f2d9 1f31e7da     .....'.....{..1.
 8028e38:	67483888 12aa104c f8f2bf93 158a3fef     .8HgL........?..
 8028e48:	df8a1c43 0000b79b 00000000 00000000     C...............
	...
 8028e84:	b9100000 5f4e8ab9 b7d27bbc a86c30f7     ......N_.{...0l.
 8028e94:	0011c608 00000000 00000000 00000000     ................
 8028ea4:	74626500 4345445b 665d3638 5f6c6c75     .ebt[DEC86]full_
 8028eb4:	00003638 00000000 00000000 00000000     86..............
 8028ec4:	00000000 6b100315 9aabe5a0 a8ebbaef     .......k........
 8028ed4:	acbc0bac 10d98386 f71c8bde b88542b9     .............B..
 8028ee4:	110e6359 75221ad1 00000000 00000000     Yc...."u........
	...
 8028f24:	5b71f910 4dd1bcb6 2f4201d8 f3192d9a     ..q[...M..B/.-..
 8028f34:	00000051 00000000 00000000 65000000     Q..............e
 8028f44:	445b7462 36384345 6c70735d 735f7469     bt[DEC86]split_s
 8028f54:	30706574 0036385f 00000000 00000000     tep0_86.........
 8028f64:	02050000 e5a06b10 baef9aab 0baca8eb     .....k..........
 8028f74:	8386acbc 8bde10d9 42b9f71c 6359b885     ...........B..Yc
 8028f84:	1ad1110e 00007522 00000000 00000000     ...."u..........
	...
 8028fe0:	445b7400 36384345 6c70735d 735f7469     .t[DEC86]split_s
 8028ff0:	31706574 0036385f 00000000 00000000     tep1_86.........
 8029000:	03100000 e5a06b10 baef9aab 0baca8eb     .....k..........
 8029010:	8386acbc 8bde10d9 42b9f71c 6359b885     ...........B..Yc
 8029020:	1ad1110e 00007522 00000000 00000000     ...."u..........
	...
 802905c:	f9100000 bcb65b71 01d84dd1 2d9a2f42     ....q[...M..B/.-
 802906c:	0051f319 00000000 00000000 00000000     ..Q.............
 802907c:	74626500 4345445b 735d3638 74696c70     .ebt[DEC86]split
 802908c:	74696e69 6574735f 385f3070 00000036     init_step0_86...
 802909c:	00000000 6b100201 9aabe5a0 a8ebbaef     .......k........
 80290ac:	acbc0bac 10d98386 f71c8bde b88542b9     .............B..
 80290bc:	110e6359 75221ad1 00000000 00000000     Yc...."u........
	...
 8029118:	74000000 4345445b 735d3638 74696c70     ...t[DEC86]split
 8029128:	74696e69 6574735f 385f3170 00000036     init_step1_86...
 8029138:	00000000 6b100204 9aabe5a0 a8ebbaef     .......k........
 8029148:	acbc0bac 10d98386 f71c8bde b88542b9     .............B..
 8029158:	110e6359 75221ad1 00000000 00000000     Yc...."u........
	...
 80291b4:	74000000 4345445b 735d3638 74696c70     ...t[DEC86]split
 80291c4:	74696e69 6574735f 385f3270 00000036     init_step2_86...
 80291d4:	00000000 6b100310 9aabe5a0 a8ebbaef     .......k........
 80291e4:	acbc0bac 10d98386 f71c8bde b88542b9     .............B..
 80291f4:	110e6359 75221ad1 00000000 00000000     Yc...."u........
	...
 8029234:	5b71f910 4dd1bcb6 2f4201d8 f3192d9a     ..q[...M..B/.-..
 8029244:	00000051 00000000 00000000 65000000     Q..............e
 8029254:	455b7462 3738434e 6c75665d 37385f6c     bt[ENC87]full_87
	...
 8029274:	030b0000 ad935c10 b22941e4 422fab43     .....\...A).C./B
 8029284:	3bb435f1 6190105e 81752889 117a9ae5     .5.;^..a.(u...z.
 8029294:	37127a27 0000c5b6 00000000 00000000     'z.7............
	...
 80292d0:	8c100000 d40d3269 e3593f04 244293ac     ....i2...?Y...B$
 80292e0:	00ee951f 00000000 00000000 00000000     ................
 80292f0:	74626500 434e455b 735d3738 74696c70     .ebt[ENC87]split
 8029300:	6574735f 385f3070 00000037 00000000     _step0_87.......
 8029310:	00000000 5c100203 41e4ad93 ab43b229     .......\...A).C.
 8029320:	35f1422f 105e3bb4 28896190 9ae58175     /B.5.;^..a.(u...
 8029330:	7a27117a c5b63712 00000000 00000000     z.'z.7..........
	...
 802938c:	74000000 434e455b 735d3738 74696c70     ...t[ENC87]split
 802939c:	6574735f 385f3170 00000037 00000000     _step1_87.......
 80293ac:	00000000 5c100308 41e4ad93 ab43b229     .......\...A).C.
 80293bc:	35f1422f 105e3bb4 28896190 9ae58175     /B.5.;^..a.(u...
 80293cc:	7a27117a c5b63712 00000000 00000000     z.'z.7..........
	...
 802940c:	32698c10 3f04d40d 93ace359 951f2442     ..i2...?Y...B$..
 802941c:	000000ee 00000000 00000000 65000000     ...............e
 802942c:	455b7462 3738434e 6c70735d 6e697469     bt[ENC87]splitin
 802943c:	735f7469 30706574 0037385f 00000000     it_step0_87.....
 802944c:	02010000 ad935c10 b22941e4 422fab43     .....\...A).C./B
 802945c:	3bb435f1 6190105e 81752889 117a9ae5     .5.;^..a.(u...z.
 802946c:	37127a27 0000c5b6 00000000 00000000     'z.7............
	...
 80294c8:	455b7400 3738434e 6c70735d 6e697469     .t[ENC87]splitin
 80294d8:	735f7469 31706574 0037385f 00000000     it_step1_87.....
 80294e8:	02020000 ad935c10 b22941e4 422fab43     .....\...A).C./B
 80294f8:	3bb435f1 6190105e 81752889 117a9ae5     .5.;^..a.(u...z.
 8029508:	37127a27 0000c5b6 00000000 00000000     'z.7............
	...
 8029564:	455b7400 3738434e 6c70735d 6e697469     .t[ENC87]splitin
 8029574:	735f7469 32706574 0037385f 00000000     it_step2_87.....
 8029584:	03080000 ad935c10 b22941e4 422fab43     .....\...A).C./B
 8029594:	3bb435f1 6190105e 81752889 117a9ae5     .5.;^..a.(u...z.
 80295a4:	37127a27 0000c5b6 00000000 00000000     'z.7............
	...
 80295e0:	8c100000 d40d3269 e3593f04 244293ac     ....i2...?Y...B$
 80295f0:	00ee951f 00000000 00000000 00000000     ................
 8029600:	74626500 4345445b 665d3738 5f6c6c75     .ebt[DEC87]full_
 8029610:	00003738 00000000 00000000 00000000     87..............
 8029620:	00000000 5d100315 fd6e140c e19b3909     .......]..n..9..
 8029630:	6d226a5f 10dcade5 7f62f251 af7365d9     _j"m....Q.b..es.
 8029640:	8dd3c0fa 3beacbbd 00000000 00000000     .......;........
	...
 8029680:	eb998b10 aab7b51e 6a95f5de 407defc7     ...........j..}@
	...
 802969c:	65000000 445b7462 37384345 6c70735d     ...ebt[DEC87]spl
 80296ac:	735f7469 30706574 0037385f 00000000     it_step0_87.....
 80296bc:	00000000 02050000 140c5d10 3909fd6e     .........]..n..9
 80296cc:	6a5fe19b ade56d22 f25110dc 65d97f62     .._j"m....Q.b..e
 80296dc:	c0faaf73 cbbd8dd3 00003bea 00000000     s........;......
	...
 802973c:	445b7400 37384345 6c70735d 735f7469     .t[DEC87]split_s
 802974c:	31706574 0037385f 00000000 00000000     tep1_87.........
 802975c:	03100000 140c5d10 3909fd6e 6a5fe19b     .....]..n..9.._j
 802976c:	ade56d22 f25110dc 65d97f62 c0faaf73     "m....Q.b..es...
 802977c:	cbbd8dd3 00003bea 00000000 00000000     .....;..........
	...
 80297b8:	8b100000 b51eeb99 f5deaab7 efc76a95     .............j..
 80297c8:	0000407d 00000000 00000000 00000000     }@..............
 80297d8:	74626500 4345445b 735d3738 74696c70     .ebt[DEC87]split
 80297e8:	74696e69 6574735f 385f3070 00000037     init_step0_87...
 80297f8:	00000000 5d100201 fd6e140c e19b3909     .......]..n..9..
 8029808:	6d226a5f 10dcade5 7f62f251 af7365d9     _j"m....Q.b..es.
 8029818:	8dd3c0fa 3beacbbd 00000000 00000000     .......;........
	...
 8029874:	74000000 4345445b 735d3738 74696c70     ...t[DEC87]split
 8029884:	74696e69 6574735f 385f3170 00000037     init_step1_87...
 8029894:	00000000 5d100204 fd6e140c e19b3909     .......]..n..9..
 80298a4:	6d226a5f 10dcade5 7f62f251 af7365d9     _j"m....Q.b..es.
 80298b4:	8dd3c0fa 3beacbbd 00000000 00000000     .......;........
	...
 8029910:	74000000 4345445b 735d3738 74696c70     ...t[DEC87]split
 8029920:	74696e69 6574735f 385f3270 00000037     init_step2_87...
 8029930:	00000000 5d100310 fd6e140c e19b3909     .......]..n..9..
 8029940:	6d226a5f 10dcade5 7f62f251 af7365d9     _j"m....Q.b..es.
 8029950:	8dd3c0fa 3beacbbd 00000000 00000000     .......;........
	...
 8029990:	eb998b10 aab7b51e 6a95f5de 407defc7     ...........j..}@
	...
 80299ac:	65000000 455b7462 3838434e 6c75665d     ...ebt[ENC88]ful
 80299bc:	38385f6c 00000000 00000000 00000000     l_88............
 80299cc:	00000000 030b0000 ee859b10 d4be2144     ............D!..
 80299dc:	ffacb6f9 74dcd5f8 fa9a1037 dec45c1f     .......t7....\..
 80299ec:	e55d0ae7 143d119d 00002fe1 00000000     ..]...=../......
	...
 8029a2c:	ce100000 6e254324 f3e62fc9 69643fbc     ....$C%n./...?di
 8029a3c:	00743202 00000000 00000000 00000000     .2t.............
 8029a4c:	74626500 434e455b 735d3838 74696c70     .ebt[ENC88]split
 8029a5c:	6574735f 385f3070 00000038 00000000     _step0_88.......
 8029a6c:	00000000 9b100203 2144ee85 b6f9d4be     ..........D!....
 8029a7c:	d5f8ffac 103774dc 5c1ffa9a 0ae7dec4     .....t7....\....
 8029a8c:	119de55d 2fe1143d 00000000 00000000     ]...=../........
	...
 8029ae8:	74000000 434e455b 735d3838 74696c70     ...t[ENC88]split
 8029af8:	6574735f 385f3170 00000038 00000000     _step1_88.......
 8029b08:	00000000 9b100308 2144ee85 b6f9d4be     ..........D!....
 8029b18:	d5f8ffac 103774dc 5c1ffa9a 0ae7dec4     .....t7....\....
 8029b28:	119de55d 2fe1143d 00000000 00000000     ]...=../........
	...
 8029b68:	4324ce10 2fc96e25 3fbcf3e6 32026964     ..$C%n./...?di.2
 8029b78:	00000074 00000000 00000000 65000000     t..............e
 8029b88:	455b7462 3838434e 6c70735d 6e697469     bt[ENC88]splitin
 8029b98:	735f7469 30706574 0038385f 00000000     it_step0_88.....
 8029ba8:	02010000 ee859b10 d4be2144 ffacb6f9     ........D!......
 8029bb8:	74dcd5f8 fa9a1037 dec45c1f e55d0ae7     ...t7....\....].
 8029bc8:	143d119d 00002fe1 00000000 00000000     ..=../..........
	...
 8029c24:	455b7400 3838434e 6c70735d 6e697469     .t[ENC88]splitin
 8029c34:	735f7469 31706574 0038385f 00000000     it_step1_88.....
 8029c44:	02020000 ee859b10 d4be2144 ffacb6f9     ........D!......
 8029c54:	74dcd5f8 fa9a1037 dec45c1f e55d0ae7     ...t7....\....].
 8029c64:	143d119d 00002fe1 00000000 00000000     ..=../..........
	...
 8029cc0:	455b7400 3838434e 6c70735d 6e697469     .t[ENC88]splitin
 8029cd0:	735f7469 32706574 0038385f 00000000     it_step2_88.....
 8029ce0:	03080000 ee859b10 d4be2144 ffacb6f9     ........D!......
 8029cf0:	74dcd5f8 fa9a1037 dec45c1f e55d0ae7     ...t7....\....].
 8029d00:	143d119d 00002fe1 00000000 00000000     ..=../..........
	...
 8029d3c:	ce100000 6e254324 f3e62fc9 69643fbc     ....$C%n./...?di
 8029d4c:	00743202 00000000 00000000 00000000     .2t.............
 8029d5c:	74626500 4345445b 665d3838 5f6c6c75     .ebt[DEC88]full_
 8029d6c:	00003838 00000000 00000000 00000000     88..............
 8029d7c:	00000000 3f100315 1143b9ff 8f944365     .......?..C.eC..
 8029d8c:	b07bef22 10e4e03e 48f4ed8d 704b2ee2     ".{.>......H..Kp
 8029d9c:	c07342e1 f63fbf51 00000000 00000000     .Bs.Q.?.........
	...
 8029ddc:	78230810 7e87d47b 71fc2bdd 94d2a9dd     ..#x{..~.+.q....
 8029dec:	00000076 00000000 00000000 65000000     v..............e
 8029dfc:	445b7462 38384345 6c70735d 735f7469     bt[DEC88]split_s
 8029e0c:	30706574 0038385f 00000000 00000000     tep0_88.........
 8029e1c:	02050000 b9ff3f10 43651143 ef228f94     .....?..C.eC..".
 8029e2c:	e03eb07b ed8d10e4 2ee248f4 42e1704b     {.>......H..Kp.B
 8029e3c:	bf51c073 0000f63f 00000000 00000000     s.Q.?...........
	...
 8029e98:	445b7400 38384345 6c70735d 735f7469     .t[DEC88]split_s
 8029ea8:	31706574 0038385f 00000000 00000000     tep1_88.........
 8029eb8:	03100000 b9ff3f10 43651143 ef228f94     .....?..C.eC..".
 8029ec8:	e03eb07b ed8d10e4 2ee248f4 42e1704b     {.>......H..Kp.B
 8029ed8:	bf51c073 0000f63f 00000000 00000000     s.Q.?...........
	...
 8029f14:	08100000 d47b7823 2bdd7e87 a9dd71fc     ....#x{..~.+.q..
 8029f24:	007694d2 00000000 00000000 00000000     ..v.............
 8029f34:	74626500 4345445b 735d3838 74696c70     .ebt[DEC88]split
 8029f44:	74696e69 6574735f 385f3070 00000038     init_step0_88...
 8029f54:	00000000 3f100201 1143b9ff 8f944365     .......?..C.eC..
 8029f64:	b07bef22 10e4e03e 48f4ed8d 704b2ee2     ".{.>......H..Kp
 8029f74:	c07342e1 f63fbf51 00000000 00000000     .Bs.Q.?.........
	...
 8029fd0:	74000000 4345445b 735d3838 74696c70     ...t[DEC88]split
 8029fe0:	74696e69 6574735f 385f3170 00000038     init_step1_88...
 8029ff0:	00000000 3f100204 1143b9ff 8f944365     .......?..C.eC..
 802a000:	b07bef22 10e4e03e 48f4ed8d 704b2ee2     ".{.>......H..Kp
 802a010:	c07342e1 f63fbf51 00000000 00000000     .Bs.Q.?.........
	...
 802a06c:	74000000 4345445b 735d3838 74696c70     ...t[DEC88]split
 802a07c:	74696e69 6574735f 385f3270 00000038     init_step2_88...
 802a08c:	00000000 3f100310 1143b9ff 8f944365     .......?..C.eC..
 802a09c:	b07bef22 10e4e03e 48f4ed8d 704b2ee2     ".{.>......H..Kp
 802a0ac:	c07342e1 f63fbf51 00000000 00000000     .Bs.Q.?.........
	...
 802a0ec:	78230810 7e87d47b 71fc2bdd 94d2a9dd     ..#x{..~.+.q....
 802a0fc:	00000076 00000000 00000000 65000000     v..............e
 802a10c:	455b7462 3938434e 6c75665d 39385f6c     bt[ENC89]full_89
	...
 802a12c:	030b0000 82dab710 0194e8c8 7942a4b5     ..............By
 802a13c:	f97bfda7 86ad10b8 34fd67a6 553edcba     ..{......g.4..>U
 802a14c:	22bf38f4 00008184 00000000 00000000     .8."............
	...
 802a188:	d3100000 152f8e72 acb632d9 67f2060b     ....r./..2.....g
 802a198:	009b47a1 00000000 00000000 00000000     .G..............
 802a1a8:	74626500 434e455b 735d3938 74696c70     .ebt[ENC89]split
 802a1b8:	6574735f 385f3070 00000039 00000000     _step0_89.......
 802a1c8:	00000000 b7100203 e8c882da a4b50194     ................
 802a1d8:	fda77942 10b8f97b 67a686ad dcba34fd     By..{......g.4..
 802a1e8:	38f4553e 818422bf 00000000 00000000     >U.8."..........
	...
 802a244:	74000000 434e455b 735d3938 74696c70     ...t[ENC89]split
 802a254:	6574735f 385f3170 00000039 00000000     _step1_89.......
 802a264:	00000000 b7100308 e8c882da a4b50194     ................
 802a274:	fda77942 10b8f97b 67a686ad dcba34fd     By..{......g.4..
 802a284:	38f4553e 818422bf 00000000 00000000     >U.8."..........
	...
 802a2c4:	8e72d310 32d9152f 060bacb6 47a167f2     ..r./..2.....g.G
 802a2d4:	0000009b 00000000 00000000 65000000     ...............e
 802a2e4:	455b7462 3938434e 6c70735d 6e697469     bt[ENC89]splitin
 802a2f4:	735f7469 30706574 0039385f 00000000     it_step0_89.....
 802a304:	02010000 82dab710 0194e8c8 7942a4b5     ..............By
 802a314:	f97bfda7 86ad10b8 34fd67a6 553edcba     ..{......g.4..>U
 802a324:	22bf38f4 00008184 00000000 00000000     .8."............
	...
 802a380:	455b7400 3938434e 6c70735d 6e697469     .t[ENC89]splitin
 802a390:	735f7469 31706574 0039385f 00000000     it_step1_89.....
 802a3a0:	02020000 82dab710 0194e8c8 7942a4b5     ..............By
 802a3b0:	f97bfda7 86ad10b8 34fd67a6 553edcba     ..{......g.4..>U
 802a3c0:	22bf38f4 00008184 00000000 00000000     .8."............
	...
 802a41c:	455b7400 3938434e 6c70735d 6e697469     .t[ENC89]splitin
 802a42c:	735f7469 32706574 0039385f 00000000     it_step2_89.....
 802a43c:	03080000 82dab710 0194e8c8 7942a4b5     ..............By
 802a44c:	f97bfda7 86ad10b8 34fd67a6 553edcba     ..{......g.4..>U
 802a45c:	22bf38f4 00008184 00000000 00000000     .8."............
	...
 802a498:	d3100000 152f8e72 acb632d9 67f2060b     ....r./..2.....g
 802a4a8:	009b47a1 00000000 00000000 00000000     .G..............
 802a4b8:	74626500 4345445b 665d3938 5f6c6c75     .ebt[DEC89]full_
 802a4c8:	00003938 00000000 00000000 00000000     89..............
 802a4d8:	00000000 92100315 7d69aa73 b95de290     ........s.i}..].
 802a4e8:	2be587a0 10626a00 9d829756 ff666a8f     ...+.jb.V....jf.
 802a4f8:	b77a0634 76a851b6 00000000 00000000     4.z..Q.v........
	...
 802a538:	28678310 c7c85a21 cf1bf987 1d5c0fd3     ..g(!Z........\.
 802a548:	000000a0 00000000 00000000 65000000     ...............e
 802a558:	445b7462 39384345 6c70735d 735f7469     bt[DEC89]split_s
 802a568:	30706574 0039385f 00000000 00000000     tep0_89.........
 802a578:	02050000 aa739210 e2907d69 87a0b95d     ......s.i}..]...
 802a588:	6a002be5 97561062 6a8f9d82 0634ff66     .+.jb.V....jf.4.
 802a598:	51b6b77a 000076a8 00000000 00000000     z..Q.v..........
	...
 802a5f4:	445b7400 39384345 6c70735d 735f7469     .t[DEC89]split_s
 802a604:	31706574 0039385f 00000000 00000000     tep1_89.........
 802a614:	03100000 aa739210 e2907d69 87a0b95d     ......s.i}..]...
 802a624:	6a002be5 97561062 6a8f9d82 0634ff66     .+.jb.V....jf.4.
 802a634:	51b6b77a 000076a8 00000000 00000000     z..Q.v..........
	...
 802a670:	83100000 5a212867 f987c7c8 0fd3cf1b     ....g(!Z........
 802a680:	00a01d5c 00000000 00000000 00000000     \...............
 802a690:	74626500 4345445b 735d3938 74696c70     .ebt[DEC89]split
 802a6a0:	74696e69 6574735f 385f3070 00000039     init_step0_89...
 802a6b0:	00000000 92100201 7d69aa73 b95de290     ........s.i}..].
 802a6c0:	2be587a0 10626a00 9d829756 ff666a8f     ...+.jb.V....jf.
 802a6d0:	b77a0634 76a851b6 00000000 00000000     4.z..Q.v........
	...
 802a72c:	74000000 4345445b 735d3938 74696c70     ...t[DEC89]split
 802a73c:	74696e69 6574735f 385f3170 00000039     init_step1_89...
 802a74c:	00000000 92100204 7d69aa73 b95de290     ........s.i}..].
 802a75c:	2be587a0 10626a00 9d829756 ff666a8f     ...+.jb.V....jf.
 802a76c:	b77a0634 76a851b6 00000000 00000000     4.z..Q.v........
	...
 802a7c8:	74000000 4345445b 735d3938 74696c70     ...t[DEC89]split
 802a7d8:	74696e69 6574735f 385f3270 00000039     init_step2_89...
 802a7e8:	00000000 92100310 7d69aa73 b95de290     ........s.i}..].
 802a7f8:	2be587a0 10626a00 9d829756 ff666a8f     ...+.jb.V....jf.
 802a808:	b77a0634 76a851b6 00000000 00000000     4.z..Q.v........
	...
 802a848:	28678310 c7c85a21 cf1bf987 1d5c0fd3     ..g(!Z........\.
 802a858:	000000a0 00000000 00000000 65000000     ...............e
 802a868:	455b7462 3039434e 6c75665d 30395f6c     bt[ENC90]full_90
	...
 802a888:	030b0000 b7a23c10 20d826c4 a85555ed     .....<...&. .UU.
 802a898:	83b79b55 339a1074 29c3271c 65ad4797     U...t..3.'.).G.e
 802a8a8:	87649f6a 0000e9e6 00000000 00000000     j.d.............
	...
 802a8e4:	46100000 495d61e4 a4e35c1e f8a1e807     ...F.a]I.\......
 802a8f4:	00b59ff2 00000000 00000000 00000000     ................
 802a904:	74626500 434e455b 735d3039 74696c70     .ebt[ENC90]split
 802a914:	6574735f 395f3070 00000030 00000000     _step0_90.......
 802a924:	00000000 3c100203 26c4b7a2 55ed20d8     .......<...&. .U
 802a934:	9b55a855 107483b7 271c339a 479729c3     U.U...t..3.'.).G
 802a944:	9f6a65ad e9e68764 00000000 00000000     .ej.d...........
	...
 802a9a0:	74000000 434e455b 735d3039 74696c70     ...t[ENC90]split
 802a9b0:	6574735f 395f3170 00000030 00000000     _step1_90.......
 802a9c0:	00000000 3c100308 26c4b7a2 55ed20d8     .......<...&. .U
 802a9d0:	9b55a855 107483b7 271c339a 479729c3     U.U...t..3.'.).G
 802a9e0:	9f6a65ad e9e68764 00000000 00000000     .ej.d...........
	...
 802aa20:	61e44610 5c1e495d e807a4e3 9ff2f8a1     .F.a]I.\........
 802aa30:	000000b5 00000000 00000000 65000000     ...............e
 802aa40:	455b7462 3039434e 6c70735d 6e697469     bt[ENC90]splitin
 802aa50:	735f7469 30706574 0030395f 00000000     it_step0_90.....
 802aa60:	02010000 b7a23c10 20d826c4 a85555ed     .....<...&. .UU.
 802aa70:	83b79b55 339a1074 29c3271c 65ad4797     U...t..3.'.).G.e
 802aa80:	87649f6a 0000e9e6 00000000 00000000     j.d.............
	...
 802aadc:	455b7400 3039434e 6c70735d 6e697469     .t[ENC90]splitin
 802aaec:	735f7469 31706574 0030395f 00000000     it_step1_90.....
 802aafc:	02020000 b7a23c10 20d826c4 a85555ed     .....<...&. .UU.
 802ab0c:	83b79b55 339a1074 29c3271c 65ad4797     U...t..3.'.).G.e
 802ab1c:	87649f6a 0000e9e6 00000000 00000000     j.d.............
	...
 802ab78:	455b7400 3039434e 6c70735d 6e697469     .t[ENC90]splitin
 802ab88:	735f7469 32706574 0030395f 00000000     it_step2_90.....
 802ab98:	03080000 b7a23c10 20d826c4 a85555ed     .....<...&. .UU.
 802aba8:	83b79b55 339a1074 29c3271c 65ad4797     U...t..3.'.).G.e
 802abb8:	87649f6a 0000e9e6 00000000 00000000     j.d.............
	...
 802abf4:	46100000 495d61e4 a4e35c1e f8a1e807     ...F.a]I.\......
 802ac04:	00b59ff2 00000000 00000000 00000000     ................
 802ac14:	74626500 4345445b 665d3039 5f6c6c75     .ebt[DEC90]full_
 802ac24:	00003039 00000000 00000000 00000000     90..............
 802ac34:	00000000 d0100315 1667a89e edec8935     ..........g.5...
 802ac44:	8ca7b7f4 100a8c80 4ed5e38c 2d598e59     ...........NY.Y-
 802ac54:	9bbd2ccc 49d4fe39 00000000 00000000     .,..9..I........
	...
 802ac94:	30eb5510 553dce7f 7f3012c2 c8d624fc     .U.0..=U..0..$..
 802aca4:	00000037 00000000 00000000 65000000     7..............e
 802acb4:	445b7462 30394345 6c70735d 735f7469     bt[DEC90]split_s
 802acc4:	30706574 0030395f 00000000 00000000     tep0_90.........
 802acd4:	02050000 a89ed010 89351667 b7f4edec     ........g.5.....
 802ace4:	8c808ca7 e38c100a 8e594ed5 2ccc2d59     .........NY.Y-.,
 802acf4:	fe399bbd 000049d4 00000000 00000000     ..9..I..........
	...
 802ad50:	445b7400 30394345 6c70735d 735f7469     .t[DEC90]split_s
 802ad60:	31706574 0030395f 00000000 00000000     tep1_90.........
 802ad70:	03100000 a89ed010 89351667 b7f4edec     ........g.5.....
 802ad80:	8c808ca7 e38c100a 8e594ed5 2ccc2d59     .........NY.Y-.,
 802ad90:	fe399bbd 000049d4 00000000 00000000     ..9..I..........
	...
 802adcc:	55100000 ce7f30eb 12c2553d 24fc7f30     ...U.0..=U..0..$
 802addc:	0037c8d6 00000000 00000000 00000000     ..7.............
 802adec:	74626500 4345445b 735d3039 74696c70     .ebt[DEC90]split
 802adfc:	74696e69 6574735f 395f3070 00000030     init_step0_90...
 802ae0c:	00000000 d0100201 1667a89e edec8935     ..........g.5...
 802ae1c:	8ca7b7f4 100a8c80 4ed5e38c 2d598e59     ...........NY.Y-
 802ae2c:	9bbd2ccc 49d4fe39 00000000 00000000     .,..9..I........
	...
 802ae88:	74000000 4345445b 735d3039 74696c70     ...t[DEC90]split
 802ae98:	74696e69 6574735f 395f3170 00000030     init_step1_90...
 802aea8:	00000000 d0100204 1667a89e edec8935     ..........g.5...
 802aeb8:	8ca7b7f4 100a8c80 4ed5e38c 2d598e59     ...........NY.Y-
 802aec8:	9bbd2ccc 49d4fe39 00000000 00000000     .,..9..I........
	...
 802af24:	74000000 4345445b 735d3039 74696c70     ...t[DEC90]split
 802af34:	74696e69 6574735f 395f3270 00000030     init_step2_90...
 802af44:	00000000 d0100310 1667a89e edec8935     ..........g.5...
 802af54:	8ca7b7f4 100a8c80 4ed5e38c 2d598e59     ...........NY.Y-
 802af64:	9bbd2ccc 49d4fe39 00000000 00000000     .,..9..I........
	...
 802afa4:	30eb5510 553dce7f 7f3012c2 c8d624fc     .U.0..=U..0..$..
 802afb4:	00000037 00000000 00000000 65000000     7..............e
 802afc4:	455b7462 3139434e 6c75665d 31395f6c     bt[ENC91]full_91
	...
 802afe4:	030b0000 6cd01710 236a9546 98b4d533     .......lF.j#3...
 802aff4:	540492d8 acaf10cc 71dd0842 8331801e     ...T....B..q..1.
 802b004:	012b6382 000064fe 00000000 00000000     .c+..d..........
	...
 802b040:	73100000 add9996f b4cd9fee 7da88f89     ...so..........}
 802b050:	00d26b5a 00000000 00000000 00000000     Zk..............
 802b060:	74626500 434e455b 735d3139 74696c70     .ebt[ENC91]split
 802b070:	6574735f 395f3070 00000031 00000000     _step0_91.......
 802b080:	00000000 17100203 95466cd0 d533236a     .........lF.j#3.
 802b090:	92d898b4 10cc5404 0842acaf 801e71dd     .....T....B..q..
 802b0a0:	63828331 64fe012b 00000000 00000000     1..c+..d........
	...
 802b0fc:	74000000 434e455b 735d3139 74696c70     ...t[ENC91]split
 802b10c:	6574735f 395f3170 00000031 00000000     _step1_91.......
 802b11c:	00000000 17100308 95466cd0 d533236a     .........lF.j#3.
 802b12c:	92d898b4 10cc5404 0842acaf 801e71dd     .....T....B..q..
 802b13c:	63828331 64fe012b 00000000 00000000     1..c+..d........
	...
 802b17c:	996f7310 9feeadd9 8f89b4cd 6b5a7da8     .so..........}Zk
 802b18c:	000000d2 00000000 00000000 65000000     ...............e
 802b19c:	455b7462 3139434e 6c70735d 6e697469     bt[ENC91]splitin
 802b1ac:	735f7469 30706574 0031395f 00000000     it_step0_91.....
 802b1bc:	02010000 6cd01710 236a9546 98b4d533     .......lF.j#3...
 802b1cc:	540492d8 acaf10cc 71dd0842 8331801e     ...T....B..q..1.
 802b1dc:	012b6382 000064fe 00000000 00000000     .c+..d..........
	...
 802b238:	455b7400 3139434e 6c70735d 6e697469     .t[ENC91]splitin
 802b248:	735f7469 31706574 0031395f 00000000     it_step1_91.....
 802b258:	02020000 6cd01710 236a9546 98b4d533     .......lF.j#3...
 802b268:	540492d8 acaf10cc 71dd0842 8331801e     ...T....B..q..1.
 802b278:	012b6382 000064fe 00000000 00000000     .c+..d..........
	...
 802b2d4:	455b7400 3139434e 6c70735d 6e697469     .t[ENC91]splitin
 802b2e4:	735f7469 32706574 0031395f 00000000     it_step2_91.....
 802b2f4:	03080000 6cd01710 236a9546 98b4d533     .......lF.j#3...
 802b304:	540492d8 acaf10cc 71dd0842 8331801e     ...T....B..q..1.
 802b314:	012b6382 000064fe 00000000 00000000     .c+..d..........
	...
 802b350:	73100000 add9996f b4cd9fee 7da88f89     ...so..........}
 802b360:	00d26b5a 00000000 00000000 00000000     Zk..............
 802b370:	74626500 4345445b 665d3139 5f6c6c75     .ebt[DEC91]full_
 802b380:	00003139 00000000 00000000 00000000     91..............
 802b390:	00000000 c6100315 020a9dd4 5cecdc02     ...............\
 802b3a0:	a14f786c 106b82fb 4ce53929 31e41eeb     lxO...k.)9.L...1
 802b3b0:	3a7f654d 08a2e838 00000000 00000000     Me.:8...........
	...
 802b3f0:	63618810 951b9617 7a946505 b40fcc85     ..ac.....e.z....
 802b400:	000000c6 00000000 00000000 65000000     ...............e
 802b410:	445b7462 31394345 6c70735d 735f7469     bt[DEC91]split_s
 802b420:	30706574 0031395f 00000000 00000000     tep0_91.........
 802b430:	02050000 9dd4c610 dc02020a 786c5cec     .............\lx
 802b440:	82fba14f 3929106b 1eeb4ce5 654d31e4     O...k.)9.L...1Me
 802b450:	e8383a7f 000008a2 00000000 00000000     .:8.............
	...
 802b4ac:	445b7400 31394345 6c70735d 735f7469     .t[DEC91]split_s
 802b4bc:	31706574 0031395f 00000000 00000000     tep1_91.........
 802b4cc:	03100000 9dd4c610 dc02020a 786c5cec     .............\lx
 802b4dc:	82fba14f 3929106b 1eeb4ce5 654d31e4     O...k.)9.L...1Me
 802b4ec:	e8383a7f 000008a2 00000000 00000000     .:8.............
	...
 802b528:	88100000 96176361 6505951b cc857a94     ....ac.....e.z..
 802b538:	00c6b40f 00000000 00000000 00000000     ................
 802b548:	74626500 4345445b 735d3139 74696c70     .ebt[DEC91]split
 802b558:	74696e69 6574735f 395f3070 00000031     init_step0_91...
 802b568:	00000000 c6100201 020a9dd4 5cecdc02     ...............\
 802b578:	a14f786c 106b82fb 4ce53929 31e41eeb     lxO...k.)9.L...1
 802b588:	3a7f654d 08a2e838 00000000 00000000     Me.:8...........
	...
 802b5e4:	74000000 4345445b 735d3139 74696c70     ...t[DEC91]split
 802b5f4:	74696e69 6574735f 395f3170 00000031     init_step1_91...
 802b604:	00000000 c6100204 020a9dd4 5cecdc02     ...............\
 802b614:	a14f786c 106b82fb 4ce53929 31e41eeb     lxO...k.)9.L...1
 802b624:	3a7f654d 08a2e838 00000000 00000000     Me.:8...........
	...
 802b680:	74000000 4345445b 735d3139 74696c70     ...t[DEC91]split
 802b690:	74696e69 6574735f 395f3270 00000031     init_step2_91...
 802b6a0:	00000000 c6100310 020a9dd4 5cecdc02     ...............\
 802b6b0:	a14f786c 106b82fb 4ce53929 31e41eeb     lxO...k.)9.L...1
 802b6c0:	3a7f654d 08a2e838 00000000 00000000     Me.:8...........
	...
 802b700:	63618810 951b9617 7a946505 b40fcc85     ..ac.....e.z....
 802b710:	000000c6 00000000 00000000 65000000     ...............e
 802b720:	455b7462 3239434e 6c75665d 32395f6c     bt[ENC92]full_92
	...
 802b740:	030b0000 c2922210 d9dc5d7a 9e7593e8     ....."..z]....u.
 802b750:	80c92a5b 558d10ec 7f165149 37846ed1     [*.....UIQ...n.7
 802b760:	44aa9df1 0000254b 00000000 00000000     ...DK%..........
	...
 802b79c:	fd100000 1256f497 fd81d779 b2b38871     ......V.y...q...
 802b7ac:	0006fc29 00000000 00000000 00000000     )...............
 802b7bc:	74626500 434e455b 735d3239 74696c70     .ebt[ENC92]split
 802b7cc:	6574735f 395f3070 00000032 00000000     _step0_92.......
 802b7dc:	00000000 22100203 5d7ac292 93e8d9dc     ......."..z]....
 802b7ec:	2a5b9e75 10ec80c9 5149558d 6ed17f16     u.[*.....UIQ...n
 802b7fc:	9df13784 254b44aa 00000000 00000000     .7...DK%........
	...
 802b858:	74000000 434e455b 735d3239 74696c70     ...t[ENC92]split
 802b868:	6574735f 395f3170 00000032 00000000     _step1_92.......
 802b878:	00000000 22100308 5d7ac292 93e8d9dc     ......."..z]....
 802b888:	2a5b9e75 10ec80c9 5149558d 6ed17f16     u.[*.....UIQ...n
 802b898:	9df13784 254b44aa 00000000 00000000     .7...DK%........
	...
 802b8d8:	f497fd10 d7791256 8871fd81 fc29b2b3     ....V.y...q...).
 802b8e8:	00000006 00000000 00000000 65000000     ...............e
 802b8f8:	455b7462 3239434e 6c70735d 6e697469     bt[ENC92]splitin
 802b908:	735f7469 30706574 0032395f 00000000     it_step0_92.....
 802b918:	02010000 c2922210 d9dc5d7a 9e7593e8     ....."..z]....u.
 802b928:	80c92a5b 558d10ec 7f165149 37846ed1     [*.....UIQ...n.7
 802b938:	44aa9df1 0000254b 00000000 00000000     ...DK%..........
	...
 802b994:	455b7400 3239434e 6c70735d 6e697469     .t[ENC92]splitin
 802b9a4:	735f7469 31706574 0032395f 00000000     it_step1_92.....
 802b9b4:	02020000 c2922210 d9dc5d7a 9e7593e8     ....."..z]....u.
 802b9c4:	80c92a5b 558d10ec 7f165149 37846ed1     [*.....UIQ...n.7
 802b9d4:	44aa9df1 0000254b 00000000 00000000     ...DK%..........
	...
 802ba30:	455b7400 3239434e 6c70735d 6e697469     .t[ENC92]splitin
 802ba40:	735f7469 32706574 0032395f 00000000     it_step2_92.....
 802ba50:	03080000 c2922210 d9dc5d7a 9e7593e8     ....."..z]....u.
 802ba60:	80c92a5b 558d10ec 7f165149 37846ed1     [*.....UIQ...n.7
 802ba70:	44aa9df1 0000254b 00000000 00000000     ...DK%..........
	...
 802baac:	fd100000 1256f497 fd81d779 b2b38871     ......V.y...q...
 802babc:	0006fc29 00000000 00000000 00000000     )...............
 802bacc:	74626500 4345445b 665d3239 5f6c6c75     .ebt[DEC92]full_
 802badc:	00003239 00000000 00000000 00000000     92..............
 802baec:	00000000 83100315 59257969 02bdec8d     ........iy%Y....
 802bafc:	8a993faa 102a7764 bed4f871 0a12cd4b     .?..dw*.q...K...
 802bb0c:	a2bab6a3 6813f0ba 00000000 00000000     .......h........
	...
 802bb4c:	4cfbf210 31fca8f5 b6b180d3 adeecf37     ...L...1....7...
 802bb5c:	00000011 00000000 00000000 65000000     ...............e
 802bb6c:	445b7462 32394345 6c70735d 735f7469     bt[DEC92]split_s
 802bb7c:	30706574 0032395f 00000000 00000000     tep0_92.........
 802bb8c:	02050000 79698310 ec8d5925 3faa02bd     ......iy%Y.....?
 802bb9c:	77648a99 f871102a cd4bbed4 b6a30a12     ..dw*.q...K.....
 802bbac:	f0baa2ba 00006813 00000000 00000000     .....h..........
	...
 802bc08:	445b7400 32394345 6c70735d 735f7469     .t[DEC92]split_s
 802bc18:	31706574 0032395f 00000000 00000000     tep1_92.........
 802bc28:	03100000 79698310 ec8d5925 3faa02bd     ......iy%Y.....?
 802bc38:	77648a99 f871102a cd4bbed4 b6a30a12     ..dw*.q...K.....
 802bc48:	f0baa2ba 00006813 00000000 00000000     .....h..........
	...
 802bc84:	f2100000 a8f54cfb 80d331fc cf37b6b1     .....L...1....7.
 802bc94:	0011adee 00000000 00000000 00000000     ................
 802bca4:	74626500 4345445b 735d3239 74696c70     .ebt[DEC92]split
 802bcb4:	74696e69 6574735f 395f3070 00000032     init_step0_92...
 802bcc4:	00000000 83100201 59257969 02bdec8d     ........iy%Y....
 802bcd4:	8a993faa 102a7764 bed4f871 0a12cd4b     .?..dw*.q...K...
 802bce4:	a2bab6a3 6813f0ba 00000000 00000000     .......h........
	...
 802bd40:	74000000 4345445b 735d3239 74696c70     ...t[DEC92]split
 802bd50:	74696e69 6574735f 395f3170 00000032     init_step1_92...
 802bd60:	00000000 83100204 59257969 02bdec8d     ........iy%Y....
 802bd70:	8a993faa 102a7764 bed4f871 0a12cd4b     .?..dw*.q...K...
 802bd80:	a2bab6a3 6813f0ba 00000000 00000000     .......h........
	...
 802bddc:	74000000 4345445b 735d3239 74696c70     ...t[DEC92]split
 802bdec:	74696e69 6574735f 395f3270 00000032     init_step2_92...
 802bdfc:	00000000 83100310 59257969 02bdec8d     ........iy%Y....
 802be0c:	8a993faa 102a7764 bed4f871 0a12cd4b     .?..dw*.q...K...
 802be1c:	a2bab6a3 6813f0ba 00000000 00000000     .......h........
	...
 802be5c:	4cfbf210 31fca8f5 b6b180d3 adeecf37     ...L...1....7...
 802be6c:	00000011 00000000 00000000 65000000     ...............e
 802be7c:	455b7462 3339434e 6c75665d 33395f6c     bt[ENC93]full_93
	...
 802be9c:	030b0000 b4f49a10 9f337bf5 e67e0694     .........{3...~.
 802beac:	c10299be 98171011 f975535f c2b47c6e     ........_Su.n|..
 802bebc:	d7e1ab44 0000bf60 00000000 00000000     D...`...........
	...
 802bef8:	35100000 c897305c 9b9f0b22 da032d5d     ...5\0.."...]-..
 802bf08:	00aac265 00000000 00000000 00000000     e...............
 802bf18:	74626500 434e455b 735d3339 74696c70     .ebt[ENC93]split
 802bf28:	6574735f 395f3070 00000033 00000000     _step0_93.......
 802bf38:	00000000 9a100203 7bf5b4f4 06949f33     ...........{3...
 802bf48:	99bee67e 1011c102 535f9817 7c6ef975     ~........._Su.n|
 802bf58:	ab44c2b4 bf60d7e1 00000000 00000000     ..D...`.........
	...
 802bfb4:	74000000 434e455b 735d3339 74696c70     ...t[ENC93]split
 802bfc4:	6574735f 395f3170 00000033 00000000     _step1_93.......
 802bfd4:	00000000 9a100308 7bf5b4f4 06949f33     ...........{3...
 802bfe4:	99bee67e 1011c102 535f9817 7c6ef975     ~........._Su.n|
 802bff4:	ab44c2b4 bf60d7e1 00000000 00000000     ..D...`.........
	...
 802c034:	305c3510 0b22c897 2d5d9b9f c265da03     .5\0.."...]-..e.
 802c044:	000000aa 00000000 00000000 65000000     ...............e
 802c054:	455b7462 3339434e 6c70735d 6e697469     bt[ENC93]splitin
 802c064:	735f7469 30706574 0033395f 00000000     it_step0_93.....
 802c074:	02010000 b4f49a10 9f337bf5 e67e0694     .........{3...~.
 802c084:	c10299be 98171011 f975535f c2b47c6e     ........_Su.n|..
 802c094:	d7e1ab44 0000bf60 00000000 00000000     D...`...........
	...
 802c0f0:	455b7400 3339434e 6c70735d 6e697469     .t[ENC93]splitin
 802c100:	735f7469 31706574 0033395f 00000000     it_step1_93.....
 802c110:	02020000 b4f49a10 9f337bf5 e67e0694     .........{3...~.
 802c120:	c10299be 98171011 f975535f c2b47c6e     ........_Su.n|..
 802c130:	d7e1ab44 0000bf60 00000000 00000000     D...`...........
	...
 802c18c:	455b7400 3339434e 6c70735d 6e697469     .t[ENC93]splitin
 802c19c:	735f7469 32706574 0033395f 00000000     it_step2_93.....
 802c1ac:	03080000 b4f49a10 9f337bf5 e67e0694     .........{3...~.
 802c1bc:	c10299be 98171011 f975535f c2b47c6e     ........_Su.n|..
 802c1cc:	d7e1ab44 0000bf60 00000000 00000000     D...`...........
	...
 802c208:	35100000 c897305c 9b9f0b22 da032d5d     ...5\0.."...]-..
 802c218:	00aac265 00000000 00000000 00000000     e...............
 802c228:	74626500 4345445b 665d3339 5f6c6c75     .ebt[DEC93]full_
 802c238:	00003339 00000000 00000000 00000000     93..............
 802c248:	00000000 9f100315 e39fcdbf a9944a70     ............pJ..
 802c258:	2fda11d9 107529be 7b862744 1979d1a8     .../.)u.D'.{..y.
 802c268:	1e14870d 1fec8e2e 00000000 00000000     ................
	...
 802c2a8:	615f1a10 f205e4c6 afafc736 6c06b5e9     .._a....6......l
 802c2b8:	0000004e 00000000 00000000 65000000     N..............e
 802c2c8:	445b7462 33394345 6c70735d 735f7469     bt[DEC93]split_s
 802c2d8:	30706574 0033395f 00000000 00000000     tep0_93.........
 802c2e8:	02050000 cdbf9f10 4a70e39f 11d9a994     ..........pJ....
 802c2f8:	29be2fda 27441075 d1a87b86 870d1979     ./.)u.D'.{..y...
 802c308:	8e2e1e14 00001fec 00000000 00000000     ................
	...
 802c364:	445b7400 33394345 6c70735d 735f7469     .t[DEC93]split_s
 802c374:	31706574 0033395f 00000000 00000000     tep1_93.........
 802c384:	03100000 cdbf9f10 4a70e39f 11d9a994     ..........pJ....
 802c394:	29be2fda 27441075 d1a87b86 870d1979     ./.)u.D'.{..y...
 802c3a4:	8e2e1e14 00001fec 00000000 00000000     ................
	...
 802c3e0:	1a100000 e4c6615f c736f205 b5e9afaf     ...._a....6.....
 802c3f0:	004e6c06 00000000 00000000 00000000     .lN.............
 802c400:	74626500 4345445b 735d3339 74696c70     .ebt[DEC93]split
 802c410:	74696e69 6574735f 395f3070 00000033     init_step0_93...
 802c420:	00000000 9f100201 e39fcdbf a9944a70     ............pJ..
 802c430:	2fda11d9 107529be 7b862744 1979d1a8     .../.)u.D'.{..y.
 802c440:	1e14870d 1fec8e2e 00000000 00000000     ................
	...
 802c49c:	74000000 4345445b 735d3339 74696c70     ...t[DEC93]split
 802c4ac:	74696e69 6574735f 395f3170 00000033     init_step1_93...
 802c4bc:	00000000 9f100204 e39fcdbf a9944a70     ............pJ..
 802c4cc:	2fda11d9 107529be 7b862744 1979d1a8     .../.)u.D'.{..y.
 802c4dc:	1e14870d 1fec8e2e 00000000 00000000     ................
	...
 802c538:	74000000 4345445b 735d3339 74696c70     ...t[DEC93]split
 802c548:	74696e69 6574735f 395f3270 00000033     init_step2_93...
 802c558:	00000000 9f100310 e39fcdbf a9944a70     ............pJ..
 802c568:	2fda11d9 107529be 7b862744 1979d1a8     .../.)u.D'.{..y.
 802c578:	1e14870d 1fec8e2e 00000000 00000000     ................
	...
 802c5b8:	615f1a10 f205e4c6 afafc736 6c06b5e9     .._a....6......l
 802c5c8:	0000004e 00000000 00000000 65000000     N..............e
 802c5d8:	455b7462 3439434e 6c75665d 34395f6c     bt[ENC94]full_94
	...
 802c5f8:	030b0000 6d8c7610 40458aaf 137d0003     .....v.m..E@..}.
 802c608:	12dcd4fa 341e1063 92e24015 d548712c     ....c..4.@..,qH.
 802c618:	e4488a5a 000081bf 00000000 00000000     Z.H.............
	...
 802c654:	ef100000 36aff888 b18b7903 5bc934c3     .......6.y...4.[
 802c664:	00690037 00000000 00000000 00000000     7.i.............
 802c674:	74626500 434e455b 735d3439 74696c70     .ebt[ENC94]split
 802c684:	6574735f 395f3070 00000034 00000000     _step0_94.......
 802c694:	00000000 76100203 8aaf6d8c 00034045     .......v.m..E@..
 802c6a4:	d4fa137d 106312dc 4015341e 712c92e2     }.....c..4.@..,q
 802c6b4:	8a5ad548 81bfe448 00000000 00000000     H.Z.H...........
	...
 802c710:	74000000 434e455b 735d3439 74696c70     ...t[ENC94]split
 802c720:	6574735f 395f3170 00000034 00000000     _step1_94.......
 802c730:	00000000 76100308 8aaf6d8c 00034045     .......v.m..E@..
 802c740:	d4fa137d 106312dc 4015341e 712c92e2     }.....c..4.@..,q
 802c750:	8a5ad548 81bfe448 00000000 00000000     H.Z.H...........
	...
 802c790:	f888ef10 790336af 34c3b18b 00375bc9     .....6.y...4.[7.
 802c7a0:	00000069 00000000 00000000 65000000     i..............e
 802c7b0:	455b7462 3439434e 6c70735d 6e697469     bt[ENC94]splitin
 802c7c0:	735f7469 30706574 0034395f 00000000     it_step0_94.....
 802c7d0:	02010000 6d8c7610 40458aaf 137d0003     .....v.m..E@..}.
 802c7e0:	12dcd4fa 341e1063 92e24015 d548712c     ....c..4.@..,qH.
 802c7f0:	e4488a5a 000081bf 00000000 00000000     Z.H.............
	...
 802c84c:	455b7400 3439434e 6c70735d 6e697469     .t[ENC94]splitin
 802c85c:	735f7469 31706574 0034395f 00000000     it_step1_94.....
 802c86c:	02020000 6d8c7610 40458aaf 137d0003     .....v.m..E@..}.
 802c87c:	12dcd4fa 341e1063 92e24015 d548712c     ....c..4.@..,qH.
 802c88c:	e4488a5a 000081bf 00000000 00000000     Z.H.............
	...
 802c8e8:	455b7400 3439434e 6c70735d 6e697469     .t[ENC94]splitin
 802c8f8:	735f7469 32706574 0034395f 00000000     it_step2_94.....
 802c908:	03080000 6d8c7610 40458aaf 137d0003     .....v.m..E@..}.
 802c918:	12dcd4fa 341e1063 92e24015 d548712c     ....c..4.@..,qH.
 802c928:	e4488a5a 000081bf 00000000 00000000     Z.H.............
	...
 802c964:	ef100000 36aff888 b18b7903 5bc934c3     .......6.y...4.[
 802c974:	00690037 00000000 00000000 00000000     7.i.............
 802c984:	74626500 4345445b 665d3439 5f6c6c75     .ebt[DEC94]full_
 802c994:	00003439 00000000 00000000 00000000     94..............
 802c9a4:	00000000 a2100315 168382ce d1bc53a8     .............S..
 802c9b4:	db6acaea 10d22643 83e2d436 5d60def8     ..j.C&..6.....`]
 802c9c4:	b976cc86 3b08db80 00000000 00000000     ..v....;........
	...
 802ca04:	5d571010 dfe8a375 c6335491 80f09ede     ..W]u....T3.....
 802ca14:	000000dc 00000000 00000000 65000000     ...............e
 802ca24:	445b7462 34394345 6c70735d 735f7469     bt[DEC94]split_s
 802ca34:	30706574 0034395f 00000000 00000000     tep0_94.........
 802ca44:	02050000 82cea210 53a81683 caead1bc     ...........S....
 802ca54:	2643db6a d43610d2 def883e2 cc865d60     j.C&..6.....`]..
 802ca64:	db80b976 00003b08 00000000 00000000     v....;..........
	...
 802cac0:	445b7400 34394345 6c70735d 735f7469     .t[DEC94]split_s
 802cad0:	31706574 0034395f 00000000 00000000     tep1_94.........
 802cae0:	03100000 82cea210 53a81683 caead1bc     ...........S....
 802caf0:	2643db6a d43610d2 def883e2 cc865d60     j.C&..6.....`]..
 802cb00:	db80b976 00003b08 00000000 00000000     v....;..........
	...
 802cb3c:	10100000 a3755d57 5491dfe8 9edec633     ....W]u....T3...
 802cb4c:	00dc80f0 00000000 00000000 00000000     ................
 802cb5c:	74626500 4345445b 735d3439 74696c70     .ebt[DEC94]split
 802cb6c:	74696e69 6574735f 395f3070 00000034     init_step0_94...
 802cb7c:	00000000 a2100201 168382ce d1bc53a8     .............S..
 802cb8c:	db6acaea 10d22643 83e2d436 5d60def8     ..j.C&..6.....`]
 802cb9c:	b976cc86 3b08db80 00000000 00000000     ..v....;........
	...
 802cbf8:	74000000 4345445b 735d3439 74696c70     ...t[DEC94]split
 802cc08:	74696e69 6574735f 395f3170 00000034     init_step1_94...
 802cc18:	00000000 a2100204 168382ce d1bc53a8     .............S..
 802cc28:	db6acaea 10d22643 83e2d436 5d60def8     ..j.C&..6.....`]
 802cc38:	b976cc86 3b08db80 00000000 00000000     ..v....;........
	...
 802cc94:	74000000 4345445b 735d3439 74696c70     ...t[DEC94]split
 802cca4:	74696e69 6574735f 395f3270 00000034     init_step2_94...
 802ccb4:	00000000 a2100310 168382ce d1bc53a8     .............S..
 802ccc4:	db6acaea 10d22643 83e2d436 5d60def8     ..j.C&..6.....`]
 802ccd4:	b976cc86 3b08db80 00000000 00000000     ..v....;........
	...
 802cd14:	5d571010 dfe8a375 c6335491 80f09ede     ..W]u....T3.....
 802cd24:	000000dc 00000000 00000000 65000000     ...............e
 802cd34:	455b7462 3539434e 6c75665d 35395f6c     bt[ENC95]full_95
	...
 802cd54:	030b0000 5d380210 2d0b0228 89717e3b     ......8](..-;~q.
 802cd64:	c19546b7 0852107e 478f868a 5ca810b5     .F..~.R....G...\
 802cd74:	1813f870 0000de07 00000000 00000000     p...............
	...
 802cdb0:	d3100000 54106234 c571e218 d8933d2c     ....4b.T..q.,=..
 802cdc0:	0019f07b 00000000 00000000 00000000     {...............
 802cdd0:	74626500 434e455b 735d3539 74696c70     .ebt[ENC95]split
 802cde0:	6574735f 395f3070 00000035 00000000     _step0_95.......
 802cdf0:	00000000 02100203 02285d38 7e3b2d0b     ........8](..-;~
 802ce00:	46b78971 107ec195 868a0852 10b5478f     q..F..~.R....G..
 802ce10:	f8705ca8 de071813 00000000 00000000     .\p.............
	...
 802ce6c:	74000000 434e455b 735d3539 74696c70     ...t[ENC95]split
 802ce7c:	6574735f 395f3170 00000035 00000000     _step1_95.......
 802ce8c:	00000000 02100308 02285d38 7e3b2d0b     ........8](..-;~
 802ce9c:	46b78971 107ec195 868a0852 10b5478f     q..F..~.R....G..
 802ceac:	f8705ca8 de071813 00000000 00000000     .\p.............
	...
 802ceec:	6234d310 e2185410 3d2cc571 f07bd893     ..4b.T..q.,=..{.
 802cefc:	00000019 00000000 00000000 65000000     ...............e
 802cf0c:	455b7462 3539434e 6c70735d 6e697469     bt[ENC95]splitin
 802cf1c:	735f7469 30706574 0035395f 00000000     it_step0_95.....
 802cf2c:	02010000 5d380210 2d0b0228 89717e3b     ......8](..-;~q.
 802cf3c:	c19546b7 0852107e 478f868a 5ca810b5     .F..~.R....G...\
 802cf4c:	1813f870 0000de07 00000000 00000000     p...............
	...
 802cfa8:	455b7400 3539434e 6c70735d 6e697469     .t[ENC95]splitin
 802cfb8:	735f7469 31706574 0035395f 00000000     it_step1_95.....
 802cfc8:	02020000 5d380210 2d0b0228 89717e3b     ......8](..-;~q.
 802cfd8:	c19546b7 0852107e 478f868a 5ca810b5     .F..~.R....G...\
 802cfe8:	1813f870 0000de07 00000000 00000000     p...............
	...
 802d044:	455b7400 3539434e 6c70735d 6e697469     .t[ENC95]splitin
 802d054:	735f7469 32706574 0035395f 00000000     it_step2_95.....
 802d064:	03080000 5d380210 2d0b0228 89717e3b     ......8](..-;~q.
 802d074:	c19546b7 0852107e 478f868a 5ca810b5     .F..~.R....G...\
 802d084:	1813f870 0000de07 00000000 00000000     p...............
	...
 802d0c0:	d3100000 54106234 c571e218 d8933d2c     ....4b.T..q.,=..
 802d0d0:	0019f07b 00000000 00000000 00000000     {...............
 802d0e0:	74626500 4345445b 665d3539 5f6c6c75     .ebt[DEC95]full_
 802d0f0:	00003539 00000000 00000000 00000000     95..............
 802d100:	00000000 86100315 53a9fcf0 5f12f2ab     ...........S..._
 802d110:	c085f68e 10ee38c2 a915cfd1 71e33dc3     .....8.......=.q
 802d120:	47f1f9f3 cf41bf55 00000000 00000000     ...GU.A.........
	...
 802d160:	3abfc510 33c7306c e9792a04 30328864     ...:l0.3.*y.d.20
 802d170:	00000033 00000000 00000000 65000000     3..............e
 802d180:	445b7462 35394345 6c70735d 735f7469     bt[DEC95]split_s
 802d190:	30706574 0035395f 00000000 00000000     tep0_95.........
 802d1a0:	02050000 fcf08610 f2ab53a9 f68e5f12     .........S..._..
 802d1b0:	38c2c085 cfd110ee 3dc3a915 f9f371e3     ...8.......=.q..
 802d1c0:	bf5547f1 0000cf41 00000000 00000000     .GU.A...........
	...
 802d21c:	445b7400 35394345 6c70735d 735f7469     .t[DEC95]split_s
 802d22c:	31706574 0035395f 00000000 00000000     tep1_95.........
 802d23c:	03100000 fcf08610 f2ab53a9 f68e5f12     .........S..._..
 802d24c:	38c2c085 cfd110ee 3dc3a915 f9f371e3     ...8.......=.q..
 802d25c:	bf5547f1 0000cf41 00000000 00000000     .GU.A...........
	...
 802d298:	c5100000 306c3abf 2a0433c7 8864e979     .....:l0.3.*y.d.
 802d2a8:	00333032 00000000 00000000 00000000     203.............
 802d2b8:	74626500 4345445b 735d3539 74696c70     .ebt[DEC95]split
 802d2c8:	74696e69 6574735f 395f3070 00000035     init_step0_95...
 802d2d8:	00000000 86100201 53a9fcf0 5f12f2ab     ...........S..._
 802d2e8:	c085f68e 10ee38c2 a915cfd1 71e33dc3     .....8.......=.q
 802d2f8:	47f1f9f3 cf41bf55 00000000 00000000     ...GU.A.........
	...
 802d354:	74000000 4345445b 735d3539 74696c70     ...t[DEC95]split
 802d364:	74696e69 6574735f 395f3170 00000035     init_step1_95...
 802d374:	00000000 86100204 53a9fcf0 5f12f2ab     ...........S..._
 802d384:	c085f68e 10ee38c2 a915cfd1 71e33dc3     .....8.......=.q
 802d394:	47f1f9f3 cf41bf55 00000000 00000000     ...GU.A.........
	...
 802d3f0:	74000000 4345445b 735d3539 74696c70     ...t[DEC95]split
 802d400:	74696e69 6574735f 395f3270 00000035     init_step2_95...
 802d410:	00000000 86100310 53a9fcf0 5f12f2ab     ...........S..._
 802d420:	c085f68e 10ee38c2 a915cfd1 71e33dc3     .....8.......=.q
 802d430:	47f1f9f3 cf41bf55 00000000 00000000     ...GU.A.........
	...
 802d470:	3abfc510 33c7306c e9792a04 30328864     ...:l0.3.*y.d.20
 802d480:	00000033 00000000 00000000 65000000     3..............e
 802d490:	455b7462 3639434e 6c75665d 36395f6c     bt[ENC96]full_96
	...
 802d4b0:	030b0000 20741710 0f06e55a d11940aa     ......t Z....@..
 802d4c0:	f42c2fb5 8e4a1018 db46085d 2a8e91bf     ./,...J.].F....*
 802d4d0:	874d73dc 0000a2ef 00000000 00000000     .sM.............
	...
 802d50c:	e4100000 1c04d0dd 041733ba 56be22af     .........3...".V
 802d51c:	006beb57 00000000 00000000 00000000     W.k.............
 802d52c:	74626500 434e455b 735d3639 74696c70     .ebt[ENC96]split
 802d53c:	6574735f 395f3070 00000036 00000000     _step0_96.......
 802d54c:	00000000 17100203 e55a2074 40aa0f06     ........t Z....@
 802d55c:	2fb5d119 1018f42c 085d8e4a 91bfdb46     .../,...J.].F...
 802d56c:	73dc2a8e a2ef874d 00000000 00000000     .*.sM...........
	...
 802d5c8:	74000000 434e455b 735d3639 74696c70     ...t[ENC96]split
 802d5d8:	6574735f 395f3170 00000036 00000000     _step1_96.......
 802d5e8:	00000000 17100308 e55a2074 40aa0f06     ........t Z....@
 802d5f8:	2fb5d119 1018f42c 085d8e4a 91bfdb46     .../,...J.].F...
 802d608:	73dc2a8e a2ef874d 00000000 00000000     .*.sM...........
	...
 802d648:	d0dde410 33ba1c04 22af0417 eb5756be     .......3...".VW.
 802d658:	0000006b 00000000 00000000 65000000     k..............e
 802d668:	455b7462 3639434e 6c70735d 6e697469     bt[ENC96]splitin
 802d678:	735f7469 30706574 0036395f 00000000     it_step0_96.....
 802d688:	02010000 20741710 0f06e55a d11940aa     ......t Z....@..
 802d698:	f42c2fb5 8e4a1018 db46085d 2a8e91bf     ./,...J.].F....*
 802d6a8:	874d73dc 0000a2ef 00000000 00000000     .sM.............
	...
 802d704:	455b7400 3639434e 6c70735d 6e697469     .t[ENC96]splitin
 802d714:	735f7469 31706574 0036395f 00000000     it_step1_96.....
 802d724:	02020000 20741710 0f06e55a d11940aa     ......t Z....@..
 802d734:	f42c2fb5 8e4a1018 db46085d 2a8e91bf     ./,...J.].F....*
 802d744:	874d73dc 0000a2ef 00000000 00000000     .sM.............
	...
 802d7a0:	455b7400 3639434e 6c70735d 6e697469     .t[ENC96]splitin
 802d7b0:	735f7469 32706574 0036395f 00000000     it_step2_96.....
 802d7c0:	03080000 20741710 0f06e55a d11940aa     ......t Z....@..
 802d7d0:	f42c2fb5 8e4a1018 db46085d 2a8e91bf     ./,...J.].F....*
 802d7e0:	874d73dc 0000a2ef 00000000 00000000     .sM.............
	...
 802d81c:	e4100000 1c04d0dd 041733ba 56be22af     .........3...".V
 802d82c:	006beb57 00000000 00000000 00000000     W.k.............
 802d83c:	74626500 4345445b 665d3639 5f6c6c75     .ebt[DEC96]full_
 802d84c:	00003639 00000000 00000000 00000000     96..............
 802d85c:	00000000 b9100315 e26fc0a2 629f3bac     ..........o..;.b
 802d86c:	87825453 1076e8ae 73d3ef79 fb7de2b1     ST....v.y..s..}.
 802d87c:	15c9fe62 60f90ec1 00000000 00000000     b......`........
	...
 802d8bc:	c13ceb10 bdb7174a 77063520 2c40fba9     ..<.J... 5.w..@,
 802d8cc:	00000070 00000000 00000000 65000000     p..............e
 802d8dc:	445b7462 36394345 6c70735d 735f7469     bt[DEC96]split_s
 802d8ec:	30706574 0036395f 00000000 00000000     tep0_96.........
 802d8fc:	02050000 c0a2b910 3bace26f 5453629f     ........o..;.bST
 802d90c:	e8ae8782 ef791076 e2b173d3 fe62fb7d     ....v.y..s..}.b.
 802d91c:	0ec115c9 000060f9 00000000 00000000     .....`..........
	...
 802d978:	445b7400 36394345 6c70735d 735f7469     .t[DEC96]split_s
 802d988:	31706574 0036395f 00000000 00000000     tep1_96.........
 802d998:	03100000 c0a2b910 3bace26f 5453629f     ........o..;.bST
 802d9a8:	e8ae8782 ef791076 e2b173d3 fe62fb7d     ....v.y..s..}.b.
 802d9b8:	0ec115c9 000060f9 00000000 00000000     .....`..........
	...
 802d9f4:	eb100000 174ac13c 3520bdb7 fba97706     ....<.J... 5.w..
 802da04:	00702c40 00000000 00000000 00000000     @,p.............
 802da14:	74626500 4345445b 735d3639 74696c70     .ebt[DEC96]split
 802da24:	74696e69 6574735f 395f3070 00000036     init_step0_96...
 802da34:	00000000 b9100201 e26fc0a2 629f3bac     ..........o..;.b
 802da44:	87825453 1076e8ae 73d3ef79 fb7de2b1     ST....v.y..s..}.
 802da54:	15c9fe62 60f90ec1 00000000 00000000     b......`........
	...
 802dab0:	74000000 4345445b 735d3639 74696c70     ...t[DEC96]split
 802dac0:	74696e69 6574735f 395f3170 00000036     init_step1_96...
 802dad0:	00000000 b9100204 e26fc0a2 629f3bac     ..........o..;.b
 802dae0:	87825453 1076e8ae 73d3ef79 fb7de2b1     ST....v.y..s..}.
 802daf0:	15c9fe62 60f90ec1 00000000 00000000     b......`........
	...
 802db4c:	74000000 4345445b 735d3639 74696c70     ...t[DEC96]split
 802db5c:	74696e69 6574735f 395f3270 00000036     init_step2_96...
 802db6c:	00000000 b9100310 e26fc0a2 629f3bac     ..........o..;.b
 802db7c:	87825453 1076e8ae 73d3ef79 fb7de2b1     ST....v.y..s..}.
 802db8c:	15c9fe62 60f90ec1 00000000 00000000     b......`........
	...
 802dbcc:	c13ceb10 bdb7174a 77063520 2c40fba9     ..<.J... 5.w..@,
 802dbdc:	00000070 00000000 00000000 65000000     p..............e
 802dbec:	455b7462 3739434e 6c75665d 37395f6c     bt[ENC97]full_97
	...
 802dc0c:	030b0000 19542a10 f3760a2f 40fbfb3b     .....*T./.v.;..@
 802dc1c:	307a45c3 5036103f e752b9f9 ac7a1416     .Ez0?.6P..R...z.
 802dc2c:	ff9c61df 000006c1 00000000 00000000     .a..............
	...
 802dc68:	eb100000 8559ec12 31d5d6ae 04e89ff2     ......Y....1....
 802dc78:	000c8815 00000000 00000000 00000000     ................
 802dc88:	74626500 434e455b 735d3739 74696c70     .ebt[ENC97]split
 802dc98:	6574735f 395f3070 00000037 00000000     _step0_97.......
 802dca8:	00000000 2a100203 0a2f1954 fb3bf376     .......*T./.v.;.
 802dcb8:	45c340fb 103f307a b9f95036 1416e752     .@.Ez0?.6P..R...
 802dcc8:	61dfac7a 06c1ff9c 00000000 00000000     z..a............
	...
 802dd24:	74000000 434e455b 735d3739 74696c70     ...t[ENC97]split
 802dd34:	6574735f 395f3170 00000037 00000000     _step1_97.......
 802dd44:	00000000 2a100308 0a2f1954 fb3bf376     .......*T./.v.;.
 802dd54:	45c340fb 103f307a b9f95036 1416e752     .@.Ez0?.6P..R...
 802dd64:	61dfac7a 06c1ff9c 00000000 00000000     z..a............
	...
 802dda4:	ec12eb10 d6ae8559 9ff231d5 881504e8     ....Y....1......
 802ddb4:	0000000c 00000000 00000000 65000000     ...............e
 802ddc4:	455b7462 3739434e 6c70735d 6e697469     bt[ENC97]splitin
 802ddd4:	735f7469 30706574 0037395f 00000000     it_step0_97.....
 802dde4:	02010000 19542a10 f3760a2f 40fbfb3b     .....*T./.v.;..@
 802ddf4:	307a45c3 5036103f e752b9f9 ac7a1416     .Ez0?.6P..R...z.
 802de04:	ff9c61df 000006c1 00000000 00000000     .a..............
	...
 802de60:	455b7400 3739434e 6c70735d 6e697469     .t[ENC97]splitin
 802de70:	735f7469 31706574 0037395f 00000000     it_step1_97.....
 802de80:	02020000 19542a10 f3760a2f 40fbfb3b     .....*T./.v.;..@
 802de90:	307a45c3 5036103f e752b9f9 ac7a1416     .Ez0?.6P..R...z.
 802dea0:	ff9c61df 000006c1 00000000 00000000     .a..............
	...
 802defc:	455b7400 3739434e 6c70735d 6e697469     .t[ENC97]splitin
 802df0c:	735f7469 32706574 0037395f 00000000     it_step2_97.....
 802df1c:	03080000 19542a10 f3760a2f 40fbfb3b     .....*T./.v.;..@
 802df2c:	307a45c3 5036103f e752b9f9 ac7a1416     .Ez0?.6P..R...z.
 802df3c:	ff9c61df 000006c1 00000000 00000000     .a..............
	...
 802df78:	eb100000 8559ec12 31d5d6ae 04e89ff2     ......Y....1....
 802df88:	000c8815 00000000 00000000 00000000     ................
 802df98:	74626500 4345445b 665d3739 5f6c6c75     .ebt[DEC97]full_
 802dfa8:	00003739 00000000 00000000 00000000     97..............
 802dfb8:	00000000 2c100315 2d545641 1a9e3cc2     .......,AVT-.<..
 802dfc8:	74e91d89 10186d3e e65f6e1b 130028b8     ...t>m...n_..(..
 802dfd8:	4e10a028 5b2a83e7 00000000 00000000     (..N..*[........
	...
 802e018:	17e55010 2c05bb08 66d4c8c0 4a1757a6     .P.....,...f.W.J
 802e028:	000000ed 00000000 00000000 65000000     ...............e
 802e038:	445b7462 37394345 6c70735d 735f7469     bt[DEC97]split_s
 802e048:	30706574 0037395f 00000000 00000000     tep0_97.........
 802e058:	02050000 56412c10 3cc22d54 1d891a9e     .....,AVT-.<....
 802e068:	6d3e74e9 6e1b1018 28b8e65f a0281300     .t>m...n_..(..(.
 802e078:	83e74e10 00005b2a 00000000 00000000     .N..*[..........
	...
 802e0d4:	445b7400 37394345 6c70735d 735f7469     .t[DEC97]split_s
 802e0e4:	31706574 0037395f 00000000 00000000     tep1_97.........
 802e0f4:	03100000 56412c10 3cc22d54 1d891a9e     .....,AVT-.<....
 802e104:	6d3e74e9 6e1b1018 28b8e65f a0281300     .t>m...n_..(..(.
 802e114:	83e74e10 00005b2a 00000000 00000000     .N..*[..........
	...
 802e150:	50100000 bb0817e5 c8c02c05 57a666d4     ...P.....,...f.W
 802e160:	00ed4a17 00000000 00000000 00000000     .J..............
 802e170:	74626500 4345445b 735d3739 74696c70     .ebt[DEC97]split
 802e180:	74696e69 6574735f 395f3070 00000037     init_step0_97...
 802e190:	00000000 2c100201 2d545641 1a9e3cc2     .......,AVT-.<..
 802e1a0:	74e91d89 10186d3e e65f6e1b 130028b8     ...t>m...n_..(..
 802e1b0:	4e10a028 5b2a83e7 00000000 00000000     (..N..*[........
	...
 802e20c:	74000000 4345445b 735d3739 74696c70     ...t[DEC97]split
 802e21c:	74696e69 6574735f 395f3170 00000037     init_step1_97...
 802e22c:	00000000 2c100204 2d545641 1a9e3cc2     .......,AVT-.<..
 802e23c:	74e91d89 10186d3e e65f6e1b 130028b8     ...t>m...n_..(..
 802e24c:	4e10a028 5b2a83e7 00000000 00000000     (..N..*[........
	...
 802e2a8:	74000000 4345445b 735d3739 74696c70     ...t[DEC97]split
 802e2b8:	74696e69 6574735f 395f3270 00000037     init_step2_97...
 802e2c8:	00000000 2c100310 2d545641 1a9e3cc2     .......,AVT-.<..
 802e2d8:	74e91d89 10186d3e e65f6e1b 130028b8     ...t>m...n_..(..
 802e2e8:	4e10a028 5b2a83e7 00000000 00000000     (..N..*[........
	...
 802e328:	17e55010 2c05bb08 66d4c8c0 4a1757a6     .P.....,...f.W.J
 802e338:	000000ed 00000000 00000000 65000000     ...............e
 802e348:	455b7462 3839434e 6c75665d 38395f6c     bt[ENC98]full_98
	...
 802e368:	030b0000 505dfa10 2fda8603 aba97da9     ......]P.../.}..
 802e378:	4f4eb8b9 cd64101b c7168e98 3d4f24ad     ..NO..d......$O=
 802e388:	e3ed26bd 00005fe9 00000000 00000000     .&..._..........
	...
 802e3c4:	36100000 82cc5f26 33616181 9d10e563     ...6&_...aa3c...
 802e3d4:	00e6da84 00000000 00000000 00000000     ................
 802e3e4:	74626500 434e455b 735d3839 74696c70     .ebt[ENC98]split
 802e3f4:	6574735f 395f3070 00000038 00000000     _step0_98.......
 802e404:	00000000 fa100203 8603505d 7da92fda     ........]P.../.}
 802e414:	b8b9aba9 101b4f4e 8e98cd64 24adc716     ....NO..d......$
 802e424:	26bd3d4f 5fe9e3ed 00000000 00000000     O=.&..._........
	...
 802e480:	74000000 434e455b 735d3839 74696c70     ...t[ENC98]split
 802e490:	6574735f 395f3170 00000038 00000000     _step1_98.......
 802e4a0:	00000000 fa100308 8603505d 7da92fda     ........]P.../.}
 802e4b0:	b8b9aba9 101b4f4e 8e98cd64 24adc716     ....NO..d......$
 802e4c0:	26bd3d4f 5fe9e3ed 00000000 00000000     O=.&..._........
	...
 802e500:	5f263610 618182cc e5633361 da849d10     .6&_...aa3c.....
 802e510:	000000e6 00000000 00000000 65000000     ...............e
 802e520:	455b7462 3839434e 6c70735d 6e697469     bt[ENC98]splitin
 802e530:	735f7469 30706574 0038395f 00000000     it_step0_98.....
 802e540:	02010000 505dfa10 2fda8603 aba97da9     ......]P.../.}..
 802e550:	4f4eb8b9 cd64101b c7168e98 3d4f24ad     ..NO..d......$O=
 802e560:	e3ed26bd 00005fe9 00000000 00000000     .&..._..........
	...
 802e5bc:	455b7400 3839434e 6c70735d 6e697469     .t[ENC98]splitin
 802e5cc:	735f7469 31706574 0038395f 00000000     it_step1_98.....
 802e5dc:	02020000 505dfa10 2fda8603 aba97da9     ......]P.../.}..
 802e5ec:	4f4eb8b9 cd64101b c7168e98 3d4f24ad     ..NO..d......$O=
 802e5fc:	e3ed26bd 00005fe9 00000000 00000000     .&..._..........
	...
 802e658:	455b7400 3839434e 6c70735d 6e697469     .t[ENC98]splitin
 802e668:	735f7469 32706574 0038395f 00000000     it_step2_98.....
 802e678:	03080000 505dfa10 2fda8603 aba97da9     ......]P.../.}..
 802e688:	4f4eb8b9 cd64101b c7168e98 3d4f24ad     ..NO..d......$O=
 802e698:	e3ed26bd 00005fe9 00000000 00000000     .&..._..........
	...
 802e6d4:	36100000 82cc5f26 33616181 9d10e563     ...6&_...aa3c...
 802e6e4:	00e6da84 00000000 00000000 00000000     ................
 802e6f4:	74626500 4345445b 665d3839 5f6c6c75     .ebt[DEC98]full_
 802e704:	00003839 00000000 00000000 00000000     98..............
 802e714:	00000000 57100315 52dfbe21 bde96c2e     .......W!..R.l..
 802e724:	40b6f9e4 1055f6de 39a015ce 3bfbb2db     ...@..U....9...;
 802e734:	abd436e3 816a26f7 00000000 00000000     .6...&j.........
	...
 802e774:	8504a310 b889bd2e 124f7302 c971beda     .........sO...q.
 802e784:	000000f6 00000000 00000000 65000000     ...............e
 802e794:	445b7462 38394345 6c70735d 735f7469     bt[DEC98]split_s
 802e7a4:	30706574 0038395f 00000000 00000000     tep0_98.........
 802e7b4:	02050000 be215710 6c2e52df f9e4bde9     .....W!..R.l....
 802e7c4:	f6de40b6 15ce1055 b2db39a0 36e33bfb     .@..U....9...;.6
 802e7d4:	26f7abd4 0000816a 00000000 00000000     ...&j...........
	...
 802e830:	445b7400 38394345 6c70735d 735f7469     .t[DEC98]split_s
 802e840:	31706574 0038395f 00000000 00000000     tep1_98.........
 802e850:	03100000 be215710 6c2e52df f9e4bde9     .....W!..R.l....
 802e860:	f6de40b6 15ce1055 b2db39a0 36e33bfb     .@..U....9...;.6
 802e870:	26f7abd4 0000816a 00000000 00000000     ...&j...........
	...
 802e8ac:	a3100000 bd2e8504 7302b889 beda124f     ...........sO...
 802e8bc:	00f6c971 00000000 00000000 00000000     q...............
 802e8cc:	74626500 4345445b 735d3839 74696c70     .ebt[DEC98]split
 802e8dc:	74696e69 6574735f 395f3070 00000038     init_step0_98...
 802e8ec:	00000000 57100201 52dfbe21 bde96c2e     .......W!..R.l..
 802e8fc:	40b6f9e4 1055f6de 39a015ce 3bfbb2db     ...@..U....9...;
 802e90c:	abd436e3 816a26f7 00000000 00000000     .6...&j.........
	...
 802e968:	74000000 4345445b 735d3839 74696c70     ...t[DEC98]split
 802e978:	74696e69 6574735f 395f3170 00000038     init_step1_98...
 802e988:	00000000 57100204 52dfbe21 bde96c2e     .......W!..R.l..
 802e998:	40b6f9e4 1055f6de 39a015ce 3bfbb2db     ...@..U....9...;
 802e9a8:	abd436e3 816a26f7 00000000 00000000     .6...&j.........
	...
 802ea04:	74000000 4345445b 735d3839 74696c70     ...t[DEC98]split
 802ea14:	74696e69 6574735f 395f3270 00000038     init_step2_98...
 802ea24:	00000000 57100310 52dfbe21 bde96c2e     .......W!..R.l..
 802ea34:	40b6f9e4 1055f6de 39a015ce 3bfbb2db     ...@..U....9...;
 802ea44:	abd436e3 816a26f7 00000000 00000000     .6...&j.........
	...
 802ea84:	8504a310 b889bd2e 124f7302 c971beda     .........sO...q.
 802ea94:	000000f6 00000000 00000000 65000000     ...............e
 802eaa4:	455b7462 3939434e 6c75665d 39395f6c     bt[ENC99]full_99
	...
 802eac4:	030b0000 b7a6cd10 c36bd06f 61e1cee4     ........o.k....a
 802ead4:	3d56c442 1aa410fe 14e52b96 32a8134a     B.V=.....+..J..2
 802eae4:	cde304b6 00003f5a 00000000 00000000     ....Z?..........
	...
 802eb20:	97100000 1557d32d 873503bf 0114db59     ....-.W...5.Y...
 802eb30:	001a4f43 00000000 00000000 00000000     CO..............
 802eb40:	74626500 434e455b 735d3939 74696c70     .ebt[ENC99]split
 802eb50:	6574735f 395f3070 00000039 00000000     _step0_99.......
 802eb60:	00000000 cd100203 d06fb7a6 cee4c36b     ..........o.k...
 802eb70:	c44261e1 10fe3d56 2b961aa4 134a14e5     .aB.V=.....+..J.
 802eb80:	04b632a8 3f5acde3 00000000 00000000     .2....Z?........
	...
 802ebdc:	74000000 434e455b 735d3939 74696c70     ...t[ENC99]split
 802ebec:	6574735f 395f3170 00000039 00000000     _step1_99.......
 802ebfc:	00000000 cd100308 d06fb7a6 cee4c36b     ..........o.k...
 802ec0c:	c44261e1 10fe3d56 2b961aa4 134a14e5     .aB.V=.....+..J.
 802ec1c:	04b632a8 3f5acde3 00000000 00000000     .2....Z?........
	...
 802ec5c:	d32d9710 03bf1557 db598735 4f430114     ..-.W...5.Y...CO
 802ec6c:	0000001a 00000000 00000000 65000000     ...............e
 802ec7c:	455b7462 3939434e 6c70735d 6e697469     bt[ENC99]splitin
 802ec8c:	735f7469 30706574 0039395f 00000000     it_step0_99.....
 802ec9c:	02010000 b7a6cd10 c36bd06f 61e1cee4     ........o.k....a
 802ecac:	3d56c442 1aa410fe 14e52b96 32a8134a     B.V=.....+..J..2
 802ecbc:	cde304b6 00003f5a 00000000 00000000     ....Z?..........
	...
 802ed18:	455b7400 3939434e 6c70735d 6e697469     .t[ENC99]splitin
 802ed28:	735f7469 31706574 0039395f 00000000     it_step1_99.....
 802ed38:	02020000 b7a6cd10 c36bd06f 61e1cee4     ........o.k....a
 802ed48:	3d56c442 1aa410fe 14e52b96 32a8134a     B.V=.....+..J..2
 802ed58:	cde304b6 00003f5a 00000000 00000000     ....Z?..........
	...
 802edb4:	455b7400 3939434e 6c70735d 6e697469     .t[ENC99]splitin
 802edc4:	735f7469 32706574 0039395f 00000000     it_step2_99.....
 802edd4:	03080000 b7a6cd10 c36bd06f 61e1cee4     ........o.k....a
 802ede4:	3d56c442 1aa410fe 14e52b96 32a8134a     B.V=.....+..J..2
 802edf4:	cde304b6 00003f5a 00000000 00000000     ....Z?..........
	...
 802ee30:	97100000 1557d32d 873503bf 0114db59     ....-.W...5.Y...
 802ee40:	001a4f43 00000000 00000000 00000000     CO..............
 802ee50:	74626500 4345445b 665d3939 5f6c6c75     .ebt[DEC99]full_
 802ee60:	00003939 00000000 00000000 00000000     99..............
 802ee70:	00000000 c6100315 56ee027d dbf45d80     ........}..V.]..
 802ee80:	39911b2f 100e4258 a6723e18 0ed17a19     /..9XB...>r..z..
 802ee90:	f88a2b42 8436f147 00000000 00000000     B+..G.6.........
	...
 802eed0:	6e607910 b5b00ba2 baae93b8 59e51c63     .y`n........c..Y
 802eee0:	000000f9 00000000 00000000 65000000     ...............e
 802eef0:	445b7462 39394345 6c70735d 735f7469     bt[DEC99]split_s
 802ef00:	30706574 0039395f 00000000 00000000     tep0_99.........
 802ef10:	02050000 027dc610 5d8056ee 1b2fdbf4     ......}..V.]../.
 802ef20:	42583991 3e18100e 7a19a672 2b420ed1     .9XB...>r..z..B+
 802ef30:	f147f88a 00008436 00000000 00000000     ..G.6...........
	...
 802ef8c:	445b7400 39394345 6c70735d 735f7469     .t[DEC99]split_s
 802ef9c:	31706574 0039395f 00000000 00000000     tep1_99.........
 802efac:	03100000 027dc610 5d8056ee 1b2fdbf4     ......}..V.]../.
 802efbc:	42583991 3e18100e 7a19a672 2b420ed1     .9XB...>r..z..B+
 802efcc:	f147f88a 00008436 00000000 00000000     ..G.6...........
	...
 802f008:	79100000 0ba26e60 93b8b5b0 1c63baae     ...y`n........c.
 802f018:	00f959e5 00000000 00000000 00000000     .Y..............
 802f028:	74626500 4345445b 735d3939 74696c70     .ebt[DEC99]split
 802f038:	74696e69 6574735f 395f3070 00000039     init_step0_99...
 802f048:	00000000 c6100201 56ee027d dbf45d80     ........}..V.]..
 802f058:	39911b2f 100e4258 a6723e18 0ed17a19     /..9XB...>r..z..
 802f068:	f88a2b42 8436f147 00000000 00000000     B+..G.6.........
	...
 802f0c4:	74000000 4345445b 735d3939 74696c70     ...t[DEC99]split
 802f0d4:	74696e69 6574735f 395f3170 00000039     init_step1_99...
 802f0e4:	00000000 c6100204 56ee027d dbf45d80     ........}..V.]..
 802f0f4:	39911b2f 100e4258 a6723e18 0ed17a19     /..9XB...>r..z..
 802f104:	f88a2b42 8436f147 00000000 00000000     B+..G.6.........
	...
 802f160:	74000000 4345445b 735d3939 74696c70     ...t[DEC99]split
 802f170:	74696e69 6574735f 395f3270 00000039     init_step2_99...
 802f180:	00000000 c6100310 56ee027d dbf45d80     ........}..V.]..
 802f190:	39911b2f 100e4258 a6723e18 0ed17a19     /..9XB...>r..z..
 802f1a0:	f88a2b42 8436f147 00000000 00000000     B+..G.6.........
	...
 802f1e0:	6e607910 b5b00ba2 baae93b8 59e51c63     .y`n........c..Y
 802f1f0:	000000f9 00000000 00000000 65000000     ...............e
	...

0802f201 <sbox>:
 802f201:	63          	.byte	0x63
 802f202:	777c      	.short	0x777c
 802f204:	6f6bf27b 	.word	0x6f6bf27b
 802f208:	670130c5 	.word	0x670130c5
 802f20c:	abd7fe2b 	.word	0xabd7fe2b
 802f210:	c982ca76 	.word	0xc982ca76
 802f214:	4759fa7d 	.word	0x4759fa7d
 802f218:	a2d4adf0 	.word	0xa2d4adf0
 802f21c:	72a49caf 	.word	0x72a49caf
 802f220:	93fdb7c0 	.word	0x93fdb7c0
 802f224:	f73f3626 	.word	0xf73f3626
 802f228:	e5a534cc 	.word	0xe5a534cc
 802f22c:	31d871f1 	.word	0x31d871f1
 802f230:	23c70415 	.word	0x23c70415
 802f234:	059618c3 	.word	0x059618c3
 802f238:	8012079a 	.word	0x8012079a
 802f23c:	b227ebe2 	.word	0xb227ebe2
 802f240:	2c830975 	.word	0x2c830975
 802f244:	5a6e1b1a 	.word	0x5a6e1b1a
 802f248:	d63b52a0 	.word	0xd63b52a0
 802f24c:	2fe329b3 	.word	0x2fe329b3
 802f250:	00d15384 	.word	0x00d15384
 802f254:	b1fc20ed 	.word	0xb1fc20ed
 802f258:	becb6a5b 	.word	0xbecb6a5b
 802f25c:	584c4a39 	.word	0x584c4a39
 802f260:	aaefd0cf 	.word	0xaaefd0cf
 802f264:	334d43fb 	.word	0x334d43fb
 802f268:	02f94585 	.word	0x02f94585
 802f26c:	9f3c507f 	.word	0x9f3c507f
 802f270:	40a351a8 	.word	0x40a351a8
 802f274:	389d928f 	.word	0x389d928f
 802f278:	dab6bcf5 	.word	0xdab6bcf5
 802f27c:	f3ff1021 	.word	0xf3ff1021
 802f280:	130ccdd2 	.word	0x130ccdd2
 802f284:	44975fec 	.word	0x44975fec
 802f288:	7ea7c417 	.word	0x7ea7c417
 802f28c:	195d643d 	.word	0x195d643d
 802f290:	4f816073 	.word	0x4f816073
 802f294:	902a22dc 	.word	0x902a22dc
 802f298:	b8ee4688 	.word	0xb8ee4688
 802f29c:	0b5ede14 	.word	0x0b5ede14
 802f2a0:	3a32e0db 	.word	0x3a32e0db
 802f2a4:	2406490a 	.word	0x2406490a
 802f2a8:	acd3c25c 	.word	0xacd3c25c
 802f2ac:	e4959162 	.word	0xe4959162
 802f2b0:	37c8e779 	.word	0x37c8e779
 802f2b4:	4ed58d6d 	.word	0x4ed58d6d
 802f2b8:	f4566ca9 	.word	0xf4566ca9
 802f2bc:	ae7a65ea 	.word	0xae7a65ea
 802f2c0:	2578ba08 	.word	0x2578ba08
 802f2c4:	b4a61c2e 	.word	0xb4a61c2e
 802f2c8:	74dde8c6 	.word	0x74dde8c6
 802f2cc:	8bbd4b1f 	.word	0x8bbd4b1f
 802f2d0:	b53e708a 	.word	0xb53e708a
 802f2d4:	f6034866 	.word	0xf6034866
 802f2d8:	5735610e 	.word	0x5735610e
 802f2dc:	1dc186b9 	.word	0x1dc186b9
 802f2e0:	98f8e19e 	.word	0x98f8e19e
 802f2e4:	8ed96911 	.word	0x8ed96911
 802f2e8:	871e9b94 	.word	0x871e9b94
 802f2ec:	2855cee9 	.word	0x2855cee9
 802f2f0:	89a18cdf 	.word	0x89a18cdf
 802f2f4:	42e6bf0d 	.word	0x42e6bf0d
 802f2f8:	2d994168 	.word	0x2d994168
 802f2fc:	bb54b00f 	.word	0xbb54b00f
 802f300:	16          	.byte	0x16

0802f301 <Invsbox>:
 802f301:	52          	.byte	0x52
 802f302:	6a09      	.short	0x6a09
 802f304:	a53630d5 	.word	0xa53630d5
 802f308:	a340bf38 	.word	0xa340bf38
 802f30c:	d7f3819e 	.word	0xd7f3819e
 802f310:	39e37cfb 	.word	0x39e37cfb
 802f314:	ff2f9b82 	.word	0xff2f9b82
 802f318:	438e3487 	.word	0x438e3487
 802f31c:	e9dec444 	.word	0xe9dec444
 802f320:	947b54cb 	.word	0x947b54cb
 802f324:	23c2a632 	.word	0x23c2a632
 802f328:	954cee3d 	.word	0x954cee3d
 802f32c:	c3fa420b 	.word	0xc3fa420b
 802f330:	a12e084e 	.word	0xa12e084e
 802f334:	24d92866 	.word	0x24d92866
 802f338:	a25b76b2 	.word	0xa25b76b2
 802f33c:	d18b6d49 	.word	0xd18b6d49
 802f340:	f6f87225 	.word	0xf6f87225
 802f344:	98688664 	.word	0x98688664
 802f348:	5ca4d416 	.word	0x5ca4d416
 802f34c:	b6655dcc 	.word	0xb6655dcc
 802f350:	48706c92 	.word	0x48706c92
 802f354:	b9edfd50 	.word	0xb9edfd50
 802f358:	46155eda 	.word	0x46155eda
 802f35c:	9d8da757 	.word	0x9d8da757
 802f360:	abd89084 	.word	0xabd89084
 802f364:	d3bc8c00 	.word	0xd3bc8c00
 802f368:	58e4f70a 	.word	0x58e4f70a
 802f36c:	45b3b805 	.word	0x45b3b805
 802f370:	1e2cd006 	.word	0x1e2cd006
 802f374:	0f3fca8f 	.word	0x0f3fca8f
 802f378:	bdafc102 	.word	0xbdafc102
 802f37c:	8a130103 	.word	0x8a130103
 802f380:	11913a6b 	.word	0x11913a6b
 802f384:	dc674f41 	.word	0xdc674f41
 802f388:	cff297ea 	.word	0xcff297ea
 802f38c:	e6b4f0ce 	.word	0xe6b4f0ce
 802f390:	74ac9673 	.word	0x74ac9673
 802f394:	35ade722 	.word	0x35ade722
 802f398:	37f9e285 	.word	0x37f9e285
 802f39c:	df751ce8 	.word	0xdf751ce8
 802f3a0:	1af1476e 	.word	0x1af1476e
 802f3a4:	c5291d71 	.word	0xc5291d71
 802f3a8:	62b76f89 	.word	0x62b76f89
 802f3ac:	be18aa0e 	.word	0xbe18aa0e
 802f3b0:	3e56fc1b 	.word	0x3e56fc1b
 802f3b4:	79d2c64b 	.word	0x79d2c64b
 802f3b8:	c0db9a20 	.word	0xc0db9a20
 802f3bc:	5acd78fe 	.word	0x5acd78fe
 802f3c0:	a8dd1ff4 	.word	0xa8dd1ff4
 802f3c4:	c7078833 	.word	0xc7078833
 802f3c8:	1012b131 	.word	0x1012b131
 802f3cc:	ec802759 	.word	0xec802759
 802f3d0:	7f51605f 	.word	0x7f51605f
 802f3d4:	4ab519a9 	.word	0x4ab519a9
 802f3d8:	7ae52d0d 	.word	0x7ae52d0d
 802f3dc:	9cc9939f 	.word	0x9cc9939f
 802f3e0:	3be0a0ef 	.word	0x3be0a0ef
 802f3e4:	f52aae4d 	.word	0xf52aae4d
 802f3e8:	bbebc8b0 	.word	0xbbebc8b0
 802f3ec:	9953833c 	.word	0x9953833c
 802f3f0:	042b1761 	.word	0x042b1761
 802f3f4:	d677ba7e 	.word	0xd677ba7e
 802f3f8:	1469e126 	.word	0x1469e126
 802f3fc:	0c215563 	.word	0x0c215563
 802f400:	7d          	.byte	0x7d

0802f401 <t_shiftRows>:
 802f401:	00          	.byte	0x00
 802f402:	0a0d      	.short	0x0a0d
 802f404:	0e010407 	.word	0x0e010407
 802f408:	0205080b 	.word	0x0205080b
 802f40c:	06090c0f 	.word	0x06090c0f
 802f410:	03          	.byte	0x03

0802f411 <t_shiftRows_D>:
 802f411:	00          	.byte	0x00
 802f412:	0a05      	.short	0x0a05
 802f414:	0e09040f 	.word	0x0e09040f
 802f418:	020d0803 	.word	0x020d0803
 802f41c:	06010c07 	.word	0x06010c07
 802f420:	0b          	.byte	0x0b

0802f421 <rcon>:
 802f421:	01          	.byte	0x01
 802f422:	0000      	.short	0x0000
 802f424:	00000200 	.word	0x00000200
 802f428:	00000400 	.word	0x00000400
 802f42c:	00000800 	.word	0x00000800
 802f430:	00001000 	.word	0x00001000
 802f434:	00002000 	.word	0x00002000
 802f438:	00004000 	.word	0x00004000
 802f43c:	00008000 	.word	0x00008000
 802f440:	00001b00 	.word	0x00001b00
 802f444:	00003600 	.word	0x00003600
	...

0802f449 <xtime>:
 802f449:	00          	.byte	0x00
 802f44a:	0402      	.short	0x0402
 802f44c:	0c0a0806 	.word	0x0c0a0806
 802f450:	1412100e 	.word	0x1412100e
 802f454:	1c1a1816 	.word	0x1c1a1816
 802f458:	2422201e 	.word	0x2422201e
 802f45c:	2c2a2826 	.word	0x2c2a2826
 802f460:	3432302e 	.word	0x3432302e
 802f464:	3c3a3836 	.word	0x3c3a3836
 802f468:	4442403e 	.word	0x4442403e
 802f46c:	4c4a4846 	.word	0x4c4a4846
 802f470:	5452504e 	.word	0x5452504e
 802f474:	5c5a5856 	.word	0x5c5a5856
 802f478:	6462605e 	.word	0x6462605e
 802f47c:	6c6a6866 	.word	0x6c6a6866
 802f480:	7472706e 	.word	0x7472706e
 802f484:	7c7a7876 	.word	0x7c7a7876
 802f488:	8482807e 	.word	0x8482807e
 802f48c:	8c8a8886 	.word	0x8c8a8886
 802f490:	9492908e 	.word	0x9492908e
 802f494:	9c9a9896 	.word	0x9c9a9896
 802f498:	a4a2a09e 	.word	0xa4a2a09e
 802f49c:	acaaa8a6 	.word	0xacaaa8a6
 802f4a0:	b4b2b0ae 	.word	0xb4b2b0ae
 802f4a4:	bcbab8b6 	.word	0xbcbab8b6
 802f4a8:	c4c2c0be 	.word	0xc4c2c0be
 802f4ac:	cccac8c6 	.word	0xcccac8c6
 802f4b0:	d4d2d0ce 	.word	0xd4d2d0ce
 802f4b4:	dcdad8d6 	.word	0xdcdad8d6
 802f4b8:	e4e2e0de 	.word	0xe4e2e0de
 802f4bc:	eceae8e6 	.word	0xeceae8e6
 802f4c0:	f4f2f0ee 	.word	0xf4f2f0ee
 802f4c4:	fcfaf8f6 	.word	0xfcfaf8f6
 802f4c8:	1f191bfe 	.word	0x1f191bfe
 802f4cc:	1711131d 	.word	0x1711131d
 802f4d0:	0f090b15 	.word	0x0f090b15
 802f4d4:	0701030d 	.word	0x0701030d
 802f4d8:	3f393b05 	.word	0x3f393b05
 802f4dc:	3731333d 	.word	0x3731333d
 802f4e0:	2f292b35 	.word	0x2f292b35
 802f4e4:	2721232d 	.word	0x2721232d
 802f4e8:	5f595b25 	.word	0x5f595b25
 802f4ec:	5751535d 	.word	0x5751535d
 802f4f0:	4f494b55 	.word	0x4f494b55
 802f4f4:	4741434d 	.word	0x4741434d
 802f4f8:	7f797b45 	.word	0x7f797b45
 802f4fc:	7771737d 	.word	0x7771737d
 802f500:	6f696b75 	.word	0x6f696b75
 802f504:	6761636d 	.word	0x6761636d
 802f508:	9f999b65 	.word	0x9f999b65
 802f50c:	9791939d 	.word	0x9791939d
 802f510:	8f898b95 	.word	0x8f898b95
 802f514:	8781838d 	.word	0x8781838d
 802f518:	bfb9bb85 	.word	0xbfb9bb85
 802f51c:	b7b1b3bd 	.word	0xb7b1b3bd
 802f520:	afa9abb5 	.word	0xafa9abb5
 802f524:	a7a1a3ad 	.word	0xa7a1a3ad
 802f528:	dfd9dba5 	.word	0xdfd9dba5
 802f52c:	d7d1d3dd 	.word	0xd7d1d3dd
 802f530:	cfc9cbd5 	.word	0xcfc9cbd5
 802f534:	c7c1c3cd 	.word	0xc7c1c3cd
 802f538:	fff9fbc5 	.word	0xfff9fbc5
 802f53c:	f7f1f3fd 	.word	0xf7f1f3fd
 802f540:	efe9ebf5 	.word	0xefe9ebf5
 802f544:	e7e1e3ed 	.word	0xe7e1e3ed
 802f548:	e5          	.byte	0xe5

0802f549 <fourtime>:
 802f549:	00          	.byte	0x00
 802f54a:	0804      	.short	0x0804
 802f54c:	1814100c 	.word	0x1814100c
 802f550:	2824201c 	.word	0x2824201c
 802f554:	3834302c 	.word	0x3834302c
 802f558:	4844403c 	.word	0x4844403c
 802f55c:	5854504c 	.word	0x5854504c
 802f560:	6864605c 	.word	0x6864605c
 802f564:	7874706c 	.word	0x7874706c
 802f568:	8884807c 	.word	0x8884807c
 802f56c:	9894908c 	.word	0x9894908c
 802f570:	a8a4a09c 	.word	0xa8a4a09c
 802f574:	b8b4b0ac 	.word	0xb8b4b0ac
 802f578:	c8c4c0bc 	.word	0xc8c4c0bc
 802f57c:	d8d4d0cc 	.word	0xd8d4d0cc
 802f580:	e8e4e0dc 	.word	0xe8e4e0dc
 802f584:	f8f4f0ec 	.word	0xf8f4f0ec
 802f588:	131f1bfc 	.word	0x131f1bfc
 802f58c:	030f0b17 	.word	0x030f0b17
 802f590:	333f3b07 	.word	0x333f3b07
 802f594:	232f2b37 	.word	0x232f2b37
 802f598:	535f5b27 	.word	0x535f5b27
 802f59c:	434f4b57 	.word	0x434f4b57
 802f5a0:	737f7b47 	.word	0x737f7b47
 802f5a4:	636f6b77 	.word	0x636f6b77
 802f5a8:	939f9b67 	.word	0x939f9b67
 802f5ac:	838f8b97 	.word	0x838f8b97
 802f5b0:	b3bfbb87 	.word	0xb3bfbb87
 802f5b4:	a3afabb7 	.word	0xa3afabb7
 802f5b8:	d3dfdba7 	.word	0xd3dfdba7
 802f5bc:	c3cfcbd7 	.word	0xc3cfcbd7
 802f5c0:	f3fffbc7 	.word	0xf3fffbc7
 802f5c4:	e3efebf7 	.word	0xe3efebf7
 802f5c8:	3e3236e7 	.word	0x3e3236e7
 802f5cc:	2e22263a 	.word	0x2e22263a
 802f5d0:	1e12162a 	.word	0x1e12162a
 802f5d4:	0e02061a 	.word	0x0e02061a
 802f5d8:	7e72760a 	.word	0x7e72760a
 802f5dc:	6e62667a 	.word	0x6e62667a
 802f5e0:	5e52566a 	.word	0x5e52566a
 802f5e4:	4e42465a 	.word	0x4e42465a
 802f5e8:	beb2b64a 	.word	0xbeb2b64a
 802f5ec:	aea2a6ba 	.word	0xaea2a6ba
 802f5f0:	9e9296aa 	.word	0x9e9296aa
 802f5f4:	8e82869a 	.word	0x8e82869a
 802f5f8:	fef2f68a 	.word	0xfef2f68a
 802f5fc:	eee2e6fa 	.word	0xeee2e6fa
 802f600:	ded2d6ea 	.word	0xded2d6ea
 802f604:	cec2c6da 	.word	0xcec2c6da
 802f608:	25292dca 	.word	0x25292dca
 802f60c:	35393d21 	.word	0x35393d21
 802f610:	05090d31 	.word	0x05090d31
 802f614:	15191d01 	.word	0x15191d01
 802f618:	65696d11 	.word	0x65696d11
 802f61c:	75797d61 	.word	0x75797d61
 802f620:	45494d71 	.word	0x45494d71
 802f624:	55595d41 	.word	0x55595d41
 802f628:	a5a9ad51 	.word	0xa5a9ad51
 802f62c:	b5b9bda1 	.word	0xb5b9bda1
 802f630:	85898db1 	.word	0x85898db1
 802f634:	95999d81 	.word	0x95999d81
 802f638:	e5e9ed91 	.word	0xe5e9ed91
 802f63c:	f5f9fde1 	.word	0xf5f9fde1
 802f640:	c5c9cdf1 	.word	0xc5c9cdf1
 802f644:	d5d9ddc1 	.word	0xd5d9ddc1
 802f648:	d1          	.byte	0xd1

0802f649 <eighttime>:
 802f649:	00          	.byte	0x00
 802f64a:	1008      	.short	0x1008
 802f64c:	30282018 	.word	0x30282018
 802f650:	50484038 	.word	0x50484038
 802f654:	70686058 	.word	0x70686058
 802f658:	90888078 	.word	0x90888078
 802f65c:	b0a8a098 	.word	0xb0a8a098
 802f660:	d0c8c0b8 	.word	0xd0c8c0b8
 802f664:	f0e8e0d8 	.word	0xf0e8e0d8
 802f668:	0b131bf8 	.word	0x0b131bf8
 802f66c:	2b333b03 	.word	0x2b333b03
 802f670:	4b535b23 	.word	0x4b535b23
 802f674:	6b737b43 	.word	0x6b737b43
 802f678:	8b939b63 	.word	0x8b939b63
 802f67c:	abb3bb83 	.word	0xabb3bb83
 802f680:	cbd3dba3 	.word	0xcbd3dba3
 802f684:	ebf3fbc3 	.word	0xebf3fbc3
 802f688:	263e36e3 	.word	0x263e36e3
 802f68c:	061e162e 	.word	0x061e162e
 802f690:	667e760e 	.word	0x667e760e
 802f694:	465e566e 	.word	0x465e566e
 802f698:	a6beb64e 	.word	0xa6beb64e
 802f69c:	869e96ae 	.word	0x869e96ae
 802f6a0:	e6fef68e 	.word	0xe6fef68e
 802f6a4:	c6ded6ee 	.word	0xc6ded6ee
 802f6a8:	3d252dce 	.word	0x3d252dce
 802f6ac:	1d050d35 	.word	0x1d050d35
 802f6b0:	7d656d15 	.word	0x7d656d15
 802f6b4:	5d454d75 	.word	0x5d454d75
 802f6b8:	bda5ad55 	.word	0xbda5ad55
 802f6bc:	9d858db5 	.word	0x9d858db5
 802f6c0:	fde5ed95 	.word	0xfde5ed95
 802f6c4:	ddc5cdf5 	.word	0xddc5cdf5
 802f6c8:	7c646cd5 	.word	0x7c646cd5
 802f6cc:	5c444c74 	.word	0x5c444c74
 802f6d0:	3c242c54 	.word	0x3c242c54
 802f6d4:	1c040c34 	.word	0x1c040c34
 802f6d8:	fce4ec14 	.word	0xfce4ec14
 802f6dc:	dcc4ccf4 	.word	0xdcc4ccf4
 802f6e0:	bca4acd4 	.word	0xbca4acd4
 802f6e4:	9c848cb4 	.word	0x9c848cb4
 802f6e8:	677f7794 	.word	0x677f7794
 802f6ec:	475f576f 	.word	0x475f576f
 802f6f0:	273f374f 	.word	0x273f374f
 802f6f4:	071f172f 	.word	0x071f172f
 802f6f8:	e7fff70f 	.word	0xe7fff70f
 802f6fc:	c7dfd7ef 	.word	0xc7dfd7ef
 802f700:	a7bfb7cf 	.word	0xa7bfb7cf
 802f704:	879f97af 	.word	0x879f97af
 802f708:	4a525a8f 	.word	0x4a525a8f
 802f70c:	6a727a42 	.word	0x6a727a42
 802f710:	0a121a62 	.word	0x0a121a62
 802f714:	2a323a02 	.word	0x2a323a02
 802f718:	cad2da22 	.word	0xcad2da22
 802f71c:	eaf2fac2 	.word	0xeaf2fac2
 802f720:	8a929ae2 	.word	0x8a929ae2
 802f724:	aab2ba82 	.word	0xaab2ba82
 802f728:	514941a2 	.word	0x514941a2
 802f72c:	71696159 	.word	0x71696159
 802f730:	11090179 	.word	0x11090179
 802f734:	31292119 	.word	0x31292119
 802f738:	d1c9c139 	.word	0xd1c9c139
 802f73c:	f1e9e1d9 	.word	0xf1e9e1d9
 802f740:	918981f9 	.word	0x918981f9
 802f744:	b1a9a199 	.word	0xb1a9a199
 802f748:	b9          	.byte	0xb9

0802f749 <LogTable>:
 802f749:	00          	.byte	0x00
 802f74a:	1900      	.short	0x1900
 802f74c:	1a023201 	.word	0x1a023201
 802f750:	1bc74bc6 	.word	0x1bc74bc6
 802f754:	dfee3368 	.word	0xdfee3368
 802f758:	e0046403 	.word	0xe0046403
 802f75c:	818d340e 	.word	0x818d340e
 802f760:	08714cef 	.word	0x08714cef
 802f764:	1c69f8c8 	.word	0x1c69f8c8
 802f768:	1dc27dc1 	.word	0x1dc27dc1
 802f76c:	27b9f9b5 	.word	0x27b9f9b5
 802f770:	a6e44d6a 	.word	0xa6e44d6a
 802f774:	09c99a72 	.word	0x09c99a72
 802f778:	8a2f6578 	.word	0x8a2f6578
 802f77c:	e10f2105 	.word	0xe10f2105
 802f780:	82f01224 	.word	0x82f01224
 802f784:	da933545 	.word	0xda933545
 802f788:	db8f968e 	.word	0xdb8f968e
 802f78c:	ced036bd 	.word	0xced036bd
 802f790:	d25c1394 	.word	0xd25c1394
 802f794:	834640f1 	.word	0x834640f1
 802f798:	fddd6638 	.word	0xfddd6638
 802f79c:	8b06bf30 	.word	0x8b06bf30
 802f7a0:	e225b362 	.word	0xe225b362
 802f7a4:	91882298 	.word	0x91882298
 802f7a8:	486e7e10 	.word	0x486e7e10
 802f7ac:	1eb6a3c3 	.word	0x1eb6a3c3
 802f7b0:	286b3a42 	.word	0x286b3a42
 802f7b4:	3d85fa54 	.word	0x3d85fa54
 802f7b8:	0a792bba 	.word	0x0a792bba
 802f7bc:	5e9f9b15 	.word	0x5e9f9b15
 802f7c0:	acd44eca 	.word	0xacd44eca
 802f7c4:	a773f3e5 	.word	0xa773f3e5
 802f7c8:	a858af57 	.word	0xa858af57
 802f7cc:	d6eaf450 	.word	0xd6eaf450
 802f7d0:	e9ae4f74 	.word	0xe9ae4f74
 802f7d4:	ade6e7d5 	.word	0xade6e7d5
 802f7d8:	75d72ce8 	.word	0x75d72ce8
 802f7dc:	0b16eb7a 	.word	0x0b16eb7a
 802f7e0:	5fcb59f5 	.word	0x5fcb59f5
 802f7e4:	51a99cb0 	.word	0x51a99cb0
 802f7e8:	f60c7fa0 	.word	0xf60c7fa0
 802f7ec:	49c4176f 	.word	0x49c4176f
 802f7f0:	1f43d8ec 	.word	0x1f43d8ec
 802f7f4:	7b76a42d 	.word	0x7b76a42d
 802f7f8:	3ebbccb7 	.word	0x3ebbccb7
 802f7fc:	b160fb5a 	.word	0xb160fb5a
 802f800:	a1523b86 	.word	0xa1523b86
 802f804:	2955aa6c 	.word	0x2955aa6c
 802f808:	87b2979d 	.word	0x87b2979d
 802f80c:	dcbe6190 	.word	0xdcbe6190
 802f810:	cf95bcfc 	.word	0xcf95bcfc
 802f814:	5b3f37cd 	.word	0x5b3f37cd
 802f818:	843953d1 	.word	0x843953d1
 802f81c:	6da2413c 	.word	0x6da2413c
 802f820:	9e2a1447 	.word	0x9e2a1447
 802f824:	d3f2565d 	.word	0xd3f2565d
 802f828:	921144ab 	.word	0x921144ab
 802f82c:	2e2023d9 	.word	0x2e2023d9
 802f830:	b87cb489 	.word	0xb87cb489
 802f834:	e3997726 	.word	0xe3997726
 802f838:	ed4a67a5 	.word	0xed4a67a5
 802f83c:	fe31c5de 	.word	0xfe31c5de
 802f840:	8c630d18 	.word	0x8c630d18
 802f844:	70f7c080 	.word	0x70f7c080
 802f848:	07          	.byte	0x07

0802f849 <ALogTable>:
 802f849:	01          	.byte	0x01
 802f84a:	0503      	.short	0x0503
 802f84c:	5533110f 	.word	0x5533110f
 802f850:	722e1aff 	.word	0x722e1aff
 802f854:	13f8a196 	.word	0x13f8a196
 802f858:	38e15f35 	.word	0x38e15f35
 802f85c:	9573d848 	.word	0x9573d848
 802f860:	0602f7a4 	.word	0x0602f7a4
 802f864:	66221e0a 	.word	0x66221e0a
 802f868:	5c34e5aa 	.word	0x5c34e5aa
 802f86c:	eb5937e4 	.word	0xeb5937e4
 802f870:	d9be6a26 	.word	0xd9be6a26
 802f874:	e6ab9070 	.word	0xe6ab9070
 802f878:	04f55331 	.word	0x04f55331
 802f87c:	443c140c 	.word	0x443c140c
 802f880:	68d14fcc 	.word	0x68d14fcc
 802f884:	b26ed3b8 	.word	0xb26ed3b8
 802f888:	67d44ccd 	.word	0x67d44ccd
 802f88c:	4d3be0a9 	.word	0x4d3be0a9
 802f890:	f1a662d7 	.word	0xf1a662d7
 802f894:	78281808 	.word	0x78281808
 802f898:	b99e8388 	.word	0xb99e8388
 802f89c:	dcbd6bd0 	.word	0xdcbd6bd0
 802f8a0:	b398817f 	.word	0xb398817f
 802f8a4:	76db49ce 	.word	0x76db49ce
 802f8a8:	57c4b59a 	.word	0x57c4b59a
 802f8ac:	503010f9 	.word	0x503010f9
 802f8b0:	271d0bf0 	.word	0x271d0bf0
 802f8b4:	61d6bb69 	.word	0x61d6bb69
 802f8b8:	2b19fea3 	.word	0x2b19fea3
 802f8bc:	ad92877d 	.word	0xad92877d
 802f8c0:	93712fec 	.word	0x93712fec
 802f8c4:	6020e9ae 	.word	0x6020e9ae
 802f8c8:	3a16fba0 	.word	0x3a16fba0
 802f8cc:	b76dd24e 	.word	0xb76dd24e
 802f8d0:	32e75dc2 	.word	0x32e75dc2
 802f8d4:	3f15fa56 	.word	0x3f15fa56
 802f8d8:	e25ec341 	.word	0xe25ec341
 802f8dc:	40c9473d 	.word	0x40c9473d
 802f8e0:	2ced5bc0 	.word	0x2ced5bc0
 802f8e4:	dabf9c74 	.word	0xdabf9c74
 802f8e8:	d5ba9f75 	.word	0xd5ba9f75
 802f8ec:	2aefac64 	.word	0x2aefac64
 802f8f0:	bc9d827e 	.word	0xbc9d827e
 802f8f4:	898e7adf 	.word	0x898e7adf
 802f8f8:	c1b69b80 	.word	0xc1b69b80
 802f8fc:	6523e858 	.word	0x6523e858
 802f900:	6f25eaaf 	.word	0x6f25eaaf
 802f904:	c543c8b1 	.word	0xc543c8b1
 802f908:	211ffc54 	.word	0x211ffc54
 802f90c:	07f4a563 	.word	0x07f4a563
 802f910:	772d1b09 	.word	0x772d1b09
 802f914:	46cbb099 	.word	0x46cbb099
 802f918:	4acf45ca 	.word	0x4acf45ca
 802f91c:	868b79de 	.word	0x868b79de
 802f920:	3ee3a891 	.word	0x3ee3a891
 802f924:	f351c642 	.word	0xf351c642
 802f928:	5a36120e 	.word	0x5a36120e
 802f92c:	8d7b29ee 	.word	0x8d7b29ee
 802f930:	858a8f8c 	.word	0x858a8f8c
 802f934:	0df2a794 	.word	0x0df2a794
 802f938:	dd4b3917 	.word	0xdd4b3917
 802f93c:	a297847c 	.word	0xa297847c
 802f940:	6c241cfd 	.word	0x6c241cfd
 802f944:	f652c7b4 	.word	0xf652c7b4
 802f948:	01          	.byte	0x01

0802f949 <permGFSixteen>:
 802f949:	0c          	.byte	0x0c
 802f94a:	0605      	.short	0x0605
 802f94c:	0a00090b 	.word	0x0a00090b
 802f950:	0f0e030d 	.word	0x0f0e030d
 802f954:	01070408 	.word	0x01070408
 802f958:	00000002 	.word	0x00000002
