
../../bin/binary.elf:     file format elf32-littlearm


Disassembly of section .text:

08000000 <get_external_randomness>:
 8000000:	b480      	push	{r7}
 8000002:	b085      	sub	sp, #20
 8000004:	af00      	add	r7, sp, #0
 8000006:	6078      	str	r0, [r7, #4]
 8000008:	6039      	str	r1, [r7, #0]
 800000a:	4b10      	ldr	r3, [pc, #64]	; (800004c <get_external_randomness+0x4c>)
 800000c:	447b      	add	r3, pc
 800000e:	2200      	movs	r2, #0
 8000010:	60fa      	str	r2, [r7, #12]
 8000012:	e012      	b.n	800003a <get_external_randomness+0x3a>
 8000014:	4a0e      	ldr	r2, [pc, #56]	; (8000050 <get_external_randomness+0x50>)
 8000016:	589a      	ldr	r2, [r3, r2]
 8000018:	6810      	ldr	r0, [r2, #0]
 800001a:	68fa      	ldr	r2, [r7, #12]
 800001c:	6879      	ldr	r1, [r7, #4]
 800001e:	440a      	add	r2, r1
 8000020:	b2c1      	uxtb	r1, r0
 8000022:	7011      	strb	r1, [r2, #0]
 8000024:	4a0a      	ldr	r2, [pc, #40]	; (8000050 <get_external_randomness+0x50>)
 8000026:	589a      	ldr	r2, [r3, r2]
 8000028:	6810      	ldr	r0, [r2, #0]
 800002a:	68fa      	ldr	r2, [r7, #12]
 800002c:	6839      	ldr	r1, [r7, #0]
 800002e:	440a      	add	r2, r1
 8000030:	b2c1      	uxtb	r1, r0
 8000032:	7011      	strb	r1, [r2, #0]
 8000034:	68fa      	ldr	r2, [r7, #12]
 8000036:	3201      	adds	r2, #1
 8000038:	60fa      	str	r2, [r7, #12]
 800003a:	68fa      	ldr	r2, [r7, #12]
 800003c:	2a12      	cmp	r2, #18
 800003e:	dde9      	ble.n	8000014 <get_external_randomness+0x14>
 8000040:	bf00      	nop
 8000042:	bf00      	nop
 8000044:	3714      	adds	r7, #20
 8000046:	46bd      	mov	sp, r7
 8000048:	bc80      	pop	{r7}
 800004a:	4770      	bx	lr
 800004c:	0002f94c 	.word	0x0002f94c
 8000050:	00000008 	.word	0x00000008

08000054 <report_done>:
 8000054:	b508      	push	{r3, lr}
 8000056:	f7ff fffd 	bl	8000054 <report_done>
 800005a:	bf00      	nop

0800005c <main>:
 800005c:	e92d 4370 	stmdb	sp!, {r4, r5, r6, r8, r9, lr}
 8000060:	4b1c      	ldr	r3, [pc, #112]	; (80000d4 <main+0x78>)
 8000062:	4a1d      	ldr	r2, [pc, #116]	; (80000d8 <main+0x7c>)
 8000064:	447b      	add	r3, pc
 8000066:	f5ad 6df2 	sub.w	sp, sp, #1936	; 0x790
 800006a:	589e      	ldr	r6, [r3, r2]
 800006c:	aa04      	add	r2, sp, #16
 800006e:	4631      	mov	r1, r6
 8000070:	2300      	movs	r3, #0
 8000072:	4691      	mov	r9, r2
 8000074:	3301      	adds	r3, #1
 8000076:	f811 0b01 	ldrb.w	r0, [r1], #1
 800007a:	f802 0b01 	strb.w	r0, [r2], #1
 800007e:	2b10      	cmp	r3, #16
 8000080:	d1f8      	bne.n	8000074 <main+0x18>
 8000082:	4c16      	ldr	r4, [pc, #88]	; (80000dc <main+0x80>)
 8000084:	f10d 0830 	add.w	r8, sp, #48	; 0x30
 8000088:	447c      	add	r4, pc
 800008a:	46c4      	mov	ip, r8
 800008c:	f104 0310 	add.w	r3, r4, #16
 8000090:	6820      	ldr	r0, [r4, #0]
 8000092:	6861      	ldr	r1, [r4, #4]
 8000094:	4665      	mov	r5, ip
 8000096:	c503      	stmia	r5!, {r0, r1}
 8000098:	3408      	adds	r4, #8
 800009a:	429c      	cmp	r4, r3
 800009c:	46ac      	mov	ip, r5
 800009e:	d1f7      	bne.n	8000090 <main+0x34>
 80000a0:	ac10      	add	r4, sp, #64	; 0x40
 80000a2:	ad15      	add	r5, sp, #84	; 0x54
 80000a4:	4621      	mov	r1, r4
 80000a6:	4628      	mov	r0, r5
 80000a8:	f7ff ffaa 	bl	8000000 <get_external_randomness>
 80000ac:	e9cd 4501 	strd	r4, r5, [sp, #4]
 80000b0:	ac08      	add	r4, sp, #32
 80000b2:	464b      	mov	r3, r9
 80000b4:	9400      	str	r4, [sp, #0]
 80000b6:	4642      	mov	r2, r8
 80000b8:	a91a      	add	r1, sp, #104	; 0x68
 80000ba:	206b      	movs	r0, #107	; 0x6b
 80000bc:	f000 f8bb 	bl	8000236 <aes>
 80000c0:	2300      	movs	r3, #0
 80000c2:	3301      	adds	r3, #1
 80000c4:	f814 2b01 	ldrb.w	r2, [r4], #1
 80000c8:	f806 2b01 	strb.w	r2, [r6], #1
 80000cc:	2b10      	cmp	r3, #16
 80000ce:	d1f8      	bne.n	80000c2 <main+0x66>
 80000d0:	f7ff ffc0 	bl	8000054 <report_done>
 80000d4:	0002f8f4 	.word	0x0002f8f4
 80000d8:	00000004 	.word	0x00000004
 80000dc:	00001174 	.word	0x00001174

080000e0 <get_random>:
 80000e0:	b570      	push	{r4, r5, r6, lr}
 80000e2:	4b0f      	ldr	r3, [pc, #60]	; (8000120 <get_random+0x40>)
 80000e4:	4a0f      	ldr	r2, [pc, #60]	; (8000124 <get_random+0x44>)
 80000e6:	447b      	add	r3, pc
 80000e8:	4604      	mov	r4, r0
 80000ea:	589a      	ldr	r2, [r3, r2]
 80000ec:	6813      	ldr	r3, [r2, #0]
 80000ee:	3b55      	subs	r3, #85	; 0x55
 80000f0:	7003      	strb	r3, [r0, #0]
 80000f2:	f1c0 0601 	rsb	r6, r0, #1
 80000f6:	1935      	adds	r5, r6, r4
 80000f8:	428d      	cmp	r5, r1
 80000fa:	7813      	ldrb	r3, [r2, #0]
 80000fc:	d30a      	bcc.n	8000114 <get_random+0x34>
 80000fe:	4408      	add	r0, r1
 8000100:	3b11      	subs	r3, #17
 8000102:	f043 0301 	orr.w	r3, r3, #1
 8000106:	f800 3c01 	strb.w	r3, [r0, #-1]
 800010a:	6813      	ldr	r3, [r2, #0]
 800010c:	3301      	adds	r3, #1
 800010e:	6013      	str	r3, [r2, #0]
 8000110:	2000      	movs	r0, #0
 8000112:	bd70      	pop	{r4, r5, r6, pc}
 8000114:	7825      	ldrb	r5, [r4, #0]
 8000116:	3b33      	subs	r3, #51	; 0x33
 8000118:	442b      	add	r3, r5
 800011a:	f804 3f01 	strb.w	r3, [r4, #1]!
 800011e:	e7ea      	b.n	80000f6 <get_random+0x16>
 8000120:	0002f872 	.word	0x0002f872
 8000124:	00000000 	.word	0x00000000

08000128 <cortex_m4_cycles_reset>:
 8000128:	4a06      	ldr	r2, [pc, #24]	; (8000144 <cortex_m4_cycles_reset+0x1c>)
 800012a:	6813      	ldr	r3, [r2, #0]
 800012c:	f043 7380 	orr.w	r3, r3, #16777216	; 0x1000000
 8000130:	6013      	str	r3, [r2, #0]
 8000132:	4b05      	ldr	r3, [pc, #20]	; (8000148 <cortex_m4_cycles_reset+0x20>)
 8000134:	2200      	movs	r2, #0
 8000136:	601a      	str	r2, [r3, #0]
 8000138:	4a04      	ldr	r2, [pc, #16]	; (800014c <cortex_m4_cycles_reset+0x24>)
 800013a:	6813      	ldr	r3, [r2, #0]
 800013c:	f043 0301 	orr.w	r3, r3, #1
 8000140:	6013      	str	r3, [r2, #0]
 8000142:	4770      	bx	lr
 8000144:	e000edfc 	.word	0xe000edfc
 8000148:	e0001004 	.word	0xe0001004
 800014c:	e0001000 	.word	0xe0001000

08000150 <get_cortex_m4_cycles>:
 8000150:	4b01      	ldr	r3, [pc, #4]	; (8000158 <get_cortex_m4_cycles+0x8>)
 8000152:	6818      	ldr	r0, [r3, #0]
 8000154:	4770      	bx	lr
 8000156:	bf00      	nop
 8000158:	e0001004 	.word	0xe0001004

0800015c <cipher>:
 800015c:	f000 be4e 	b.w	8000dfc <aes_enc>

08000160 <test_parameter_content>:
 8000160:	b530      	push	{r4, r5, lr}
 8000162:	f010 0f01 	tst.w	r0, #1
 8000166:	e9dd 4503 	ldrd	r4, r5, [sp, #12]
 800016a:	d000      	beq.n	800016e <test_parameter_content+0xe>
 800016c:	b1a9      	cbz	r1, 800019a <test_parameter_content+0x3a>
 800016e:	f000 0121 	and.w	r1, r0, #33	; 0x21
 8000172:	2921      	cmp	r1, #33	; 0x21
 8000174:	d100      	bne.n	8000178 <test_parameter_content+0x18>
 8000176:	b19d      	cbz	r5, 80001a0 <test_parameter_content+0x40>
 8000178:	0645      	lsls	r5, r0, #25
 800017a:	d500      	bpl.n	800017e <test_parameter_content+0x1e>
 800017c:	b19c      	cbz	r4, 80001a6 <test_parameter_content+0x46>
 800017e:	0701      	lsls	r1, r0, #28
 8000180:	d501      	bpl.n	8000186 <test_parameter_content+0x26>
 8000182:	b19a      	cbz	r2, 80001ac <test_parameter_content+0x4c>
 8000184:	b193      	cbz	r3, 80001ac <test_parameter_content+0x4c>
 8000186:	f010 0010 	ands.w	r0, r0, #16
 800018a:	d005      	beq.n	8000198 <test_parameter_content+0x38>
 800018c:	b172      	cbz	r2, 80001ac <test_parameter_content+0x4c>
 800018e:	2b00      	cmp	r3, #0
 8000190:	bf14      	ite	ne
 8000192:	2000      	movne	r0, #0
 8000194:	f44f 5080 	moveq.w	r0, #4096	; 0x1000
 8000198:	bd30      	pop	{r4, r5, pc}
 800019a:	f44f 4000 	mov.w	r0, #32768	; 0x8000
 800019e:	e7fb      	b.n	8000198 <test_parameter_content+0x38>
 80001a0:	f44f 7000 	mov.w	r0, #512	; 0x200
 80001a4:	e7f8      	b.n	8000198 <test_parameter_content+0x38>
 80001a6:	f44f 7080 	mov.w	r0, #256	; 0x100
 80001aa:	e7f5      	b.n	8000198 <test_parameter_content+0x38>
 80001ac:	f44f 5080 	mov.w	r0, #4096	; 0x1000
 80001b0:	e7f2      	b.n	8000198 <test_parameter_content+0x38>

080001b2 <test_mode>:
 80001b2:	f000 0318 	and.w	r3, r0, #24
 80001b6:	2b18      	cmp	r3, #24
 80001b8:	d00f      	beq.n	80001da <test_mode+0x28>
 80001ba:	f000 0306 	and.w	r3, r0, #6
 80001be:	2b06      	cmp	r3, #6
 80001c0:	d00d      	beq.n	80001de <test_mode+0x2c>
 80001c2:	f000 0312 	and.w	r3, r0, #18
 80001c6:	2b12      	cmp	r3, #18
 80001c8:	d00b      	beq.n	80001e2 <test_mode+0x30>
 80001ca:	f000 030c 	and.w	r3, r0, #12
 80001ce:	2b0c      	cmp	r3, #12
 80001d0:	d007      	beq.n	80001e2 <test_mode+0x30>
 80001d2:	fab0 f080 	clz	r0, r0
 80001d6:	0940      	lsrs	r0, r0, #5
 80001d8:	4770      	bx	lr
 80001da:	2002      	movs	r0, #2
 80001dc:	4770      	bx	lr
 80001de:	2004      	movs	r0, #4
 80001e0:	4770      	bx	lr
 80001e2:	2008      	movs	r0, #8
 80001e4:	4770      	bx	lr

080001e6 <test_mode_state>:
 80001e6:	0703      	lsls	r3, r0, #28
 80001e8:	d509      	bpl.n	80001fe <test_mode_state+0x18>
 80001ea:	ea40 0301 	orr.w	r3, r0, r1
 80001ee:	07da      	lsls	r2, r3, #31
 80001f0:	d51b      	bpl.n	800022a <test_mode_state+0x44>
 80001f2:	078a      	lsls	r2, r1, #30
 80001f4:	d401      	bmi.n	80001fa <test_mode_state+0x14>
 80001f6:	0742      	lsls	r2, r0, #29
 80001f8:	d41a      	bmi.n	8000230 <test_mode_state+0x4a>
 80001fa:	079a      	lsls	r2, r3, #30
 80001fc:	d510      	bpl.n	8000220 <test_mode_state+0x3a>
 80001fe:	f010 0310 	ands.w	r3, r0, #16
 8000202:	d010      	beq.n	8000226 <test_mode_state+0x40>
 8000204:	4308      	orrs	r0, r1
 8000206:	07c3      	lsls	r3, r0, #31
 8000208:	d50f      	bpl.n	800022a <test_mode_state+0x44>
 800020a:	f001 0106 	and.w	r1, r1, #6
 800020e:	2902      	cmp	r1, #2
 8000210:	d00e      	beq.n	8000230 <test_mode_state+0x4a>
 8000212:	f010 0f04 	tst.w	r0, #4
 8000216:	bf14      	ite	ne
 8000218:	2000      	movne	r0, #0
 800021a:	f44f 3000 	moveq.w	r0, #131072	; 0x20000
 800021e:	4770      	bx	lr
 8000220:	f44f 3000 	mov.w	r0, #131072	; 0x20000
 8000224:	4770      	bx	lr
 8000226:	4618      	mov	r0, r3
 8000228:	4770      	bx	lr
 800022a:	f44f 2080 	mov.w	r0, #262144	; 0x40000
 800022e:	4770      	bx	lr
 8000230:	f44f 2000 	mov.w	r0, #524288	; 0x80000
 8000234:	4770      	bx	lr

08000236 <aes>:
 8000236:	e92d 4ff0 	stmdb	sp!, {r4, r5, r6, r7, r8, r9, sl, fp, lr}
 800023a:	b089      	sub	sp, #36	; 0x24
 800023c:	f04f 0800 	mov.w	r8, #0
 8000240:	f8dd b048 	ldr.w	fp, [sp, #72]	; 0x48
 8000244:	4699      	mov	r9, r3
 8000246:	4606      	mov	r6, r0
 8000248:	460c      	mov	r4, r1
 800024a:	4692      	mov	sl, r2
 800024c:	af03      	add	r7, sp, #12
 800024e:	4643      	mov	r3, r8
 8000250:	f807 3008 	strb.w	r3, [r7, r8]
 8000254:	f108 0801 	add.w	r8, r8, #1
 8000258:	f1b8 0f13 	cmp.w	r8, #19
 800025c:	d1f8      	bne.n	8000250 <aes+0x1a>
 800025e:	4630      	mov	r0, r6
 8000260:	f7ff ffa7 	bl	80001b2 <test_mode>
 8000264:	4605      	mov	r5, r0
 8000266:	2800      	cmp	r0, #0
 8000268:	d147      	bne.n	80002fa <aes+0xc4>
 800026a:	f894 1724 	ldrb.w	r1, [r4, #1828]	; 0x724
 800026e:	4630      	mov	r0, r6
 8000270:	f7ff ffb9 	bl	80001e6 <test_mode_state>
 8000274:	4605      	mov	r5, r0
 8000276:	2800      	cmp	r0, #0
 8000278:	d13f      	bne.n	80002fa <aes+0xc4>
 800027a:	9b14      	ldr	r3, [sp, #80]	; 0x50
 800027c:	9301      	str	r3, [sp, #4]
 800027e:	9b13      	ldr	r3, [sp, #76]	; 0x4c
 8000280:	9300      	str	r3, [sp, #0]
 8000282:	464a      	mov	r2, r9
 8000284:	465b      	mov	r3, fp
 8000286:	4651      	mov	r1, sl
 8000288:	4630      	mov	r0, r6
 800028a:	f7ff ff69 	bl	8000160 <test_parameter_content>
 800028e:	4605      	mov	r5, r0
 8000290:	bb98      	cbnz	r0, 80002fa <aes+0xc4>
 8000292:	f006 0321 	and.w	r3, r6, #33	; 0x21
 8000296:	2b21      	cmp	r3, #33	; 0x21
 8000298:	d133      	bne.n	8000302 <aes+0xcc>
 800029a:	9b14      	ldr	r3, [sp, #80]	; 0x50
 800029c:	4639      	mov	r1, r7
 800029e:	1e5a      	subs	r2, r3, #1
 80002a0:	3312      	adds	r3, #18
 80002a2:	f812 0f01 	ldrb.w	r0, [r2, #1]!
 80002a6:	f801 0b01 	strb.w	r0, [r1], #1
 80002aa:	429a      	cmp	r2, r3
 80002ac:	d1f9      	bne.n	80002a2 <aes+0x6c>
 80002ae:	07f0      	lsls	r0, r6, #31
 80002b0:	d50e      	bpl.n	80002d0 <aes+0x9a>
 80002b2:	463a      	mov	r2, r7
 80002b4:	4651      	mov	r1, sl
 80002b6:	4620      	mov	r0, r4
 80002b8:	f000 fc98 	bl	8000bec <aes_loadKey>
 80002bc:	2800      	cmp	r0, #0
 80002be:	d171      	bne.n	80003a4 <aes+0x16e>
 80002c0:	f894 3724 	ldrb.w	r3, [r4, #1828]	; 0x724
 80002c4:	f8c4 0720 	str.w	r0, [r4, #1824]	; 0x720
 80002c8:	f043 0301 	orr.w	r3, r3, #1
 80002cc:	f884 3724 	strb.w	r3, [r4, #1828]	; 0x724
 80002d0:	0671      	lsls	r1, r6, #25
 80002d2:	d51e      	bpl.n	8000312 <aes+0xdc>
 80002d4:	9b13      	ldr	r3, [sp, #76]	; 0x4c
 80002d6:	4639      	mov	r1, r7
 80002d8:	1e5a      	subs	r2, r3, #1
 80002da:	3312      	adds	r3, #18
 80002dc:	f812 0f01 	ldrb.w	r0, [r2, #1]!
 80002e0:	f801 0b01 	strb.w	r0, [r1], #1
 80002e4:	429a      	cmp	r2, r3
 80002e6:	d1f9      	bne.n	80002dc <aes+0xa6>
 80002e8:	07b2      	lsls	r2, r6, #30
 80002ea:	d524      	bpl.n	8000336 <aes+0x100>
 80002ec:	4639      	mov	r1, r7
 80002ee:	f504 7068 	add.w	r0, r4, #928	; 0x3a0
 80002f2:	f000 fceb 	bl	8000ccc <aes_init_enc>
 80002f6:	b1a0      	cbz	r0, 8000322 <aes+0xec>
 80002f8:	2580      	movs	r5, #128	; 0x80
 80002fa:	4628      	mov	r0, r5
 80002fc:	b009      	add	sp, #36	; 0x24
 80002fe:	e8bd 8ff0 	ldmia.w	sp!, {r4, r5, r6, r7, r8, r9, sl, fp, pc}
 8000302:	4641      	mov	r1, r8
 8000304:	4638      	mov	r0, r7
 8000306:	f7ff feeb 	bl	80000e0 <get_random>
 800030a:	2800      	cmp	r0, #0
 800030c:	d0cf      	beq.n	80002ae <aes+0x78>
 800030e:	2510      	movs	r5, #16
 8000310:	e7f3      	b.n	80002fa <aes+0xc4>
 8000312:	2113      	movs	r1, #19
 8000314:	4638      	mov	r0, r7
 8000316:	f7ff fee3 	bl	80000e0 <get_random>
 800031a:	2800      	cmp	r0, #0
 800031c:	d0e4      	beq.n	80002e8 <aes+0xb2>
 800031e:	2520      	movs	r5, #32
 8000320:	e7eb      	b.n	80002fa <aes+0xc4>
 8000322:	f894 3724 	ldrb.w	r3, [r4, #1828]	; 0x724
 8000326:	f8c4 071c 	str.w	r0, [r4, #1820]	; 0x71c
 800032a:	f023 0304 	bic.w	r3, r3, #4
 800032e:	f043 0302 	orr.w	r3, r3, #2
 8000332:	f884 3724 	strb.w	r3, [r4, #1828]	; 0x724
 8000336:	0773      	lsls	r3, r6, #29
 8000338:	d510      	bpl.n	800035c <aes+0x126>
 800033a:	4639      	mov	r1, r7
 800033c:	f504 7068 	add.w	r0, r4, #928	; 0x3a0
 8000340:	f000 fd10 	bl	8000d64 <aes_init_dec>
 8000344:	2800      	cmp	r0, #0
 8000346:	d1d7      	bne.n	80002f8 <aes+0xc2>
 8000348:	f894 3724 	ldrb.w	r3, [r4, #1828]	; 0x724
 800034c:	f8c4 071c 	str.w	r0, [r4, #1820]	; 0x71c
 8000350:	f023 0302 	bic.w	r3, r3, #2
 8000354:	f043 0304 	orr.w	r3, r3, #4
 8000358:	f884 3724 	strb.w	r3, [r4, #1828]	; 0x724
 800035c:	f006 0618 	and.w	r6, r6, #24
 8000360:	2e08      	cmp	r6, #8
 8000362:	d00c      	beq.n	800037e <aes+0x148>
 8000364:	2e10      	cmp	r6, #16
 8000366:	d1c8      	bne.n	80002fa <aes+0xc4>
 8000368:	465b      	mov	r3, fp
 800036a:	464a      	mov	r2, r9
 800036c:	4621      	mov	r1, r4
 800036e:	f504 7068 	add.w	r0, r4, #928	; 0x3a0
 8000372:	f000 fe2c 	bl	8000fce <aes_dec>
 8000376:	b150      	cbz	r0, 800038e <aes+0x158>
 8000378:	f44f 7500 	mov.w	r5, #512	; 0x200
 800037c:	e7bd      	b.n	80002fa <aes+0xc4>
 800037e:	465b      	mov	r3, fp
 8000380:	464a      	mov	r2, r9
 8000382:	4621      	mov	r1, r4
 8000384:	f504 7068 	add.w	r0, r4, #928	; 0x3a0
 8000388:	f7ff fee8 	bl	800015c <cipher>
 800038c:	b960      	cbnz	r0, 80003a8 <aes+0x172>
 800038e:	f8d4 3720 	ldr.w	r3, [r4, #1824]	; 0x720
 8000392:	3301      	adds	r3, #1
 8000394:	f8c4 3720 	str.w	r3, [r4, #1824]	; 0x720
 8000398:	f8d4 371c 	ldr.w	r3, [r4, #1820]	; 0x71c
 800039c:	3301      	adds	r3, #1
 800039e:	f8c4 371c 	str.w	r3, [r4, #1820]	; 0x71c
 80003a2:	e7aa      	b.n	80002fa <aes+0xc4>
 80003a4:	2540      	movs	r5, #64	; 0x40
 80003a6:	e7a8      	b.n	80002fa <aes+0xc4>
 80003a8:	f44f 7580 	mov.w	r5, #256	; 0x100
 80003ac:	e7a5      	b.n	80002fa <aes+0xc4>

080003ae <Compute_GTab>:
 80003ae:	f24f 7449 	movw	r4, #63305	; 0xf749
 80003b2:	f6c0 0402 	movt	r4, #2050	; 0x802
 80003b6:	f64f 0549 	movw	r5, #63561	; 0xf849
 80003ba:	f6c0 0502 	movt	r5, #2050	; 0x802
 80003be:	5de7      	ldrb	r7, [r4, r7]
 80003c0:	463e      	mov	r6, r7
 80003c2:	ea4f 2707 	mov.w	r7, r7, lsl #8
 80003c6:	ea86 0607 	eor.w	r6, r6, r7
 80003ca:	ea4f 2707 	mov.w	r7, r7, lsl #8
 80003ce:	ea86 0607 	eor.w	r6, r6, r7
 80003d2:	ea4f 2707 	mov.w	r7, r7, lsl #8
 80003d6:	ea86 0707 	eor.w	r7, r6, r7
 80003da:	f04f 3201 	mov.w	r2, #16843009	; 0x1010101
 80003de:	f04f 0a00 	mov.w	sl, #0
 80003e2:	b403      	push	{r0, r1}
 80003e4:	9802      	ldr	r0, [sp, #8]
 80003e6:	f04f 0101 	mov.w	r1, #1
 80003ea:	6001      	str	r1, [r0, #0]
 80003ec:	bc03      	pop	{r0, r1}
 80003ee:	b403      	push	{r0, r1}
 80003f0:	9802      	ldr	r0, [sp, #8]
 80003f2:	6801      	ldr	r1, [r0, #0]
 80003f4:	f101 0101 	add.w	r1, r1, #1
 80003f8:	2942      	cmp	r1, #66	; 0x42
 80003fa:	6001      	str	r1, [r0, #0]
 80003fc:	bc03      	pop	{r0, r1}
 80003fe:	d02e      	beq.n	800045e <Compute_GTab+0xb0>
 8000400:	f854 6b04 	ldr.w	r6, [r4], #4
 8000404:	fa86 f647 	uadd8	r6, r6, r7
 8000408:	faa2 f88a 	sel	r8, r2, sl
 800040c:	fa86 f648 	uadd8	r6, r6, r8
 8000410:	46b0      	mov	r8, r6
 8000412:	f008 08ff 	and.w	r8, r8, #255	; 0xff
 8000416:	f815 8008 	ldrb.w	r8, [r5, r8]
 800041a:	46c3      	mov	fp, r8
 800041c:	ea4f 2816 	mov.w	r8, r6, lsr #8
 8000420:	f008 08ff 	and.w	r8, r8, #255	; 0xff
 8000424:	f815 8008 	ldrb.w	r8, [r5, r8]
 8000428:	ea4f 2808 	mov.w	r8, r8, lsl #8
 800042c:	ea8b 0b08 	eor.w	fp, fp, r8
 8000430:	ea4f 4816 	mov.w	r8, r6, lsr #16
 8000434:	f008 08ff 	and.w	r8, r8, #255	; 0xff
 8000438:	f815 8008 	ldrb.w	r8, [r5, r8]
 800043c:	ea4f 4808 	mov.w	r8, r8, lsl #16
 8000440:	ea8b 0b08 	eor.w	fp, fp, r8
 8000444:	ea4f 6816 	mov.w	r8, r6, lsr #24
 8000448:	f008 08ff 	and.w	r8, r8, #255	; 0xff
 800044c:	f815 8008 	ldrb.w	r8, [r5, r8]
 8000450:	ea4f 6808 	mov.w	r8, r8, lsl #24
 8000454:	ea8b 0b08 	eor.w	fp, fp, r8
 8000458:	f843 bb04 	str.w	fp, [r3], #4
 800045c:	e7c7      	b.n	80003ee <Compute_GTab+0x40>
 800045e:	f5a3 7380 	sub.w	r3, r3, #256	; 0x100
 8000462:	f04f 0600 	mov.w	r6, #0
 8000466:	701e      	strb	r6, [r3, #0]
 8000468:	4770      	bx	lr

0800046a <Load_data>:
 800046a:	9b00      	ldr	r3, [sp, #0]
 800046c:	f503 7313 	add.w	r3, r3, #588	; 0x24c
 8000470:	9d00      	ldr	r5, [sp, #0]
 8000472:	f505 7502 	add.w	r5, r5, #520	; 0x208
 8000476:	9e00      	ldr	r6, [sp, #0]
 8000478:	f506 7617 	add.w	r6, r6, #604	; 0x25c
 800047c:	b403      	push	{r0, r1}
 800047e:	9802      	ldr	r0, [sp, #8]
 8000480:	f04f 0101 	mov.w	r1, #1
 8000484:	6001      	str	r1, [r0, #0]
 8000486:	bc03      	pop	{r0, r1}
 8000488:	b403      	push	{r0, r1}
 800048a:	9802      	ldr	r0, [sp, #8]
 800048c:	6801      	ldr	r1, [r0, #0]
 800048e:	f101 0101 	add.w	r1, r1, #1
 8000492:	2912      	cmp	r1, #18
 8000494:	6001      	str	r1, [r0, #0]
 8000496:	bc03      	pop	{r0, r1}
 8000498:	d008      	beq.n	80004ac <Load_data+0x42>
 800049a:	f812 4b01 	ldrb.w	r4, [r2], #1
 800049e:	f803 4b01 	strb.w	r4, [r3], #1
 80004a2:	f815 4b01 	ldrb.w	r4, [r5], #1
 80004a6:	f806 4b01 	strb.w	r4, [r6], #1
 80004aa:	e7ed      	b.n	8000488 <Load_data+0x1e>
 80004ac:	4770      	bx	lr

080004ae <Load_masterKey>:
 80004ae:	f8dd 8000 	ldr.w	r8, [sp]
 80004b2:	f108 0808 	add.w	r8, r8, #8
 80004b6:	9f00      	ldr	r7, [sp, #0]
 80004b8:	f107 07b8 	add.w	r7, r7, #184	; 0xb8
 80004bc:	f8dd c000 	ldr.w	ip, [sp]
 80004c0:	f50c 7cba 	add.w	ip, ip, #372	; 0x174
 80004c4:	b403      	push	{r0, r1}
 80004c6:	9802      	ldr	r0, [sp, #8]
 80004c8:	f04f 0101 	mov.w	r1, #1
 80004cc:	6001      	str	r1, [r0, #0]
 80004ce:	bc03      	pop	{r0, r1}
 80004d0:	b403      	push	{r0, r1}
 80004d2:	9802      	ldr	r0, [sp, #8]
 80004d4:	6801      	ldr	r1, [r0, #0]
 80004d6:	f101 0101 	add.w	r1, r1, #1
 80004da:	2912      	cmp	r1, #18
 80004dc:	6001      	str	r1, [r0, #0]
 80004de:	bc03      	pop	{r0, r1}
 80004e0:	d00a      	beq.n	80004f8 <Load_masterKey+0x4a>
 80004e2:	f817 4b01 	ldrb.w	r4, [r7], #1
 80004e6:	f811 3b01 	ldrb.w	r3, [r1], #1
 80004ea:	f81c 3003 	ldrb.w	r3, [ip, r3]
 80004ee:	ea83 0404 	eor.w	r4, r3, r4
 80004f2:	f808 4b01 	strb.w	r4, [r8], #1
 80004f6:	e7eb      	b.n	80004d0 <Load_masterKey+0x22>
 80004f8:	4770      	bx	lr

080004fa <Load_random_key>:
 80004fa:	f8dd 8000 	ldr.w	r8, [sp]
 80004fe:	f108 08b8 	add.w	r8, r8, #184	; 0xb8
 8000502:	b403      	push	{r0, r1}
 8000504:	9802      	ldr	r0, [sp, #8]
 8000506:	f04f 0101 	mov.w	r1, #1
 800050a:	6001      	str	r1, [r0, #0]
 800050c:	bc03      	pop	{r0, r1}
 800050e:	b403      	push	{r0, r1}
 8000510:	9802      	ldr	r0, [sp, #8]
 8000512:	6801      	ldr	r1, [r0, #0]
 8000514:	f101 0101 	add.w	r1, r1, #1
 8000518:	2912      	cmp	r1, #18
 800051a:	6001      	str	r1, [r0, #0]
 800051c:	bc03      	pop	{r0, r1}
 800051e:	d004      	beq.n	800052a <Load_random_key+0x30>
 8000520:	f812 4b01 	ldrb.w	r4, [r2], #1
 8000524:	f808 4b01 	strb.w	r4, [r8], #1
 8000528:	e7f1      	b.n	800050e <Load_random_key+0x14>
 800052a:	f8dd 8000 	ldr.w	r8, [sp]
 800052e:	f508 78b4 	add.w	r8, r8, #360	; 0x168
 8000532:	f812 5b01 	ldrb.w	r5, [r2], #1
 8000536:	f888 5000 	strb.w	r5, [r8]
 800053a:	f888 5001 	strb.w	r5, [r8, #1]
 800053e:	f888 5002 	strb.w	r5, [r8, #2]
 8000542:	f888 5003 	strb.w	r5, [r8, #3]
 8000546:	f8dd 8000 	ldr.w	r8, [sp]
 800054a:	f508 78b6 	add.w	r8, r8, #364	; 0x16c
 800054e:	f812 5b01 	ldrb.w	r5, [r2], #1
 8000552:	f888 5000 	strb.w	r5, [r8]
 8000556:	f888 5001 	strb.w	r5, [r8, #1]
 800055a:	f888 5002 	strb.w	r5, [r8, #2]
 800055e:	f888 5003 	strb.w	r5, [r8, #3]
 8000562:	f8dd 8000 	ldr.w	r8, [sp]
 8000566:	f508 78b8 	add.w	r8, r8, #368	; 0x170
 800056a:	7817      	ldrb	r7, [r2, #0]
 800056c:	f888 7000 	strb.w	r7, [r8]
 8000570:	4770      	bx	lr

08000572 <Load_random>:
 8000572:	9b00      	ldr	r3, [sp, #0]
 8000574:	f503 7302 	add.w	r3, r3, #520	; 0x208
 8000578:	b403      	push	{r0, r1}
 800057a:	9802      	ldr	r0, [sp, #8]
 800057c:	f04f 0101 	mov.w	r1, #1
 8000580:	6001      	str	r1, [r0, #0]
 8000582:	bc03      	pop	{r0, r1}
 8000584:	b403      	push	{r0, r1}
 8000586:	9802      	ldr	r0, [sp, #8]
 8000588:	6801      	ldr	r1, [r0, #0]
 800058a:	f101 0101 	add.w	r1, r1, #1
 800058e:	2912      	cmp	r1, #18
 8000590:	6001      	str	r1, [r0, #0]
 8000592:	bc03      	pop	{r0, r1}
 8000594:	d004      	beq.n	80005a0 <Load_random+0x2e>
 8000596:	f811 4b01 	ldrb.w	r4, [r1], #1
 800059a:	f803 4b01 	strb.w	r4, [r3], #1
 800059e:	e7f1      	b.n	8000584 <Load_random+0x12>
 80005a0:	9f00      	ldr	r7, [sp, #0]
 80005a2:	f507 7710 	add.w	r7, r7, #576	; 0x240
 80005a6:	f811 5b01 	ldrb.w	r5, [r1], #1
 80005aa:	703d      	strb	r5, [r7, #0]
 80005ac:	707d      	strb	r5, [r7, #1]
 80005ae:	70bd      	strb	r5, [r7, #2]
 80005b0:	70fd      	strb	r5, [r7, #3]
 80005b2:	683d      	ldr	r5, [r7, #0]
 80005b4:	9f00      	ldr	r7, [sp, #0]
 80005b6:	f507 7711 	add.w	r7, r7, #580	; 0x244
 80005ba:	f811 5b01 	ldrb.w	r5, [r1], #1
 80005be:	703d      	strb	r5, [r7, #0]
 80005c0:	707d      	strb	r5, [r7, #1]
 80005c2:	70bd      	strb	r5, [r7, #2]
 80005c4:	70fd      	strb	r5, [r7, #3]
 80005c6:	683d      	ldr	r5, [r7, #0]
 80005c8:	9d00      	ldr	r5, [sp, #0]
 80005ca:	f505 7512 	add.w	r5, r5, #584	; 0x248
 80005ce:	780f      	ldrb	r7, [r1, #0]
 80005d0:	702f      	strb	r7, [r5, #0]
 80005d2:	4770      	bx	lr

080005d4 <Compute_Affine_sboxMasked>:
 80005d4:	46a4      	mov	ip, r4
 80005d6:	b403      	push	{r0, r1}
 80005d8:	9802      	ldr	r0, [sp, #8]
 80005da:	f04f 0101 	mov.w	r1, #1
 80005de:	6001      	str	r1, [r0, #0]
 80005e0:	bc03      	pop	{r0, r1}
 80005e2:	b403      	push	{r0, r1}
 80005e4:	9802      	ldr	r0, [sp, #8]
 80005e6:	6801      	ldr	r1, [r0, #0]
 80005e8:	f101 0101 	add.w	r1, r1, #1
 80005ec:	2942      	cmp	r1, #66	; 0x42
 80005ee:	6001      	str	r1, [r0, #0]
 80005f0:	bc03      	pop	{r0, r1}
 80005f2:	d02e      	beq.n	8000652 <Compute_Affine_sboxMasked+0x7e>
 80005f4:	f854 6b04 	ldr.w	r6, [r4], #4
 80005f8:	ea86 0601 	eor.w	r6, r6, r1
 80005fc:	f006 00ff 	and.w	r0, r6, #255	; 0xff
 8000600:	f812 7b01 	ldrb.w	r7, [r2], #1
 8000604:	f81c 7007 	ldrb.w	r7, [ip, r7]
 8000608:	ea87 0708 	eor.w	r7, r7, r8
 800060c:	541f      	strb	r7, [r3, r0]
 800060e:	ea4f 2016 	mov.w	r0, r6, lsr #8
 8000612:	f000 00ff 	and.w	r0, r0, #255	; 0xff
 8000616:	f812 7b01 	ldrb.w	r7, [r2], #1
 800061a:	f81c 7007 	ldrb.w	r7, [ip, r7]
 800061e:	ea87 0708 	eor.w	r7, r7, r8
 8000622:	541f      	strb	r7, [r3, r0]
 8000624:	ea4f 4016 	mov.w	r0, r6, lsr #16
 8000628:	f000 00ff 	and.w	r0, r0, #255	; 0xff
 800062c:	f812 7b01 	ldrb.w	r7, [r2], #1
 8000630:	f81c 7007 	ldrb.w	r7, [ip, r7]
 8000634:	ea87 0708 	eor.w	r7, r7, r8
 8000638:	541f      	strb	r7, [r3, r0]
 800063a:	ea4f 6016 	mov.w	r0, r6, lsr #24
 800063e:	f000 00ff 	and.w	r0, r0, #255	; 0xff
 8000642:	f812 7b01 	ldrb.w	r7, [r2], #1
 8000646:	f81c 7007 	ldrb.w	r7, [ip, r7]
 800064a:	ea87 0708 	eor.w	r7, r7, r8
 800064e:	541f      	strb	r7, [r3, r0]
 8000650:	e7c7      	b.n	80005e2 <Compute_Affine_sboxMasked+0xe>
 8000652:	4770      	bx	lr

08000654 <Compute_permIndices_Tables_MC>:
 8000654:	5da2      	ldrb	r2, [r4, r6]
 8000656:	f002 0203 	and.w	r2, r2, #3
 800065a:	f04f 0500 	mov.w	r5, #0
 800065e:	b403      	push	{r0, r1}
 8000660:	9802      	ldr	r0, [sp, #8]
 8000662:	f04f 0101 	mov.w	r1, #1
 8000666:	6001      	str	r1, [r0, #0]
 8000668:	bc03      	pop	{r0, r1}
 800066a:	b403      	push	{r0, r1}
 800066c:	9802      	ldr	r0, [sp, #8]
 800066e:	6801      	ldr	r1, [r0, #0]
 8000670:	f101 0101 	add.w	r1, r1, #1
 8000674:	2906      	cmp	r1, #6
 8000676:	6001      	str	r1, [r0, #0]
 8000678:	bc03      	pop	{r0, r1}
 800067a:	d006      	beq.n	800068a <Compute_permIndices_Tables_MC+0x36>
 800067c:	ea85 0602 	eor.w	r6, r5, r2
 8000680:	f800 6b01 	strb.w	r6, [r0], #1
 8000684:	f105 0501 	add.w	r5, r5, #1
 8000688:	e7ef      	b.n	800066a <Compute_permIndices_Tables_MC+0x16>
 800068a:	4770      	bx	lr

0800068c <Compute_permIndices_Tables>:
 800068c:	f64f 1549 	movw	r5, #63817	; 0xf949
 8000690:	f6c0 0502 	movt	r5, #2050	; 0x802
 8000694:	f814 1b01 	ldrb.w	r1, [r4], #1
 8000698:	f001 010f 	and.w	r1, r1, #15
 800069c:	f814 8b01 	ldrb.w	r8, [r4], #1
 80006a0:	f008 080f 	and.w	r8, r8, #15
 80006a4:	f814 bb01 	ldrb.w	fp, [r4], #1
 80006a8:	f00b 0b0f 	and.w	fp, fp, #15
 80006ac:	f814 ab01 	ldrb.w	sl, [r4], #1
 80006b0:	f00a 0a0f 	and.w	sl, sl, #15
 80006b4:	f04f 0000 	mov.w	r0, #0
 80006b8:	b403      	push	{r0, r1}
 80006ba:	9802      	ldr	r0, [sp, #8]
 80006bc:	f04f 0101 	mov.w	r1, #1
 80006c0:	6001      	str	r1, [r0, #0]
 80006c2:	bc03      	pop	{r0, r1}
 80006c4:	b403      	push	{r0, r1}
 80006c6:	9802      	ldr	r0, [sp, #8]
 80006c8:	6801      	ldr	r1, [r0, #0]
 80006ca:	f101 0101 	add.w	r1, r1, #1
 80006ce:	2912      	cmp	r1, #18
 80006d0:	6001      	str	r1, [r0, #0]
 80006d2:	bc03      	pop	{r0, r1}
 80006d4:	d01e      	beq.n	8000714 <Compute_permIndices_Tables+0x88>
 80006d6:	ea80 0701 	eor.w	r7, r0, r1
 80006da:	5def      	ldrb	r7, [r5, r7]
 80006dc:	ea87 0708 	eor.w	r7, r7, r8
 80006e0:	5def      	ldrb	r7, [r5, r7]
 80006e2:	ea87 070b 	eor.w	r7, r7, fp
 80006e6:	5def      	ldrb	r7, [r5, r7]
 80006e8:	ea87 070a 	eor.w	r7, r7, sl
 80006ec:	5def      	ldrb	r7, [r5, r7]
 80006ee:	f802 7b01 	strb.w	r7, [r2], #1
 80006f2:	ea87 0701 	eor.w	r7, r7, r1
 80006f6:	5def      	ldrb	r7, [r5, r7]
 80006f8:	ea87 0708 	eor.w	r7, r7, r8
 80006fc:	5def      	ldrb	r7, [r5, r7]
 80006fe:	ea87 070b 	eor.w	r7, r7, fp
 8000702:	5def      	ldrb	r7, [r5, r7]
 8000704:	ea87 070a 	eor.w	r7, r7, sl
 8000708:	5def      	ldrb	r7, [r5, r7]
 800070a:	f803 7b01 	strb.w	r7, [r3], #1
 800070e:	f100 0001 	add.w	r0, r0, #1
 8000712:	e7d7      	b.n	80006c4 <Compute_permIndices_Tables+0x38>
 8000714:	4770      	bx	lr

08000716 <SubBytesWithMask>:
 8000716:	b403      	push	{r0, r1}
 8000718:	9802      	ldr	r0, [sp, #8]
 800071a:	f04f 0101 	mov.w	r1, #1
 800071e:	6001      	str	r1, [r0, #0]
 8000720:	bc03      	pop	{r0, r1}
 8000722:	b403      	push	{r0, r1}
 8000724:	9802      	ldr	r0, [sp, #8]
 8000726:	6801      	ldr	r1, [r0, #0]
 8000728:	f101 0101 	add.w	r1, r1, #1
 800072c:	2912      	cmp	r1, #18
 800072e:	6001      	str	r1, [r0, #0]
 8000730:	bc03      	pop	{r0, r1}
 8000732:	d00c      	beq.n	800074e <SubBytesWithMask+0x38>
 8000734:	f815 0b01 	ldrb.w	r0, [r5], #1
 8000738:	5c1c      	ldrb	r4, [r3, r0]
 800073a:	f81a 6000 	ldrb.w	r6, [sl, r0]
 800073e:	ea84 0406 	eor.w	r4, r4, r6
 8000742:	f818 4004 	ldrb.w	r4, [r8, r4]
 8000746:	ea84 0406 	eor.w	r4, r4, r6
 800074a:	541c      	strb	r4, [r3, r0]
 800074c:	e7e9      	b.n	8000722 <SubBytesWithMask+0xc>
 800074e:	683f      	ldr	r7, [r7, #0]
 8000750:	681e      	ldr	r6, [r3, #0]
 8000752:	ea86 0607 	eor.w	r6, r6, r7
 8000756:	601e      	str	r6, [r3, #0]
 8000758:	685e      	ldr	r6, [r3, #4]
 800075a:	ea86 0607 	eor.w	r6, r6, r7
 800075e:	605e      	str	r6, [r3, #4]
 8000760:	689e      	ldr	r6, [r3, #8]
 8000762:	ea86 0607 	eor.w	r6, r6, r7
 8000766:	609e      	str	r6, [r3, #8]
 8000768:	68de      	ldr	r6, [r3, #12]
 800076a:	ea86 0607 	eor.w	r6, r6, r7
 800076e:	60de      	str	r6, [r3, #12]
 8000770:	4770      	bx	lr

08000772 <ShiftRowsWithMasked>:
 8000772:	9d00      	ldr	r5, [sp, #0]
 8000774:	f505 7506 	add.w	r5, r5, #536	; 0x218
 8000778:	b403      	push	{r0, r1}
 800077a:	9802      	ldr	r0, [sp, #8]
 800077c:	f04f 0101 	mov.w	r1, #1
 8000780:	6001      	str	r1, [r0, #0]
 8000782:	bc03      	pop	{r0, r1}
 8000784:	b403      	push	{r0, r1}
 8000786:	9802      	ldr	r0, [sp, #8]
 8000788:	6801      	ldr	r1, [r0, #0]
 800078a:	f101 0101 	add.w	r1, r1, #1
 800078e:	2912      	cmp	r1, #18
 8000790:	6001      	str	r1, [r0, #0]
 8000792:	bc03      	pop	{r0, r1}
 8000794:	d007      	beq.n	80007a6 <ShiftRowsWithMasked+0x34>
 8000796:	f815 6b01 	ldrb.w	r6, [r5], #1
 800079a:	f813 8006 	ldrb.w	r8, [r3, r6]
 800079e:	5da6      	ldrb	r6, [r4, r6]
 80007a0:	f807 8006 	strb.w	r8, [r7, r6]
 80007a4:	e7ee      	b.n	8000784 <ShiftRowsWithMasked+0x12>
 80007a6:	9d00      	ldr	r5, [sp, #0]
 80007a8:	f505 7506 	add.w	r5, r5, #536	; 0x218
 80007ac:	b403      	push	{r0, r1}
 80007ae:	9802      	ldr	r0, [sp, #8]
 80007b0:	f04f 0101 	mov.w	r1, #1
 80007b4:	6001      	str	r1, [r0, #0]
 80007b6:	bc03      	pop	{r0, r1}
 80007b8:	b403      	push	{r0, r1}
 80007ba:	9802      	ldr	r0, [sp, #8]
 80007bc:	6801      	ldr	r1, [r0, #0]
 80007be:	f101 0101 	add.w	r1, r1, #1
 80007c2:	2912      	cmp	r1, #18
 80007c4:	6001      	str	r1, [r0, #0]
 80007c6:	bc03      	pop	{r0, r1}
 80007c8:	d006      	beq.n	80007d8 <ShiftRowsWithMasked+0x66>
 80007ca:	f815 6b01 	ldrb.w	r6, [r5], #1
 80007ce:	f817 8006 	ldrb.w	r8, [r7, r6]
 80007d2:	f803 8006 	strb.w	r8, [r3, r6]
 80007d6:	e7ef      	b.n	80007b8 <ShiftRowsWithMasked+0x46>
 80007d8:	9d00      	ldr	r5, [sp, #0]
 80007da:	f505 750a 	add.w	r5, r5, #552	; 0x228
 80007de:	b403      	push	{r0, r1}
 80007e0:	9802      	ldr	r0, [sp, #8]
 80007e2:	f04f 0101 	mov.w	r1, #1
 80007e6:	6001      	str	r1, [r0, #0]
 80007e8:	bc03      	pop	{r0, r1}
 80007ea:	b403      	push	{r0, r1}
 80007ec:	9802      	ldr	r0, [sp, #8]
 80007ee:	6801      	ldr	r1, [r0, #0]
 80007f0:	f101 0101 	add.w	r1, r1, #1
 80007f4:	2912      	cmp	r1, #18
 80007f6:	6001      	str	r1, [r0, #0]
 80007f8:	bc03      	pop	{r0, r1}
 80007fa:	d007      	beq.n	800080c <ShiftRowsWithMasked+0x9a>
 80007fc:	f815 6b01 	ldrb.w	r6, [r5], #1
 8000800:	f81a 8006 	ldrb.w	r8, [sl, r6]
 8000804:	5da6      	ldrb	r6, [r4, r6]
 8000806:	f807 8006 	strb.w	r8, [r7, r6]
 800080a:	e7ee      	b.n	80007ea <ShiftRowsWithMasked+0x78>
 800080c:	9d00      	ldr	r5, [sp, #0]
 800080e:	f505 750a 	add.w	r5, r5, #552	; 0x228
 8000812:	b403      	push	{r0, r1}
 8000814:	9802      	ldr	r0, [sp, #8]
 8000816:	f04f 0101 	mov.w	r1, #1
 800081a:	6001      	str	r1, [r0, #0]
 800081c:	bc03      	pop	{r0, r1}
 800081e:	b403      	push	{r0, r1}
 8000820:	9802      	ldr	r0, [sp, #8]
 8000822:	6801      	ldr	r1, [r0, #0]
 8000824:	f101 0101 	add.w	r1, r1, #1
 8000828:	2912      	cmp	r1, #18
 800082a:	6001      	str	r1, [r0, #0]
 800082c:	bc03      	pop	{r0, r1}
 800082e:	d006      	beq.n	800083e <ShiftRowsWithMasked+0xcc>
 8000830:	f815 6b01 	ldrb.w	r6, [r5], #1
 8000834:	f817 8006 	ldrb.w	r8, [r7, r6]
 8000838:	f80a 8006 	strb.w	r8, [sl, r6]
 800083c:	e7ef      	b.n	800081e <ShiftRowsWithMasked+0xac>
 800083e:	4770      	bx	lr

08000840 <MixColumns>:
 8000840:	b403      	push	{r0, r1}
 8000842:	9802      	ldr	r0, [sp, #8]
 8000844:	f04f 0101 	mov.w	r1, #1
 8000848:	6001      	str	r1, [r0, #0]
 800084a:	bc03      	pop	{r0, r1}
 800084c:	b403      	push	{r0, r1}
 800084e:	9802      	ldr	r0, [sp, #8]
 8000850:	6801      	ldr	r1, [r0, #0]
 8000852:	f101 0101 	add.w	r1, r1, #1
 8000856:	2906      	cmp	r1, #6
 8000858:	6001      	str	r1, [r0, #0]
 800085a:	bc03      	pop	{r0, r1}
 800085c:	d035      	beq.n	80008ca <MixColumns+0x8a>
 800085e:	f810 8b01 	ldrb.w	r8, [r0], #1
 8000862:	ea4f 0888 	mov.w	r8, r8, lsl #2
 8000866:	eb0a 0308 	add.w	r3, sl, r8
 800086a:	f893 8000 	ldrb.w	r8, [r3]
 800086e:	f893 b001 	ldrb.w	fp, [r3, #1]
 8000872:	ea88 040b 	eor.w	r4, r8, fp
 8000876:	789a      	ldrb	r2, [r3, #2]
 8000878:	ea84 0402 	eor.w	r4, r4, r2
 800087c:	78dd      	ldrb	r5, [r3, #3]
 800087e:	ea84 0405 	eor.w	r4, r4, r5
 8000882:	ea88 070b 	eor.w	r7, r8, fp
 8000886:	5df7      	ldrb	r7, [r6, r7]
 8000888:	ea87 0708 	eor.w	r7, r7, r8
 800088c:	ea87 0704 	eor.w	r7, r7, r4
 8000890:	f803 7b01 	strb.w	r7, [r3], #1
 8000894:	ea8b 0702 	eor.w	r7, fp, r2
 8000898:	5df7      	ldrb	r7, [r6, r7]
 800089a:	ea87 070b 	eor.w	r7, r7, fp
 800089e:	ea87 0704 	eor.w	r7, r7, r4
 80008a2:	f803 7b01 	strb.w	r7, [r3], #1
 80008a6:	ea82 0705 	eor.w	r7, r2, r5
 80008aa:	5dbf      	ldrb	r7, [r7, r6]
 80008ac:	ea87 0702 	eor.w	r7, r7, r2
 80008b0:	ea87 0704 	eor.w	r7, r7, r4
 80008b4:	f803 7b01 	strb.w	r7, [r3], #1
 80008b8:	ea88 0705 	eor.w	r7, r8, r5
 80008bc:	5df7      	ldrb	r7, [r6, r7]
 80008be:	ea87 0705 	eor.w	r7, r7, r5
 80008c2:	ea87 0704 	eor.w	r7, r7, r4
 80008c6:	701f      	strb	r7, [r3, #0]
 80008c8:	e7c0      	b.n	800084c <MixColumns+0xc>
 80008ca:	4770      	bx	lr

080008cc <InvMixColumns_part2>:
 80008cc:	b403      	push	{r0, r1}
 80008ce:	9802      	ldr	r0, [sp, #8]
 80008d0:	f04f 0101 	mov.w	r1, #1
 80008d4:	6001      	str	r1, [r0, #0]
 80008d6:	bc03      	pop	{r0, r1}
 80008d8:	b403      	push	{r0, r1}
 80008da:	9802      	ldr	r0, [sp, #8]
 80008dc:	6801      	ldr	r1, [r0, #0]
 80008de:	f101 0101 	add.w	r1, r1, #1
 80008e2:	2906      	cmp	r1, #6
 80008e4:	6001      	str	r1, [r0, #0]
 80008e6:	bc03      	pop	{r0, r1}
 80008e8:	d035      	beq.n	8000956 <InvMixColumns_part2+0x8a>
 80008ea:	9a00      	ldr	r2, [sp, #0]
 80008ec:	f502 725b 	add.w	r2, r2, #876	; 0x36c
 80008f0:	f810 8b01 	ldrb.w	r8, [r0], #1
 80008f4:	ea4f 0888 	mov.w	r8, r8, lsl #2
 80008f8:	eb0a 0308 	add.w	r3, sl, r8
 80008fc:	4442      	add	r2, r8
 80008fe:	f893 8000 	ldrb.w	r8, [r3]
 8000902:	f893 b001 	ldrb.w	fp, [r3, #1]
 8000906:	ea88 040b 	eor.w	r4, r8, fp
 800090a:	789e      	ldrb	r6, [r3, #2]
 800090c:	ea84 0406 	eor.w	r4, r4, r6
 8000910:	78dd      	ldrb	r5, [r3, #3]
 8000912:	ea88 0806 	eor.w	r8, r8, r6
 8000916:	ea84 0405 	eor.w	r4, r4, r5
 800091a:	f24f 6649 	movw	r6, #63049	; 0xf649
 800091e:	f6c0 0602 	movt	r6, #2050	; 0x802
 8000922:	5d34      	ldrb	r4, [r6, r4]
 8000924:	f24f 5649 	movw	r6, #62793	; 0xf549
 8000928:	f6c0 0602 	movt	r6, #2050	; 0x802
 800092c:	f816 8008 	ldrb.w	r8, [r6, r8]
 8000930:	ea88 0804 	eor.w	r8, r8, r4
 8000934:	f802 8b02 	strb.w	r8, [r2], #2
 8000938:	f882 8000 	strb.w	r8, [r2]
 800093c:	f1a2 0201 	sub.w	r2, r2, #1
 8000940:	ea8b 0805 	eor.w	r8, fp, r5
 8000944:	f816 8008 	ldrb.w	r8, [r6, r8]
 8000948:	ea88 0804 	eor.w	r8, r8, r4
 800094c:	f802 8b02 	strb.w	r8, [r2], #2
 8000950:	f882 8000 	strb.w	r8, [r2]
 8000954:	e7c0      	b.n	80008d8 <InvMixColumns_part2+0xc>
 8000956:	4770      	bx	lr

08000958 <KeyExpansion_masked>:
 8000958:	f8d1 800c 	ldr.w	r8, [r1, #12]
 800095c:	ea4f 2838 	mov.w	r8, r8, ror #8
 8000960:	f841 8f10 	str.w	r8, [r1, #16]!
 8000964:	f8d7 800c 	ldr.w	r8, [r7, #12]
 8000968:	ea4f 2838 	mov.w	r8, r8, ror #8
 800096c:	463e      	mov	r6, r7
 800096e:	f106 0610 	add.w	r6, r6, #16
 8000972:	f8c6 8000 	str.w	r8, [r6]
 8000976:	b403      	push	{r0, r1}
 8000978:	9802      	ldr	r0, [sp, #8]
 800097a:	f04f 0101 	mov.w	r1, #1
 800097e:	6001      	str	r1, [r0, #0]
 8000980:	bc03      	pop	{r0, r1}
 8000982:	b403      	push	{r0, r1}
 8000984:	9802      	ldr	r0, [sp, #8]
 8000986:	6801      	ldr	r1, [r0, #0]
 8000988:	f101 0101 	add.w	r1, r1, #1
 800098c:	2906      	cmp	r1, #6
 800098e:	6001      	str	r1, [r0, #0]
 8000990:	bc03      	pop	{r0, r1}
 8000992:	d011      	beq.n	80009b8 <KeyExpansion_masked+0x60>
 8000994:	f813 4b01 	ldrb.w	r4, [r3], #1
 8000998:	f811 c004 	ldrb.w	ip, [r1, r4]
 800099c:	ea8c 0c0b 	eor.w	ip, ip, fp
 80009a0:	5d30      	ldrb	r0, [r6, r4]
 80009a2:	ea8c 0c00 	eor.w	ip, ip, r0
 80009a6:	f815 c00c 	ldrb.w	ip, [r5, ip]
 80009aa:	ea8c 0c00 	eor.w	ip, ip, r0
 80009ae:	ea8c 0c0a 	eor.w	ip, ip, sl
 80009b2:	f801 c004 	strb.w	ip, [r1, r4]
 80009b6:	e7e4      	b.n	8000982 <KeyExpansion_masked+0x2a>
 80009b8:	468c      	mov	ip, r1
 80009ba:	f8dc 4000 	ldr.w	r4, [ip]
 80009be:	f852 8b04 	ldr.w	r8, [r2], #4
 80009c2:	ea84 0408 	eor.w	r4, r4, r8
 80009c6:	f1ac 0810 	sub.w	r8, ip, #16
 80009ca:	f8d8 8000 	ldr.w	r8, [r8]
 80009ce:	ea84 0408 	eor.w	r4, r4, r8
 80009d2:	f1ac 060c 	sub.w	r6, ip, #12
 80009d6:	f84c 4b04 	str.w	r4, [ip], #4
 80009da:	f856 8b04 	ldr.w	r8, [r6], #4
 80009de:	ea84 0408 	eor.w	r4, r4, r8
 80009e2:	f84c 4b04 	str.w	r4, [ip], #4
 80009e6:	f856 8b04 	ldr.w	r8, [r6], #4
 80009ea:	ea84 0408 	eor.w	r4, r4, r8
 80009ee:	f84c 4b04 	str.w	r4, [ip], #4
 80009f2:	f856 8b04 	ldr.w	r8, [r6], #4
 80009f6:	ea84 0408 	eor.w	r4, r4, r8
 80009fa:	f8cc 4000 	str.w	r4, [ip]
 80009fe:	693c      	ldr	r4, [r7, #16]
 8000a00:	f8d7 8000 	ldr.w	r8, [r7]
 8000a04:	ea84 0408 	eor.w	r4, r4, r8
 8000a08:	613c      	str	r4, [r7, #16]
 8000a0a:	f8d7 8004 	ldr.w	r8, [r7, #4]
 8000a0e:	ea84 0408 	eor.w	r4, r4, r8
 8000a12:	617c      	str	r4, [r7, #20]
 8000a14:	f8d7 8008 	ldr.w	r8, [r7, #8]
 8000a18:	ea84 0408 	eor.w	r4, r4, r8
 8000a1c:	61bc      	str	r4, [r7, #24]
 8000a1e:	f8d7 800c 	ldr.w	r8, [r7, #12]
 8000a22:	ea84 0408 	eor.w	r4, r4, r8
 8000a26:	61fc      	str	r4, [r7, #28]
 8000a28:	f1a3 0304 	sub.w	r3, r3, #4
 8000a2c:	4770      	bx	lr

08000a2e <field_division>:
 8000a2e:	f24f 7049 	movw	r0, #63305	; 0xf749
 8000a32:	f6c0 0002 	movt	r0, #2050	; 0x802
 8000a36:	f64f 0149 	movw	r1, #63561	; 0xf849
 8000a3a:	f6c0 0102 	movt	r1, #2050	; 0x802
 8000a3e:	7812      	ldrb	r2, [r2, #0]
 8000a40:	5c82      	ldrb	r2, [r0, r2]
 8000a42:	f082 02ff 	eor.w	r2, r2, #255	; 0xff
 8000a46:	781b      	ldrb	r3, [r3, #0]
 8000a48:	f810 a003 	ldrb.w	sl, [r0, r3]
 8000a4c:	4492      	add	sl, r2
 8000a4e:	ea4f 221a 	mov.w	r2, sl, lsr #8
 8000a52:	4492      	add	sl, r2
 8000a54:	f00a 0aff 	and.w	sl, sl, #255	; 0xff
 8000a58:	f811 700a 	ldrb.w	r7, [r1, sl]
 8000a5c:	4770      	bx	lr

08000a5e <Xor_states>:
 8000a5e:	b403      	push	{r0, r1}
 8000a60:	9802      	ldr	r0, [sp, #8]
 8000a62:	f04f 0101 	mov.w	r1, #1
 8000a66:	6001      	str	r1, [r0, #0]
 8000a68:	bc03      	pop	{r0, r1}
 8000a6a:	b403      	push	{r0, r1}
 8000a6c:	9802      	ldr	r0, [sp, #8]
 8000a6e:	6801      	ldr	r1, [r0, #0]
 8000a70:	f101 0101 	add.w	r1, r1, #1
 8000a74:	2912      	cmp	r1, #18
 8000a76:	6001      	str	r1, [r0, #0]
 8000a78:	bc03      	pop	{r0, r1}
 8000a7a:	d007      	beq.n	8000a8c <Xor_states+0x2e>
 8000a7c:	781e      	ldrb	r6, [r3, #0]
 8000a7e:	f817 8b01 	ldrb.w	r8, [r7], #1
 8000a82:	ea86 0608 	eor.w	r6, r6, r8
 8000a86:	f803 6b01 	strb.w	r6, [r3], #1
 8000a8a:	e7ee      	b.n	8000a6a <Xor_states+0xc>
 8000a8c:	f1a3 0310 	sub.w	r3, r3, #16
 8000a90:	4770      	bx	lr

08000a92 <State_copy>:
 8000a92:	b403      	push	{r0, r1}
 8000a94:	9802      	ldr	r0, [sp, #8]
 8000a96:	f04f 0101 	mov.w	r1, #1
 8000a9a:	6001      	str	r1, [r0, #0]
 8000a9c:	bc03      	pop	{r0, r1}
 8000a9e:	b403      	push	{r0, r1}
 8000aa0:	9802      	ldr	r0, [sp, #8]
 8000aa2:	6801      	ldr	r1, [r0, #0]
 8000aa4:	f101 0101 	add.w	r1, r1, #1
 8000aa8:	2912      	cmp	r1, #18
 8000aaa:	6001      	str	r1, [r0, #0]
 8000aac:	bc03      	pop	{r0, r1}
 8000aae:	d004      	beq.n	8000aba <State_copy+0x28>
 8000ab0:	f813 5b01 	ldrb.w	r5, [r3], #1
 8000ab4:	f807 5b01 	strb.w	r5, [r7], #1
 8000ab8:	e7f1      	b.n	8000a9e <State_copy+0xc>
 8000aba:	4770      	bx	lr

08000abc <Map_in_G>:
 8000abc:	b403      	push	{r0, r1}
 8000abe:	9802      	ldr	r0, [sp, #8]
 8000ac0:	f04f 0101 	mov.w	r1, #1
 8000ac4:	6001      	str	r1, [r0, #0]
 8000ac6:	bc03      	pop	{r0, r1}
 8000ac8:	b403      	push	{r0, r1}
 8000aca:	9802      	ldr	r0, [sp, #8]
 8000acc:	6801      	ldr	r1, [r0, #0]
 8000ace:	f101 0101 	add.w	r1, r1, #1
 8000ad2:	2912      	cmp	r1, #18
 8000ad4:	6001      	str	r1, [r0, #0]
 8000ad6:	bc03      	pop	{r0, r1}
 8000ad8:	d005      	beq.n	8000ae6 <Map_in_G+0x2a>
 8000ada:	781e      	ldrb	r6, [r3, #0]
 8000adc:	f81c 6006 	ldrb.w	r6, [ip, r6]
 8000ae0:	f803 6b01 	strb.w	r6, [r3], #1
 8000ae4:	e7f0      	b.n	8000ac8 <Map_in_G+0xc>
 8000ae6:	4770      	bx	lr

08000ae8 <Multiplicative_unmasking>:
 8000ae8:	b403      	push	{r0, r1}
 8000aea:	9802      	ldr	r0, [sp, #8]
 8000aec:	f04f 0101 	mov.w	r1, #1
 8000af0:	6001      	str	r1, [r0, #0]
 8000af2:	bc03      	pop	{r0, r1}
 8000af4:	b403      	push	{r0, r1}
 8000af6:	9802      	ldr	r0, [sp, #8]
 8000af8:	6801      	ldr	r1, [r0, #0]
 8000afa:	f101 0101 	add.w	r1, r1, #1
 8000afe:	2912      	cmp	r1, #18
 8000b00:	6001      	str	r1, [r0, #0]
 8000b02:	bc03      	pop	{r0, r1}
 8000b04:	d018      	beq.n	8000b38 <Multiplicative_unmasking+0x50>
 8000b06:	f897 b000 	ldrb.w	fp, [r7]
 8000b0a:	f81b a000 	ldrb.w	sl, [fp, r0]
 8000b0e:	4492      	add	sl, r2
 8000b10:	ea4f 241a 	mov.w	r4, sl, lsr #8
 8000b14:	44a2      	add	sl, r4
 8000b16:	ea0a 0a0c 	and.w	sl, sl, ip
 8000b1a:	f81a 6001 	ldrb.w	r6, [sl, r1]
 8000b1e:	f1bb 0f00 	cmp.w	fp, #0
 8000b22:	bfc8      	it	gt
 8000b24:	f04f 0aff 	movgt.w	sl, #255	; 0xff
 8000b28:	bf08      	it	eq
 8000b2a:	2600      	moveq	r6, #0
 8000b2c:	bfb8      	it	lt
 8000b2e:	f04f 0a00 	movlt.w	sl, #0
 8000b32:	f807 6b01 	strb.w	r6, [r7], #1
 8000b36:	e7dd      	b.n	8000af4 <Multiplicative_unmasking+0xc>
 8000b38:	4770      	bx	lr

08000b3a <Map_in_G_rcon_key>:
 8000b3a:	f24f 4421 	movw	r4, #62497	; 0xf421
 8000b3e:	f6c0 0402 	movt	r4, #2050	; 0x802
 8000b42:	f8dd 8000 	ldr.w	r8, [sp]
 8000b46:	f508 785e 	add.w	r8, r8, #888	; 0x378
 8000b4a:	b403      	push	{r0, r1}
 8000b4c:	9802      	ldr	r0, [sp, #8]
 8000b4e:	f04f 0101 	mov.w	r1, #1
 8000b52:	6001      	str	r1, [r0, #0]
 8000b54:	bc03      	pop	{r0, r1}
 8000b56:	b403      	push	{r0, r1}
 8000b58:	9802      	ldr	r0, [sp, #8]
 8000b5a:	6801      	ldr	r1, [r0, #0]
 8000b5c:	f101 0101 	add.w	r1, r1, #1
 8000b60:	290c      	cmp	r1, #12
 8000b62:	6001      	str	r1, [r0, #0]
 8000b64:	bc03      	pop	{r0, r1}
 8000b66:	d006      	beq.n	8000b76 <Map_in_G_rcon_key+0x3c>
 8000b68:	f814 6b04 	ldrb.w	r6, [r4], #4
 8000b6c:	f81c 6006 	ldrb.w	r6, [ip, r6]
 8000b70:	f848 6b04 	str.w	r6, [r8], #4
 8000b74:	e7ef      	b.n	8000b56 <Map_in_G_rcon_key+0x1c>
 8000b76:	4770      	bx	lr

08000b78 <Add_roundkey_masked>:
 8000b78:	9a00      	ldr	r2, [sp, #0]
 8000b7a:	f502 7217 	add.w	r2, r2, #604	; 0x25c
 8000b7e:	b403      	push	{r0, r1}
 8000b80:	9802      	ldr	r0, [sp, #8]
 8000b82:	f04f 0101 	mov.w	r1, #1
 8000b86:	6001      	str	r1, [r0, #0]
 8000b88:	bc03      	pop	{r0, r1}
 8000b8a:	b403      	push	{r0, r1}
 8000b8c:	9802      	ldr	r0, [sp, #8]
 8000b8e:	6801      	ldr	r1, [r0, #0]
 8000b90:	f101 0101 	add.w	r1, r1, #1
 8000b94:	2912      	cmp	r1, #18
 8000b96:	6001      	str	r1, [r0, #0]
 8000b98:	bc03      	pop	{r0, r1}
 8000b9a:	d014      	beq.n	8000bc6 <Add_roundkey_masked+0x4e>
 8000b9c:	f815 4b01 	ldrb.w	r4, [r5], #1
 8000ba0:	f812 b004 	ldrb.w	fp, [r2, r4]
 8000ba4:	f81c 6004 	ldrb.w	r6, [ip, r4]
 8000ba8:	5d86      	ldrb	r6, [r0, r6]
 8000baa:	ea8b 0b06 	eor.w	fp, fp, r6
 8000bae:	f802 b004 	strb.w	fp, [r2, r4]
 8000bb2:	f813 b004 	ldrb.w	fp, [r3, r4]
 8000bb6:	f818 6004 	ldrb.w	r6, [r8, r4]
 8000bba:	5d86      	ldrb	r6, [r0, r6]
 8000bbc:	ea8b 0b06 	eor.w	fp, fp, r6
 8000bc0:	f803 b004 	strb.w	fp, [r3, r4]
 8000bc4:	e7e1      	b.n	8000b8a <Add_roundkey_masked+0x12>
 8000bc6:	4770      	bx	lr

08000bc8 <Xor_Word>:
 8000bc8:	683d      	ldr	r5, [r7, #0]
 8000bca:	681e      	ldr	r6, [r3, #0]
 8000bcc:	ea86 0605 	eor.w	r6, r6, r5
 8000bd0:	601e      	str	r6, [r3, #0]
 8000bd2:	685e      	ldr	r6, [r3, #4]
 8000bd4:	ea86 0605 	eor.w	r6, r6, r5
 8000bd8:	605e      	str	r6, [r3, #4]
 8000bda:	689e      	ldr	r6, [r3, #8]
 8000bdc:	ea86 0605 	eor.w	r6, r6, r5
 8000be0:	609e      	str	r6, [r3, #8]
 8000be2:	68de      	ldr	r6, [r3, #12]
 8000be4:	ea86 0605 	eor.w	r6, r6, r5
 8000be8:	60de      	str	r6, [r3, #12]
 8000bea:	4770      	bx	lr

08000bec <aes_loadKey>:
 8000bec:	f84d ed04 	str.w	lr, [sp, #-4]!
 8000bf0:	e92d 1ffe 	stmdb	sp!, {r1, r2, r3, r4, r5, r6, r7, r8, r9, sl, fp, ip}
 8000bf4:	f84d 0d04 	str.w	r0, [sp, #-4]!
 8000bf8:	f7ff fc7f 	bl	80004fa <Load_random_key>
 8000bfc:	9b00      	ldr	r3, [sp, #0]
 8000bfe:	f503 73ba 	add.w	r3, r3, #372	; 0x174
 8000c02:	9f00      	ldr	r7, [sp, #0]
 8000c04:	f507 77b8 	add.w	r7, r7, #368	; 0x170
 8000c08:	783f      	ldrb	r7, [r7, #0]
 8000c0a:	f7ff fbd0 	bl	80003ae <Compute_GTab>
 8000c0e:	f8dd c000 	ldr.w	ip, [sp]
 8000c12:	f50c 7cba 	add.w	ip, ip, #372	; 0x174
 8000c16:	f7ff ff90 	bl	8000b3a <Map_in_G_rcon_key>
 8000c1a:	f7ff fc48 	bl	80004ae <Load_masterKey>
 8000c1e:	9c00      	ldr	r4, [sp, #0]
 8000c20:	f104 04b8 	add.w	r4, r4, #184	; 0xb8
 8000c24:	9800      	ldr	r0, [sp, #0]
 8000c26:	f500 705d 	add.w	r0, r0, #884	; 0x374
 8000c2a:	f04f 0600 	mov.w	r6, #0
 8000c2e:	f7ff fd11 	bl	8000654 <Compute_permIndices_Tables_MC>
 8000c32:	f24f 2201 	movw	r2, #61953	; 0xf201
 8000c36:	f6c0 0202 	movt	r2, #2050	; 0x802
 8000c3a:	9b00      	ldr	r3, [sp, #0]
 8000c3c:	f503 731d 	add.w	r3, r3, #628	; 0x274
 8000c40:	9c00      	ldr	r4, [sp, #0]
 8000c42:	f504 74ba 	add.w	r4, r4, #372	; 0x174
 8000c46:	f8dd 8000 	ldr.w	r8, [sp]
 8000c4a:	f508 78b4 	add.w	r8, r8, #360	; 0x168
 8000c4e:	f8d8 1000 	ldr.w	r1, [r8]
 8000c52:	9e00      	ldr	r6, [sp, #0]
 8000c54:	f506 76b6 	add.w	r6, r6, #364	; 0x16c
 8000c58:	f896 8000 	ldrb.w	r8, [r6]
 8000c5c:	f7ff fcba 	bl	80005d4 <Compute_Affine_sboxMasked>
 8000c60:	9900      	ldr	r1, [sp, #0]
 8000c62:	f101 0108 	add.w	r1, r1, #8
 8000c66:	9f00      	ldr	r7, [sp, #0]
 8000c68:	f107 07b8 	add.w	r7, r7, #184	; 0xb8
 8000c6c:	9d00      	ldr	r5, [sp, #0]
 8000c6e:	f505 751d 	add.w	r5, r5, #628	; 0x274
 8000c72:	9a00      	ldr	r2, [sp, #0]
 8000c74:	f502 725e 	add.w	r2, r2, #888	; 0x378
 8000c78:	9b00      	ldr	r3, [sp, #0]
 8000c7a:	f503 735d 	add.w	r3, r3, #884	; 0x374
 8000c7e:	b403      	push	{r0, r1}
 8000c80:	9802      	ldr	r0, [sp, #8]
 8000c82:	f04f 0101 	mov.w	r1, #1
 8000c86:	6041      	str	r1, [r0, #4]
 8000c88:	bc03      	pop	{r0, r1}
 8000c8a:	b403      	push	{r0, r1}
 8000c8c:	9802      	ldr	r0, [sp, #8]
 8000c8e:	6841      	ldr	r1, [r0, #4]
 8000c90:	f101 0101 	add.w	r1, r1, #1
 8000c94:	290c      	cmp	r1, #12
 8000c96:	6041      	str	r1, [r0, #4]
 8000c98:	bc03      	pop	{r0, r1}
 8000c9a:	d010      	beq.n	8000cbe <aes_loadKey+0xd2>
 8000c9c:	f8dd b000 	ldr.w	fp, [sp]
 8000ca0:	f50b 7bb4 	add.w	fp, fp, #360	; 0x168
 8000ca4:	f89b b000 	ldrb.w	fp, [fp]
 8000ca8:	f8dd a000 	ldr.w	sl, [sp]
 8000cac:	f50a 7ab6 	add.w	sl, sl, #364	; 0x16c
 8000cb0:	f89a a000 	ldrb.w	sl, [sl]
 8000cb4:	f7ff fe50 	bl	8000958 <KeyExpansion_masked>
 8000cb8:	f107 0710 	add.w	r7, r7, #16
 8000cbc:	e7e5      	b.n	8000c8a <aes_loadKey+0x9e>
 8000cbe:	bc01      	pop	{r0}
 8000cc0:	f04f 0000 	mov.w	r0, #0
 8000cc4:	e8bd 1ffe 	ldmia.w	sp!, {r1, r2, r3, r4, r5, r6, r7, r8, r9, sl, fp, ip}
 8000cc8:	bd00      	pop	{pc}
 8000cca:	4770      	bx	lr

08000ccc <aes_init_enc>:
 8000ccc:	f84d ed04 	str.w	lr, [sp, #-4]!
 8000cd0:	e92d 1ffc 	stmdb	sp!, {r2, r3, r4, r5, r6, r7, r8, r9, sl, fp, ip}
 8000cd4:	f84d 1d04 	str.w	r1, [sp, #-4]!
 8000cd8:	f84d 0d04 	str.w	r0, [sp, #-4]!
 8000cdc:	f7ff fc49 	bl	8000572 <Load_random>
 8000ce0:	9b00      	ldr	r3, [sp, #0]
 8000ce2:	f103 0308 	add.w	r3, r3, #8
 8000ce6:	9f00      	ldr	r7, [sp, #0]
 8000ce8:	f507 7712 	add.w	r7, r7, #584	; 0x248
 8000cec:	783f      	ldrb	r7, [r7, #0]
 8000cee:	f7ff fb5e 	bl	80003ae <Compute_GTab>
 8000cf2:	9c00      	ldr	r4, [sp, #0]
 8000cf4:	f504 7402 	add.w	r4, r4, #520	; 0x208
 8000cf8:	9800      	ldr	r0, [sp, #0]
 8000cfa:	f500 700e 	add.w	r0, r0, #568	; 0x238
 8000cfe:	f04f 0600 	mov.w	r6, #0
 8000d02:	f7ff fca7 	bl	8000654 <Compute_permIndices_Tables_MC>
 8000d06:	9800      	ldr	r0, [sp, #0]
 8000d08:	f500 700f 	add.w	r0, r0, #572	; 0x23c
 8000d0c:	f04f 0601 	mov.w	r6, #1
 8000d10:	f7ff fca0 	bl	8000654 <Compute_permIndices_Tables_MC>
 8000d14:	9a00      	ldr	r2, [sp, #0]
 8000d16:	f502 7206 	add.w	r2, r2, #536	; 0x218
 8000d1a:	9b00      	ldr	r3, [sp, #0]
 8000d1c:	f503 730a 	add.w	r3, r3, #552	; 0x228
 8000d20:	f7ff fcb4 	bl	800068c <Compute_permIndices_Tables>
 8000d24:	f24f 2201 	movw	r2, #61953	; 0xf201
 8000d28:	f6c0 0202 	movt	r2, #2050	; 0x802
 8000d2c:	9b00      	ldr	r3, [sp, #0]
 8000d2e:	f503 7384 	add.w	r3, r3, #264	; 0x108
 8000d32:	9c00      	ldr	r4, [sp, #0]
 8000d34:	f104 0408 	add.w	r4, r4, #8
 8000d38:	46a4      	mov	ip, r4
 8000d3a:	f8dd 8000 	ldr.w	r8, [sp]
 8000d3e:	f508 7810 	add.w	r8, r8, #576	; 0x240
 8000d42:	f8d8 1000 	ldr.w	r1, [r8]
 8000d46:	9e00      	ldr	r6, [sp, #0]
 8000d48:	f506 7611 	add.w	r6, r6, #580	; 0x244
 8000d4c:	f896 8000 	ldrb.w	r8, [r6]
 8000d50:	f7ff fc40 	bl	80005d4 <Compute_Affine_sboxMasked>
 8000d54:	bc01      	pop	{r0}
 8000d56:	bc02      	pop	{r1}
 8000d58:	e8bd 1ffc 	ldmia.w	sp!, {r2, r3, r4, r5, r6, r7, r8, r9, sl, fp, ip}
 8000d5c:	f04f 0000 	mov.w	r0, #0
 8000d60:	bd00      	pop	{pc}
 8000d62:	4770      	bx	lr

08000d64 <aes_init_dec>:
 8000d64:	f84d ed04 	str.w	lr, [sp, #-4]!
 8000d68:	e92d 1ffc 	stmdb	sp!, {r2, r3, r4, r5, r6, r7, r8, r9, sl, fp, ip}
 8000d6c:	f84d 1d04 	str.w	r1, [sp, #-4]!
 8000d70:	f84d 0d04 	str.w	r0, [sp, #-4]!
 8000d74:	f7ff fbfd 	bl	8000572 <Load_random>
 8000d78:	9b00      	ldr	r3, [sp, #0]
 8000d7a:	f103 0308 	add.w	r3, r3, #8
 8000d7e:	9f00      	ldr	r7, [sp, #0]
 8000d80:	f507 7712 	add.w	r7, r7, #584	; 0x248
 8000d84:	783f      	ldrb	r7, [r7, #0]
 8000d86:	f7ff fb12 	bl	80003ae <Compute_GTab>
 8000d8a:	9c00      	ldr	r4, [sp, #0]
 8000d8c:	f504 7402 	add.w	r4, r4, #520	; 0x208
 8000d90:	9800      	ldr	r0, [sp, #0]
 8000d92:	f500 700e 	add.w	r0, r0, #568	; 0x238
 8000d96:	f04f 0600 	mov.w	r6, #0
 8000d9a:	f7ff fc5b 	bl	8000654 <Compute_permIndices_Tables_MC>
 8000d9e:	9800      	ldr	r0, [sp, #0]
 8000da0:	f500 700f 	add.w	r0, r0, #572	; 0x23c
 8000da4:	f04f 0601 	mov.w	r6, #1
 8000da8:	f7ff fc54 	bl	8000654 <Compute_permIndices_Tables_MC>
 8000dac:	9a00      	ldr	r2, [sp, #0]
 8000dae:	f502 7206 	add.w	r2, r2, #536	; 0x218
 8000db2:	9b00      	ldr	r3, [sp, #0]
 8000db4:	f503 730a 	add.w	r3, r3, #552	; 0x228
 8000db8:	f7ff fc68 	bl	800068c <Compute_permIndices_Tables>
 8000dbc:	f24f 3201 	movw	r2, #62209	; 0xf301
 8000dc0:	f6c0 0202 	movt	r2, #2050	; 0x802
 8000dc4:	9b00      	ldr	r3, [sp, #0]
 8000dc6:	f503 7384 	add.w	r3, r3, #264	; 0x108
 8000dca:	9c00      	ldr	r4, [sp, #0]
 8000dcc:	f104 0408 	add.w	r4, r4, #8
 8000dd0:	46a4      	mov	ip, r4
 8000dd2:	f8dd 8000 	ldr.w	r8, [sp]
 8000dd6:	f508 7810 	add.w	r8, r8, #576	; 0x240
 8000dda:	f8d8 1000 	ldr.w	r1, [r8]
 8000dde:	9e00      	ldr	r6, [sp, #0]
 8000de0:	f506 7611 	add.w	r6, r6, #580	; 0x244
 8000de4:	f896 8000 	ldrb.w	r8, [r6]
 8000de8:	f7ff fbf4 	bl	80005d4 <Compute_Affine_sboxMasked>
 8000dec:	bc01      	pop	{r0}
 8000dee:	bc02      	pop	{r1}
 8000df0:	e8bd 1ffc 	ldmia.w	sp!, {r2, r3, r4, r5, r6, r7, r8, r9, sl, fp, ip}
 8000df4:	f04f 0000 	mov.w	r0, #0
 8000df8:	bd00      	pop	{pc}
 8000dfa:	4770      	bx	lr

08000dfc <aes_enc>:
 8000dfc:	f84d ed04 	str.w	lr, [sp, #-4]!
 8000e00:	f84d 2d04 	str.w	r2, [sp, #-4]!
 8000e04:	e92d 1ff0 	stmdb	sp!, {r4, r5, r6, r7, r8, r9, sl, fp, ip}
 8000e08:	f84d 3d04 	str.w	r3, [sp, #-4]!
 8000e0c:	f84d 1d04 	str.w	r1, [sp, #-4]!
 8000e10:	f84d 0d04 	str.w	r0, [sp, #-4]!
 8000e14:	f7ff fb29 	bl	800046a <Load_data>
 8000e18:	9a01      	ldr	r2, [sp, #4]
 8000e1a:	f502 72b8 	add.w	r2, r2, #368	; 0x170
 8000e1e:	9b00      	ldr	r3, [sp, #0]
 8000e20:	f503 7312 	add.w	r3, r3, #584	; 0x248
 8000e24:	f7ff fe03 	bl	8000a2e <field_division>
 8000e28:	9b00      	ldr	r3, [sp, #0]
 8000e2a:	f503 731b 	add.w	r3, r3, #620	; 0x26c
 8000e2e:	f7ff fabe 	bl	80003ae <Compute_GTab>
 8000e32:	9b00      	ldr	r3, [sp, #0]
 8000e34:	f503 7313 	add.w	r3, r3, #588	; 0x24c
 8000e38:	f8dd c000 	ldr.w	ip, [sp]
 8000e3c:	f10c 0c08 	add.w	ip, ip, #8
 8000e40:	f7ff fe3c 	bl	8000abc <Map_in_G>
 8000e44:	9b00      	ldr	r3, [sp, #0]
 8000e46:	f503 7313 	add.w	r3, r3, #588	; 0x24c
 8000e4a:	9f00      	ldr	r7, [sp, #0]
 8000e4c:	f507 7717 	add.w	r7, r7, #604	; 0x25c
 8000e50:	f7ff fe05 	bl	8000a5e <Xor_states>
 8000e54:	9800      	ldr	r0, [sp, #0]
 8000e56:	f500 701b 	add.w	r0, r0, #620	; 0x26c
 8000e5a:	9901      	ldr	r1, [sp, #4]
 8000e5c:	f101 0108 	add.w	r1, r1, #8
 8000e60:	4688      	mov	r8, r1
 8000e62:	f8dd c004 	ldr.w	ip, [sp, #4]
 8000e66:	f10c 0cb8 	add.w	ip, ip, #184	; 0xb8
 8000e6a:	9b00      	ldr	r3, [sp, #0]
 8000e6c:	f503 7313 	add.w	r3, r3, #588	; 0x24c
 8000e70:	9d00      	ldr	r5, [sp, #0]
 8000e72:	f505 7506 	add.w	r5, r5, #536	; 0x218
 8000e76:	f7ff fe7f 	bl	8000b78 <Add_roundkey_masked>
 8000e7a:	b403      	push	{r0, r1}
 8000e7c:	9802      	ldr	r0, [sp, #8]
 8000e7e:	f04f 0101 	mov.w	r1, #1
 8000e82:	6041      	str	r1, [r0, #4]
 8000e84:	bc03      	pop	{r0, r1}
 8000e86:	b403      	push	{r0, r1}
 8000e88:	9802      	ldr	r0, [sp, #8]
 8000e8a:	6841      	ldr	r1, [r0, #4]
 8000e8c:	f101 0101 	add.w	r1, r1, #1
 8000e90:	290b      	cmp	r1, #11
 8000e92:	6041      	str	r1, [r0, #4]
 8000e94:	bc03      	pop	{r0, r1}
 8000e96:	d043      	beq.n	8000f20 <aes_enc+0x124>
 8000e98:	9f00      	ldr	r7, [sp, #0]
 8000e9a:	f507 7710 	add.w	r7, r7, #576	; 0x240
 8000e9e:	9b00      	ldr	r3, [sp, #0]
 8000ea0:	f503 7313 	add.w	r3, r3, #588	; 0x24c
 8000ea4:	f7ff fe90 	bl	8000bc8 <Xor_Word>
 8000ea8:	9d00      	ldr	r5, [sp, #0]
 8000eaa:	f505 7506 	add.w	r5, r5, #536	; 0x218
 8000eae:	f8dd 8000 	ldr.w	r8, [sp]
 8000eb2:	f508 7884 	add.w	r8, r8, #264	; 0x108
 8000eb6:	f8dd a000 	ldr.w	sl, [sp]
 8000eba:	f50a 7a17 	add.w	sl, sl, #604	; 0x25c
 8000ebe:	9f00      	ldr	r7, [sp, #0]
 8000ec0:	f507 7711 	add.w	r7, r7, #580	; 0x244
 8000ec4:	f7ff fc27 	bl	8000716 <SubBytesWithMask>
 8000ec8:	f24f 4401 	movw	r4, #62465	; 0xf401
 8000ecc:	f6c0 0402 	movt	r4, #2050	; 0x802
 8000ed0:	9f00      	ldr	r7, [sp, #0]
 8000ed2:	f507 775b 	add.w	r7, r7, #876	; 0x36c
 8000ed6:	f7ff fc4c 	bl	8000772 <ShiftRowsWithMasked>
 8000eda:	9800      	ldr	r0, [sp, #0]
 8000edc:	f500 700e 	add.w	r0, r0, #568	; 0x238
 8000ee0:	f24f 4649 	movw	r6, #62537	; 0xf449
 8000ee4:	f6c0 0602 	movt	r6, #2050	; 0x802
 8000ee8:	f7ff fcaa 	bl	8000840 <MixColumns>
 8000eec:	9800      	ldr	r0, [sp, #0]
 8000eee:	f500 700f 	add.w	r0, r0, #572	; 0x23c
 8000ef2:	f8dd a000 	ldr.w	sl, [sp]
 8000ef6:	f50a 7a13 	add.w	sl, sl, #588	; 0x24c
 8000efa:	f7ff fca1 	bl	8000840 <MixColumns>
 8000efe:	f101 0110 	add.w	r1, r1, #16
 8000f02:	f10c 0c10 	add.w	ip, ip, #16
 8000f06:	4688      	mov	r8, r1
 8000f08:	9b00      	ldr	r3, [sp, #0]
 8000f0a:	f503 7313 	add.w	r3, r3, #588	; 0x24c
 8000f0e:	9d00      	ldr	r5, [sp, #0]
 8000f10:	f505 7506 	add.w	r5, r5, #536	; 0x218
 8000f14:	9800      	ldr	r0, [sp, #0]
 8000f16:	f500 701b 	add.w	r0, r0, #620	; 0x26c
 8000f1a:	f7ff fe2d 	bl	8000b78 <Add_roundkey_masked>
 8000f1e:	e7b2      	b.n	8000e86 <aes_enc+0x8a>
 8000f20:	9f00      	ldr	r7, [sp, #0]
 8000f22:	f507 7710 	add.w	r7, r7, #576	; 0x240
 8000f26:	9b00      	ldr	r3, [sp, #0]
 8000f28:	f503 7313 	add.w	r3, r3, #588	; 0x24c
 8000f2c:	f7ff fe4c 	bl	8000bc8 <Xor_Word>
 8000f30:	9d00      	ldr	r5, [sp, #0]
 8000f32:	f505 7506 	add.w	r5, r5, #536	; 0x218
 8000f36:	f8dd 8000 	ldr.w	r8, [sp]
 8000f3a:	f508 7884 	add.w	r8, r8, #264	; 0x108
 8000f3e:	f8dd a000 	ldr.w	sl, [sp]
 8000f42:	f50a 7a17 	add.w	sl, sl, #604	; 0x25c
 8000f46:	9f00      	ldr	r7, [sp, #0]
 8000f48:	f507 7711 	add.w	r7, r7, #580	; 0x244
 8000f4c:	f7ff fbe3 	bl	8000716 <SubBytesWithMask>
 8000f50:	f24f 4401 	movw	r4, #62465	; 0xf401
 8000f54:	f6c0 0402 	movt	r4, #2050	; 0x802
 8000f58:	9f00      	ldr	r7, [sp, #0]
 8000f5a:	f507 775b 	add.w	r7, r7, #876	; 0x36c
 8000f5e:	f7ff fc08 	bl	8000772 <ShiftRowsWithMasked>
 8000f62:	f101 0110 	add.w	r1, r1, #16
 8000f66:	f10c 0c10 	add.w	ip, ip, #16
 8000f6a:	4688      	mov	r8, r1
 8000f6c:	9d00      	ldr	r5, [sp, #0]
 8000f6e:	f505 7506 	add.w	r5, r5, #536	; 0x218
 8000f72:	9800      	ldr	r0, [sp, #0]
 8000f74:	f500 701b 	add.w	r0, r0, #620	; 0x26c
 8000f78:	f7ff fdfe 	bl	8000b78 <Add_roundkey_masked>
 8000f7c:	9f00      	ldr	r7, [sp, #0]
 8000f7e:	f507 7717 	add.w	r7, r7, #604	; 0x25c
 8000f82:	9b00      	ldr	r3, [sp, #0]
 8000f84:	f503 7313 	add.w	r3, r3, #588	; 0x24c
 8000f88:	f7ff fd69 	bl	8000a5e <Xor_states>
 8000f8c:	f24f 7049 	movw	r0, #63305	; 0xf749
 8000f90:	f6c0 0002 	movt	r0, #2050	; 0x802
 8000f94:	f64f 0149 	movw	r1, #63561	; 0xf849
 8000f98:	f6c0 0102 	movt	r1, #2050	; 0x802
 8000f9c:	9c00      	ldr	r4, [sp, #0]
 8000f9e:	f504 7412 	add.w	r4, r4, #584	; 0x248
 8000fa2:	7822      	ldrb	r2, [r4, #0]
 8000fa4:	5c82      	ldrb	r2, [r0, r2]
 8000fa6:	f04f 0cff 	mov.w	ip, #255	; 0xff
 8000faa:	ebac 0202 	sub.w	r2, ip, r2
 8000fae:	461f      	mov	r7, r3
 8000fb0:	f7ff fd9a 	bl	8000ae8 <Multiplicative_unmasking>
 8000fb4:	9f02      	ldr	r7, [sp, #8]
 8000fb6:	f7ff fd6c 	bl	8000a92 <State_copy>
 8000fba:	bc01      	pop	{r0}
 8000fbc:	f04f 0000 	mov.w	r0, #0
 8000fc0:	bc02      	pop	{r1}
 8000fc2:	bc08      	pop	{r3}
 8000fc4:	e8bd 1ff0 	ldmia.w	sp!, {r4, r5, r6, r7, r8, r9, sl, fp, ip}
 8000fc8:	bc04      	pop	{r2}
 8000fca:	bd00      	pop	{pc}
 8000fcc:	4770      	bx	lr

08000fce <aes_dec>:
 8000fce:	f84d ed04 	str.w	lr, [sp, #-4]!
 8000fd2:	f84d 2d04 	str.w	r2, [sp, #-4]!
 8000fd6:	e92d 1ff0 	stmdb	sp!, {r4, r5, r6, r7, r8, r9, sl, fp, ip}
 8000fda:	f84d 3d04 	str.w	r3, [sp, #-4]!
 8000fde:	f84d 1d04 	str.w	r1, [sp, #-4]!
 8000fe2:	f84d 0d04 	str.w	r0, [sp, #-4]!
 8000fe6:	f7ff fa40 	bl	800046a <Load_data>
 8000fea:	9a01      	ldr	r2, [sp, #4]
 8000fec:	f502 72b8 	add.w	r2, r2, #368	; 0x170
 8000ff0:	9b00      	ldr	r3, [sp, #0]
 8000ff2:	f503 7312 	add.w	r3, r3, #584	; 0x248
 8000ff6:	f7ff fd1a 	bl	8000a2e <field_division>
 8000ffa:	9b00      	ldr	r3, [sp, #0]
 8000ffc:	f503 731b 	add.w	r3, r3, #620	; 0x26c
 8001000:	f7ff f9d5 	bl	80003ae <Compute_GTab>
 8001004:	9b00      	ldr	r3, [sp, #0]
 8001006:	f503 7313 	add.w	r3, r3, #588	; 0x24c
 800100a:	f8dd c000 	ldr.w	ip, [sp]
 800100e:	f10c 0c08 	add.w	ip, ip, #8
 8001012:	f7ff fd53 	bl	8000abc <Map_in_G>
 8001016:	9b00      	ldr	r3, [sp, #0]
 8001018:	f503 7313 	add.w	r3, r3, #588	; 0x24c
 800101c:	9f00      	ldr	r7, [sp, #0]
 800101e:	f507 7717 	add.w	r7, r7, #604	; 0x25c
 8001022:	f7ff fd1c 	bl	8000a5e <Xor_states>
 8001026:	9800      	ldr	r0, [sp, #0]
 8001028:	f500 701b 	add.w	r0, r0, #620	; 0x26c
 800102c:	9901      	ldr	r1, [sp, #4]
 800102e:	f101 0108 	add.w	r1, r1, #8
 8001032:	f101 01a0 	add.w	r1, r1, #160	; 0xa0
 8001036:	f8dd c004 	ldr.w	ip, [sp, #4]
 800103a:	f10c 0cb8 	add.w	ip, ip, #184	; 0xb8
 800103e:	f10c 0ca0 	add.w	ip, ip, #160	; 0xa0
 8001042:	9b00      	ldr	r3, [sp, #0]
 8001044:	f503 7313 	add.w	r3, r3, #588	; 0x24c
 8001048:	9d00      	ldr	r5, [sp, #0]
 800104a:	f505 7506 	add.w	r5, r5, #536	; 0x218
 800104e:	4688      	mov	r8, r1
 8001050:	f7ff fd92 	bl	8000b78 <Add_roundkey_masked>
 8001054:	b403      	push	{r0, r1}
 8001056:	9802      	ldr	r0, [sp, #8]
 8001058:	f04f 0101 	mov.w	r1, #1
 800105c:	6041      	str	r1, [r0, #4]
 800105e:	bc03      	pop	{r0, r1}
 8001060:	b403      	push	{r0, r1}
 8001062:	9802      	ldr	r0, [sp, #8]
 8001064:	6841      	ldr	r1, [r0, #4]
 8001066:	f101 0101 	add.w	r1, r1, #1
 800106a:	290b      	cmp	r1, #11
 800106c:	6041      	str	r1, [r0, #4]
 800106e:	bc03      	pop	{r0, r1}
 8001070:	d06e      	beq.n	8001150 <aes_dec+0x182>
 8001072:	9b00      	ldr	r3, [sp, #0]
 8001074:	f503 7313 	add.w	r3, r3, #588	; 0x24c
 8001078:	f24f 4411 	movw	r4, #62481	; 0xf411
 800107c:	f6c0 0402 	movt	r4, #2050	; 0x802
 8001080:	9f00      	ldr	r7, [sp, #0]
 8001082:	f507 775b 	add.w	r7, r7, #876	; 0x36c
 8001086:	f8dd a000 	ldr.w	sl, [sp]
 800108a:	f50a 7a17 	add.w	sl, sl, #604	; 0x25c
 800108e:	f7ff fb70 	bl	8000772 <ShiftRowsWithMasked>
 8001092:	9f00      	ldr	r7, [sp, #0]
 8001094:	f507 7710 	add.w	r7, r7, #576	; 0x240
 8001098:	f7ff fd96 	bl	8000bc8 <Xor_Word>
 800109c:	f8dd a000 	ldr.w	sl, [sp]
 80010a0:	f50a 7a17 	add.w	sl, sl, #604	; 0x25c
 80010a4:	f8dd 8000 	ldr.w	r8, [sp]
 80010a8:	f508 7884 	add.w	r8, r8, #264	; 0x108
 80010ac:	9d00      	ldr	r5, [sp, #0]
 80010ae:	f505 7506 	add.w	r5, r5, #536	; 0x218
 80010b2:	9f00      	ldr	r7, [sp, #0]
 80010b4:	f507 7711 	add.w	r7, r7, #580	; 0x244
 80010b8:	f7ff fb2d 	bl	8000716 <SubBytesWithMask>
 80010bc:	f1ac 0c10 	sub.w	ip, ip, #16
 80010c0:	f1a1 0110 	sub.w	r1, r1, #16
 80010c4:	4688      	mov	r8, r1
 80010c6:	9d00      	ldr	r5, [sp, #0]
 80010c8:	f505 7506 	add.w	r5, r5, #536	; 0x218
 80010cc:	9800      	ldr	r0, [sp, #0]
 80010ce:	f500 701b 	add.w	r0, r0, #620	; 0x26c
 80010d2:	f7ff fd51 	bl	8000b78 <Add_roundkey_masked>
 80010d6:	f8dd a000 	ldr.w	sl, [sp]
 80010da:	f50a 7a17 	add.w	sl, sl, #604	; 0x25c
 80010de:	9800      	ldr	r0, [sp, #0]
 80010e0:	f500 700f 	add.w	r0, r0, #572	; 0x23c
 80010e4:	f7ff fbf2 	bl	80008cc <InvMixColumns_part2>
 80010e8:	f8dd a000 	ldr.w	sl, [sp]
 80010ec:	f50a 7a17 	add.w	sl, sl, #604	; 0x25c
 80010f0:	9800      	ldr	r0, [sp, #0]
 80010f2:	f500 700f 	add.w	r0, r0, #572	; 0x23c
 80010f6:	f24f 4649 	movw	r6, #62537	; 0xf449
 80010fa:	f6c0 0602 	movt	r6, #2050	; 0x802
 80010fe:	f7ff fb9f 	bl	8000840 <MixColumns>
 8001102:	9f00      	ldr	r7, [sp, #0]
 8001104:	f507 775b 	add.w	r7, r7, #876	; 0x36c
 8001108:	9b00      	ldr	r3, [sp, #0]
 800110a:	f503 7317 	add.w	r3, r3, #604	; 0x25c
 800110e:	f7ff fca6 	bl	8000a5e <Xor_states>
 8001112:	f8dd a000 	ldr.w	sl, [sp]
 8001116:	f50a 7a13 	add.w	sl, sl, #588	; 0x24c
 800111a:	9800      	ldr	r0, [sp, #0]
 800111c:	f500 700e 	add.w	r0, r0, #568	; 0x238
 8001120:	f7ff fbd4 	bl	80008cc <InvMixColumns_part2>
 8001124:	f8dd a000 	ldr.w	sl, [sp]
 8001128:	f50a 7a13 	add.w	sl, sl, #588	; 0x24c
 800112c:	f24f 4649 	movw	r6, #62537	; 0xf449
 8001130:	f6c0 0602 	movt	r6, #2050	; 0x802
 8001134:	9800      	ldr	r0, [sp, #0]
 8001136:	f500 700e 	add.w	r0, r0, #568	; 0x238
 800113a:	f7ff fb81 	bl	8000840 <MixColumns>
 800113e:	9f00      	ldr	r7, [sp, #0]
 8001140:	f507 775b 	add.w	r7, r7, #876	; 0x36c
 8001144:	9b00      	ldr	r3, [sp, #0]
 8001146:	f503 7313 	add.w	r3, r3, #588	; 0x24c
 800114a:	f7ff fc88 	bl	8000a5e <Xor_states>
 800114e:	e787      	b.n	8001060 <aes_dec+0x92>
 8001150:	9b00      	ldr	r3, [sp, #0]
 8001152:	f503 7313 	add.w	r3, r3, #588	; 0x24c
 8001156:	f24f 4411 	movw	r4, #62481	; 0xf411
 800115a:	f6c0 0402 	movt	r4, #2050	; 0x802
 800115e:	9f00      	ldr	r7, [sp, #0]
 8001160:	f507 775b 	add.w	r7, r7, #876	; 0x36c
 8001164:	f8dd a000 	ldr.w	sl, [sp]
 8001168:	f50a 7a17 	add.w	sl, sl, #604	; 0x25c
 800116c:	f7ff fb01 	bl	8000772 <ShiftRowsWithMasked>
 8001170:	9f00      	ldr	r7, [sp, #0]
 8001172:	f507 7710 	add.w	r7, r7, #576	; 0x240
 8001176:	f7ff fd27 	bl	8000bc8 <Xor_Word>
 800117a:	f8dd a000 	ldr.w	sl, [sp]
 800117e:	f50a 7a17 	add.w	sl, sl, #604	; 0x25c
 8001182:	f8dd 8000 	ldr.w	r8, [sp]
 8001186:	f508 7884 	add.w	r8, r8, #264	; 0x108
 800118a:	9d00      	ldr	r5, [sp, #0]
 800118c:	f505 7506 	add.w	r5, r5, #536	; 0x218
 8001190:	9f00      	ldr	r7, [sp, #0]
 8001192:	f507 7711 	add.w	r7, r7, #580	; 0x244
 8001196:	f7ff fabe 	bl	8000716 <SubBytesWithMask>
 800119a:	f1ac 0c10 	sub.w	ip, ip, #16
 800119e:	f1a1 0110 	sub.w	r1, r1, #16
 80011a2:	4688      	mov	r8, r1
 80011a4:	9d00      	ldr	r5, [sp, #0]
 80011a6:	f505 7506 	add.w	r5, r5, #536	; 0x218
 80011aa:	9800      	ldr	r0, [sp, #0]
 80011ac:	f500 701b 	add.w	r0, r0, #620	; 0x26c
 80011b0:	f7ff fce2 	bl	8000b78 <Add_roundkey_masked>
 80011b4:	9f00      	ldr	r7, [sp, #0]
 80011b6:	f507 7717 	add.w	r7, r7, #604	; 0x25c
 80011ba:	f7ff fc50 	bl	8000a5e <Xor_states>
 80011be:	f24f 7049 	movw	r0, #63305	; 0xf749
 80011c2:	f6c0 0002 	movt	r0, #2050	; 0x802
 80011c6:	f64f 0149 	movw	r1, #63561	; 0xf849
 80011ca:	f6c0 0102 	movt	r1, #2050	; 0x802
 80011ce:	9c00      	ldr	r4, [sp, #0]
 80011d0:	f504 7412 	add.w	r4, r4, #584	; 0x248
 80011d4:	7822      	ldrb	r2, [r4, #0]
 80011d6:	5c82      	ldrb	r2, [r0, r2]
 80011d8:	f04f 0cff 	mov.w	ip, #255	; 0xff
 80011dc:	ebac 0202 	sub.w	r2, ip, r2
 80011e0:	461f      	mov	r7, r3
 80011e2:	f7ff fc81 	bl	8000ae8 <Multiplicative_unmasking>
 80011e6:	9f02      	ldr	r7, [sp, #8]
 80011e8:	f7ff fc53 	bl	8000a92 <State_copy>
 80011ec:	bc01      	pop	{r0}
 80011ee:	f04f 0000 	mov.w	r0, #0
 80011f2:	bc02      	pop	{r1}
 80011f4:	bc08      	pop	{r3}
 80011f6:	e8bd 1ff0 	ldmia.w	sp!, {r4, r5, r6, r7, r8, r9, sl, fp, ip}
 80011fa:	bc04      	pop	{r2}
 80011fc:	bd00      	pop	{pc}
 80011fe:	4770      	bx	lr
 8001200:	16157e2b 	.word	0x16157e2b
 8001204:	a6d2ae28 	.word	0xa6d2ae28
 8001208:	8815f7ab 	.word	0x8815f7ab
 800120c:	3c4fcf09 	.word	0x3c4fcf09

08001210 <aes_static_tests>:
 8001210:	455b7462 5d30434e 6c6c7566 0000305f     bt[ENC0]full_0..
	...
 8001230:	030b0000 137bbf10 4fac105e 21decb8a     ......{.^..O...!
 8001240:	db295ca7 180c10c6 78a67d28 631a6025     .\).....(}.x%`.c
 8001250:	30daeeea 0000927c 00000000 00000000     ...0|...........
	...
 800128c:	00100000 1eed5e8b 605611db 80d8a345     .....^....V`E...
 800129c:	001b1930 00000000 00000000 00000000     0...............
 80012ac:	74626500 434e455b 70735d30 5f74696c     .ebt[ENC0]split_
 80012bc:	70657473 00305f30 00000000 00000000     step0_0.........
 80012cc:	00000000 bf100203 105e137b cb8a4fac     ........{.^..O..
 80012dc:	5ca721de 10c6db29 7d28180c 602578a6     .!.\).....(}.x%`
 80012ec:	eeea631a 927c30da 00000000 00000000     .c...0|.........
	...
 8001348:	74000000 434e455b 70735d30 5f74696c     ...t[ENC0]split_
 8001358:	70657473 00305f31 00000000 00000000     step1_0.........
 8001368:	00000000 bf100308 105e137b cb8a4fac     ........{.^..O..
 8001378:	5ca721de 10c6db29 7d28180c 602578a6     .!.\).....(}.x%`
 8001388:	eeea631a 927c30da 00000000 00000000     .c...0|.........
	...
 80013c8:	5e8b0010 11db1eed a3456056 193080d8     ...^....V`E...0.
 80013d8:	0000001b 00000000 00000000 65000000     ...............e
 80013e8:	455b7462 5d30434e 696c7073 696e6974     bt[ENC0]splitini
 80013f8:	74735f74 5f307065 00000030 00000000     t_step0_0.......
 8001408:	02010000 137bbf10 4fac105e 21decb8a     ......{.^..O...!
 8001418:	db295ca7 180c10c6 78a67d28 631a6025     .\).....(}.x%`.c
 8001428:	30daeeea 0000927c 00000000 00000000     ...0|...........
	...
 8001484:	455b7400 5d30434e 696c7073 696e6974     .t[ENC0]splitini
 8001494:	74735f74 5f317065 00000030 00000000     t_step1_0.......
 80014a4:	02020000 137bbf10 4fac105e 21decb8a     ......{.^..O...!
 80014b4:	db295ca7 180c10c6 78a67d28 631a6025     .\).....(}.x%`.c
 80014c4:	30daeeea 0000927c 00000000 00000000     ...0|...........
	...
 8001520:	455b7400 5d30434e 696c7073 696e6974     .t[ENC0]splitini
 8001530:	74735f74 5f327065 00000030 00000000     t_step2_0.......
 8001540:	03080000 137bbf10 4fac105e 21decb8a     ......{.^..O...!
 8001550:	db295ca7 180c10c6 78a67d28 631a6025     .\).....(}.x%`.c
 8001560:	30daeeea 0000927c 00000000 00000000     ...0|...........
	...
 800159c:	00100000 1eed5e8b 605611db 80d8a345     .....^....V`E...
 80015ac:	001b1930 00000000 00000000 00000000     0...............
 80015bc:	74626500 4345445b 75665d30 305f6c6c     .ebt[DEC0]full_0
	...
 80015e0:	fb100315 e3a9f595 4c9b3cf0 29a4819e     .........<.L...)
 80015f0:	104bce0a e82be1fe a748ea3c 65301401     ..K...+.<.H...0e
 8001600:	069cb997 00000000 00000000 00000000     ................
	...
 800163c:	e8da2e10 62d14c56 e9e4bd8f faa7f91c     ....VL.b........
 800164c:	0000008d 00000000 00000000 65000000     ...............e
 800165c:	445b7462 5d304345 696c7073 74735f74     bt[DEC0]split_st
 800166c:	5f307065 00000030 00000000 00000000     ep0_0...........
 800167c:	02050000 f595fb10 3cf0e3a9 819e4c9b     ...........<.L..
 800168c:	ce0a29a4 e1fe104b ea3ce82b 1401a748     .)..K...+.<.H...
 800169c:	b9976530 0000069c 00000000 00000000     0e..............
	...
 80016f8:	445b7400 5d304345 696c7073 74735f74     .t[DEC0]split_st
 8001708:	5f317065 00000030 00000000 00000000     ep1_0...........
 8001718:	03100000 f595fb10 3cf0e3a9 819e4c9b     ...........<.L..
 8001728:	ce0a29a4 e1fe104b ea3ce82b 1401a748     .)..K...+.<.H...
 8001738:	b9976530 0000069c 00000000 00000000     0e..............
	...
 8001774:	2e100000 4c56e8da bd8f62d1 f91ce9e4     ......VL.b......
 8001784:	008dfaa7 00000000 00000000 00000000     ................
 8001794:	74626500 4345445b 70735d30 6974696c     .ebt[DEC0]spliti
 80017a4:	5f74696e 70657473 00305f30 00000000     nit_step0_0.....
 80017b4:	00000000 fb100201 e3a9f595 4c9b3cf0     .............<.L
 80017c4:	29a4819e 104bce0a e82be1fe a748ea3c     ...)..K...+.<.H.
 80017d4:	65301401 069cb997 00000000 00000000     ..0e............
	...
 8001830:	74000000 4345445b 70735d30 6974696c     ...t[DEC0]spliti
 8001840:	5f74696e 70657473 00305f31 00000000     nit_step1_0.....
 8001850:	00000000 fb100204 e3a9f595 4c9b3cf0     .............<.L
 8001860:	29a4819e 104bce0a e82be1fe a748ea3c     ...)..K...+.<.H.
 8001870:	65301401 069cb997 00000000 00000000     ..0e............
	...
 80018cc:	74000000 4345445b 70735d30 6974696c     ...t[DEC0]spliti
 80018dc:	5f74696e 70657473 00305f32 00000000     nit_step2_0.....
 80018ec:	00000000 fb100310 e3a9f595 4c9b3cf0     .............<.L
 80018fc:	29a4819e 104bce0a e82be1fe a748ea3c     ...)..K...+.<.H.
 800190c:	65301401 069cb997 00000000 00000000     ..0e............
	...
 800194c:	e8da2e10 62d14c56 e9e4bd8f faa7f91c     ....VL.b........
 800195c:	0000008d 00000000 00000000 65000000     ...............e
 800196c:	455b7462 5d31434e 6c6c7566 0000315f     bt[ENC1]full_1..
	...
 800198c:	030b0000 f8b3d410 d5b5bac7 56df58ac     .............X.V
 800199c:	c243abdd 6d1e1045 c2ea6201 ec725f05     ..C.E..m.b..._r.
 80019ac:	d6296585 00008e1b 00000000 00000000     .e).............
	...
 80019e8:	a8100000 f7376ce7 bf141683 00143554     .....l7.....T5..
 80019f8:	00ac2583 00000000 00000000 00000000     .%..............
 8001a08:	74626500 434e455b 70735d31 5f74696c     .ebt[ENC1]split_
 8001a18:	70657473 00315f30 00000000 00000000     step0_1.........
 8001a28:	00000000 d4100203 bac7f8b3 58acd5b5     ...............X
 8001a38:	abdd56df 1045c243 62016d1e 5f05c2ea     .V..C.E..m.b..._
 8001a48:	6585ec72 8e1bd629 00000000 00000000     r..e)...........
	...
 8001aa4:	74000000 434e455b 70735d31 5f74696c     ...t[ENC1]split_
 8001ab4:	70657473 00315f31 00000000 00000000     step1_1.........
 8001ac4:	00000000 d4100308 bac7f8b3 58acd5b5     ...............X
 8001ad4:	abdd56df 1045c243 62016d1e 5f05c2ea     .V..C.E..m.b..._
 8001ae4:	6585ec72 8e1bd629 00000000 00000000     r..e)...........
	...
 8001b24:	6ce7a810 1683f737 3554bf14 25830014     ...l7.....T5...%
 8001b34:	000000ac 00000000 00000000 65000000     ...............e
 8001b44:	455b7462 5d31434e 696c7073 696e6974     bt[ENC1]splitini
 8001b54:	74735f74 5f307065 00000031 00000000     t_step0_1.......
 8001b64:	02010000 f8b3d410 d5b5bac7 56df58ac     .............X.V
 8001b74:	c243abdd 6d1e1045 c2ea6201 ec725f05     ..C.E..m.b..._r.
 8001b84:	d6296585 00008e1b 00000000 00000000     .e).............
	...
 8001be0:	455b7400 5d31434e 696c7073 696e6974     .t[ENC1]splitini
 8001bf0:	74735f74 5f317065 00000031 00000000     t_step1_1.......
 8001c00:	02020000 f8b3d410 d5b5bac7 56df58ac     .............X.V
 8001c10:	c243abdd 6d1e1045 c2ea6201 ec725f05     ..C.E..m.b..._r.
 8001c20:	d6296585 00008e1b 00000000 00000000     .e).............
	...
 8001c7c:	455b7400 5d31434e 696c7073 696e6974     .t[ENC1]splitini
 8001c8c:	74735f74 5f327065 00000031 00000000     t_step2_1.......
 8001c9c:	03080000 f8b3d410 d5b5bac7 56df58ac     .............X.V
 8001cac:	c243abdd 6d1e1045 c2ea6201 ec725f05     ..C.E..m.b..._r.
 8001cbc:	d6296585 00008e1b 00000000 00000000     .e).............
	...
 8001cf8:	a8100000 f7376ce7 bf141683 00143554     .....l7.....T5..
 8001d08:	00ac2583 00000000 00000000 00000000     .%..............
 8001d18:	74626500 4345445b 75665d31 315f6c6c     .ebt[DEC1]full_1
	...
 8001d3c:	b0100315 d1ca9b8f 9790f78b 3501f99f     ...............5
 8001d4c:	107a6e13 7226c100 35003569 aedaf89a     .nz...&ri5.5....
 8001d5c:	0cb3749d 00000000 00000000 00000000     .t..............
	...
 8001d98:	ed9a7310 bfae0fbc 0490cdf0 dac3a899     .s..............
 8001da8:	00000023 00000000 00000000 65000000     #..............e
 8001db8:	445b7462 5d314345 696c7073 74735f74     bt[DEC1]split_st
 8001dc8:	5f307065 00000031 00000000 00000000     ep0_1...........
 8001dd8:	02050000 9b8fb010 f78bd1ca f99f9790     ................
 8001de8:	6e133501 c100107a 35697226 f89a3500     .5.nz...&ri5.5..
 8001df8:	749daeda 00000cb3 00000000 00000000     ...t............
	...
 8001e54:	445b7400 5d314345 696c7073 74735f74     .t[DEC1]split_st
 8001e64:	5f317065 00000031 00000000 00000000     ep1_1...........
 8001e74:	03100000 9b8fb010 f78bd1ca f99f9790     ................
 8001e84:	6e133501 c100107a 35697226 f89a3500     .5.nz...&ri5.5..
 8001e94:	749daeda 00000cb3 00000000 00000000     ...t............
	...
 8001ed0:	73100000 0fbced9a cdf0bfae a8990490     ...s............
 8001ee0:	0023dac3 00000000 00000000 00000000     ..#.............
 8001ef0:	74626500 4345445b 70735d31 6974696c     .ebt[DEC1]spliti
 8001f00:	5f74696e 70657473 00315f30 00000000     nit_step0_1.....
 8001f10:	00000000 b0100201 d1ca9b8f 9790f78b     ................
 8001f20:	3501f99f 107a6e13 7226c100 35003569     ...5.nz...&ri5.5
 8001f30:	aedaf89a 0cb3749d 00000000 00000000     .....t..........
	...
 8001f8c:	74000000 4345445b 70735d31 6974696c     ...t[DEC1]spliti
 8001f9c:	5f74696e 70657473 00315f31 00000000     nit_step1_1.....
 8001fac:	00000000 b0100204 d1ca9b8f 9790f78b     ................
 8001fbc:	3501f99f 107a6e13 7226c100 35003569     ...5.nz...&ri5.5
 8001fcc:	aedaf89a 0cb3749d 00000000 00000000     .....t..........
	...
 8002028:	74000000 4345445b 70735d31 6974696c     ...t[DEC1]spliti
 8002038:	5f74696e 70657473 00315f32 00000000     nit_step2_1.....
 8002048:	00000000 b0100310 d1ca9b8f 9790f78b     ................
 8002058:	3501f99f 107a6e13 7226c100 35003569     ...5.nz...&ri5.5
 8002068:	aedaf89a 0cb3749d 00000000 00000000     .....t..........
	...
 80020a8:	ed9a7310 bfae0fbc 0490cdf0 dac3a899     .s..............
 80020b8:	00000023 00000000 00000000 65000000     #..............e
 80020c8:	455b7462 5d32434e 6c6c7566 0000325f     bt[ENC2]full_2..
	...
 80020e8:	030b0000 f2a79410 38f26ac0 6da74c0a     .........j.8.L.m
 80020f8:	492007d3 13dc1036 c5c8ab72 3d170808     .. I6...r......=
 8002108:	44c3da0e 00000724 00000000 00000000     ...D$...........
	...
 8002144:	21100000 18a0be75 3a7b3fbe 79aff3f3     ...!u....?{:...y
 8002154:	007663eb 00000000 00000000 00000000     .cv.............
 8002164:	74626500 434e455b 70735d32 5f74696c     .ebt[ENC2]split_
 8002174:	70657473 00325f30 00000000 00000000     step0_2.........
 8002184:	00000000 94100203 6ac0f2a7 4c0a38f2     ...........j.8.L
 8002194:	07d36da7 10364920 ab7213dc 0808c5c8     .m.. I6...r.....
 80021a4:	da0e3d17 072444c3 00000000 00000000     .=...D$.........
	...
 8002200:	74000000 434e455b 70735d32 5f74696c     ...t[ENC2]split_
 8002210:	70657473 00325f31 00000000 00000000     step1_2.........
 8002220:	00000000 94100308 6ac0f2a7 4c0a38f2     ...........j.8.L
 8002230:	07d36da7 10364920 ab7213dc 0808c5c8     .m.. I6...r.....
 8002240:	da0e3d17 072444c3 00000000 00000000     .=...D$.........
	...
 8002280:	be752110 3fbe18a0 f3f33a7b 63eb79af     .!u....?{:...y.c
 8002290:	00000076 00000000 00000000 65000000     v..............e
 80022a0:	455b7462 5d32434e 696c7073 696e6974     bt[ENC2]splitini
 80022b0:	74735f74 5f307065 00000032 00000000     t_step0_2.......
 80022c0:	02010000 f2a79410 38f26ac0 6da74c0a     .........j.8.L.m
 80022d0:	492007d3 13dc1036 c5c8ab72 3d170808     .. I6...r......=
 80022e0:	44c3da0e 00000724 00000000 00000000     ...D$...........
	...
 800233c:	455b7400 5d32434e 696c7073 696e6974     .t[ENC2]splitini
 800234c:	74735f74 5f317065 00000032 00000000     t_step1_2.......
 800235c:	02020000 f2a79410 38f26ac0 6da74c0a     .........j.8.L.m
 800236c:	492007d3 13dc1036 c5c8ab72 3d170808     .. I6...r......=
 800237c:	44c3da0e 00000724 00000000 00000000     ...D$...........
	...
 80023d8:	455b7400 5d32434e 696c7073 696e6974     .t[ENC2]splitini
 80023e8:	74735f74 5f327065 00000032 00000000     t_step2_2.......
 80023f8:	03080000 f2a79410 38f26ac0 6da74c0a     .........j.8.L.m
 8002408:	492007d3 13dc1036 c5c8ab72 3d170808     .. I6...r......=
 8002418:	44c3da0e 00000724 00000000 00000000     ...D$...........
	...
 8002454:	21100000 18a0be75 3a7b3fbe 79aff3f3     ...!u....?{:...y
 8002464:	007663eb 00000000 00000000 00000000     .cv.............
 8002474:	74626500 4345445b 75665d32 325f6c6c     .ebt[DEC2]full_2
	...
 8002498:	63100315 e68db03f da83ee3c f9b9968b     ...c?...<.......
 80024a8:	1066fb92 4726a2e6 0764423f 408dca4f     ..f...&G?Bd.O..@
 80024b8:	fad442fb 00000000 00000000 00000000     .B..............
	...
 80024f4:	e5e5ac10 7f25eed3 6092ba30 a9521e59     ......%.0..`Y.R.
 8002504:	000000c6 00000000 00000000 65000000     ...............e
 8002514:	445b7462 5d324345 696c7073 74735f74     bt[DEC2]split_st
 8002524:	5f307065 00000032 00000000 00000000     ep0_2...........
 8002534:	02050000 b03f6310 ee3ce68d 968bda83     .....c?...<.....
 8002544:	fb92f9b9 a2e61066 423f4726 ca4f0764     ....f...&G?Bd.O.
 8002554:	42fb408d 0000fad4 00000000 00000000     .@.B............
	...
 80025b0:	445b7400 5d324345 696c7073 74735f74     .t[DEC2]split_st
 80025c0:	5f317065 00000032 00000000 00000000     ep1_2...........
 80025d0:	03100000 b03f6310 ee3ce68d 968bda83     .....c?...<.....
 80025e0:	fb92f9b9 a2e61066 423f4726 ca4f0764     ....f...&G?Bd.O.
 80025f0:	42fb408d 0000fad4 00000000 00000000     .@.B............
	...
 800262c:	ac100000 eed3e5e5 ba307f25 1e596092     ........%.0..`Y.
 800263c:	00c6a952 00000000 00000000 00000000     R...............
 800264c:	74626500 4345445b 70735d32 6974696c     .ebt[DEC2]spliti
 800265c:	5f74696e 70657473 00325f30 00000000     nit_step0_2.....
 800266c:	00000000 63100201 e68db03f da83ee3c     .......c?...<...
 800267c:	f9b9968b 1066fb92 4726a2e6 0764423f     ......f...&G?Bd.
 800268c:	408dca4f fad442fb 00000000 00000000     O..@.B..........
	...
 80026e8:	74000000 4345445b 70735d32 6974696c     ...t[DEC2]spliti
 80026f8:	5f74696e 70657473 00325f31 00000000     nit_step1_2.....
 8002708:	00000000 63100204 e68db03f da83ee3c     .......c?...<...
 8002718:	f9b9968b 1066fb92 4726a2e6 0764423f     ......f...&G?Bd.
 8002728:	408dca4f fad442fb 00000000 00000000     O..@.B..........
	...
 8002784:	74000000 4345445b 70735d32 6974696c     ...t[DEC2]spliti
 8002794:	5f74696e 70657473 00325f32 00000000     nit_step2_2.....
 80027a4:	00000000 63100310 e68db03f da83ee3c     .......c?...<...
 80027b4:	f9b9968b 1066fb92 4726a2e6 0764423f     ......f...&G?Bd.
 80027c4:	408dca4f fad442fb 00000000 00000000     O..@.B..........
	...
 8002804:	e5e5ac10 7f25eed3 6092ba30 a9521e59     ......%.0..`Y.R.
 8002814:	000000c6 00000000 00000000 65000000     ...............e
 8002824:	455b7462 5d33434e 6c6c7566 0000335f     bt[ENC3]full_3..
	...
 8002844:	030b0000 c3f41310 9c69454c 362332b5     ........LEi..2#6
 8002854:	7cfe9943 191910fe 7865b985 16d7e5ac     C..|......ex....
 8002864:	3f9b6e8b 0000de91 00000000 00000000     .n.?............
	...
 80028a0:	bd100000 5d8082ff 795e0cb1 da9abbf4     .......]..^y....
 80028b0:	0075f3d8 00000000 00000000 00000000     ..u.............
 80028c0:	74626500 434e455b 70735d33 5f74696c     .ebt[ENC3]split_
 80028d0:	70657473 00335f30 00000000 00000000     step0_3.........
 80028e0:	00000000 13100203 454cc3f4 32b59c69     ..........LEi..2
 80028f0:	99433623 10fe7cfe b9851919 e5ac7865     #6C..|......ex..
 8002900:	6e8b16d7 de913f9b 00000000 00000000     ...n.?..........
	...
 800295c:	74000000 434e455b 70735d33 5f74696c     ...t[ENC3]split_
 800296c:	70657473 00335f31 00000000 00000000     step1_3.........
 800297c:	00000000 13100308 454cc3f4 32b59c69     ..........LEi..2
 800298c:	99433623 10fe7cfe b9851919 e5ac7865     #6C..|......ex..
 800299c:	6e8b16d7 de913f9b 00000000 00000000     ...n.?..........
	...
 80029dc:	82ffbd10 0cb15d80 bbf4795e f3d8da9a     .....]..^y......
 80029ec:	00000075 00000000 00000000 65000000     u..............e
 80029fc:	455b7462 5d33434e 696c7073 696e6974     bt[ENC3]splitini
 8002a0c:	74735f74 5f307065 00000033 00000000     t_step0_3.......
 8002a1c:	02010000 c3f41310 9c69454c 362332b5     ........LEi..2#6
 8002a2c:	7cfe9943 191910fe 7865b985 16d7e5ac     C..|......ex....
 8002a3c:	3f9b6e8b 0000de91 00000000 00000000     .n.?............
	...
 8002a98:	455b7400 5d33434e 696c7073 696e6974     .t[ENC3]splitini
 8002aa8:	74735f74 5f317065 00000033 00000000     t_step1_3.......
 8002ab8:	02020000 c3f41310 9c69454c 362332b5     ........LEi..2#6
 8002ac8:	7cfe9943 191910fe 7865b985 16d7e5ac     C..|......ex....
 8002ad8:	3f9b6e8b 0000de91 00000000 00000000     .n.?............
	...
 8002b34:	455b7400 5d33434e 696c7073 696e6974     .t[ENC3]splitini
 8002b44:	74735f74 5f327065 00000033 00000000     t_step2_3.......
 8002b54:	03080000 c3f41310 9c69454c 362332b5     ........LEi..2#6
 8002b64:	7cfe9943 191910fe 7865b985 16d7e5ac     C..|......ex....
 8002b74:	3f9b6e8b 0000de91 00000000 00000000     .n.?............
	...
 8002bb0:	bd100000 5d8082ff 795e0cb1 da9abbf4     .......]..^y....
 8002bc0:	0075f3d8 00000000 00000000 00000000     ..u.............
 8002bd0:	74626500 4345445b 75665d33 335f6c6c     .ebt[DEC3]full_3
	...
 8002bf4:	10100315 1abd16a9 b0890413 66d7dcb7     ...............f
 8002c04:	108f5a38 24352183 8f4c886a 73194efa     8Z...!5$j.L..N.s
 8002c14:	0e1e06f3 00000000 00000000 00000000     ................
	...
 8002c50:	c11f0210 4fb82e21 bcd3ad5f b262161d     ....!..O_.....b.
 8002c60:	00000033 00000000 00000000 65000000     3..............e
 8002c70:	445b7462 5d334345 696c7073 74735f74     bt[DEC3]split_st
 8002c80:	5f307065 00000033 00000000 00000000     ep0_3...........
 8002c90:	02050000 16a91010 04131abd dcb7b089     ................
 8002ca0:	5a3866d7 2183108f 886a2435 4efa8f4c     .f8Z...!5$j.L..N
 8002cb0:	06f37319 00000e1e 00000000 00000000     .s..............
	...
 8002d0c:	445b7400 5d334345 696c7073 74735f74     .t[DEC3]split_st
 8002d1c:	5f317065 00000033 00000000 00000000     ep1_3...........
 8002d2c:	03100000 16a91010 04131abd dcb7b089     ................
 8002d3c:	5a3866d7 2183108f 886a2435 4efa8f4c     .f8Z...!5$j.L..N
 8002d4c:	06f37319 00000e1e 00000000 00000000     .s..............
	...
 8002d88:	02100000 2e21c11f ad5f4fb8 161dbcd3     ......!..O_.....
 8002d98:	0033b262 00000000 00000000 00000000     b.3.............
 8002da8:	74626500 4345445b 70735d33 6974696c     .ebt[DEC3]spliti
 8002db8:	5f74696e 70657473 00335f30 00000000     nit_step0_3.....
 8002dc8:	00000000 10100201 1abd16a9 b0890413     ................
 8002dd8:	66d7dcb7 108f5a38 24352183 8f4c886a     ...f8Z...!5$j.L.
 8002de8:	73194efa 0e1e06f3 00000000 00000000     .N.s............
	...
 8002e44:	74000000 4345445b 70735d33 6974696c     ...t[DEC3]spliti
 8002e54:	5f74696e 70657473 00335f31 00000000     nit_step1_3.....
 8002e64:	00000000 10100204 1abd16a9 b0890413     ................
 8002e74:	66d7dcb7 108f5a38 24352183 8f4c886a     ...f8Z...!5$j.L.
 8002e84:	73194efa 0e1e06f3 00000000 00000000     .N.s............
	...
 8002ee0:	74000000 4345445b 70735d33 6974696c     ...t[DEC3]spliti
 8002ef0:	5f74696e 70657473 00335f32 00000000     nit_step2_3.....
 8002f00:	00000000 10100310 1abd16a9 b0890413     ................
 8002f10:	66d7dcb7 108f5a38 24352183 8f4c886a     ...f8Z...!5$j.L.
 8002f20:	73194efa 0e1e06f3 00000000 00000000     .N.s............
	...
 8002f60:	c11f0210 4fb82e21 bcd3ad5f b262161d     ....!..O_.....b.
 8002f70:	00000033 00000000 00000000 65000000     3..............e
 8002f80:	455b7462 5d34434e 6c6c7566 0000345f     bt[ENC4]full_4..
	...
 8002fa0:	030b0000 b7f10310 e4ab8de7 24275692     .............V'$
 8002fb0:	95c3c6fd 3b93105d ab5fe5af df12ffca     ....]..;.._.....
 8002fc0:	0b7338d5 0000e799 00000000 00000000     .8s.............
	...
 8002ffc:	e3100000 0be0571f 3da7ea2e b6ed836d     .....W.....=m...
 800300c:	00f13411 00000000 00000000 00000000     .4..............
 800301c:	74626500 434e455b 70735d34 5f74696c     .ebt[ENC4]split_
 800302c:	70657473 00345f30 00000000 00000000     step0_4.........
 800303c:	00000000 03100203 8de7b7f1 5692e4ab     ...............V
 800304c:	c6fd2427 105d95c3 e5af3b93 ffcaab5f     '$....]..;.._...
 800305c:	38d5df12 e7990b73 00000000 00000000     ...8s...........
	...
 80030b8:	74000000 434e455b 70735d34 5f74696c     ...t[ENC4]split_
 80030c8:	70657473 00345f31 00000000 00000000     step1_4.........
 80030d8:	00000000 03100308 8de7b7f1 5692e4ab     ...............V
 80030e8:	c6fd2427 105d95c3 e5af3b93 ffcaab5f     '$....]..;.._...
 80030f8:	38d5df12 e7990b73 00000000 00000000     ...8s...........
	...
 8003138:	571fe310 ea2e0be0 836d3da7 3411b6ed     ...W.....=m....4
 8003148:	000000f1 00000000 00000000 65000000     ...............e
 8003158:	455b7462 5d34434e 696c7073 696e6974     bt[ENC4]splitini
 8003168:	74735f74 5f307065 00000034 00000000     t_step0_4.......
 8003178:	02010000 b7f10310 e4ab8de7 24275692     .............V'$
 8003188:	95c3c6fd 3b93105d ab5fe5af df12ffca     ....]..;.._.....
 8003198:	0b7338d5 0000e799 00000000 00000000     .8s.............
	...
 80031f4:	455b7400 5d34434e 696c7073 696e6974     .t[ENC4]splitini
 8003204:	74735f74 5f317065 00000034 00000000     t_step1_4.......
 8003214:	02020000 b7f10310 e4ab8de7 24275692     .............V'$
 8003224:	95c3c6fd 3b93105d ab5fe5af df12ffca     ....]..;.._.....
 8003234:	0b7338d5 0000e799 00000000 00000000     .8s.............
	...
 8003290:	455b7400 5d34434e 696c7073 696e6974     .t[ENC4]splitini
 80032a0:	74735f74 5f327065 00000034 00000000     t_step2_4.......
 80032b0:	03080000 b7f10310 e4ab8de7 24275692     .............V'$
 80032c0:	95c3c6fd 3b93105d ab5fe5af df12ffca     ....]..;.._.....
 80032d0:	0b7338d5 0000e799 00000000 00000000     .8s.............
	...
 800330c:	e3100000 0be0571f 3da7ea2e b6ed836d     .....W.....=m...
 800331c:	00f13411 00000000 00000000 00000000     .4..............
 800332c:	74626500 4345445b 75665d34 345f6c6c     .ebt[DEC4]full_4
	...
 8003350:	f8100315 7755ace4 4f4dbcdf d4e480f3     ......Uw..MO....
 8003360:	10f1f07f 0dbf8ca4 4c9d0336 cd9cedbd     ........6..L....
 8003370:	c09a2631 00000000 00000000 00000000     1&..............
	...
 80033ac:	ffacb210 eae04400 cb7f863f 92f10db8     .....D..?.......
 80033bc:	000000c1 00000000 00000000 65000000     ...............e
 80033cc:	445b7462 5d344345 696c7073 74735f74     bt[DEC4]split_st
 80033dc:	5f307065 00000034 00000000 00000000     ep0_4...........
 80033ec:	02050000 ace4f810 bcdf7755 80f34f4d     ........Uw..MO..
 80033fc:	f07fd4e4 8ca410f1 03360dbf edbd4c9d     ..........6..L..
 800340c:	2631cd9c 0000c09a 00000000 00000000     ..1&............
	...
 8003468:	445b7400 5d344345 696c7073 74735f74     .t[DEC4]split_st
 8003478:	5f317065 00000034 00000000 00000000     ep1_4...........
 8003488:	03100000 ace4f810 bcdf7755 80f34f4d     ........Uw..MO..
 8003498:	f07fd4e4 8ca410f1 03360dbf edbd4c9d     ..........6..L..
 80034a8:	2631cd9c 0000c09a 00000000 00000000     ..1&............
	...
 80034e4:	b2100000 4400ffac 863feae0 0db8cb7f     .......D..?.....
 80034f4:	00c192f1 00000000 00000000 00000000     ................
 8003504:	74626500 4345445b 70735d34 6974696c     .ebt[DEC4]spliti
 8003514:	5f74696e 70657473 00345f30 00000000     nit_step0_4.....
 8003524:	00000000 f8100201 7755ace4 4f4dbcdf     ..........Uw..MO
 8003534:	d4e480f3 10f1f07f 0dbf8ca4 4c9d0336     ............6..L
 8003544:	cd9cedbd c09a2631 00000000 00000000     ....1&..........
	...
 80035a0:	74000000 4345445b 70735d34 6974696c     ...t[DEC4]spliti
 80035b0:	5f74696e 70657473 00345f31 00000000     nit_step1_4.....
 80035c0:	00000000 f8100204 7755ace4 4f4dbcdf     ..........Uw..MO
 80035d0:	d4e480f3 10f1f07f 0dbf8ca4 4c9d0336     ............6..L
 80035e0:	cd9cedbd c09a2631 00000000 00000000     ....1&..........
	...
 800363c:	74000000 4345445b 70735d34 6974696c     ...t[DEC4]spliti
 800364c:	5f74696e 70657473 00345f32 00000000     nit_step2_4.....
 800365c:	00000000 f8100310 7755ace4 4f4dbcdf     ..........Uw..MO
 800366c:	d4e480f3 10f1f07f 0dbf8ca4 4c9d0336     ............6..L
 800367c:	cd9cedbd c09a2631 00000000 00000000     ....1&..........
	...
 80036bc:	ffacb210 eae04400 cb7f863f 92f10db8     .....D..?.......
 80036cc:	000000c1 00000000 00000000 65000000     ...............e
 80036dc:	455b7462 5d35434e 6c6c7566 0000355f     bt[ENC5]full_5..
	...
 80036fc:	030b0000 5a729710 85f52448 a0b1f968     ......rZH$..h...
 800370c:	dd982a7d a0271017 0c98cfef 1a780434     }*....'.....4.x.
 800371c:	c5cdb094 00000030 00000000 00000000     ....0...........
	...
 8003758:	f3100000 92de6b16 b10b4dea 586133ea     .....k...M...3aX
 8003768:	005292cc 00000000 00000000 00000000     ..R.............
 8003778:	74626500 434e455b 70735d35 5f74696c     .ebt[ENC5]split_
 8003788:	70657473 00355f30 00000000 00000000     step0_5.........
 8003798:	00000000 97100203 24485a72 f96885f5     ........rZH$..h.
 80037a8:	2a7da0b1 1017dd98 cfefa027 04340c98     ..}*....'.....4.
 80037b8:	b0941a78 0030c5cd 00000000 00000000     x.....0.........
	...
 8003814:	74000000 434e455b 70735d35 5f74696c     ...t[ENC5]split_
 8003824:	70657473 00355f31 00000000 00000000     step1_5.........
 8003834:	00000000 97100308 24485a72 f96885f5     ........rZH$..h.
 8003844:	2a7da0b1 1017dd98 cfefa027 04340c98     ..}*....'.....4.
 8003854:	b0941a78 0030c5cd 00000000 00000000     x.....0.........
	...
 8003894:	6b16f310 4dea92de 33eab10b 92cc5861     ...k...M...3aX..
 80038a4:	00000052 00000000 00000000 65000000     R..............e
 80038b4:	455b7462 5d35434e 696c7073 696e6974     bt[ENC5]splitini
 80038c4:	74735f74 5f307065 00000035 00000000     t_step0_5.......
 80038d4:	02010000 5a729710 85f52448 a0b1f968     ......rZH$..h...
 80038e4:	dd982a7d a0271017 0c98cfef 1a780434     }*....'.....4.x.
 80038f4:	c5cdb094 00000030 00000000 00000000     ....0...........
	...
 8003950:	455b7400 5d35434e 696c7073 696e6974     .t[ENC5]splitini
 8003960:	74735f74 5f317065 00000035 00000000     t_step1_5.......
 8003970:	02020000 5a729710 85f52448 a0b1f968     ......rZH$..h...
 8003980:	dd982a7d a0271017 0c98cfef 1a780434     }*....'.....4.x.
 8003990:	c5cdb094 00000030 00000000 00000000     ....0...........
	...
 80039ec:	455b7400 5d35434e 696c7073 696e6974     .t[ENC5]splitini
 80039fc:	74735f74 5f327065 00000035 00000000     t_step2_5.......
 8003a0c:	03080000 5a729710 85f52448 a0b1f968     ......rZH$..h...
 8003a1c:	dd982a7d a0271017 0c98cfef 1a780434     }*....'.....4.x.
 8003a2c:	c5cdb094 00000030 00000000 00000000     ....0...........
	...
 8003a68:	f3100000 92de6b16 b10b4dea 586133ea     .....k...M...3aX
 8003a78:	005292cc 00000000 00000000 00000000     ..R.............
 8003a88:	74626500 4345445b 75665d35 355f6c6c     .ebt[DEC5]full_5
	...
 8003aac:	ad100315 8c7b13f3 2937a1c1 1ee0afe1     ......{...7)....
 8003abc:	10144d1d a98a3386 178a30b6 7aad7c45     .M...3...0..E|.z
 8003acc:	a9abf03b 00000000 00000000 00000000     ;...............
	...
 8003b08:	d8678b10 5273a1f4 c9a98c20 eb52cd0d     ..g...sR .....R.
 8003b18:	000000b6 00000000 00000000 65000000     ...............e
 8003b28:	445b7462 5d354345 696c7073 74735f74     bt[DEC5]split_st
 8003b38:	5f307065 00000035 00000000 00000000     ep0_5...........
 8003b48:	02050000 13f3ad10 a1c18c7b afe12937     ........{...7)..
 8003b58:	4d1d1ee0 33861014 30b6a98a 7c45178a     ...M...3...0..E|
 8003b68:	f03b7aad 0000a9ab 00000000 00000000     .z;.............
	...
 8003bc4:	445b7400 5d354345 696c7073 74735f74     .t[DEC5]split_st
 8003bd4:	5f317065 00000035 00000000 00000000     ep1_5...........
 8003be4:	03100000 13f3ad10 a1c18c7b afe12937     ........{...7)..
 8003bf4:	4d1d1ee0 33861014 30b6a98a 7c45178a     ...M...3...0..E|
 8003c04:	f03b7aad 0000a9ab 00000000 00000000     .z;.............
	...
 8003c40:	8b100000 a1f4d867 8c205273 cd0dc9a9     ....g...sR .....
 8003c50:	00b6eb52 00000000 00000000 00000000     R...............
 8003c60:	74626500 4345445b 70735d35 6974696c     .ebt[DEC5]spliti
 8003c70:	5f74696e 70657473 00355f30 00000000     nit_step0_5.....
 8003c80:	00000000 ad100201 8c7b13f3 2937a1c1     ..........{...7)
 8003c90:	1ee0afe1 10144d1d a98a3386 178a30b6     .....M...3...0..
 8003ca0:	7aad7c45 a9abf03b 00000000 00000000     E|.z;...........
	...
 8003cfc:	74000000 4345445b 70735d35 6974696c     ...t[DEC5]spliti
 8003d0c:	5f74696e 70657473 00355f31 00000000     nit_step1_5.....
 8003d1c:	00000000 ad100204 8c7b13f3 2937a1c1     ..........{...7)
 8003d2c:	1ee0afe1 10144d1d a98a3386 178a30b6     .....M...3...0..
 8003d3c:	7aad7c45 a9abf03b 00000000 00000000     E|.z;...........
	...
 8003d98:	74000000 4345445b 70735d35 6974696c     ...t[DEC5]spliti
 8003da8:	5f74696e 70657473 00355f32 00000000     nit_step2_5.....
 8003db8:	00000000 ad100310 8c7b13f3 2937a1c1     ..........{...7)
 8003dc8:	1ee0afe1 10144d1d a98a3386 178a30b6     .....M...3...0..
 8003dd8:	7aad7c45 a9abf03b 00000000 00000000     E|.z;...........
	...
 8003e18:	d8678b10 5273a1f4 c9a98c20 eb52cd0d     ..g...sR .....R.
 8003e28:	000000b6 00000000 00000000 65000000     ...............e
 8003e38:	455b7462 5d36434e 6c6c7566 0000365f     bt[ENC6]full_6..
	...
 8003e58:	030b0000 08cd1610 be68251e d8f35f28     .........%h.(_..
 8003e68:	55358ff7 f2af10cd c5a0b8ea 9c5aacee     ..5U..........Z.
 8003e78:	b06aea54 000092fc 00000000 00000000     T.j.............
	...
 8003eb4:	75100000 4b084730 0eeb1fc0 9937f545     ...u0G.K....E.7.
 8003ec4:	00c87d81 00000000 00000000 00000000     .}..............
 8003ed4:	74626500 434e455b 70735d36 5f74696c     .ebt[ENC6]split_
 8003ee4:	70657473 00365f30 00000000 00000000     step0_6.........
 8003ef4:	00000000 16100203 251e08cd 5f28be68     ...........%h.(_
 8003f04:	8ff7d8f3 10cd5535 b8eaf2af aceec5a0     ....5U..........
 8003f14:	ea549c5a 92fcb06a 00000000 00000000     Z.T.j...........
	...
 8003f70:	74000000 434e455b 70735d36 5f74696c     ...t[ENC6]split_
 8003f80:	70657473 00365f31 00000000 00000000     step1_6.........
 8003f90:	00000000 16100308 251e08cd 5f28be68     ...........%h.(_
 8003fa0:	8ff7d8f3 10cd5535 b8eaf2af aceec5a0     ....5U..........
 8003fb0:	ea549c5a 92fcb06a 00000000 00000000     Z.T.j...........
	...
 8003ff0:	47307510 1fc04b08 f5450eeb 7d819937     .u0G.K....E.7..}
 8004000:	000000c8 00000000 00000000 65000000     ...............e
 8004010:	455b7462 5d36434e 696c7073 696e6974     bt[ENC6]splitini
 8004020:	74735f74 5f307065 00000036 00000000     t_step0_6.......
 8004030:	02010000 08cd1610 be68251e d8f35f28     .........%h.(_..
 8004040:	55358ff7 f2af10cd c5a0b8ea 9c5aacee     ..5U..........Z.
 8004050:	b06aea54 000092fc 00000000 00000000     T.j.............
	...
 80040ac:	455b7400 5d36434e 696c7073 696e6974     .t[ENC6]splitini
 80040bc:	74735f74 5f317065 00000036 00000000     t_step1_6.......
 80040cc:	02020000 08cd1610 be68251e d8f35f28     .........%h.(_..
 80040dc:	55358ff7 f2af10cd c5a0b8ea 9c5aacee     ..5U..........Z.
 80040ec:	b06aea54 000092fc 00000000 00000000     T.j.............
	...
 8004148:	455b7400 5d36434e 696c7073 696e6974     .t[ENC6]splitini
 8004158:	74735f74 5f327065 00000036 00000000     t_step2_6.......
 8004168:	03080000 08cd1610 be68251e d8f35f28     .........%h.(_..
 8004178:	55358ff7 f2af10cd c5a0b8ea 9c5aacee     ..5U..........Z.
 8004188:	b06aea54 000092fc 00000000 00000000     T.j.............
	...
 80041c4:	75100000 4b084730 0eeb1fc0 9937f545     ...u0G.K....E.7.
 80041d4:	00c87d81 00000000 00000000 00000000     .}..............
 80041e4:	74626500 4345445b 75665d36 365f6c6c     .ebt[DEC6]full_6
	...
 8004208:	18100315 1e750567 ff51200a a513e776     ....g.u.. Q.v...
 8004218:	10a8f085 803ef6ff a5b40960 0857b511     ......>.`.....W.
 8004228:	8c1b3843 00000000 00000000 00000000     C8..............
	...
 8004264:	6dcc6410 d03712df 85d3a8b4 6d89ceb4     .d.m..7........m
 8004274:	00000052 00000000 00000000 65000000     R..............e
 8004284:	445b7462 5d364345 696c7073 74735f74     bt[DEC6]split_st
 8004294:	5f307065 00000036 00000000 00000000     ep0_6...........
 80042a4:	02050000 05671810 200a1e75 e776ff51     ......g.u.. Q.v.
 80042b4:	f085a513 f6ff10a8 0960803e b511a5b4     ........>.`.....
 80042c4:	38430857 00008c1b 00000000 00000000     W.C8............
	...
 8004320:	445b7400 5d364345 696c7073 74735f74     .t[DEC6]split_st
 8004330:	5f317065 00000036 00000000 00000000     ep1_6...........
 8004340:	03100000 05671810 200a1e75 e776ff51     ......g.u.. Q.v.
 8004350:	f085a513 f6ff10a8 0960803e b511a5b4     ........>.`.....
 8004360:	38430857 00008c1b 00000000 00000000     W.C8............
	...
 800439c:	64100000 12df6dcc a8b4d037 ceb485d3     ...d.m..7.......
 80043ac:	00526d89 00000000 00000000 00000000     .mR.............
 80043bc:	74626500 4345445b 70735d36 6974696c     .ebt[DEC6]spliti
 80043cc:	5f74696e 70657473 00365f30 00000000     nit_step0_6.....
 80043dc:	00000000 18100201 1e750567 ff51200a     ........g.u.. Q.
 80043ec:	a513e776 10a8f085 803ef6ff a5b40960     v.........>.`...
 80043fc:	0857b511 8c1b3843 00000000 00000000     ..W.C8..........
	...
 8004458:	74000000 4345445b 70735d36 6974696c     ...t[DEC6]spliti
 8004468:	5f74696e 70657473 00365f31 00000000     nit_step1_6.....
 8004478:	00000000 18100204 1e750567 ff51200a     ........g.u.. Q.
 8004488:	a513e776 10a8f085 803ef6ff a5b40960     v.........>.`...
 8004498:	0857b511 8c1b3843 00000000 00000000     ..W.C8..........
	...
 80044f4:	74000000 4345445b 70735d36 6974696c     ...t[DEC6]spliti
 8004504:	5f74696e 70657473 00365f32 00000000     nit_step2_6.....
 8004514:	00000000 18100310 1e750567 ff51200a     ........g.u.. Q.
 8004524:	a513e776 10a8f085 803ef6ff a5b40960     v.........>.`...
 8004534:	0857b511 8c1b3843 00000000 00000000     ..W.C8..........
	...
 8004574:	6dcc6410 d03712df 85d3a8b4 6d89ceb4     .d.m..7........m
 8004584:	00000052 00000000 00000000 65000000     R..............e
 8004594:	455b7462 5d37434e 6c6c7566 0000375f     bt[ENC7]full_7..
	...
 80045b4:	030b0000 d2a27410 953ed4c9 a221c6ac     .....t....>...!.
 80045c4:	f4a56ed0 cef510ac 64d873e3 07769c27     .n.......s.d'.v.
 80045d4:	c8c3edf9 0000796d 00000000 00000000     ....my..........
	...
 8004610:	8a100000 ef73375e 08c09b49 c29df2d8     ....^7s.I.......
 8004620:	001ab51c 00000000 00000000 00000000     ................
 8004630:	74626500 434e455b 70735d37 5f74696c     .ebt[ENC7]split_
 8004640:	70657473 00375f30 00000000 00000000     step0_7.........
 8004650:	00000000 74100203 d4c9d2a2 c6ac953e     .......t....>...
 8004660:	6ed0a221 10acf4a5 73e3cef5 9c2764d8     !..n.......s.d'.
 8004670:	edf90776 796dc8c3 00000000 00000000     v.....my........
	...
 80046cc:	74000000 434e455b 70735d37 5f74696c     ...t[ENC7]split_
 80046dc:	70657473 00375f31 00000000 00000000     step1_7.........
 80046ec:	00000000 74100308 d4c9d2a2 c6ac953e     .......t....>...
 80046fc:	6ed0a221 10acf4a5 73e3cef5 9c2764d8     !..n.......s.d'.
 800470c:	edf90776 796dc8c3 00000000 00000000     v.....my........
	...
 800474c:	375e8a10 9b49ef73 f2d808c0 b51cc29d     ..^7s.I.........
 800475c:	0000001a 00000000 00000000 65000000     ...............e
 800476c:	455b7462 5d37434e 696c7073 696e6974     bt[ENC7]splitini
 800477c:	74735f74 5f307065 00000037 00000000     t_step0_7.......
 800478c:	02010000 d2a27410 953ed4c9 a221c6ac     .....t....>...!.
 800479c:	f4a56ed0 cef510ac 64d873e3 07769c27     .n.......s.d'.v.
 80047ac:	c8c3edf9 0000796d 00000000 00000000     ....my..........
	...
 8004808:	455b7400 5d37434e 696c7073 696e6974     .t[ENC7]splitini
 8004818:	74735f74 5f317065 00000037 00000000     t_step1_7.......
 8004828:	02020000 d2a27410 953ed4c9 a221c6ac     .....t....>...!.
 8004838:	f4a56ed0 cef510ac 64d873e3 07769c27     .n.......s.d'.v.
 8004848:	c8c3edf9 0000796d 00000000 00000000     ....my..........
	...
 80048a4:	455b7400 5d37434e 696c7073 696e6974     .t[ENC7]splitini
 80048b4:	74735f74 5f327065 00000037 00000000     t_step2_7.......
 80048c4:	03080000 d2a27410 953ed4c9 a221c6ac     .....t....>...!.
 80048d4:	f4a56ed0 cef510ac 64d873e3 07769c27     .n.......s.d'.v.
 80048e4:	c8c3edf9 0000796d 00000000 00000000     ....my..........
	...
 8004920:	8a100000 ef73375e 08c09b49 c29df2d8     ....^7s.I.......
 8004930:	001ab51c 00000000 00000000 00000000     ................
 8004940:	74626500 4345445b 75665d37 375f6c6c     .ebt[DEC7]full_7
	...
 8004964:	e8100315 bbbd2b2b 667bc4db 1ac647af     ....++....{f.G..
 8004974:	100be962 7c8b195e 9b95b5b4 5f18ac34     b...^..|....4.._
 8004984:	f585d5cc 00000000 00000000 00000000     ................
	...
 80049c0:	00be5f10 e675c7cc 1c0fda96 b4ca594d     ._....u.....MY..
 80049d0:	000000df 00000000 00000000 65000000     ...............e
 80049e0:	445b7462 5d374345 696c7073 74735f74     bt[DEC7]split_st
 80049f0:	5f307065 00000037 00000000 00000000     ep0_7...........
 8004a00:	02050000 2b2be810 c4dbbbbd 47af667b     ......++....{f.G
 8004a10:	e9621ac6 195e100b b5b47c8b ac349b95     ..b...^..|....4.
 8004a20:	d5cc5f18 0000f585 00000000 00000000     ._..............
	...
 8004a7c:	445b7400 5d374345 696c7073 74735f74     .t[DEC7]split_st
 8004a8c:	5f317065 00000037 00000000 00000000     ep1_7...........
 8004a9c:	03100000 2b2be810 c4dbbbbd 47af667b     ......++....{f.G
 8004aac:	e9621ac6 195e100b b5b47c8b ac349b95     ..b...^..|....4.
 8004abc:	d5cc5f18 0000f585 00000000 00000000     ._..............
	...
 8004af8:	5f100000 c7cc00be da96e675 594d1c0f     ..._....u.....MY
 8004b08:	00dfb4ca 00000000 00000000 00000000     ................
 8004b18:	74626500 4345445b 70735d37 6974696c     .ebt[DEC7]spliti
 8004b28:	5f74696e 70657473 00375f30 00000000     nit_step0_7.....
 8004b38:	00000000 e8100201 bbbd2b2b 667bc4db     ........++....{f
 8004b48:	1ac647af 100be962 7c8b195e 9b95b5b4     .G..b...^..|....
 8004b58:	5f18ac34 f585d5cc 00000000 00000000     4.._............
	...
 8004bb4:	74000000 4345445b 70735d37 6974696c     ...t[DEC7]spliti
 8004bc4:	5f74696e 70657473 00375f31 00000000     nit_step1_7.....
 8004bd4:	00000000 e8100204 bbbd2b2b 667bc4db     ........++....{f
 8004be4:	1ac647af 100be962 7c8b195e 9b95b5b4     .G..b...^..|....
 8004bf4:	5f18ac34 f585d5cc 00000000 00000000     4.._............
	...
 8004c50:	74000000 4345445b 70735d37 6974696c     ...t[DEC7]spliti
 8004c60:	5f74696e 70657473 00375f32 00000000     nit_step2_7.....
 8004c70:	00000000 e8100310 bbbd2b2b 667bc4db     ........++....{f
 8004c80:	1ac647af 100be962 7c8b195e 9b95b5b4     .G..b...^..|....
 8004c90:	5f18ac34 f585d5cc 00000000 00000000     4.._............
	...
 8004cd0:	00be5f10 e675c7cc 1c0fda96 b4ca594d     ._....u.....MY..
 8004ce0:	000000df 00000000 00000000 65000000     ...............e
 8004cf0:	455b7462 5d38434e 6c6c7566 0000385f     bt[ENC8]full_8..
	...
 8004d10:	030b0000 0045a410 5c04c88c 89562ac9     ......E....\.*V.
 8004d20:	e3a7145a d77210b0 b3b68910 43dcbc63     Z.....r.....c..C
 8004d30:	b9544c98 0000e76a 00000000 00000000     .LT.j...........
	...
 8004d6c:	e6100000 093ab75c 593f72e4 24362cf2     ....\.:..r?Y.,6$
 8004d7c:	00dd33a2 00000000 00000000 00000000     .3..............
 8004d8c:	74626500 434e455b 70735d38 5f74696c     .ebt[ENC8]split_
 8004d9c:	70657473 00385f30 00000000 00000000     step0_8.........
 8004dac:	00000000 a4100203 c88c0045 2ac95c04     ........E....\.*
 8004dbc:	145a8956 10b0e3a7 8910d772 bc63b3b6     V.Z.....r.....c.
 8004dcc:	4c9843dc e76ab954 00000000 00000000     .C.LT.j.........
	...
 8004e28:	74000000 434e455b 70735d38 5f74696c     ...t[ENC8]split_
 8004e38:	70657473 00385f31 00000000 00000000     step1_8.........
 8004e48:	00000000 a4100308 c88c0045 2ac95c04     ........E....\.*
 8004e58:	145a8956 10b0e3a7 8910d772 bc63b3b6     V.Z.....r.....c.
 8004e68:	4c9843dc e76ab954 00000000 00000000     .C.LT.j.........
	...
 8004ea8:	b75ce610 72e4093a 2cf2593f 33a22436     ..\.:..r?Y.,6$.3
 8004eb8:	000000dd 00000000 00000000 65000000     ...............e
 8004ec8:	455b7462 5d38434e 696c7073 696e6974     bt[ENC8]splitini
 8004ed8:	74735f74 5f307065 00000038 00000000     t_step0_8.......
 8004ee8:	02010000 0045a410 5c04c88c 89562ac9     ......E....\.*V.
 8004ef8:	e3a7145a d77210b0 b3b68910 43dcbc63     Z.....r.....c..C
 8004f08:	b9544c98 0000e76a 00000000 00000000     .LT.j...........
	...
 8004f64:	455b7400 5d38434e 696c7073 696e6974     .t[ENC8]splitini
 8004f74:	74735f74 5f317065 00000038 00000000     t_step1_8.......
 8004f84:	02020000 0045a410 5c04c88c 89562ac9     ......E....\.*V.
 8004f94:	e3a7145a d77210b0 b3b68910 43dcbc63     Z.....r.....c..C
 8004fa4:	b9544c98 0000e76a 00000000 00000000     .LT.j...........
	...
 8005000:	455b7400 5d38434e 696c7073 696e6974     .t[ENC8]splitini
 8005010:	74735f74 5f327065 00000038 00000000     t_step2_8.......
 8005020:	03080000 0045a410 5c04c88c 89562ac9     ......E....\.*V.
 8005030:	e3a7145a d77210b0 b3b68910 43dcbc63     Z.....r.....c..C
 8005040:	b9544c98 0000e76a 00000000 00000000     .LT.j...........
	...
 800507c:	e6100000 093ab75c 593f72e4 24362cf2     ....\.:..r?Y.,6$
 800508c:	00dd33a2 00000000 00000000 00000000     .3..............
 800509c:	74626500 4345445b 75665d38 385f6c6c     .ebt[DEC8]full_8
	...
 80050c0:	7e100315 74700302 d6365ff4 735c9f2b     ...~..pt._6.+.\s
 80050d0:	10368b78 bfa57536 6ffd6207 2c56835b     x.6.6u...b.o[.V,
 80050e0:	2feae5b1 00000000 00000000 00000000     .../............
	...
 800511c:	2e27c210 8fd16023 022f5a7a d7dd27c4     ..'.#`..zZ/..'..
 800512c:	000000ba 00000000 00000000 65000000     ...............e
 800513c:	445b7462 5d384345 696c7073 74735f74     bt[DEC8]split_st
 800514c:	5f307065 00000038 00000000 00000000     ep0_8...........
 800515c:	02050000 03027e10 5ff47470 9f2bd636     .....~..pt._6.+.
 800516c:	8b78735c 75361036 6207bfa5 835b6ffd     \sx.6.6u...b.o[.
 800517c:	e5b12c56 00002fea 00000000 00000000     V,.../..........
	...
 80051d8:	445b7400 5d384345 696c7073 74735f74     .t[DEC8]split_st
 80051e8:	5f317065 00000038 00000000 00000000     ep1_8...........
 80051f8:	03100000 03027e10 5ff47470 9f2bd636     .....~..pt._6.+.
 8005208:	8b78735c 75361036 6207bfa5 835b6ffd     \sx.6.6u...b.o[.
 8005218:	e5b12c56 00002fea 00000000 00000000     V,.../..........
	...
 8005254:	c2100000 60232e27 5a7a8fd1 27c4022f     ....'.#`..zZ/..'
 8005264:	00bad7dd 00000000 00000000 00000000     ................
 8005274:	74626500 4345445b 70735d38 6974696c     .ebt[DEC8]spliti
 8005284:	5f74696e 70657473 00385f30 00000000     nit_step0_8.....
 8005294:	00000000 7e100201 74700302 d6365ff4     .......~..pt._6.
 80052a4:	735c9f2b 10368b78 bfa57536 6ffd6207     +.\sx.6.6u...b.o
 80052b4:	2c56835b 2feae5b1 00000000 00000000     [.V,.../........
	...
 8005310:	74000000 4345445b 70735d38 6974696c     ...t[DEC8]spliti
 8005320:	5f74696e 70657473 00385f31 00000000     nit_step1_8.....
 8005330:	00000000 7e100204 74700302 d6365ff4     .......~..pt._6.
 8005340:	735c9f2b 10368b78 bfa57536 6ffd6207     +.\sx.6.6u...b.o
 8005350:	2c56835b 2feae5b1 00000000 00000000     [.V,.../........
	...
 80053ac:	74000000 4345445b 70735d38 6974696c     ...t[DEC8]spliti
 80053bc:	5f74696e 70657473 00385f32 00000000     nit_step2_8.....
 80053cc:	00000000 7e100310 74700302 d6365ff4     .......~..pt._6.
 80053dc:	735c9f2b 10368b78 bfa57536 6ffd6207     +.\sx.6.6u...b.o
 80053ec:	2c56835b 2feae5b1 00000000 00000000     [.V,.../........
	...
 800542c:	2e27c210 8fd16023 022f5a7a d7dd27c4     ..'.#`..zZ/..'..
 800543c:	000000ba 00000000 00000000 65000000     ...............e
 800544c:	455b7462 5d39434e 6c6c7566 0000395f     bt[ENC9]full_9..
	...
 800546c:	030b0000 22ffcb10 bb759cfd 49dee8a5     ......."..u....I
 800547c:	fc00127f 2aaa1030 f11de7b4 322fb32c     ....0..*....,./2
 800548c:	72128193 00002e05 00000000 00000000     ...r............
	...
 80054c8:	cf100000 a1147eec f50dc2a0 fdd34a78     .....~......xJ..
 80054d8:	0016a693 00000000 00000000 00000000     ................
 80054e8:	74626500 434e455b 70735d39 5f74696c     .ebt[ENC9]split_
 80054f8:	70657473 00395f30 00000000 00000000     step0_9.........
 8005508:	00000000 cb100203 9cfd22ff e8a5bb75     ........."..u...
 8005518:	127f49de 1030fc00 e7b42aaa b32cf11d     .I....0..*....,.
 8005528:	8193322f 2e057212 00000000 00000000     /2...r..........
	...
 8005584:	74000000 434e455b 70735d39 5f74696c     ...t[ENC9]split_
 8005594:	70657473 00395f31 00000000 00000000     step1_9.........
 80055a4:	00000000 cb100308 9cfd22ff e8a5bb75     ........."..u...
 80055b4:	127f49de 1030fc00 e7b42aaa b32cf11d     .I....0..*....,.
 80055c4:	8193322f 2e057212 00000000 00000000     /2...r..........
	...
 8005604:	7eeccf10 c2a0a114 4a78f50d a693fdd3     ...~......xJ....
 8005614:	00000016 00000000 00000000 65000000     ...............e
 8005624:	455b7462 5d39434e 696c7073 696e6974     bt[ENC9]splitini
 8005634:	74735f74 5f307065 00000039 00000000     t_step0_9.......
 8005644:	02010000 22ffcb10 bb759cfd 49dee8a5     ......."..u....I
 8005654:	fc00127f 2aaa1030 f11de7b4 322fb32c     ....0..*....,./2
 8005664:	72128193 00002e05 00000000 00000000     ...r............
	...
 80056c0:	455b7400 5d39434e 696c7073 696e6974     .t[ENC9]splitini
 80056d0:	74735f74 5f317065 00000039 00000000     t_step1_9.......
 80056e0:	02020000 22ffcb10 bb759cfd 49dee8a5     ......."..u....I
 80056f0:	fc00127f 2aaa1030 f11de7b4 322fb32c     ....0..*....,./2
 8005700:	72128193 00002e05 00000000 00000000     ...r............
	...
 800575c:	455b7400 5d39434e 696c7073 696e6974     .t[ENC9]splitini
 800576c:	74735f74 5f327065 00000039 00000000     t_step2_9.......
 800577c:	03080000 22ffcb10 bb759cfd 49dee8a5     ......."..u....I
 800578c:	fc00127f 2aaa1030 f11de7b4 322fb32c     ....0..*....,./2
 800579c:	72128193 00002e05 00000000 00000000     ...r............
	...
 80057d8:	cf100000 a1147eec f50dc2a0 fdd34a78     .....~......xJ..
 80057e8:	0016a693 00000000 00000000 00000000     ................
 80057f8:	74626500 4345445b 75665d39 395f6c6c     .ebt[DEC9]full_9
	...
 800581c:	da100315 ffac661d bdd7d1a6 6a7d2a0d     .....f.......*}j
 800582c:	1095ac47 e45fa478 b9970d22 cda690db     G...x._.".......
 800583c:	a62cd405 00000000 00000000 00000000     ..,.............
	...
 8005878:	30aac710 424c3bf2 cb789339 1e0e970a     ...0.;LB9.x.....
 8005888:	00000016 00000000 00000000 65000000     ...............e
 8005898:	445b7462 5d394345 696c7073 74735f74     bt[DEC9]split_st
 80058a8:	5f307065 00000039 00000000 00000000     ep0_9...........
 80058b8:	02050000 661dda10 d1a6ffac 2a0dbdd7     .......f.......*
 80058c8:	ac476a7d a4781095 0d22e45f 90dbb997     }jG...x._.".....
 80058d8:	d405cda6 0000a62c 00000000 00000000     ....,...........
	...
 8005934:	445b7400 5d394345 696c7073 74735f74     .t[DEC9]split_st
 8005944:	5f317065 00000039 00000000 00000000     ep1_9...........
 8005954:	03100000 661dda10 d1a6ffac 2a0dbdd7     .......f.......*
 8005964:	ac476a7d a4781095 0d22e45f 90dbb997     }jG...x._.".....
 8005974:	d405cda6 0000a62c 00000000 00000000     ....,...........
	...
 80059b0:	c7100000 3bf230aa 9339424c 970acb78     .....0.;LB9.x...
 80059c0:	00161e0e 00000000 00000000 00000000     ................
 80059d0:	74626500 4345445b 70735d39 6974696c     .ebt[DEC9]spliti
 80059e0:	5f74696e 70657473 00395f30 00000000     nit_step0_9.....
 80059f0:	00000000 da100201 ffac661d bdd7d1a6     .........f......
 8005a00:	6a7d2a0d 1095ac47 e45fa478 b9970d22     .*}jG...x._."...
 8005a10:	cda690db a62cd405 00000000 00000000     ......,.........
	...
 8005a6c:	74000000 4345445b 70735d39 6974696c     ...t[DEC9]spliti
 8005a7c:	5f74696e 70657473 00395f31 00000000     nit_step1_9.....
 8005a8c:	00000000 da100204 ffac661d bdd7d1a6     .........f......
 8005a9c:	6a7d2a0d 1095ac47 e45fa478 b9970d22     .*}jG...x._."...
 8005aac:	cda690db a62cd405 00000000 00000000     ......,.........
	...
 8005b08:	74000000 4345445b 70735d39 6974696c     ...t[DEC9]spliti
 8005b18:	5f74696e 70657473 00395f32 00000000     nit_step2_9.....
 8005b28:	00000000 da100310 ffac661d bdd7d1a6     .........f......
 8005b38:	6a7d2a0d 1095ac47 e45fa478 b9970d22     .*}jG...x._."...
 8005b48:	cda690db a62cd405 00000000 00000000     ......,.........
	...
 8005b88:	30aac710 424c3bf2 cb789339 1e0e970a     ...0.;LB9.x.....
 8005b98:	00000016 00000000 00000000 65000000     ...............e
 8005ba8:	455b7462 3031434e 6c75665d 30315f6c     bt[ENC10]full_10
	...
 8005bc8:	030b0000 57afc010 7679a352 a3643933     .......WR.yv39d.
 8005bd8:	02d9b827 e8141062 0ad69cb8 0971711c     '...b........qq.
 8005be8:	94332d16 0000676b 00000000 00000000     .-3.kg..........
	...
 8005c24:	af100000 0f87dbe0 c045d6cf 17423811     ..........E..8B.
 8005c34:	00658ef1 00000000 00000000 00000000     ..e.............
 8005c44:	74626500 434e455b 735d3031 74696c70     .ebt[ENC10]split
 8005c54:	6574735f 315f3070 00000030 00000000     _step0_10.......
 8005c64:	00000000 c0100203 a35257af 39337679     .........WR.yv39
 8005c74:	b827a364 106202d9 9cb8e814 711c0ad6     d.'...b........q
 8005c84:	2d160971 676b9433 00000000 00000000     q..-3.kg........
	...
 8005ce0:	74000000 434e455b 735d3031 74696c70     ...t[ENC10]split
 8005cf0:	6574735f 315f3170 00000030 00000000     _step1_10.......
 8005d00:	00000000 c0100308 a35257af 39337679     .........WR.yv39
 8005d10:	b827a364 106202d9 9cb8e814 711c0ad6     d.'...b........q
 8005d20:	2d160971 676b9433 00000000 00000000     q..-3.kg........
	...
 8005d60:	dbe0af10 d6cf0f87 3811c045 8ef11742     ........E..8B...
 8005d70:	00000065 00000000 00000000 65000000     e..............e
 8005d80:	455b7462 3031434e 6c70735d 6e697469     bt[ENC10]splitin
 8005d90:	735f7469 30706574 0030315f 00000000     it_step0_10.....
 8005da0:	02010000 57afc010 7679a352 a3643933     .......WR.yv39d.
 8005db0:	02d9b827 e8141062 0ad69cb8 0971711c     '...b........qq.
 8005dc0:	94332d16 0000676b 00000000 00000000     .-3.kg..........
	...
 8005e1c:	455b7400 3031434e 6c70735d 6e697469     .t[ENC10]splitin
 8005e2c:	735f7469 31706574 0030315f 00000000     it_step1_10.....
 8005e3c:	02020000 57afc010 7679a352 a3643933     .......WR.yv39d.
 8005e4c:	02d9b827 e8141062 0ad69cb8 0971711c     '...b........qq.
 8005e5c:	94332d16 0000676b 00000000 00000000     .-3.kg..........
	...
 8005eb8:	455b7400 3031434e 6c70735d 6e697469     .t[ENC10]splitin
 8005ec8:	735f7469 32706574 0030315f 00000000     it_step2_10.....
 8005ed8:	03080000 57afc010 7679a352 a3643933     .......WR.yv39d.
 8005ee8:	02d9b827 e8141062 0ad69cb8 0971711c     '...b........qq.
 8005ef8:	94332d16 0000676b 00000000 00000000     .-3.kg..........
	...
 8005f34:	af100000 0f87dbe0 c045d6cf 17423811     ..........E..8B.
 8005f44:	00658ef1 00000000 00000000 00000000     ..e.............
 8005f54:	74626500 4345445b 665d3031 5f6c6c75     .ebt[DEC10]full_
 8005f64:	00003031 00000000 00000000 00000000     10..............
 8005f74:	00000000 28100315 95845192 4441b705     .......(.Q....AD
 8005f84:	280ce278 10f5f63d 2ea15116 57a9031c     x..(=....Q.....W
 8005f94:	e2c053cf 7b021bc7 00000000 00000000     .S.....{........
	...
 8005fd4:	112aa810 d55622b7 08997fc7 f7dae814     ..*.."V.........
 8005fe4:	0000000b 00000000 00000000 65000000     ...............e
 8005ff4:	445b7462 30314345 6c70735d 735f7469     bt[DEC10]split_s
 8006004:	30706574 0030315f 00000000 00000000     tep0_10.........
 8006014:	02050000 51922810 b7059584 e2784441     .....(.Q....ADx.
 8006024:	f63d280c 511610f5 031c2ea1 53cf57a9     .(=....Q.....W.S
 8006034:	1bc7e2c0 00007b02 00000000 00000000     .....{..........
	...
 8006090:	445b7400 30314345 6c70735d 735f7469     .t[DEC10]split_s
 80060a0:	31706574 0030315f 00000000 00000000     tep1_10.........
 80060b0:	03100000 51922810 b7059584 e2784441     .....(.Q....ADx.
 80060c0:	f63d280c 511610f5 031c2ea1 53cf57a9     .(=....Q.....W.S
 80060d0:	1bc7e2c0 00007b02 00000000 00000000     .....{..........
	...
 800610c:	a8100000 22b7112a 7fc7d556 e8140899     ....*.."V.......
 800611c:	000bf7da 00000000 00000000 00000000     ................
 800612c:	74626500 4345445b 735d3031 74696c70     .ebt[DEC10]split
 800613c:	74696e69 6574735f 315f3070 00000030     init_step0_10...
 800614c:	00000000 28100201 95845192 4441b705     .......(.Q....AD
 800615c:	280ce278 10f5f63d 2ea15116 57a9031c     x..(=....Q.....W
 800616c:	e2c053cf 7b021bc7 00000000 00000000     .S.....{........
	...
 80061c8:	74000000 4345445b 735d3031 74696c70     ...t[DEC10]split
 80061d8:	74696e69 6574735f 315f3170 00000030     init_step1_10...
 80061e8:	00000000 28100204 95845192 4441b705     .......(.Q....AD
 80061f8:	280ce278 10f5f63d 2ea15116 57a9031c     x..(=....Q.....W
 8006208:	e2c053cf 7b021bc7 00000000 00000000     .S.....{........
	...
 8006264:	74000000 4345445b 735d3031 74696c70     ...t[DEC10]split
 8006274:	74696e69 6574735f 315f3270 00000030     init_step2_10...
 8006284:	00000000 28100310 95845192 4441b705     .......(.Q....AD
 8006294:	280ce278 10f5f63d 2ea15116 57a9031c     x..(=....Q.....W
 80062a4:	e2c053cf 7b021bc7 00000000 00000000     .S.....{........
	...
 80062e4:	112aa810 d55622b7 08997fc7 f7dae814     ..*.."V.........
 80062f4:	0000000b 00000000 00000000 65000000     ...............e
 8006304:	455b7462 3131434e 6c75665d 31315f6c     bt[ENC11]full_11
	...
 8006324:	030b0000 e6de0d10 74a9bcfb 0c9300a9     ...........t....
 8006334:	10728aec efdf10a4 5a2f33cd 7205b735     ..r......3/Z5..r
 8006344:	639a7dbf 00003cc5 00000000 00000000     .}.c.<..........
	...
 8006380:	31100000 f8210872 831e2aa0 e4171900     ...1r.!..*......
 8006390:	0031f0cc 00000000 00000000 00000000     ..1.............
 80063a0:	74626500 434e455b 735d3131 74696c70     .ebt[ENC11]split
 80063b0:	6574735f 315f3070 00000031 00000000     _step0_11.......
 80063c0:	00000000 0d100203 bcfbe6de 00a974a9     .............t..
 80063d0:	8aec0c93 10a41072 33cdefdf b7355a2f     ....r......3/Z5.
 80063e0:	7dbf7205 3cc5639a 00000000 00000000     .r.}.c.<........
	...
 800643c:	74000000 434e455b 735d3131 74696c70     ...t[ENC11]split
 800644c:	6574735f 315f3170 00000031 00000000     _step1_11.......
 800645c:	00000000 0d100308 bcfbe6de 00a974a9     .............t..
 800646c:	8aec0c93 10a41072 33cdefdf b7355a2f     ....r......3/Z5.
 800647c:	7dbf7205 3cc5639a 00000000 00000000     .r.}.c.<........
	...
 80064bc:	08723110 2aa0f821 1900831e f0cce417     .1r.!..*........
 80064cc:	00000031 00000000 00000000 65000000     1..............e
 80064dc:	455b7462 3131434e 6c70735d 6e697469     bt[ENC11]splitin
 80064ec:	735f7469 30706574 0031315f 00000000     it_step0_11.....
 80064fc:	02010000 e6de0d10 74a9bcfb 0c9300a9     ...........t....
 800650c:	10728aec efdf10a4 5a2f33cd 7205b735     ..r......3/Z5..r
 800651c:	639a7dbf 00003cc5 00000000 00000000     .}.c.<..........
	...
 8006578:	455b7400 3131434e 6c70735d 6e697469     .t[ENC11]splitin
 8006588:	735f7469 31706574 0031315f 00000000     it_step1_11.....
 8006598:	02020000 e6de0d10 74a9bcfb 0c9300a9     ...........t....
 80065a8:	10728aec efdf10a4 5a2f33cd 7205b735     ..r......3/Z5..r
 80065b8:	639a7dbf 00003cc5 00000000 00000000     .}.c.<..........
	...
 8006614:	455b7400 3131434e 6c70735d 6e697469     .t[ENC11]splitin
 8006624:	735f7469 32706574 0031315f 00000000     it_step2_11.....
 8006634:	03080000 e6de0d10 74a9bcfb 0c9300a9     ...........t....
 8006644:	10728aec efdf10a4 5a2f33cd 7205b735     ..r......3/Z5..r
 8006654:	639a7dbf 00003cc5 00000000 00000000     .}.c.<..........
	...
 8006690:	31100000 f8210872 831e2aa0 e4171900     ...1r.!..*......
 80066a0:	0031f0cc 00000000 00000000 00000000     ..1.............
 80066b0:	74626500 4345445b 665d3131 5f6c6c75     .ebt[DEC11]full_
 80066c0:	00003131 00000000 00000000 00000000     11..............
 80066d0:	00000000 e4100315 ff6dffdb c2d5831c     ..........m.....
 80066e0:	5f177450 1006401b 0f989a6a 46e5e1f0     Pt._.@..j......F
 80066f0:	dab673c6 2ff29c74 00000000 00000000     .s..t../........
	...
 8006730:	51149010 bb8c0c1d e6b22c69 8b4d3899     ...Q....i,...8M.
 8006740:	000000f9 00000000 00000000 65000000     ...............e
 8006750:	445b7462 31314345 6c70735d 735f7469     bt[DEC11]split_s
 8006760:	30706574 0031315f 00000000 00000000     tep0_11.........
 8006770:	02050000 ffdbe410 831cff6d 7450c2d5     ........m.....Pt
 8006780:	401b5f17 9a6a1006 e1f00f98 73c646e5     ._.@..j......F.s
 8006790:	9c74dab6 00002ff2 00000000 00000000     ..t../..........
	...
 80067ec:	445b7400 31314345 6c70735d 735f7469     .t[DEC11]split_s
 80067fc:	31706574 0031315f 00000000 00000000     tep1_11.........
 800680c:	03100000 ffdbe410 831cff6d 7450c2d5     ........m.....Pt
 800681c:	401b5f17 9a6a1006 e1f00f98 73c646e5     ._.@..j......F.s
 800682c:	9c74dab6 00002ff2 00000000 00000000     ..t../..........
	...
 8006868:	90100000 0c1d5114 2c69bb8c 3899e6b2     .....Q....i,...8
 8006878:	00f98b4d 00000000 00000000 00000000     M...............
 8006888:	74626500 4345445b 735d3131 74696c70     .ebt[DEC11]split
 8006898:	74696e69 6574735f 315f3070 00000031     init_step0_11...
 80068a8:	00000000 e4100201 ff6dffdb c2d5831c     ..........m.....
 80068b8:	5f177450 1006401b 0f989a6a 46e5e1f0     Pt._.@..j......F
 80068c8:	dab673c6 2ff29c74 00000000 00000000     .s..t../........
	...
 8006924:	74000000 4345445b 735d3131 74696c70     ...t[DEC11]split
 8006934:	74696e69 6574735f 315f3170 00000031     init_step1_11...
 8006944:	00000000 e4100204 ff6dffdb c2d5831c     ..........m.....
 8006954:	5f177450 1006401b 0f989a6a 46e5e1f0     Pt._.@..j......F
 8006964:	dab673c6 2ff29c74 00000000 00000000     .s..t../........
	...
 80069c0:	74000000 4345445b 735d3131 74696c70     ...t[DEC11]split
 80069d0:	74696e69 6574735f 315f3270 00000031     init_step2_11...
 80069e0:	00000000 e4100310 ff6dffdb c2d5831c     ..........m.....
 80069f0:	5f177450 1006401b 0f989a6a 46e5e1f0     Pt._.@..j......F
 8006a00:	dab673c6 2ff29c74 00000000 00000000     .s..t../........
	...
 8006a40:	51149010 bb8c0c1d e6b22c69 8b4d3899     ...Q....i,...8M.
 8006a50:	000000f9 00000000 00000000 65000000     ...............e
 8006a60:	455b7462 3231434e 6c75665d 32315f6c     bt[ENC12]full_12
	...
 8006a80:	030b0000 d098e310 67dd562c 2ef8646f     ........,V.god..
 8006a90:	ef2e0028 286d1056 047ad4de 5d872179     (...V.m(..z.y!.]
 8006aa0:	00e29354 0000d13b 00000000 00000000     T...;...........
	...
 8006adc:	62100000 6548818e f9074836 8db70549     ...b..He6H..I...
 8006aec:	0032dd12 00000000 00000000 00000000     ..2.............
 8006afc:	74626500 434e455b 735d3231 74696c70     .ebt[ENC12]split
 8006b0c:	6574735f 315f3070 00000032 00000000     _step0_12.......
 8006b1c:	00000000 e3100203 562cd098 646f67dd     ..........,V.god
 8006b2c:	00282ef8 1056ef2e d4de286d 2179047a     ..(...V.m(..z.y!
 8006b3c:	93545d87 d13b00e2 00000000 00000000     .]T...;.........
	...
 8006b98:	74000000 434e455b 735d3231 74696c70     ...t[ENC12]split
 8006ba8:	6574735f 315f3170 00000032 00000000     _step1_12.......
 8006bb8:	00000000 e3100308 562cd098 646f67dd     ..........,V.god
 8006bc8:	00282ef8 1056ef2e d4de286d 2179047a     ..(...V.m(..z.y!
 8006bd8:	93545d87 d13b00e2 00000000 00000000     .]T...;.........
	...
 8006c18:	818e6210 48366548 0549f907 dd128db7     .b..He6H..I.....
 8006c28:	00000032 00000000 00000000 65000000     2..............e
 8006c38:	455b7462 3231434e 6c70735d 6e697469     bt[ENC12]splitin
 8006c48:	735f7469 30706574 0032315f 00000000     it_step0_12.....
 8006c58:	02010000 d098e310 67dd562c 2ef8646f     ........,V.god..
 8006c68:	ef2e0028 286d1056 047ad4de 5d872179     (...V.m(..z.y!.]
 8006c78:	00e29354 0000d13b 00000000 00000000     T...;...........
	...
 8006cd4:	455b7400 3231434e 6c70735d 6e697469     .t[ENC12]splitin
 8006ce4:	735f7469 31706574 0032315f 00000000     it_step1_12.....
 8006cf4:	02020000 d098e310 67dd562c 2ef8646f     ........,V.god..
 8006d04:	ef2e0028 286d1056 047ad4de 5d872179     (...V.m(..z.y!.]
 8006d14:	00e29354 0000d13b 00000000 00000000     T...;...........
	...
 8006d70:	455b7400 3231434e 6c70735d 6e697469     .t[ENC12]splitin
 8006d80:	735f7469 32706574 0032315f 00000000     it_step2_12.....
 8006d90:	03080000 d098e310 67dd562c 2ef8646f     ........,V.god..
 8006da0:	ef2e0028 286d1056 047ad4de 5d872179     (...V.m(..z.y!.]
 8006db0:	00e29354 0000d13b 00000000 00000000     T...;...........
	...
 8006dec:	62100000 6548818e f9074836 8db70549     ...b..He6H..I...
 8006dfc:	0032dd12 00000000 00000000 00000000     ..2.............
 8006e0c:	74626500 4345445b 665d3231 5f6c6c75     .ebt[DEC12]full_
 8006e1c:	00003231 00000000 00000000 00000000     12..............
 8006e2c:	00000000 9d100315 9b18ed53 5c669d4b     ........S...K.f\
 8006e3c:	69765c7b 10797788 2866c395 0e369cd3     {\vi.wy...f(..6.
 8006e4c:	5b1a91b6 7a20c6a1 00000000 00000000     ...[.. z........
	...
 8006e8c:	d631a410 56087ce6 7c75f408 a2c14c03     ..1..|.V..u|.L..
 8006e9c:	00000048 00000000 00000000 65000000     H..............e
 8006eac:	445b7462 32314345 6c70735d 735f7469     bt[DEC12]split_s
 8006ebc:	30706574 0032315f 00000000 00000000     tep0_12.........
 8006ecc:	02050000 ed539d10 9d4b9b18 5c7b5c66     ......S...K.f\{\
 8006edc:	77886976 c3951079 9cd32866 91b60e36     vi.wy...f(..6...
 8006eec:	c6a15b1a 00007a20 00000000 00000000     .[.. z..........
	...
 8006f48:	445b7400 32314345 6c70735d 735f7469     .t[DEC12]split_s
 8006f58:	31706574 0032315f 00000000 00000000     tep1_12.........
 8006f68:	03100000 ed539d10 9d4b9b18 5c7b5c66     ......S...K.f\{\
 8006f78:	77886976 c3951079 9cd32866 91b60e36     vi.wy...f(..6...
 8006f88:	c6a15b1a 00007a20 00000000 00000000     .[.. z..........
	...
 8006fc4:	a4100000 7ce6d631 f4085608 4c037c75     ....1..|.V..u|.L
 8006fd4:	0048a2c1 00000000 00000000 00000000     ..H.............
 8006fe4:	74626500 4345445b 735d3231 74696c70     .ebt[DEC12]split
 8006ff4:	74696e69 6574735f 315f3070 00000032     init_step0_12...
 8007004:	00000000 9d100201 9b18ed53 5c669d4b     ........S...K.f\
 8007014:	69765c7b 10797788 2866c395 0e369cd3     {\vi.wy...f(..6.
 8007024:	5b1a91b6 7a20c6a1 00000000 00000000     ...[.. z........
	...
 8007080:	74000000 4345445b 735d3231 74696c70     ...t[DEC12]split
 8007090:	74696e69 6574735f 315f3170 00000032     init_step1_12...
 80070a0:	00000000 9d100204 9b18ed53 5c669d4b     ........S...K.f\
 80070b0:	69765c7b 10797788 2866c395 0e369cd3     {\vi.wy...f(..6.
 80070c0:	5b1a91b6 7a20c6a1 00000000 00000000     ...[.. z........
	...
 800711c:	74000000 4345445b 735d3231 74696c70     ...t[DEC12]split
 800712c:	74696e69 6574735f 315f3270 00000032     init_step2_12...
 800713c:	00000000 9d100310 9b18ed53 5c669d4b     ........S...K.f\
 800714c:	69765c7b 10797788 2866c395 0e369cd3     {\vi.wy...f(..6.
 800715c:	5b1a91b6 7a20c6a1 00000000 00000000     ...[.. z........
	...
 800719c:	d631a410 56087ce6 7c75f408 a2c14c03     ..1..|.V..u|.L..
 80071ac:	00000048 00000000 00000000 65000000     H..............e
 80071bc:	455b7462 3331434e 6c75665d 33315f6c     bt[ENC13]full_13
	...
 80071dc:	030b0000 90b35410 4d81dc85 034998be     .....T.....M..I.
 80071ec:	e60e0402 76f9106c 6124a145 fd6f0537     ....l..vE.$a7.o.
 80071fc:	7d618618 00005ec7 00000000 00000000     ..a}.^..........
	...
 8007238:	93100000 93df64d2 53e26525 da96ee2c     .....d..%e.S,...
 8007248:	009705f8 00000000 00000000 00000000     ................
 8007258:	74626500 434e455b 735d3331 74696c70     .ebt[ENC13]split
 8007268:	6574735f 315f3070 00000033 00000000     _step0_13.......
 8007278:	00000000 54100203 dc8590b3 98be4d81     .......T.....M..
 8007288:	04020349 106ce60e a14576f9 05376124     I.....l..vE.$a7.
 8007298:	8618fd6f 5ec77d61 00000000 00000000     o...a}.^........
	...
 80072f4:	74000000 434e455b 735d3331 74696c70     ...t[ENC13]split
 8007304:	6574735f 315f3170 00000033 00000000     _step1_13.......
 8007314:	00000000 54100308 dc8590b3 98be4d81     .......T.....M..
 8007324:	04020349 106ce60e a14576f9 05376124     I.....l..vE.$a7.
 8007334:	8618fd6f 5ec77d61 00000000 00000000     o...a}.^........
	...
 8007374:	64d29310 652593df ee2c53e2 05f8da96     ...d..%e.S,.....
 8007384:	00000097 00000000 00000000 65000000     ...............e
 8007394:	455b7462 3331434e 6c70735d 6e697469     bt[ENC13]splitin
 80073a4:	735f7469 30706574 0033315f 00000000     it_step0_13.....
 80073b4:	02010000 90b35410 4d81dc85 034998be     .....T.....M..I.
 80073c4:	e60e0402 76f9106c 6124a145 fd6f0537     ....l..vE.$a7.o.
 80073d4:	7d618618 00005ec7 00000000 00000000     ..a}.^..........
	...
 8007430:	455b7400 3331434e 6c70735d 6e697469     .t[ENC13]splitin
 8007440:	735f7469 31706574 0033315f 00000000     it_step1_13.....
 8007450:	02020000 90b35410 4d81dc85 034998be     .....T.....M..I.
 8007460:	e60e0402 76f9106c 6124a145 fd6f0537     ....l..vE.$a7.o.
 8007470:	7d618618 00005ec7 00000000 00000000     ..a}.^..........
	...
 80074cc:	455b7400 3331434e 6c70735d 6e697469     .t[ENC13]splitin
 80074dc:	735f7469 32706574 0033315f 00000000     it_step2_13.....
 80074ec:	03080000 90b35410 4d81dc85 034998be     .....T.....M..I.
 80074fc:	e60e0402 76f9106c 6124a145 fd6f0537     ....l..vE.$a7.o.
 800750c:	7d618618 00005ec7 00000000 00000000     ..a}.^..........
	...
 8007548:	93100000 93df64d2 53e26525 da96ee2c     .....d..%e.S,...
 8007558:	009705f8 00000000 00000000 00000000     ................
 8007568:	74626500 4345445b 665d3331 5f6c6c75     .ebt[DEC13]full_
 8007578:	00003331 00000000 00000000 00000000     13..............
 8007588:	00000000 76100315 3cdc51f1 a66c4bf3     .......v.Q.<.Kl.
 8007598:	b5117fc0 10feaddb 0f078cca 1b2b3a0d     .............:+.
 80075a8:	1b584eaa 85b0d08b 00000000 00000000     .NX.............
	...
 80075e8:	b1527c10 f15a810d 03043d51 37d2378b     .|R...Z.Q=...7.7
 80075f8:	000000bd 00000000 00000000 65000000     ...............e
 8007608:	445b7462 33314345 6c70735d 735f7469     bt[DEC13]split_s
 8007618:	30706574 0033315f 00000000 00000000     tep0_13.........
 8007628:	02050000 51f17610 4bf33cdc 7fc0a66c     .....v.Q.<.Kl...
 8007638:	addbb511 8cca10fe 3a0d0f07 4eaa1b2b     ...........:+..N
 8007648:	d08b1b58 000085b0 00000000 00000000     X...............
	...
 80076a4:	445b7400 33314345 6c70735d 735f7469     .t[DEC13]split_s
 80076b4:	31706574 0033315f 00000000 00000000     tep1_13.........
 80076c4:	03100000 51f17610 4bf33cdc 7fc0a66c     .....v.Q.<.Kl...
 80076d4:	addbb511 8cca10fe 3a0d0f07 4eaa1b2b     ...........:+..N
 80076e4:	d08b1b58 000085b0 00000000 00000000     X...............
	...
 8007720:	7c100000 810db152 3d51f15a 378b0304     ...|R...Z.Q=...7
 8007730:	00bd37d2 00000000 00000000 00000000     .7..............
 8007740:	74626500 4345445b 735d3331 74696c70     .ebt[DEC13]split
 8007750:	74696e69 6574735f 315f3070 00000033     init_step0_13...
 8007760:	00000000 76100201 3cdc51f1 a66c4bf3     .......v.Q.<.Kl.
 8007770:	b5117fc0 10feaddb 0f078cca 1b2b3a0d     .............:+.
 8007780:	1b584eaa 85b0d08b 00000000 00000000     .NX.............
	...
 80077dc:	74000000 4345445b 735d3331 74696c70     ...t[DEC13]split
 80077ec:	74696e69 6574735f 315f3170 00000033     init_step1_13...
 80077fc:	00000000 76100204 3cdc51f1 a66c4bf3     .......v.Q.<.Kl.
 800780c:	b5117fc0 10feaddb 0f078cca 1b2b3a0d     .............:+.
 800781c:	1b584eaa 85b0d08b 00000000 00000000     .NX.............
	...
 8007878:	74000000 4345445b 735d3331 74696c70     ...t[DEC13]split
 8007888:	74696e69 6574735f 315f3270 00000033     init_step2_13...
 8007898:	00000000 76100310 3cdc51f1 a66c4bf3     .......v.Q.<.Kl.
 80078a8:	b5117fc0 10feaddb 0f078cca 1b2b3a0d     .............:+.
 80078b8:	1b584eaa 85b0d08b 00000000 00000000     .NX.............
	...
 80078f8:	b1527c10 f15a810d 03043d51 37d2378b     .|R...Z.Q=...7.7
 8007908:	000000bd 00000000 00000000 65000000     ...............e
 8007918:	455b7462 3431434e 6c75665d 34315f6c     bt[ENC14]full_14
	...
 8007938:	030b0000 be0bff10 ebe5aaca 6d3f3748     ............H7?m
 8007948:	fa1f2740 5e6710fe fd616fe0 01aa8417     @'....g^.oa.....
 8007958:	9bd18679 00006b8f 00000000 00000000     y....k..........
	...
 8007994:	fc100000 8b4594ad 524a38ef fc38a907     ......E..8JR..8.
 80079a4:	001bf706 00000000 00000000 00000000     ................
 80079b4:	74626500 434e455b 735d3431 74696c70     .ebt[ENC14]split
 80079c4:	6574735f 315f3070 00000034 00000000     _step0_14.......
 80079d4:	00000000 ff100203 aacabe0b 3748ebe5     ..............H7
 80079e4:	27406d3f 10fefa1f 6fe05e67 8417fd61     ?m@'....g^.oa...
 80079f4:	867901aa 6b8f9bd1 00000000 00000000     ..y....k........
	...
 8007a50:	74000000 434e455b 735d3431 74696c70     ...t[ENC14]split
 8007a60:	6574735f 315f3170 00000034 00000000     _step1_14.......
 8007a70:	00000000 ff100308 aacabe0b 3748ebe5     ..............H7
 8007a80:	27406d3f 10fefa1f 6fe05e67 8417fd61     ?m@'....g^.oa...
 8007a90:	867901aa 6b8f9bd1 00000000 00000000     ..y....k........
	...
 8007ad0:	94adfc10 38ef8b45 a907524a f706fc38     ....E..8JR..8...
 8007ae0:	0000001b 00000000 00000000 65000000     ...............e
 8007af0:	455b7462 3431434e 6c70735d 6e697469     bt[ENC14]splitin
 8007b00:	735f7469 30706574 0034315f 00000000     it_step0_14.....
 8007b10:	02010000 be0bff10 ebe5aaca 6d3f3748     ............H7?m
 8007b20:	fa1f2740 5e6710fe fd616fe0 01aa8417     @'....g^.oa.....
 8007b30:	9bd18679 00006b8f 00000000 00000000     y....k..........
	...
 8007b8c:	455b7400 3431434e 6c70735d 6e697469     .t[ENC14]splitin
 8007b9c:	735f7469 31706574 0034315f 00000000     it_step1_14.....
 8007bac:	02020000 be0bff10 ebe5aaca 6d3f3748     ............H7?m
 8007bbc:	fa1f2740 5e6710fe fd616fe0 01aa8417     @'....g^.oa.....
 8007bcc:	9bd18679 00006b8f 00000000 00000000     y....k..........
	...
 8007c28:	455b7400 3431434e 6c70735d 6e697469     .t[ENC14]splitin
 8007c38:	735f7469 32706574 0034315f 00000000     it_step2_14.....
 8007c48:	03080000 be0bff10 ebe5aaca 6d3f3748     ............H7?m
 8007c58:	fa1f2740 5e6710fe fd616fe0 01aa8417     @'....g^.oa.....
 8007c68:	9bd18679 00006b8f 00000000 00000000     y....k..........
	...
 8007ca4:	fc100000 8b4594ad 524a38ef fc38a907     ......E..8JR..8.
 8007cb4:	001bf706 00000000 00000000 00000000     ................
 8007cc4:	74626500 4345445b 665d3431 5f6c6c75     .ebt[DEC14]full_
 8007cd4:	00003431 00000000 00000000 00000000     14..............
 8007ce4:	00000000 84100315 4e11ab75 ae2c875a     ........u..NZ.,.
 8007cf4:	87a8c54e 10b5c7c7 aca5f415 46b213b9     N..............F
 8007d04:	4984fc30 5571e475 00000000 00000000     0..Iu.qU........
	...
 8007d44:	c8eda810 a41881ed 92cce119 938733d9     .............3..
 8007d54:	000000e1 00000000 00000000 65000000     ...............e
 8007d64:	445b7462 34314345 6c70735d 735f7469     bt[DEC14]split_s
 8007d74:	30706574 0034315f 00000000 00000000     tep0_14.........
 8007d84:	02050000 ab758410 875a4e11 c54eae2c     ......u..NZ.,.N.
 8007d94:	c7c787a8 f41510b5 13b9aca5 fc3046b2     .............F0.
 8007da4:	e4754984 00005571 00000000 00000000     .Iu.qU..........
	...
 8007e00:	445b7400 34314345 6c70735d 735f7469     .t[DEC14]split_s
 8007e10:	31706574 0034315f 00000000 00000000     tep1_14.........
 8007e20:	03100000 ab758410 875a4e11 c54eae2c     ......u..NZ.,.N.
 8007e30:	c7c787a8 f41510b5 13b9aca5 fc3046b2     .............F0.
 8007e40:	e4754984 00005571 00000000 00000000     .Iu.qU..........
	...
 8007e7c:	a8100000 81edc8ed e119a418 33d992cc     ...............3
 8007e8c:	00e19387 00000000 00000000 00000000     ................
 8007e9c:	74626500 4345445b 735d3431 74696c70     .ebt[DEC14]split
 8007eac:	74696e69 6574735f 315f3070 00000034     init_step0_14...
 8007ebc:	00000000 84100201 4e11ab75 ae2c875a     ........u..NZ.,.
 8007ecc:	87a8c54e 10b5c7c7 aca5f415 46b213b9     N..............F
 8007edc:	4984fc30 5571e475 00000000 00000000     0..Iu.qU........
	...
 8007f38:	74000000 4345445b 735d3431 74696c70     ...t[DEC14]split
 8007f48:	74696e69 6574735f 315f3170 00000034     init_step1_14...
 8007f58:	00000000 84100204 4e11ab75 ae2c875a     ........u..NZ.,.
 8007f68:	87a8c54e 10b5c7c7 aca5f415 46b213b9     N..............F
 8007f78:	4984fc30 5571e475 00000000 00000000     0..Iu.qU........
	...
 8007fd4:	74000000 4345445b 735d3431 74696c70     ...t[DEC14]split
 8007fe4:	74696e69 6574735f 315f3270 00000034     init_step2_14...
 8007ff4:	00000000 84100310 4e11ab75 ae2c875a     ........u..NZ.,.
 8008004:	87a8c54e 10b5c7c7 aca5f415 46b213b9     N..............F
 8008014:	4984fc30 5571e475 00000000 00000000     0..Iu.qU........
	...
 8008054:	c8eda810 a41881ed 92cce119 938733d9     .............3..
 8008064:	000000e1 00000000 00000000 65000000     ...............e
 8008074:	455b7462 3531434e 6c75665d 35315f6c     bt[ENC15]full_15
	...
 8008094:	030b0000 73bdf910 b5dc3d52 1b84f090     .......sR=......
 80080a4:	0e9e77d9 fd5e10b3 0be79de5 1058cc4d     .w....^.....M.X.
 80080b4:	daba2e9e 00000437 00000000 00000000     ....7...........
	...
 80080f0:	97100000 0d42b05f e0deddba a61186ba     ...._.B.........
 8008100:	005fc0fe 00000000 00000000 00000000     .._.............
 8008110:	74626500 434e455b 735d3531 74696c70     .ebt[ENC15]split
 8008120:	6574735f 315f3070 00000035 00000000     _step0_15.......
 8008130:	00000000 f9100203 3d5273bd f090b5dc     .........sR=....
 8008140:	77d91b84 10b30e9e 9de5fd5e cc4d0be7     ...w....^.....M.
 8008150:	2e9e1058 0437daba 00000000 00000000     X.....7.........
	...
 80081ac:	74000000 434e455b 735d3531 74696c70     ...t[ENC15]split
 80081bc:	6574735f 315f3170 00000035 00000000     _step1_15.......
 80081cc:	00000000 f9100308 3d5273bd f090b5dc     .........sR=....
 80081dc:	77d91b84 10b30e9e 9de5fd5e cc4d0be7     ...w....^.....M.
 80081ec:	2e9e1058 0437daba 00000000 00000000     X.....7.........
	...
 800822c:	b05f9710 ddba0d42 86bae0de c0fea611     .._.B...........
 800823c:	0000005f 00000000 00000000 65000000     _..............e
 800824c:	455b7462 3531434e 6c70735d 6e697469     bt[ENC15]splitin
 800825c:	735f7469 30706574 0035315f 00000000     it_step0_15.....
 800826c:	02010000 73bdf910 b5dc3d52 1b84f090     .......sR=......
 800827c:	0e9e77d9 fd5e10b3 0be79de5 1058cc4d     .w....^.....M.X.
 800828c:	daba2e9e 00000437 00000000 00000000     ....7...........
	...
 80082e8:	455b7400 3531434e 6c70735d 6e697469     .t[ENC15]splitin
 80082f8:	735f7469 31706574 0035315f 00000000     it_step1_15.....
 8008308:	02020000 73bdf910 b5dc3d52 1b84f090     .......sR=......
 8008318:	0e9e77d9 fd5e10b3 0be79de5 1058cc4d     .w....^.....M.X.
 8008328:	daba2e9e 00000437 00000000 00000000     ....7...........
	...
 8008384:	455b7400 3531434e 6c70735d 6e697469     .t[ENC15]splitin
 8008394:	735f7469 32706574 0035315f 00000000     it_step2_15.....
 80083a4:	03080000 73bdf910 b5dc3d52 1b84f090     .......sR=......
 80083b4:	0e9e77d9 fd5e10b3 0be79de5 1058cc4d     .w....^.....M.X.
 80083c4:	daba2e9e 00000437 00000000 00000000     ....7...........
	...
 8008400:	97100000 0d42b05f e0deddba a61186ba     ...._.B.........
 8008410:	005fc0fe 00000000 00000000 00000000     .._.............
 8008420:	74626500 4345445b 665d3531 5f6c6c75     .ebt[DEC15]full_
 8008430:	00003531 00000000 00000000 00000000     15..............
 8008440:	00000000 93100315 b351cb19 6220968c     ..........Q... b
 8008450:	a66ceb31 106e864c a044de91 e2ac36fa     1.l.L.n...D..6..
 8008460:	bce5524f ff107350 00000000 00000000     OR..Ps..........
	...
 80084a0:	6ff0a810 36a834a3 1e4c15c0 f52fcab3     ...o.4.6..L.../.
 80084b0:	0000007c 00000000 00000000 65000000     |..............e
 80084c0:	445b7462 35314345 6c70735d 735f7469     bt[DEC15]split_s
 80084d0:	30706574 0035315f 00000000 00000000     tep0_15.........
 80084e0:	02050000 cb199310 968cb351 eb316220     ........Q... b1.
 80084f0:	864ca66c de91106e 36faa044 524fe2ac     l.L.n...D..6..OR
 8008500:	7350bce5 0000ff10 00000000 00000000     ..Ps............
	...
 800855c:	445b7400 35314345 6c70735d 735f7469     .t[DEC15]split_s
 800856c:	31706574 0035315f 00000000 00000000     tep1_15.........
 800857c:	03100000 cb199310 968cb351 eb316220     ........Q... b1.
 800858c:	864ca66c de91106e 36faa044 524fe2ac     l.L.n...D..6..OR
 800859c:	7350bce5 0000ff10 00000000 00000000     ..Ps............
	...
 80085d8:	a8100000 34a36ff0 15c036a8 cab31e4c     .....o.4.6..L...
 80085e8:	007cf52f 00000000 00000000 00000000     /.|.............
 80085f8:	74626500 4345445b 735d3531 74696c70     .ebt[DEC15]split
 8008608:	74696e69 6574735f 315f3070 00000035     init_step0_15...
 8008618:	00000000 93100201 b351cb19 6220968c     ..........Q... b
 8008628:	a66ceb31 106e864c a044de91 e2ac36fa     1.l.L.n...D..6..
 8008638:	bce5524f ff107350 00000000 00000000     OR..Ps..........
	...
 8008694:	74000000 4345445b 735d3531 74696c70     ...t[DEC15]split
 80086a4:	74696e69 6574735f 315f3170 00000035     init_step1_15...
 80086b4:	00000000 93100204 b351cb19 6220968c     ..........Q... b
 80086c4:	a66ceb31 106e864c a044de91 e2ac36fa     1.l.L.n...D..6..
 80086d4:	bce5524f ff107350 00000000 00000000     OR..Ps..........
	...
 8008730:	74000000 4345445b 735d3531 74696c70     ...t[DEC15]split
 8008740:	74696e69 6574735f 315f3270 00000035     init_step2_15...
 8008750:	00000000 93100310 b351cb19 6220968c     ..........Q... b
 8008760:	a66ceb31 106e864c a044de91 e2ac36fa     1.l.L.n...D..6..
 8008770:	bce5524f ff107350 00000000 00000000     OR..Ps..........
	...
 80087b0:	6ff0a810 36a834a3 1e4c15c0 f52fcab3     ...o.4.6..L.../.
 80087c0:	0000007c 00000000 00000000 65000000     |..............e
 80087d0:	455b7462 3631434e 6c75665d 36315f6c     bt[ENC16]full_16
	...
 80087f0:	030b0000 f6dee010 28712457 eff2c4c5     ........W$q(....
 8008800:	fae43a9b 78131006 6a21305f 57434b2e     .:.....x_0!j.KCW
 8008810:	0dfe3cc1 00001e4d 00000000 00000000     .<..M...........
	...
 800884c:	fa100000 36670f91 0dfe81e3 b7fe659e     ......g6.....e..
 800885c:	003ed9e3 00000000 00000000 00000000     ..>.............
 800886c:	74626500 434e455b 735d3631 74696c70     .ebt[ENC16]split
 800887c:	6574735f 315f3070 00000036 00000000     _step0_16.......
 800888c:	00000000 e0100203 2457f6de c4c52871     ..........W$q(..
 800889c:	3a9beff2 1006fae4 305f7813 4b2e6a21     ...:.....x_0!j.K
 80088ac:	3cc15743 1e4d0dfe 00000000 00000000     CW.<..M.........
	...
 8008908:	74000000 434e455b 735d3631 74696c70     ...t[ENC16]split
 8008918:	6574735f 315f3170 00000036 00000000     _step1_16.......
 8008928:	00000000 e0100308 2457f6de c4c52871     ..........W$q(..
 8008938:	3a9beff2 1006fae4 305f7813 4b2e6a21     ...:.....x_0!j.K
 8008948:	3cc15743 1e4d0dfe 00000000 00000000     CW.<..M.........
	...
 8008988:	0f91fa10 81e33667 659e0dfe d9e3b7fe     ....g6.....e....
 8008998:	0000003e 00000000 00000000 65000000     >..............e
 80089a8:	455b7462 3631434e 6c70735d 6e697469     bt[ENC16]splitin
 80089b8:	735f7469 30706574 0036315f 00000000     it_step0_16.....
 80089c8:	02010000 f6dee010 28712457 eff2c4c5     ........W$q(....
 80089d8:	fae43a9b 78131006 6a21305f 57434b2e     .:.....x_0!j.KCW
 80089e8:	0dfe3cc1 00001e4d 00000000 00000000     .<..M...........
	...
 8008a44:	455b7400 3631434e 6c70735d 6e697469     .t[ENC16]splitin
 8008a54:	735f7469 31706574 0036315f 00000000     it_step1_16.....
 8008a64:	02020000 f6dee010 28712457 eff2c4c5     ........W$q(....
 8008a74:	fae43a9b 78131006 6a21305f 57434b2e     .:.....x_0!j.KCW
 8008a84:	0dfe3cc1 00001e4d 00000000 00000000     .<..M...........
	...
 8008ae0:	455b7400 3631434e 6c70735d 6e697469     .t[ENC16]splitin
 8008af0:	735f7469 32706574 0036315f 00000000     it_step2_16.....
 8008b00:	03080000 f6dee010 28712457 eff2c4c5     ........W$q(....
 8008b10:	fae43a9b 78131006 6a21305f 57434b2e     .:.....x_0!j.KCW
 8008b20:	0dfe3cc1 00001e4d 00000000 00000000     .<..M...........
	...
 8008b5c:	fa100000 36670f91 0dfe81e3 b7fe659e     ......g6.....e..
 8008b6c:	003ed9e3 00000000 00000000 00000000     ..>.............
 8008b7c:	74626500 4345445b 665d3631 5f6c6c75     .ebt[DEC16]full_
 8008b8c:	00003631 00000000 00000000 00000000     16..............
 8008b9c:	00000000 d2100315 bf3f3f3d 39f39a4d     ........=??.M..9
 8008bac:	e63933d7 105d4a1f 7f62401e 45685f9e     .39..J]..@b.._hE
 8008bbc:	5b6097b2 69e3937c 00000000 00000000     ..`[|..i........
	...
 8008bfc:	5fd95410 5f16f656 d6c7f6bc 308a5fbe     .T._V.._....._.0
 8008c0c:	00000006 00000000 00000000 65000000     ...............e
 8008c1c:	445b7462 36314345 6c70735d 735f7469     bt[DEC16]split_s
 8008c2c:	30706574 0036315f 00000000 00000000     tep0_16.........
 8008c3c:	02050000 3f3dd210 9a4dbf3f 33d739f3     ......=??.M..9.3
 8008c4c:	4a1fe639 401e105d 5f9e7f62 97b24568     9..J]..@b.._hE..
 8008c5c:	937c5b60 000069e3 00000000 00000000     `[|..i..........
	...
 8008cb8:	445b7400 36314345 6c70735d 735f7469     .t[DEC16]split_s
 8008cc8:	31706574 0036315f 00000000 00000000     tep1_16.........
 8008cd8:	03100000 3f3dd210 9a4dbf3f 33d739f3     ......=??.M..9.3
 8008ce8:	4a1fe639 401e105d 5f9e7f62 97b24568     9..J]..@b.._hE..
 8008cf8:	937c5b60 000069e3 00000000 00000000     `[|..i..........
	...
 8008d34:	54100000 f6565fd9 f6bc5f16 5fbed6c7     ...T._V.._....._
 8008d44:	0006308a 00000000 00000000 00000000     .0..............
 8008d54:	74626500 4345445b 735d3631 74696c70     .ebt[DEC16]split
 8008d64:	74696e69 6574735f 315f3070 00000036     init_step0_16...
 8008d74:	00000000 d2100201 bf3f3f3d 39f39a4d     ........=??.M..9
 8008d84:	e63933d7 105d4a1f 7f62401e 45685f9e     .39..J]..@b.._hE
 8008d94:	5b6097b2 69e3937c 00000000 00000000     ..`[|..i........
	...
 8008df0:	74000000 4345445b 735d3631 74696c70     ...t[DEC16]split
 8008e00:	74696e69 6574735f 315f3170 00000036     init_step1_16...
 8008e10:	00000000 d2100204 bf3f3f3d 39f39a4d     ........=??.M..9
 8008e20:	e63933d7 105d4a1f 7f62401e 45685f9e     .39..J]..@b.._hE
 8008e30:	5b6097b2 69e3937c 00000000 00000000     ..`[|..i........
	...
 8008e8c:	74000000 4345445b 735d3631 74696c70     ...t[DEC16]split
 8008e9c:	74696e69 6574735f 315f3270 00000036     init_step2_16...
 8008eac:	00000000 d2100310 bf3f3f3d 39f39a4d     ........=??.M..9
 8008ebc:	e63933d7 105d4a1f 7f62401e 45685f9e     .39..J]..@b.._hE
 8008ecc:	5b6097b2 69e3937c 00000000 00000000     ..`[|..i........
	...
 8008f0c:	5fd95410 5f16f656 d6c7f6bc 308a5fbe     .T._V.._....._.0
 8008f1c:	00000006 00000000 00000000 65000000     ...............e
 8008f2c:	455b7462 3731434e 6c75665d 37315f6c     bt[ENC17]full_17
	...
 8008f4c:	030b0000 c1f2f510 d368e1a2 e3e653b0     ..........h..S..
 8008f5c:	b8705fcb 08a010a7 9e15bf46 e8008693     ._p.....F.......
 8008f6c:	3bdab8e1 00000461 00000000 00000000     ...;a...........
	...
 8008fa8:	74100000 8bfa1ce3 1dcbc72a e0d18c47     ...t....*...G...
 8008fb8:	001a154e 00000000 00000000 00000000     N...............
 8008fc8:	74626500 434e455b 735d3731 74696c70     .ebt[ENC17]split
 8008fd8:	6574735f 315f3070 00000037 00000000     _step0_17.......
 8008fe8:	00000000 f5100203 e1a2c1f2 53b0d368     ............h..S
 8008ff8:	5fcbe3e6 10a7b870 bf4608a0 86939e15     ..._p.....F.....
 8009008:	b8e1e800 04613bda 00000000 00000000     .....;a.........
	...
 8009064:	74000000 434e455b 735d3731 74696c70     ...t[ENC17]split
 8009074:	6574735f 315f3170 00000037 00000000     _step1_17.......
 8009084:	00000000 f5100308 e1a2c1f2 53b0d368     ............h..S
 8009094:	5fcbe3e6 10a7b870 bf4608a0 86939e15     ..._p.....F.....
 80090a4:	b8e1e800 04613bda 00000000 00000000     .....;a.........
	...
 80090e4:	1ce37410 c72a8bfa 8c471dcb 154ee0d1     .t....*...G...N.
 80090f4:	0000001a 00000000 00000000 65000000     ...............e
 8009104:	455b7462 3731434e 6c70735d 6e697469     bt[ENC17]splitin
 8009114:	735f7469 30706574 0037315f 00000000     it_step0_17.....
 8009124:	02010000 c1f2f510 d368e1a2 e3e653b0     ..........h..S..
 8009134:	b8705fcb 08a010a7 9e15bf46 e8008693     ._p.....F.......
 8009144:	3bdab8e1 00000461 00000000 00000000     ...;a...........
	...
 80091a0:	455b7400 3731434e 6c70735d 6e697469     .t[ENC17]splitin
 80091b0:	735f7469 31706574 0037315f 00000000     it_step1_17.....
 80091c0:	02020000 c1f2f510 d368e1a2 e3e653b0     ..........h..S..
 80091d0:	b8705fcb 08a010a7 9e15bf46 e8008693     ._p.....F.......
 80091e0:	3bdab8e1 00000461 00000000 00000000     ...;a...........
	...
 800923c:	455b7400 3731434e 6c70735d 6e697469     .t[ENC17]splitin
 800924c:	735f7469 32706574 0037315f 00000000     it_step2_17.....
 800925c:	03080000 c1f2f510 d368e1a2 e3e653b0     ..........h..S..
 800926c:	b8705fcb 08a010a7 9e15bf46 e8008693     ._p.....F.......
 800927c:	3bdab8e1 00000461 00000000 00000000     ...;a...........
	...
 80092b8:	74100000 8bfa1ce3 1dcbc72a e0d18c47     ...t....*...G...
 80092c8:	001a154e 00000000 00000000 00000000     N...............
 80092d8:	74626500 4345445b 665d3731 5f6c6c75     .ebt[DEC17]full_
 80092e8:	00003731 00000000 00000000 00000000     17..............
 80092f8:	00000000 ca100315 57893046 e870616e     ........F0.Wnap.
 8009308:	06b8fbde 10d12e9c 7a50e21f 1ea062ec     ..........Pz.b..
 8009318:	03498a74 9f3fc34c 00000000 00000000     t.I.L.?.........
	...
 8009358:	9764f810 d5ea2620 acded504 43084593     ..d. &.......E.C
 8009368:	00000066 00000000 00000000 65000000     f..............e
 8009378:	445b7462 37314345 6c70735d 735f7469     bt[DEC17]split_s
 8009388:	30706574 0037315f 00000000 00000000     tep0_17.........
 8009398:	02050000 3046ca10 616e5789 fbdee870     ......F0.Wnap...
 80093a8:	2e9c06b8 e21f10d1 62ec7a50 8a741ea0     ........Pz.b..t.
 80093b8:	c34c0349 00009f3f 00000000 00000000     I.L.?...........
	...
 8009414:	445b7400 37314345 6c70735d 735f7469     .t[DEC17]split_s
 8009424:	31706574 0037315f 00000000 00000000     tep1_17.........
 8009434:	03100000 3046ca10 616e5789 fbdee870     ......F0.Wnap...
 8009444:	2e9c06b8 e21f10d1 62ec7a50 8a741ea0     ........Pz.b..t.
 8009454:	c34c0349 00009f3f 00000000 00000000     I.L.?...........
	...
 8009490:	f8100000 26209764 d504d5ea 4593acde     ....d. &.......E
 80094a0:	00664308 00000000 00000000 00000000     .Cf.............
 80094b0:	74626500 4345445b 735d3731 74696c70     .ebt[DEC17]split
 80094c0:	74696e69 6574735f 315f3070 00000037     init_step0_17...
 80094d0:	00000000 ca100201 57893046 e870616e     ........F0.Wnap.
 80094e0:	06b8fbde 10d12e9c 7a50e21f 1ea062ec     ..........Pz.b..
 80094f0:	03498a74 9f3fc34c 00000000 00000000     t.I.L.?.........
	...
 800954c:	74000000 4345445b 735d3731 74696c70     ...t[DEC17]split
 800955c:	74696e69 6574735f 315f3170 00000037     init_step1_17...
 800956c:	00000000 ca100204 57893046 e870616e     ........F0.Wnap.
 800957c:	06b8fbde 10d12e9c 7a50e21f 1ea062ec     ..........Pz.b..
 800958c:	03498a74 9f3fc34c 00000000 00000000     t.I.L.?.........
	...
 80095e8:	74000000 4345445b 735d3731 74696c70     ...t[DEC17]split
 80095f8:	74696e69 6574735f 315f3270 00000037     init_step2_17...
 8009608:	00000000 ca100310 57893046 e870616e     ........F0.Wnap.
 8009618:	06b8fbde 10d12e9c 7a50e21f 1ea062ec     ..........Pz.b..
 8009628:	03498a74 9f3fc34c 00000000 00000000     t.I.L.?.........
	...
 8009668:	9764f810 d5ea2620 acded504 43084593     ..d. &.......E.C
 8009678:	00000066 00000000 00000000 65000000     f..............e
 8009688:	455b7462 3831434e 6c75665d 38315f6c     bt[ENC18]full_18
	...
 80096a8:	030b0000 5b2e6610 b45f1db5 29e89897     .....f.[.._....)
 80096b8:	228f87a0 558a1061 fcdbbac9 62755ed0     ..."a..U.....^ub
 80096c8:	d021c848 00005a8a 00000000 00000000     H.!..Z..........
	...
 8009704:	50100000 831bd52c 974c956a 843fdaca     ...P,...j.L...?.
 8009714:	006397f6 00000000 00000000 00000000     ..c.............
 8009724:	74626500 434e455b 735d3831 74696c70     .ebt[ENC18]split
 8009734:	6574735f 315f3070 00000038 00000000     _step0_18.......
 8009744:	00000000 66100203 1db55b2e 9897b45f     .......f.[.._...
 8009754:	87a029e8 1061228f bac9558a 5ed0fcdb     .)..."a..U.....^
 8009764:	c8486275 5a8ad021 00000000 00000000     ubH.!..Z........
	...
 80097c0:	74000000 434e455b 735d3831 74696c70     ...t[ENC18]split
 80097d0:	6574735f 315f3170 00000038 00000000     _step1_18.......
 80097e0:	00000000 66100308 1db55b2e 9897b45f     .......f.[.._...
 80097f0:	87a029e8 1061228f bac9558a 5ed0fcdb     .)..."a..U.....^
 8009800:	c8486275 5a8ad021 00000000 00000000     ubH.!..Z........
	...
 8009840:	d52c5010 956a831b daca974c 97f6843f     .P,...j.L...?...
 8009850:	00000063 00000000 00000000 65000000     c..............e
 8009860:	455b7462 3831434e 6c70735d 6e697469     bt[ENC18]splitin
 8009870:	735f7469 30706574 0038315f 00000000     it_step0_18.....
 8009880:	02010000 5b2e6610 b45f1db5 29e89897     .....f.[.._....)
 8009890:	228f87a0 558a1061 fcdbbac9 62755ed0     ..."a..U.....^ub
 80098a0:	d021c848 00005a8a 00000000 00000000     H.!..Z..........
	...
 80098fc:	455b7400 3831434e 6c70735d 6e697469     .t[ENC18]splitin
 800990c:	735f7469 31706574 0038315f 00000000     it_step1_18.....
 800991c:	02020000 5b2e6610 b45f1db5 29e89897     .....f.[.._....)
 800992c:	228f87a0 558a1061 fcdbbac9 62755ed0     ..."a..U.....^ub
 800993c:	d021c848 00005a8a 00000000 00000000     H.!..Z..........
	...
 8009998:	455b7400 3831434e 6c70735d 6e697469     .t[ENC18]splitin
 80099a8:	735f7469 32706574 0038315f 00000000     it_step2_18.....
 80099b8:	03080000 5b2e6610 b45f1db5 29e89897     .....f.[.._....)
 80099c8:	228f87a0 558a1061 fcdbbac9 62755ed0     ..."a..U.....^ub
 80099d8:	d021c848 00005a8a 00000000 00000000     H.!..Z..........
	...
 8009a14:	50100000 831bd52c 974c956a 843fdaca     ...P,...j.L...?.
 8009a24:	006397f6 00000000 00000000 00000000     ..c.............
 8009a34:	74626500 4345445b 665d3831 5f6c6c75     .ebt[DEC18]full_
 8009a44:	00003831 00000000 00000000 00000000     18..............
 8009a54:	00000000 8c100315 a9f62b2f 94d0bc00     ......../+......
 8009a64:	215a0086 1035a0e6 7463f3d4 acf17942     ..Z!..5...ctBy..
 8009a74:	3f96bde4 26b70575 00000000 00000000     ...?u..&........
	...
 8009ab4:	92563c10 c71e07c7 2809aa84 cf628d06     .<V........(..b.
 8009ac4:	000000ae 00000000 00000000 65000000     ...............e
 8009ad4:	445b7462 38314345 6c70735d 735f7469     bt[DEC18]split_s
 8009ae4:	30706574 0038315f 00000000 00000000     tep0_18.........
 8009af4:	02050000 2b2f8c10 bc00a9f6 008694d0     ....../+........
 8009b04:	a0e6215a f3d41035 79427463 bde4acf1     Z!..5...ctBy....
 8009b14:	05753f96 000026b7 00000000 00000000     .?u..&..........
	...
 8009b70:	445b7400 38314345 6c70735d 735f7469     .t[DEC18]split_s
 8009b80:	31706574 0038315f 00000000 00000000     tep1_18.........
 8009b90:	03100000 2b2f8c10 bc00a9f6 008694d0     ....../+........
 8009ba0:	a0e6215a f3d41035 79427463 bde4acf1     Z!..5...ctBy....
 8009bb0:	05753f96 000026b7 00000000 00000000     .?u..&..........
	...
 8009bec:	3c100000 07c79256 aa84c71e 8d062809     ...<V........(..
 8009bfc:	00aecf62 00000000 00000000 00000000     b...............
 8009c0c:	74626500 4345445b 735d3831 74696c70     .ebt[DEC18]split
 8009c1c:	74696e69 6574735f 315f3070 00000038     init_step0_18...
 8009c2c:	00000000 8c100201 a9f62b2f 94d0bc00     ......../+......
 8009c3c:	215a0086 1035a0e6 7463f3d4 acf17942     ..Z!..5...ctBy..
 8009c4c:	3f96bde4 26b70575 00000000 00000000     ...?u..&........
	...
 8009ca8:	74000000 4345445b 735d3831 74696c70     ...t[DEC18]split
 8009cb8:	74696e69 6574735f 315f3170 00000038     init_step1_18...
 8009cc8:	00000000 8c100204 a9f62b2f 94d0bc00     ......../+......
 8009cd8:	215a0086 1035a0e6 7463f3d4 acf17942     ..Z!..5...ctBy..
 8009ce8:	3f96bde4 26b70575 00000000 00000000     ...?u..&........
	...
 8009d44:	74000000 4345445b 735d3831 74696c70     ...t[DEC18]split
 8009d54:	74696e69 6574735f 315f3270 00000038     init_step2_18...
 8009d64:	00000000 8c100310 a9f62b2f 94d0bc00     ......../+......
 8009d74:	215a0086 1035a0e6 7463f3d4 acf17942     ..Z!..5...ctBy..
 8009d84:	3f96bde4 26b70575 00000000 00000000     ...?u..&........
	...
 8009dc4:	92563c10 c71e07c7 2809aa84 cf628d06     .<V........(..b.
 8009dd4:	000000ae 00000000 00000000 65000000     ...............e
 8009de4:	455b7462 3931434e 6c75665d 39315f6c     bt[ENC19]full_19
	...
 8009e04:	030b0000 127cba10 e48630bf 3893c6ae     ......|..0.....8
 8009e14:	d981f70a cdd1102b d40472d2 31a6cca8     ....+....r.....1
 8009e24:	9e137591 0000d38b 00000000 00000000     .u..............
	...
 8009e60:	4d100000 9a665f3d a678c481 d4505d23     ...M=_f...x.#]P.
 8009e70:	006a220a 00000000 00000000 00000000     ."j.............
 8009e80:	74626500 434e455b 735d3931 74696c70     .ebt[ENC19]split
 8009e90:	6574735f 315f3070 00000039 00000000     _step0_19.......
 8009ea0:	00000000 ba100203 30bf127c c6aee486     ........|..0....
 8009eb0:	f70a3893 102bd981 72d2cdd1 cca8d404     .8....+....r....
 8009ec0:	759131a6 d38b9e13 00000000 00000000     .1.u............
	...
 8009f1c:	74000000 434e455b 735d3931 74696c70     ...t[ENC19]split
 8009f2c:	6574735f 315f3170 00000039 00000000     _step1_19.......
 8009f3c:	00000000 ba100308 30bf127c c6aee486     ........|..0....
 8009f4c:	f70a3893 102bd981 72d2cdd1 cca8d404     .8....+....r....
 8009f5c:	759131a6 d38b9e13 00000000 00000000     .1.u............
	...
 8009f9c:	5f3d4d10 c4819a66 5d23a678 220ad450     .M=_f...x.#]P.."
 8009fac:	0000006a 00000000 00000000 65000000     j..............e
 8009fbc:	455b7462 3931434e 6c70735d 6e697469     bt[ENC19]splitin
 8009fcc:	735f7469 30706574 0039315f 00000000     it_step0_19.....
 8009fdc:	02010000 127cba10 e48630bf 3893c6ae     ......|..0.....8
 8009fec:	d981f70a cdd1102b d40472d2 31a6cca8     ....+....r.....1
 8009ffc:	9e137591 0000d38b 00000000 00000000     .u..............
	...
 800a058:	455b7400 3931434e 6c70735d 6e697469     .t[ENC19]splitin
 800a068:	735f7469 31706574 0039315f 00000000     it_step1_19.....
 800a078:	02020000 127cba10 e48630bf 3893c6ae     ......|..0.....8
 800a088:	d981f70a cdd1102b d40472d2 31a6cca8     ....+....r.....1
 800a098:	9e137591 0000d38b 00000000 00000000     .u..............
	...
 800a0f4:	455b7400 3931434e 6c70735d 6e697469     .t[ENC19]splitin
 800a104:	735f7469 32706574 0039315f 00000000     it_step2_19.....
 800a114:	03080000 127cba10 e48630bf 3893c6ae     ......|..0.....8
 800a124:	d981f70a cdd1102b d40472d2 31a6cca8     ....+....r.....1
 800a134:	9e137591 0000d38b 00000000 00000000     .u..............
	...
 800a170:	4d100000 9a665f3d a678c481 d4505d23     ...M=_f...x.#]P.
 800a180:	006a220a 00000000 00000000 00000000     ."j.............
 800a190:	74626500 4345445b 665d3931 5f6c6c75     .ebt[DEC19]full_
 800a1a0:	00003931 00000000 00000000 00000000     19..............
 800a1b0:	00000000 30100315 adf9e9ab c66a21f2     .......0.....!j.
 800a1c0:	bc72080f 10816f8b bf465d9a 55dd7b24     ..r..o...]F.${.U
 800a1d0:	95b53dcb e3fcd3f4 00000000 00000000     .=..............
	...
 800a210:	c9f93f10 4085d47c bd9a8837 a4b43421     .?..|..@7...!4..
 800a220:	00000061 00000000 00000000 65000000     a..............e
 800a230:	445b7462 39314345 6c70735d 735f7469     bt[DEC19]split_s
 800a240:	30706574 0039315f 00000000 00000000     tep0_19.........
 800a250:	02050000 e9ab3010 21f2adf9 080fc66a     .....0.....!j...
 800a260:	6f8bbc72 5d9a1081 7b24bf46 3dcb55dd     r..o...]F.${.U.=
 800a270:	d3f495b5 0000e3fc 00000000 00000000     ................
	...
 800a2cc:	445b7400 39314345 6c70735d 735f7469     .t[DEC19]split_s
 800a2dc:	31706574 0039315f 00000000 00000000     tep1_19.........
 800a2ec:	03100000 e9ab3010 21f2adf9 080fc66a     .....0.....!j...
 800a2fc:	6f8bbc72 5d9a1081 7b24bf46 3dcb55dd     r..o...]F.${.U.=
 800a30c:	d3f495b5 0000e3fc 00000000 00000000     ................
	...
 800a348:	3f100000 d47cc9f9 88374085 3421bd9a     ...?..|..@7...!4
 800a358:	0061a4b4 00000000 00000000 00000000     ..a.............
 800a368:	74626500 4345445b 735d3931 74696c70     .ebt[DEC19]split
 800a378:	74696e69 6574735f 315f3070 00000039     init_step0_19...
 800a388:	00000000 30100201 adf9e9ab c66a21f2     .......0.....!j.
 800a398:	bc72080f 10816f8b bf465d9a 55dd7b24     ..r..o...]F.${.U
 800a3a8:	95b53dcb e3fcd3f4 00000000 00000000     .=..............
	...
 800a404:	74000000 4345445b 735d3931 74696c70     ...t[DEC19]split
 800a414:	74696e69 6574735f 315f3170 00000039     init_step1_19...
 800a424:	00000000 30100204 adf9e9ab c66a21f2     .......0.....!j.
 800a434:	bc72080f 10816f8b bf465d9a 55dd7b24     ..r..o...]F.${.U
 800a444:	95b53dcb e3fcd3f4 00000000 00000000     .=..............
	...
 800a4a0:	74000000 4345445b 735d3931 74696c70     ...t[DEC19]split
 800a4b0:	74696e69 6574735f 315f3270 00000039     init_step2_19...
 800a4c0:	00000000 30100310 adf9e9ab c66a21f2     .......0.....!j.
 800a4d0:	bc72080f 10816f8b bf465d9a 55dd7b24     ..r..o...]F.${.U
 800a4e0:	95b53dcb e3fcd3f4 00000000 00000000     .=..............
	...
 800a520:	c9f93f10 4085d47c bd9a8837 a4b43421     .?..|..@7...!4..
 800a530:	00000061 00000000 00000000 65000000     a..............e
 800a540:	455b7462 3032434e 6c75665d 30325f6c     bt[ENC20]full_20
	...
 800a560:	030b0000 fd8f8f10 f1d1ea26 1b7df945     ........&...E.}.
 800a570:	49bcac43 718a1012 0b86edb7 cb256557     C..I...q....We%.
 800a580:	ba878388 0000fc40 00000000 00000000     ....@...........
	...
 800a5bc:	c3100000 7d78194f c030e2cf 76172c63     ....O.x}..0.c,.v
 800a5cc:	00ef02de 00000000 00000000 00000000     ................
 800a5dc:	74626500 434e455b 735d3032 74696c70     .ebt[ENC20]split
 800a5ec:	6574735f 325f3070 00000030 00000000     _step0_20.......
 800a5fc:	00000000 8f100203 ea26fd8f f945f1d1     ..........&...E.
 800a60c:	ac431b7d 101249bc edb7718a 65570b86     }.C..I...q....We
 800a61c:	8388cb25 fc40ba87 00000000 00000000     %.....@.........
	...
 800a678:	74000000 434e455b 735d3032 74696c70     ...t[ENC20]split
 800a688:	6574735f 325f3170 00000030 00000000     _step1_20.......
 800a698:	00000000 8f100308 ea26fd8f f945f1d1     ..........&...E.
 800a6a8:	ac431b7d 101249bc edb7718a 65570b86     }.C..I...q....We
 800a6b8:	8388cb25 fc40ba87 00000000 00000000     %.....@.........
	...
 800a6f8:	194fc310 e2cf7d78 2c63c030 02de7617     ..O.x}..0.c,.v..
 800a708:	000000ef 00000000 00000000 65000000     ...............e
 800a718:	455b7462 3032434e 6c70735d 6e697469     bt[ENC20]splitin
 800a728:	735f7469 30706574 0030325f 00000000     it_step0_20.....
 800a738:	02010000 fd8f8f10 f1d1ea26 1b7df945     ........&...E.}.
 800a748:	49bcac43 718a1012 0b86edb7 cb256557     C..I...q....We%.
 800a758:	ba878388 0000fc40 00000000 00000000     ....@...........
	...
 800a7b4:	455b7400 3032434e 6c70735d 6e697469     .t[ENC20]splitin
 800a7c4:	735f7469 31706574 0030325f 00000000     it_step1_20.....
 800a7d4:	02020000 fd8f8f10 f1d1ea26 1b7df945     ........&...E.}.
 800a7e4:	49bcac43 718a1012 0b86edb7 cb256557     C..I...q....We%.
 800a7f4:	ba878388 0000fc40 00000000 00000000     ....@...........
	...
 800a850:	455b7400 3032434e 6c70735d 6e697469     .t[ENC20]splitin
 800a860:	735f7469 32706574 0030325f 00000000     it_step2_20.....
 800a870:	03080000 fd8f8f10 f1d1ea26 1b7df945     ........&...E.}.
 800a880:	49bcac43 718a1012 0b86edb7 cb256557     C..I...q....We%.
 800a890:	ba878388 0000fc40 00000000 00000000     ....@...........
	...
 800a8cc:	c3100000 7d78194f c030e2cf 76172c63     ....O.x}..0.c,.v
 800a8dc:	00ef02de 00000000 00000000 00000000     ................
 800a8ec:	74626500 4345445b 665d3032 5f6c6c75     .ebt[DEC20]full_
 800a8fc:	00003032 00000000 00000000 00000000     20..............
 800a90c:	00000000 60100315 30c2d946 027af8b2     .......`F..0..z.
 800a91c:	2bb54601 10fafbe6 40bb7f46 660317c0     .F.+....F..@...f
 800a92c:	2a3a9c45 c2a6517b 00000000 00000000     E.:*{Q..........
	...
 800a96c:	86dd3910 c31ec0e3 7e228217 4c4bb6b8     .9........"~..KL
 800a97c:	00000040 00000000 00000000 65000000     @..............e
 800a98c:	445b7462 30324345 6c70735d 735f7469     bt[DEC20]split_s
 800a99c:	30706574 0030325f 00000000 00000000     tep0_20.........
 800a9ac:	02050000 d9466010 f8b230c2 4601027a     .....`F..0..z..F
 800a9bc:	fbe62bb5 7f4610fa 17c040bb 9c456603     .+....F..@...fE.
 800a9cc:	517b2a3a 0000c2a6 00000000 00000000     :*{Q............
	...
 800aa28:	445b7400 30324345 6c70735d 735f7469     .t[DEC20]split_s
 800aa38:	31706574 0030325f 00000000 00000000     tep1_20.........
 800aa48:	03100000 d9466010 f8b230c2 4601027a     .....`F..0..z..F
 800aa58:	fbe62bb5 7f4610fa 17c040bb 9c456603     .+....F..@...fE.
 800aa68:	517b2a3a 0000c2a6 00000000 00000000     :*{Q............
	...
 800aaa4:	39100000 c0e386dd 8217c31e b6b87e22     ...9........"~..
 800aab4:	00404c4b 00000000 00000000 00000000     KL@.............
 800aac4:	74626500 4345445b 735d3032 74696c70     .ebt[DEC20]split
 800aad4:	74696e69 6574735f 325f3070 00000030     init_step0_20...
 800aae4:	00000000 60100201 30c2d946 027af8b2     .......`F..0..z.
 800aaf4:	2bb54601 10fafbe6 40bb7f46 660317c0     .F.+....F..@...f
 800ab04:	2a3a9c45 c2a6517b 00000000 00000000     E.:*{Q..........
	...
 800ab60:	74000000 4345445b 735d3032 74696c70     ...t[DEC20]split
 800ab70:	74696e69 6574735f 325f3170 00000030     init_step1_20...
 800ab80:	00000000 60100204 30c2d946 027af8b2     .......`F..0..z.
 800ab90:	2bb54601 10fafbe6 40bb7f46 660317c0     .F.+....F..@...f
 800aba0:	2a3a9c45 c2a6517b 00000000 00000000     E.:*{Q..........
	...
 800abfc:	74000000 4345445b 735d3032 74696c70     ...t[DEC20]split
 800ac0c:	74696e69 6574735f 325f3270 00000030     init_step2_20...
 800ac1c:	00000000 60100310 30c2d946 027af8b2     .......`F..0..z.
 800ac2c:	2bb54601 10fafbe6 40bb7f46 660317c0     .F.+....F..@...f
 800ac3c:	2a3a9c45 c2a6517b 00000000 00000000     E.:*{Q..........
	...
 800ac7c:	86dd3910 c31ec0e3 7e228217 4c4bb6b8     .9........"~..KL
 800ac8c:	00000040 00000000 00000000 65000000     @..............e
 800ac9c:	455b7462 3132434e 6c75665d 31325f6c     bt[ENC21]full_21
	...
 800acbc:	030b0000 fc4e9910 b3a7f9d2 af98e99f     ......N.........
 800accc:	23cf36e3 d2cc1010 3d508cee 1768249b     .6.#......P=.$h.
 800acdc:	a8549ad5 00004a77 00000000 00000000     ..T.wJ..........
	...
 800ad18:	41100000 323d490f 350f243f c48873e8     ...A.I=2?$.5.s..
 800ad28:	00cddb88 00000000 00000000 00000000     ................
 800ad38:	74626500 434e455b 735d3132 74696c70     .ebt[ENC21]split
 800ad48:	6574735f 325f3070 00000031 00000000     _step0_21.......
 800ad58:	00000000 99100203 f9d2fc4e e99fb3a7     ........N.......
 800ad68:	36e3af98 101023cf 8ceed2cc 249b3d50     ...6.#......P=.$
 800ad78:	9ad51768 4a77a854 00000000 00000000     h...T.wJ........
	...
 800add4:	74000000 434e455b 735d3132 74696c70     ...t[ENC21]split
 800ade4:	6574735f 325f3170 00000031 00000000     _step1_21.......
 800adf4:	00000000 99100308 f9d2fc4e e99fb3a7     ........N.......
 800ae04:	36e3af98 101023cf 8ceed2cc 249b3d50     ...6.#......P=.$
 800ae14:	9ad51768 4a77a854 00000000 00000000     h...T.wJ........
	...
 800ae54:	490f4110 243f323d 73e8350f db88c488     .A.I=2?$.5.s....
 800ae64:	000000cd 00000000 00000000 65000000     ...............e
 800ae74:	455b7462 3132434e 6c70735d 6e697469     bt[ENC21]splitin
 800ae84:	735f7469 30706574 0031325f 00000000     it_step0_21.....
 800ae94:	02010000 fc4e9910 b3a7f9d2 af98e99f     ......N.........
 800aea4:	23cf36e3 d2cc1010 3d508cee 1768249b     .6.#......P=.$h.
 800aeb4:	a8549ad5 00004a77 00000000 00000000     ..T.wJ..........
	...
 800af10:	455b7400 3132434e 6c70735d 6e697469     .t[ENC21]splitin
 800af20:	735f7469 31706574 0031325f 00000000     it_step1_21.....
 800af30:	02020000 fc4e9910 b3a7f9d2 af98e99f     ......N.........
 800af40:	23cf36e3 d2cc1010 3d508cee 1768249b     .6.#......P=.$h.
 800af50:	a8549ad5 00004a77 00000000 00000000     ..T.wJ..........
	...
 800afac:	455b7400 3132434e 6c70735d 6e697469     .t[ENC21]splitin
 800afbc:	735f7469 32706574 0031325f 00000000     it_step2_21.....
 800afcc:	03080000 fc4e9910 b3a7f9d2 af98e99f     ......N.........
 800afdc:	23cf36e3 d2cc1010 3d508cee 1768249b     .6.#......P=.$h.
 800afec:	a8549ad5 00004a77 00000000 00000000     ..T.wJ..........
	...
 800b028:	41100000 323d490f 350f243f c48873e8     ...A.I=2?$.5.s..
 800b038:	00cddb88 00000000 00000000 00000000     ................
 800b048:	74626500 4345445b 665d3132 5f6c6c75     .ebt[DEC21]full_
 800b058:	00003132 00000000 00000000 00000000     21..............
 800b068:	00000000 fe100315 7ee9fdb7 67264732     ...........~2G&g
 800b078:	1c433273 10c05ae8 57b7f16f af04a1f8     s2C..Z..o..W....
 800b088:	ee030eab 6fc8bb9a 00000000 00000000     .......o........
	...
 800b0c8:	4f00eb10 5731b476 04599b22 ca03b7aa     ...Ov.1W".Y.....
 800b0d8:	0000002b 00000000 00000000 65000000     +..............e
 800b0e8:	445b7462 31324345 6c70735d 735f7469     bt[DEC21]split_s
 800b0f8:	30706574 0031325f 00000000 00000000     tep0_21.........
 800b108:	02050000 fdb7fe10 47327ee9 32736726     .........~2G&gs2
 800b118:	5ae81c43 f16f10c0 a1f857b7 0eabaf04     C..Z..o..W......
 800b128:	bb9aee03 00006fc8 00000000 00000000     .....o..........
	...
 800b184:	445b7400 31324345 6c70735d 735f7469     .t[DEC21]split_s
 800b194:	31706574 0031325f 00000000 00000000     tep1_21.........
 800b1a4:	03100000 fdb7fe10 47327ee9 32736726     .........~2G&gs2
 800b1b4:	5ae81c43 f16f10c0 a1f857b7 0eabaf04     C..Z..o..W......
 800b1c4:	bb9aee03 00006fc8 00000000 00000000     .....o..........
	...
 800b200:	eb100000 b4764f00 9b225731 b7aa0459     .....Ov.1W".Y...
 800b210:	002bca03 00000000 00000000 00000000     ..+.............
 800b220:	74626500 4345445b 735d3132 74696c70     .ebt[DEC21]split
 800b230:	74696e69 6574735f 325f3070 00000031     init_step0_21...
 800b240:	00000000 fe100201 7ee9fdb7 67264732     ...........~2G&g
 800b250:	1c433273 10c05ae8 57b7f16f af04a1f8     s2C..Z..o..W....
 800b260:	ee030eab 6fc8bb9a 00000000 00000000     .......o........
	...
 800b2bc:	74000000 4345445b 735d3132 74696c70     ...t[DEC21]split
 800b2cc:	74696e69 6574735f 325f3170 00000031     init_step1_21...
 800b2dc:	00000000 fe100204 7ee9fdb7 67264732     ...........~2G&g
 800b2ec:	1c433273 10c05ae8 57b7f16f af04a1f8     s2C..Z..o..W....
 800b2fc:	ee030eab 6fc8bb9a 00000000 00000000     .......o........
	...
 800b358:	74000000 4345445b 735d3132 74696c70     ...t[DEC21]split
 800b368:	74696e69 6574735f 325f3270 00000031     init_step2_21...
 800b378:	00000000 fe100310 7ee9fdb7 67264732     ...........~2G&g
 800b388:	1c433273 10c05ae8 57b7f16f af04a1f8     s2C..Z..o..W....
 800b398:	ee030eab 6fc8bb9a 00000000 00000000     .......o........
	...
 800b3d8:	4f00eb10 5731b476 04599b22 ca03b7aa     ...Ov.1W".Y.....
 800b3e8:	0000002b 00000000 00000000 65000000     +..............e
 800b3f8:	455b7462 3232434e 6c75665d 32325f6c     bt[ENC22]full_22
	...
 800b418:	030b0000 938c8b10 cb6a3b9a ac4e05b0     .........;j...N.
 800b428:	5c856230 40bd1000 75d7da80 2a50afeb     0b.\...@...u..P*
 800b438:	f5dfb3f7 0000e383 00000000 00000000     ................
	...
 800b474:	6c100000 53878881 00fed68e ac6e9017     ...l...S......n.
 800b484:	003313a4 00000000 00000000 00000000     ..3.............
 800b494:	74626500 434e455b 735d3232 74696c70     .ebt[ENC22]split
 800b4a4:	6574735f 325f3070 00000032 00000000     _step0_22.......
 800b4b4:	00000000 8b100203 3b9a938c 05b0cb6a     ...........;j...
 800b4c4:	6230ac4e 10005c85 da8040bd afeb75d7     N.0b.\...@...u..
 800b4d4:	b3f72a50 e383f5df 00000000 00000000     P*..............
	...
 800b530:	74000000 434e455b 735d3232 74696c70     ...t[ENC22]split
 800b540:	6574735f 325f3170 00000032 00000000     _step1_22.......
 800b550:	00000000 8b100308 3b9a938c 05b0cb6a     ...........;j...
 800b560:	6230ac4e 10005c85 da8040bd afeb75d7     N.0b.\...@...u..
 800b570:	b3f72a50 e383f5df 00000000 00000000     P*..............
	...
 800b5b0:	88816c10 d68e5387 901700fe 13a4ac6e     .l...S......n...
 800b5c0:	00000033 00000000 00000000 65000000     3..............e
 800b5d0:	455b7462 3232434e 6c70735d 6e697469     bt[ENC22]splitin
 800b5e0:	735f7469 30706574 0032325f 00000000     it_step0_22.....
 800b5f0:	02010000 938c8b10 cb6a3b9a ac4e05b0     .........;j...N.
 800b600:	5c856230 40bd1000 75d7da80 2a50afeb     0b.\...@...u..P*
 800b610:	f5dfb3f7 0000e383 00000000 00000000     ................
	...
 800b66c:	455b7400 3232434e 6c70735d 6e697469     .t[ENC22]splitin
 800b67c:	735f7469 31706574 0032325f 00000000     it_step1_22.....
 800b68c:	02020000 938c8b10 cb6a3b9a ac4e05b0     .........;j...N.
 800b69c:	5c856230 40bd1000 75d7da80 2a50afeb     0b.\...@...u..P*
 800b6ac:	f5dfb3f7 0000e383 00000000 00000000     ................
	...
 800b708:	455b7400 3232434e 6c70735d 6e697469     .t[ENC22]splitin
 800b718:	735f7469 32706574 0032325f 00000000     it_step2_22.....
 800b728:	03080000 938c8b10 cb6a3b9a ac4e05b0     .........;j...N.
 800b738:	5c856230 40bd1000 75d7da80 2a50afeb     0b.\...@...u..P*
 800b748:	f5dfb3f7 0000e383 00000000 00000000     ................
	...
 800b784:	6c100000 53878881 00fed68e ac6e9017     ...l...S......n.
 800b794:	003313a4 00000000 00000000 00000000     ..3.............
 800b7a4:	74626500 4345445b 665d3232 5f6c6c75     .ebt[DEC22]full_
 800b7b4:	00003232 00000000 00000000 00000000     22..............
 800b7c4:	00000000 a5100315 70835317 b482eedd     .........S.p....
 800b7d4:	0879aa4d 106984b5 b02f4ea4 79589034     M.y...i..N/.4.Xy
 800b7e4:	0302d0fd a6b99232 00000000 00000000     ....2...........
	...
 800b824:	8b516510 877699ef 62f2f6c0 8811e580     .eQ...v....b....
 800b834:	00000073 00000000 00000000 65000000     s..............e
 800b844:	445b7462 32324345 6c70735d 735f7469     bt[DEC22]split_s
 800b854:	30706574 0032325f 00000000 00000000     tep0_22.........
 800b864:	02050000 5317a510 eedd7083 aa4db482     .......S.p....M.
 800b874:	84b50879 4ea41069 9034b02f d0fd7958     y...i..N/.4.Xy..
 800b884:	92320302 0000a6b9 00000000 00000000     ..2.............
	...
 800b8e0:	445b7400 32324345 6c70735d 735f7469     .t[DEC22]split_s
 800b8f0:	31706574 0032325f 00000000 00000000     tep1_22.........
 800b900:	03100000 5317a510 eedd7083 aa4db482     .......S.p....M.
 800b910:	84b50879 4ea41069 9034b02f d0fd7958     y...i..N/.4.Xy..
 800b920:	92320302 0000a6b9 00000000 00000000     ..2.............
	...
 800b95c:	65100000 99ef8b51 f6c08776 e58062f2     ...eQ...v....b..
 800b96c:	00738811 00000000 00000000 00000000     ..s.............
 800b97c:	74626500 4345445b 735d3232 74696c70     .ebt[DEC22]split
 800b98c:	74696e69 6574735f 325f3070 00000032     init_step0_22...
 800b99c:	00000000 a5100201 70835317 b482eedd     .........S.p....
 800b9ac:	0879aa4d 106984b5 b02f4ea4 79589034     M.y...i..N/.4.Xy
 800b9bc:	0302d0fd a6b99232 00000000 00000000     ....2...........
	...
 800ba18:	74000000 4345445b 735d3232 74696c70     ...t[DEC22]split
 800ba28:	74696e69 6574735f 325f3170 00000032     init_step1_22...
 800ba38:	00000000 a5100204 70835317 b482eedd     .........S.p....
 800ba48:	0879aa4d 106984b5 b02f4ea4 79589034     M.y...i..N/.4.Xy
 800ba58:	0302d0fd a6b99232 00000000 00000000     ....2...........
	...
 800bab4:	74000000 4345445b 735d3232 74696c70     ...t[DEC22]split
 800bac4:	74696e69 6574735f 325f3270 00000032     init_step2_22...
 800bad4:	00000000 a5100310 70835317 b482eedd     .........S.p....
 800bae4:	0879aa4d 106984b5 b02f4ea4 79589034     M.y...i..N/.4.Xy
 800baf4:	0302d0fd a6b99232 00000000 00000000     ....2...........
	...
 800bb34:	8b516510 877699ef 62f2f6c0 8811e580     .eQ...v....b....
 800bb44:	00000073 00000000 00000000 65000000     s..............e
 800bb54:	455b7462 3332434e 6c75665d 33325f6c     bt[ENC23]full_23
	...
 800bb74:	030b0000 fbbcc510 b13bd6ca 070cce65     ..........;.e...
 800bb84:	eed39564 844c1044 5d7be8e8 fc4b4b1b     d...D.L...{].KK.
 800bb94:	d614250f 00006f7b 00000000 00000000     .%..{o..........
	...
 800bbd0:	2f100000 f2037f4e c727e4fa 7aa383fd     .../N.....'....z
 800bbe0:	007abd25 00000000 00000000 00000000     %.z.............
 800bbf0:	74626500 434e455b 735d3332 74696c70     .ebt[ENC23]split
 800bc00:	6574735f 325f3070 00000033 00000000     _step0_23.......
 800bc10:	00000000 c5100203 d6cafbbc ce65b13b     ............;.e.
 800bc20:	9564070c 1044eed3 e8e8844c 4b1b5d7b     ..d...D.L...{].K
 800bc30:	250ffc4b 6f7bd614 00000000 00000000     K..%..{o........
	...
 800bc8c:	74000000 434e455b 735d3332 74696c70     ...t[ENC23]split
 800bc9c:	6574735f 325f3170 00000033 00000000     _step1_23.......
 800bcac:	00000000 c5100308 d6cafbbc ce65b13b     ............;.e.
 800bcbc:	9564070c 1044eed3 e8e8844c 4b1b5d7b     ..d...D.L...{].K
 800bccc:	250ffc4b 6f7bd614 00000000 00000000     K..%..{o........
	...
 800bd0c:	7f4e2f10 e4faf203 83fdc727 bd257aa3     ./N.....'....z%.
 800bd1c:	0000007a 00000000 00000000 65000000     z..............e
 800bd2c:	455b7462 3332434e 6c70735d 6e697469     bt[ENC23]splitin
 800bd3c:	735f7469 30706574 0033325f 00000000     it_step0_23.....
 800bd4c:	02010000 fbbcc510 b13bd6ca 070cce65     ..........;.e...
 800bd5c:	eed39564 844c1044 5d7be8e8 fc4b4b1b     d...D.L...{].KK.
 800bd6c:	d614250f 00006f7b 00000000 00000000     .%..{o..........
	...
 800bdc8:	455b7400 3332434e 6c70735d 6e697469     .t[ENC23]splitin
 800bdd8:	735f7469 31706574 0033325f 00000000     it_step1_23.....
 800bde8:	02020000 fbbcc510 b13bd6ca 070cce65     ..........;.e...
 800bdf8:	eed39564 844c1044 5d7be8e8 fc4b4b1b     d...D.L...{].KK.
 800be08:	d614250f 00006f7b 00000000 00000000     .%..{o..........
	...
 800be64:	455b7400 3332434e 6c70735d 6e697469     .t[ENC23]splitin
 800be74:	735f7469 32706574 0033325f 00000000     it_step2_23.....
 800be84:	03080000 fbbcc510 b13bd6ca 070cce65     ..........;.e...
 800be94:	eed39564 844c1044 5d7be8e8 fc4b4b1b     d...D.L...{].KK.
 800bea4:	d614250f 00006f7b 00000000 00000000     .%..{o..........
	...
 800bee0:	2f100000 f2037f4e c727e4fa 7aa383fd     .../N.....'....z
 800bef0:	007abd25 00000000 00000000 00000000     %.z.............
 800bf00:	74626500 4345445b 665d3332 5f6c6c75     .ebt[DEC23]full_
 800bf10:	00003332 00000000 00000000 00000000     23..............
 800bf20:	00000000 b0100315 5e516460 e55b6b67     ........`dQ^gk[.
 800bf30:	b021165b 1027b127 9b9fa54d c9fb0216     [.!.'.'.M.......
 800bf40:	88375023 7e321a15 00000000 00000000     #P7...2~........
	...
 800bf80:	bd546610 adbb29bb 3e84f240 69bb157d     .fT..)..@..>}..i
 800bf90:	00000009 00000000 00000000 65000000     ...............e
 800bfa0:	445b7462 33324345 6c70735d 735f7469     bt[DEC23]split_s
 800bfb0:	30706574 0033325f 00000000 00000000     tep0_23.........
 800bfc0:	02050000 6460b010 6b675e51 165be55b     ......`dQ^gk[.[.
 800bfd0:	b127b021 a54d1027 02169b9f 5023c9fb     !.'.'.M.......#P
 800bfe0:	1a158837 00007e32 00000000 00000000     7...2~..........
	...
 800c03c:	445b7400 33324345 6c70735d 735f7469     .t[DEC23]split_s
 800c04c:	31706574 0033325f 00000000 00000000     tep1_23.........
 800c05c:	03100000 6460b010 6b675e51 165be55b     ......`dQ^gk[.[.
 800c06c:	b127b021 a54d1027 02169b9f 5023c9fb     !.'.'.M.......#P
 800c07c:	1a158837 00007e32 00000000 00000000     7...2~..........
	...
 800c0b8:	66100000 29bbbd54 f240adbb 157d3e84     ...fT..)..@..>}.
 800c0c8:	000969bb 00000000 00000000 00000000     .i..............
 800c0d8:	74626500 4345445b 735d3332 74696c70     .ebt[DEC23]split
 800c0e8:	74696e69 6574735f 325f3070 00000033     init_step0_23...
 800c0f8:	00000000 b0100201 5e516460 e55b6b67     ........`dQ^gk[.
 800c108:	b021165b 1027b127 9b9fa54d c9fb0216     [.!.'.'.M.......
 800c118:	88375023 7e321a15 00000000 00000000     #P7...2~........
	...
 800c174:	74000000 4345445b 735d3332 74696c70     ...t[DEC23]split
 800c184:	74696e69 6574735f 325f3170 00000033     init_step1_23...
 800c194:	00000000 b0100204 5e516460 e55b6b67     ........`dQ^gk[.
 800c1a4:	b021165b 1027b127 9b9fa54d c9fb0216     [.!.'.'.M.......
 800c1b4:	88375023 7e321a15 00000000 00000000     #P7...2~........
	...
 800c210:	74000000 4345445b 735d3332 74696c70     ...t[DEC23]split
 800c220:	74696e69 6574735f 325f3270 00000033     init_step2_23...
 800c230:	00000000 b0100310 5e516460 e55b6b67     ........`dQ^gk[.
 800c240:	b021165b 1027b127 9b9fa54d c9fb0216     [.!.'.'.M.......
 800c250:	88375023 7e321a15 00000000 00000000     #P7...2~........
	...
 800c290:	bd546610 adbb29bb 3e84f240 69bb157d     .fT..)..@..>}..i
 800c2a0:	00000009 00000000 00000000 65000000     ...............e
 800c2b0:	455b7462 3432434e 6c75665d 34325f6c     bt[ENC24]full_24
	...
 800c2d0:	030b0000 87cf8310 c02ddf5a 018a96c6     ........Z.-.....
 800c2e0:	1695cc1d d28e10f6 4be7c928 38ef55b1     ........(..K.U.8
 800c2f0:	91988224 0000d312 00000000 00000000     $...............
	...
 800c32c:	09100000 05685995 038e922c 83936b87     .....Yh.,....k..
 800c33c:	007e2eca 00000000 00000000 00000000     ..~.............
 800c34c:	74626500 434e455b 735d3432 74696c70     .ebt[ENC24]split
 800c35c:	6574735f 325f3070 00000034 00000000     _step0_24.......
 800c36c:	00000000 83100203 df5a87cf 96c6c02d     ..........Z.-...
 800c37c:	cc1d018a 10f61695 c928d28e 55b14be7     ..........(..K.U
 800c38c:	822438ef d3129198 00000000 00000000     .8$.............
	...
 800c3e8:	74000000 434e455b 735d3432 74696c70     ...t[ENC24]split
 800c3f8:	6574735f 325f3170 00000034 00000000     _step1_24.......
 800c408:	00000000 83100308 df5a87cf 96c6c02d     ..........Z.-...
 800c418:	cc1d018a 10f61695 c928d28e 55b14be7     ..........(..K.U
 800c428:	822438ef d3129198 00000000 00000000     .8$.............
	...
 800c468:	59950910 922c0568 6b87038e 2eca8393     ...Yh.,....k....
 800c478:	0000007e 00000000 00000000 65000000     ~..............e
 800c488:	455b7462 3432434e 6c70735d 6e697469     bt[ENC24]splitin
 800c498:	735f7469 30706574 0034325f 00000000     it_step0_24.....
 800c4a8:	02010000 87cf8310 c02ddf5a 018a96c6     ........Z.-.....
 800c4b8:	1695cc1d d28e10f6 4be7c928 38ef55b1     ........(..K.U.8
 800c4c8:	91988224 0000d312 00000000 00000000     $...............
	...
 800c524:	455b7400 3432434e 6c70735d 6e697469     .t[ENC24]splitin
 800c534:	735f7469 31706574 0034325f 00000000     it_step1_24.....
 800c544:	02020000 87cf8310 c02ddf5a 018a96c6     ........Z.-.....
 800c554:	1695cc1d d28e10f6 4be7c928 38ef55b1     ........(..K.U.8
 800c564:	91988224 0000d312 00000000 00000000     $...............
	...
 800c5c0:	455b7400 3432434e 6c70735d 6e697469     .t[ENC24]splitin
 800c5d0:	735f7469 32706574 0034325f 00000000     it_step2_24.....
 800c5e0:	03080000 87cf8310 c02ddf5a 018a96c6     ........Z.-.....
 800c5f0:	1695cc1d d28e10f6 4be7c928 38ef55b1     ........(..K.U.8
 800c600:	91988224 0000d312 00000000 00000000     $...............
	...
 800c63c:	09100000 05685995 038e922c 83936b87     .....Yh.,....k..
 800c64c:	007e2eca 00000000 00000000 00000000     ..~.............
 800c65c:	74626500 4345445b 665d3432 5f6c6c75     .ebt[DEC24]full_
 800c66c:	00003432 00000000 00000000 00000000     24..............
 800c67c:	00000000 64100315 0bacf137 1d5c1fff     .......d7.....\.
 800c68c:	71f98c50 107e6b70 a24cced0 b5e7a2d9     P..qpk~...L.....
 800c69c:	0819d810 27ed7dd5 00000000 00000000     .....}.'........
	...
 800c6dc:	67490210 9be2a8d8 4d566451 1ac0d1df     ..Ig....QdVM....
 800c6ec:	000000cd 00000000 00000000 65000000     ...............e
 800c6fc:	445b7462 34324345 6c70735d 735f7469     bt[DEC24]split_s
 800c70c:	30706574 0034325f 00000000 00000000     tep0_24.........
 800c71c:	02050000 f1376410 1fff0bac 8c501d5c     .....d7.....\.P.
 800c72c:	6b7071f9 ced0107e a2d9a24c d810b5e7     .qpk~...L.......
 800c73c:	7dd50819 000027ed 00000000 00000000     ...}.'..........
	...
 800c798:	445b7400 34324345 6c70735d 735f7469     .t[DEC24]split_s
 800c7a8:	31706574 0034325f 00000000 00000000     tep1_24.........
 800c7b8:	03100000 f1376410 1fff0bac 8c501d5c     .....d7.....\.P.
 800c7c8:	6b7071f9 ced0107e a2d9a24c d810b5e7     .qpk~...L.......
 800c7d8:	7dd50819 000027ed 00000000 00000000     ...}.'..........
	...
 800c814:	02100000 a8d86749 64519be2 d1df4d56     ....Ig....QdVM..
 800c824:	00cd1ac0 00000000 00000000 00000000     ................
 800c834:	74626500 4345445b 735d3432 74696c70     .ebt[DEC24]split
 800c844:	74696e69 6574735f 325f3070 00000034     init_step0_24...
 800c854:	00000000 64100201 0bacf137 1d5c1fff     .......d7.....\.
 800c864:	71f98c50 107e6b70 a24cced0 b5e7a2d9     P..qpk~...L.....
 800c874:	0819d810 27ed7dd5 00000000 00000000     .....}.'........
	...
 800c8d0:	74000000 4345445b 735d3432 74696c70     ...t[DEC24]split
 800c8e0:	74696e69 6574735f 325f3170 00000034     init_step1_24...
 800c8f0:	00000000 64100204 0bacf137 1d5c1fff     .......d7.....\.
 800c900:	71f98c50 107e6b70 a24cced0 b5e7a2d9     P..qpk~...L.....
 800c910:	0819d810 27ed7dd5 00000000 00000000     .....}.'........
	...
 800c96c:	74000000 4345445b 735d3432 74696c70     ...t[DEC24]split
 800c97c:	74696e69 6574735f 325f3270 00000034     init_step2_24...
 800c98c:	00000000 64100310 0bacf137 1d5c1fff     .......d7.....\.
 800c99c:	71f98c50 107e6b70 a24cced0 b5e7a2d9     P..qpk~...L.....
 800c9ac:	0819d810 27ed7dd5 00000000 00000000     .....}.'........
	...
 800c9ec:	67490210 9be2a8d8 4d566451 1ac0d1df     ..Ig....QdVM....
 800c9fc:	000000cd 00000000 00000000 65000000     ...............e
 800ca0c:	455b7462 3532434e 6c75665d 35325f6c     bt[ENC25]full_25
	...
 800ca2c:	030b0000 abcc5f10 eaec927e a2741b0b     ....._..~.....t.
 800ca3c:	9a7fa236 b8d0105d 11d56b7d 2c91207f     6...]...}k... .,
 800ca4c:	a0f08212 0000a94a 00000000 00000000     ....J...........
	...
 800ca88:	56100000 683473bd 414babe5 8f1d282d     ...V.s4h..KA-(..
 800ca98:	00f82ce2 00000000 00000000 00000000     .,..............
 800caa8:	74626500 434e455b 735d3532 74696c70     .ebt[ENC25]split
 800cab8:	6574735f 325f3070 00000035 00000000     _step0_25.......
 800cac8:	00000000 5f100203 927eabcc 1b0beaec     ......._..~.....
 800cad8:	a236a274 105d9a7f 6b7db8d0 207f11d5     t.6...]...}k... 
 800cae8:	82122c91 a94aa0f0 00000000 00000000     .,....J.........
	...
 800cb44:	74000000 434e455b 735d3532 74696c70     ...t[ENC25]split
 800cb54:	6574735f 325f3170 00000035 00000000     _step1_25.......
 800cb64:	00000000 5f100308 927eabcc 1b0beaec     ......._..~.....
 800cb74:	a236a274 105d9a7f 6b7db8d0 207f11d5     t.6...]...}k... 
 800cb84:	82122c91 a94aa0f0 00000000 00000000     .,....J.........
	...
 800cbc4:	73bd5610 abe56834 282d414b 2ce28f1d     .V.s4h..KA-(...,
 800cbd4:	000000f8 00000000 00000000 65000000     ...............e
 800cbe4:	455b7462 3532434e 6c70735d 6e697469     bt[ENC25]splitin
 800cbf4:	735f7469 30706574 0035325f 00000000     it_step0_25.....
 800cc04:	02010000 abcc5f10 eaec927e a2741b0b     ....._..~.....t.
 800cc14:	9a7fa236 b8d0105d 11d56b7d 2c91207f     6...]...}k... .,
 800cc24:	a0f08212 0000a94a 00000000 00000000     ....J...........
	...
 800cc80:	455b7400 3532434e 6c70735d 6e697469     .t[ENC25]splitin
 800cc90:	735f7469 31706574 0035325f 00000000     it_step1_25.....
 800cca0:	02020000 abcc5f10 eaec927e a2741b0b     ....._..~.....t.
 800ccb0:	9a7fa236 b8d0105d 11d56b7d 2c91207f     6...]...}k... .,
 800ccc0:	a0f08212 0000a94a 00000000 00000000     ....J...........
	...
 800cd1c:	455b7400 3532434e 6c70735d 6e697469     .t[ENC25]splitin
 800cd2c:	735f7469 32706574 0035325f 00000000     it_step2_25.....
 800cd3c:	03080000 abcc5f10 eaec927e a2741b0b     ....._..~.....t.
 800cd4c:	9a7fa236 b8d0105d 11d56b7d 2c91207f     6...]...}k... .,
 800cd5c:	a0f08212 0000a94a 00000000 00000000     ....J...........
	...
 800cd98:	56100000 683473bd 414babe5 8f1d282d     ...V.s4h..KA-(..
 800cda8:	00f82ce2 00000000 00000000 00000000     .,..............
 800cdb8:	74626500 4345445b 665d3532 5f6c6c75     .ebt[DEC25]full_
 800cdc8:	00003532 00000000 00000000 00000000     25..............
 800cdd8:	00000000 20100315 64fbc814 ef7713f7     ....... ...d..w.
 800cde8:	31908d81 1072510b 622ba28c ab3e60e1     ...1.Qr...+b.`>.
 800cdf8:	c39432bb 04c38600 00000000 00000000     .2..............
	...
 800ce38:	a2503110 a0d9a2bf 7d5edfed 82b82c5f     .1P.......^}_,..
 800ce48:	000000b0 00000000 00000000 65000000     ...............e
 800ce58:	445b7462 35324345 6c70735d 735f7469     bt[DEC25]split_s
 800ce68:	30706574 0035325f 00000000 00000000     tep0_25.........
 800ce78:	02050000 c8142010 13f764fb 8d81ef77     ..... ...d..w...
 800ce88:	510b3190 a28c1072 60e1622b 32bbab3e     .1.Qr...+b.`>..2
 800ce98:	8600c394 000004c3 00000000 00000000     ................
	...
 800cef4:	445b7400 35324345 6c70735d 735f7469     .t[DEC25]split_s
 800cf04:	31706574 0035325f 00000000 00000000     tep1_25.........
 800cf14:	03100000 c8142010 13f764fb 8d81ef77     ..... ...d..w...
 800cf24:	510b3190 a28c1072 60e1622b 32bbab3e     .1.Qr...+b.`>..2
 800cf34:	8600c394 000004c3 00000000 00000000     ................
	...
 800cf70:	31100000 a2bfa250 dfeda0d9 2c5f7d5e     ...1P.......^}_,
 800cf80:	00b082b8 00000000 00000000 00000000     ................
 800cf90:	74626500 4345445b 735d3532 74696c70     .ebt[DEC25]split
 800cfa0:	74696e69 6574735f 325f3070 00000035     init_step0_25...
 800cfb0:	00000000 20100201 64fbc814 ef7713f7     ....... ...d..w.
 800cfc0:	31908d81 1072510b 622ba28c ab3e60e1     ...1.Qr...+b.`>.
 800cfd0:	c39432bb 04c38600 00000000 00000000     .2..............
	...
 800d02c:	74000000 4345445b 735d3532 74696c70     ...t[DEC25]split
 800d03c:	74696e69 6574735f 325f3170 00000035     init_step1_25...
 800d04c:	00000000 20100204 64fbc814 ef7713f7     ....... ...d..w.
 800d05c:	31908d81 1072510b 622ba28c ab3e60e1     ...1.Qr...+b.`>.
 800d06c:	c39432bb 04c38600 00000000 00000000     .2..............
	...
 800d0c8:	74000000 4345445b 735d3532 74696c70     ...t[DEC25]split
 800d0d8:	74696e69 6574735f 325f3270 00000035     init_step2_25...
 800d0e8:	00000000 20100310 64fbc814 ef7713f7     ....... ...d..w.
 800d0f8:	31908d81 1072510b 622ba28c ab3e60e1     ...1.Qr...+b.`>.
 800d108:	c39432bb 04c38600 00000000 00000000     .2..............
	...
 800d148:	a2503110 a0d9a2bf 7d5edfed 82b82c5f     .1P.......^}_,..
 800d158:	000000b0 00000000 00000000 65000000     ...............e
 800d168:	455b7462 3632434e 6c75665d 36325f6c     bt[ENC26]full_26
	...
 800d188:	030b0000 c6620f10 458b62c7 dd8f9e9e     ......b..b.E....
 800d198:	25177475 c4eb102e 240c7442 06f7df33     ut.%....Bt.$3...
 800d1a8:	c1abd933 0000155d 00000000 00000000     3...]...........
	...
 800d1e4:	3d100000 afdc4226 1dbb22b2 f397a0c3     ...=&B..."......
 800d1f4:	001caeed 00000000 00000000 00000000     ................
 800d204:	74626500 434e455b 735d3632 74696c70     .ebt[ENC26]split
 800d214:	6574735f 325f3070 00000036 00000000     _step0_26.......
 800d224:	00000000 0f100203 62c7c662 9e9e458b     ........b..b.E..
 800d234:	7475dd8f 102e2517 7442c4eb df33240c     ..ut.%....Bt.$3.
 800d244:	d93306f7 155dc1ab 00000000 00000000     ..3...].........
	...
 800d2a0:	74000000 434e455b 735d3632 74696c70     ...t[ENC26]split
 800d2b0:	6574735f 325f3170 00000036 00000000     _step1_26.......
 800d2c0:	00000000 0f100308 62c7c662 9e9e458b     ........b..b.E..
 800d2d0:	7475dd8f 102e2517 7442c4eb df33240c     ..ut.%....Bt.$3.
 800d2e0:	d93306f7 155dc1ab 00000000 00000000     ..3...].........
	...
 800d320:	42263d10 22b2afdc a0c31dbb aeedf397     .=&B..."........
 800d330:	0000001c 00000000 00000000 65000000     ...............e
 800d340:	455b7462 3632434e 6c70735d 6e697469     bt[ENC26]splitin
 800d350:	735f7469 30706574 0036325f 00000000     it_step0_26.....
 800d360:	02010000 c6620f10 458b62c7 dd8f9e9e     ......b..b.E....
 800d370:	25177475 c4eb102e 240c7442 06f7df33     ut.%....Bt.$3...
 800d380:	c1abd933 0000155d 00000000 00000000     3...]...........
	...
 800d3dc:	455b7400 3632434e 6c70735d 6e697469     .t[ENC26]splitin
 800d3ec:	735f7469 31706574 0036325f 00000000     it_step1_26.....
 800d3fc:	02020000 c6620f10 458b62c7 dd8f9e9e     ......b..b.E....
 800d40c:	25177475 c4eb102e 240c7442 06f7df33     ut.%....Bt.$3...
 800d41c:	c1abd933 0000155d 00000000 00000000     3...]...........
	...
 800d478:	455b7400 3632434e 6c70735d 6e697469     .t[ENC26]splitin
 800d488:	735f7469 32706574 0036325f 00000000     it_step2_26.....
 800d498:	03080000 c6620f10 458b62c7 dd8f9e9e     ......b..b.E....
 800d4a8:	25177475 c4eb102e 240c7442 06f7df33     ut.%....Bt.$3...
 800d4b8:	c1abd933 0000155d 00000000 00000000     3...]...........
	...
 800d4f4:	3d100000 afdc4226 1dbb22b2 f397a0c3     ...=&B..."......
 800d504:	001caeed 00000000 00000000 00000000     ................
 800d514:	74626500 4345445b 665d3632 5f6c6c75     .ebt[DEC26]full_
 800d524:	00003632 00000000 00000000 00000000     26..............
 800d534:	00000000 4e100315 950c69db 31abfa7d     .......N.i..}..1
 800d544:	2283b906 10bccb4d 8c3637b6 85f3c1b3     ..."M....76.....
 800d554:	76144668 5a5e73a4 00000000 00000000     hF.v.s^Z........
	...
 800d594:	98043d10 622af40c 6cc659be 71b3c094     .=....*b.Y.l...q
 800d5a4:	000000d4 00000000 00000000 65000000     ...............e
 800d5b4:	445b7462 36324345 6c70735d 735f7469     bt[DEC26]split_s
 800d5c4:	30706574 0036325f 00000000 00000000     tep0_26.........
 800d5d4:	02050000 69db4e10 fa7d950c b90631ab     .....N.i..}..1..
 800d5e4:	cb4d2283 37b610bc c1b38c36 466885f3     ."M....76.....hF
 800d5f4:	73a47614 00005a5e 00000000 00000000     .v.s^Z..........
	...
 800d650:	445b7400 36324345 6c70735d 735f7469     .t[DEC26]split_s
 800d660:	31706574 0036325f 00000000 00000000     tep1_26.........
 800d670:	03100000 69db4e10 fa7d950c b90631ab     .....N.i..}..1..
 800d680:	cb4d2283 37b610bc c1b38c36 466885f3     ."M....76.....hF
 800d690:	73a47614 00005a5e 00000000 00000000     .v.s^Z..........
	...
 800d6cc:	3d100000 f40c9804 59be622a c0946cc6     ...=....*b.Y.l..
 800d6dc:	00d471b3 00000000 00000000 00000000     .q..............
 800d6ec:	74626500 4345445b 735d3632 74696c70     .ebt[DEC26]split
 800d6fc:	74696e69 6574735f 325f3070 00000036     init_step0_26...
 800d70c:	00000000 4e100201 950c69db 31abfa7d     .......N.i..}..1
 800d71c:	2283b906 10bccb4d 8c3637b6 85f3c1b3     ..."M....76.....
 800d72c:	76144668 5a5e73a4 00000000 00000000     hF.v.s^Z........
	...
 800d788:	74000000 4345445b 735d3632 74696c70     ...t[DEC26]split
 800d798:	74696e69 6574735f 325f3170 00000036     init_step1_26...
 800d7a8:	00000000 4e100204 950c69db 31abfa7d     .......N.i..}..1
 800d7b8:	2283b906 10bccb4d 8c3637b6 85f3c1b3     ..."M....76.....
 800d7c8:	76144668 5a5e73a4 00000000 00000000     hF.v.s^Z........
	...
 800d824:	74000000 4345445b 735d3632 74696c70     ...t[DEC26]split
 800d834:	74696e69 6574735f 325f3270 00000036     init_step2_26...
 800d844:	00000000 4e100310 950c69db 31abfa7d     .......N.i..}..1
 800d854:	2283b906 10bccb4d 8c3637b6 85f3c1b3     ..."M....76.....
 800d864:	76144668 5a5e73a4 00000000 00000000     hF.v.s^Z........
	...
 800d8a4:	98043d10 622af40c 6cc659be 71b3c094     .=....*b.Y.l...q
 800d8b4:	000000d4 00000000 00000000 65000000     ...............e
 800d8c4:	455b7462 3732434e 6c75665d 37325f6c     bt[ENC27]full_27
	...
 800d8e4:	030b0000 3e3e7710 6512f20a 1ab55314     .....w>>...e.S..
 800d8f4:	d5ac6bf5 8aae105d ebcb1d93 98495941     .k..].......AYI.
 800d904:	b37c9ec3 0000dd1e 00000000 00000000     ..|.............
	...
 800d940:	15100000 6f8d8f95 a47b29f9 86da8f03     .......o.){.....
 800d950:	00a5a4c6 00000000 00000000 00000000     ................
 800d960:	74626500 434e455b 735d3732 74696c70     .ebt[ENC27]split
 800d970:	6574735f 325f3070 00000037 00000000     _step0_27.......
 800d980:	00000000 77100203 f20a3e3e 53146512     .......w>>...e.S
 800d990:	6bf51ab5 105dd5ac 1d938aae 5941ebcb     ...k..].......AY
 800d9a0:	9ec39849 dd1eb37c 00000000 00000000     I...|...........
	...
 800d9fc:	74000000 434e455b 735d3732 74696c70     ...t[ENC27]split
 800da0c:	6574735f 325f3170 00000037 00000000     _step1_27.......
 800da1c:	00000000 77100308 f20a3e3e 53146512     .......w>>...e.S
 800da2c:	6bf51ab5 105dd5ac 1d938aae 5941ebcb     ...k..].......AY
 800da3c:	9ec39849 dd1eb37c 00000000 00000000     I...|...........
	...
 800da7c:	8f951510 29f96f8d 8f03a47b a4c686da     .....o.){.......
 800da8c:	000000a5 00000000 00000000 65000000     ...............e
 800da9c:	455b7462 3732434e 6c70735d 6e697469     bt[ENC27]splitin
 800daac:	735f7469 30706574 0037325f 00000000     it_step0_27.....
 800dabc:	02010000 3e3e7710 6512f20a 1ab55314     .....w>>...e.S..
 800dacc:	d5ac6bf5 8aae105d ebcb1d93 98495941     .k..].......AYI.
 800dadc:	b37c9ec3 0000dd1e 00000000 00000000     ..|.............
	...
 800db38:	455b7400 3732434e 6c70735d 6e697469     .t[ENC27]splitin
 800db48:	735f7469 31706574 0037325f 00000000     it_step1_27.....
 800db58:	02020000 3e3e7710 6512f20a 1ab55314     .....w>>...e.S..
 800db68:	d5ac6bf5 8aae105d ebcb1d93 98495941     .k..].......AYI.
 800db78:	b37c9ec3 0000dd1e 00000000 00000000     ..|.............
	...
 800dbd4:	455b7400 3732434e 6c70735d 6e697469     .t[ENC27]splitin
 800dbe4:	735f7469 32706574 0037325f 00000000     it_step2_27.....
 800dbf4:	03080000 3e3e7710 6512f20a 1ab55314     .....w>>...e.S..
 800dc04:	d5ac6bf5 8aae105d ebcb1d93 98495941     .k..].......AYI.
 800dc14:	b37c9ec3 0000dd1e 00000000 00000000     ..|.............
	...
 800dc50:	15100000 6f8d8f95 a47b29f9 86da8f03     .......o.){.....
 800dc60:	00a5a4c6 00000000 00000000 00000000     ................
 800dc70:	74626500 4345445b 665d3732 5f6c6c75     .ebt[DEC27]full_
 800dc80:	00003732 00000000 00000000 00000000     27..............
 800dc90:	00000000 60100315 d5f115cd 6fb31a3e     .......`....>..o
 800dca0:	eab7c414 1002c66c de87a8d8 20d525ec     ....l........%. 
 800dcb0:	63ece186 2e273963 00000000 00000000     ...cc9'.........
	...
 800dcf0:	428a3c10 98c0d448 31a337b9 93867564     .<.BH....7.1du..
 800dd00:	00000071 00000000 00000000 65000000     q..............e
 800dd10:	445b7462 37324345 6c70735d 735f7469     bt[DEC27]split_s
 800dd20:	30706574 0037325f 00000000 00000000     tep0_27.........
 800dd30:	02050000 15cd6010 1a3ed5f1 c4146fb3     .....`....>..o..
 800dd40:	c66ceab7 a8d81002 25ecde87 e18620d5     ..l........%. ..
 800dd50:	396363ec 00002e27 00000000 00000000     .cc9'...........
	...
 800ddac:	445b7400 37324345 6c70735d 735f7469     .t[DEC27]split_s
 800ddbc:	31706574 0037325f 00000000 00000000     tep1_27.........
 800ddcc:	03100000 15cd6010 1a3ed5f1 c4146fb3     .....`....>..o..
 800dddc:	c66ceab7 a8d81002 25ecde87 e18620d5     ..l........%. ..
 800ddec:	396363ec 00002e27 00000000 00000000     .cc9'...........
	...
 800de28:	3c100000 d448428a 37b998c0 756431a3     ...<.BH....7.1du
 800de38:	00719386 00000000 00000000 00000000     ..q.............
 800de48:	74626500 4345445b 735d3732 74696c70     .ebt[DEC27]split
 800de58:	74696e69 6574735f 325f3070 00000037     init_step0_27...
 800de68:	00000000 60100201 d5f115cd 6fb31a3e     .......`....>..o
 800de78:	eab7c414 1002c66c de87a8d8 20d525ec     ....l........%. 
 800de88:	63ece186 2e273963 00000000 00000000     ...cc9'.........
	...
 800dee4:	74000000 4345445b 735d3732 74696c70     ...t[DEC27]split
 800def4:	74696e69 6574735f 325f3170 00000037     init_step1_27...
 800df04:	00000000 60100204 d5f115cd 6fb31a3e     .......`....>..o
 800df14:	eab7c414 1002c66c de87a8d8 20d525ec     ....l........%. 
 800df24:	63ece186 2e273963 00000000 00000000     ...cc9'.........
	...
 800df80:	74000000 4345445b 735d3732 74696c70     ...t[DEC27]split
 800df90:	74696e69 6574735f 325f3270 00000037     init_step2_27...
 800dfa0:	00000000 60100310 d5f115cd 6fb31a3e     .......`....>..o
 800dfb0:	eab7c414 1002c66c de87a8d8 20d525ec     ....l........%. 
 800dfc0:	63ece186 2e273963 00000000 00000000     ...cc9'.........
	...
 800e000:	428a3c10 98c0d448 31a337b9 93867564     .<.BH....7.1du..
 800e010:	00000071 00000000 00000000 65000000     q..............e
 800e020:	455b7462 3832434e 6c75665d 38325f6c     bt[ENC28]full_28
	...
 800e040:	030b0000 8c796010 47da0f67 75c678db     .....`y.g..G.x.u
 800e050:	f3e5e78a 34bc10e0 bed85977 fa9b1b97     .......4wY......
 800e060:	72cca1fa 0000f699 00000000 00000000     ...r............
	...
 800e09c:	80100000 e16c2c44 7163f11a eeea82c1     ....D,l...cq....
 800e0ac:	00d73625 00000000 00000000 00000000     %6..............
 800e0bc:	74626500 434e455b 735d3832 74696c70     .ebt[ENC28]split
 800e0cc:	6574735f 325f3070 00000038 00000000     _step0_28.......
 800e0dc:	00000000 60100203 0f678c79 78db47da     .......`y.g..G.x
 800e0ec:	e78a75c6 10e0f3e5 597734bc 1b97bed8     .u.......4wY....
 800e0fc:	a1fafa9b f69972cc 00000000 00000000     .....r..........
	...
 800e158:	74000000 434e455b 735d3832 74696c70     ...t[ENC28]split
 800e168:	6574735f 325f3170 00000038 00000000     _step1_28.......
 800e178:	00000000 60100308 0f678c79 78db47da     .......`y.g..G.x
 800e188:	e78a75c6 10e0f3e5 597734bc 1b97bed8     .u.......4wY....
 800e198:	a1fafa9b f69972cc 00000000 00000000     .....r..........
	...
 800e1d8:	2c448010 f11ae16c 82c17163 3625eeea     ..D,l...cq....%6
 800e1e8:	000000d7 00000000 00000000 65000000     ...............e
 800e1f8:	455b7462 3832434e 6c70735d 6e697469     bt[ENC28]splitin
 800e208:	735f7469 30706574 0038325f 00000000     it_step0_28.....
 800e218:	02010000 8c796010 47da0f67 75c678db     .....`y.g..G.x.u
 800e228:	f3e5e78a 34bc10e0 bed85977 fa9b1b97     .......4wY......
 800e238:	72cca1fa 0000f699 00000000 00000000     ...r............
	...
 800e294:	455b7400 3832434e 6c70735d 6e697469     .t[ENC28]splitin
 800e2a4:	735f7469 31706574 0038325f 00000000     it_step1_28.....
 800e2b4:	02020000 8c796010 47da0f67 75c678db     .....`y.g..G.x.u
 800e2c4:	f3e5e78a 34bc10e0 bed85977 fa9b1b97     .......4wY......
 800e2d4:	72cca1fa 0000f699 00000000 00000000     ...r............
	...
 800e330:	455b7400 3832434e 6c70735d 6e697469     .t[ENC28]splitin
 800e340:	735f7469 32706574 0038325f 00000000     it_step2_28.....
 800e350:	03080000 8c796010 47da0f67 75c678db     .....`y.g..G.x.u
 800e360:	f3e5e78a 34bc10e0 bed85977 fa9b1b97     .......4wY......
 800e370:	72cca1fa 0000f699 00000000 00000000     ...r............
	...
 800e3ac:	80100000 e16c2c44 7163f11a eeea82c1     ....D,l...cq....
 800e3bc:	00d73625 00000000 00000000 00000000     %6..............
 800e3cc:	74626500 4345445b 665d3832 5f6c6c75     .ebt[DEC28]full_
 800e3dc:	00003832 00000000 00000000 00000000     28..............
 800e3ec:	00000000 81100315 30a8bd82 2c866a7d     ...........0}j.,
 800e3fc:	82b28e5e 1060cbbe c1884c96 18240af7     ^.....`..L....$.
 800e40c:	cf698b5f 95a71032 00000000 00000000     _.i.2...........
	...
 800e44c:	39ed4c10 80724d6f 826aa0fc bda5078f     .L.9oMr...j.....
 800e45c:	00000006 00000000 00000000 65000000     ...............e
 800e46c:	445b7462 38324345 6c70735d 735f7469     bt[DEC28]split_s
 800e47c:	30706574 0038325f 00000000 00000000     tep0_28.........
 800e48c:	02050000 bd828110 6a7d30a8 8e5e2c86     .........0}j.,^.
 800e49c:	cbbe82b2 4c961060 0af7c188 8b5f1824     ....`..L....$._.
 800e4ac:	1032cf69 000095a7 00000000 00000000     i.2.............
	...
 800e508:	445b7400 38324345 6c70735d 735f7469     .t[DEC28]split_s
 800e518:	31706574 0038325f 00000000 00000000     tep1_28.........
 800e528:	03100000 bd828110 6a7d30a8 8e5e2c86     .........0}j.,^.
 800e538:	cbbe82b2 4c961060 0af7c188 8b5f1824     ....`..L....$._.
 800e548:	1032cf69 000095a7 00000000 00000000     i.2.............
	...
 800e584:	4c100000 4d6f39ed a0fc8072 078f826a     ...L.9oMr...j...
 800e594:	0006bda5 00000000 00000000 00000000     ................
 800e5a4:	74626500 4345445b 735d3832 74696c70     .ebt[DEC28]split
 800e5b4:	74696e69 6574735f 325f3070 00000038     init_step0_28...
 800e5c4:	00000000 81100201 30a8bd82 2c866a7d     ...........0}j.,
 800e5d4:	82b28e5e 1060cbbe c1884c96 18240af7     ^.....`..L....$.
 800e5e4:	cf698b5f 95a71032 00000000 00000000     _.i.2...........
	...
 800e640:	74000000 4345445b 735d3832 74696c70     ...t[DEC28]split
 800e650:	74696e69 6574735f 325f3170 00000038     init_step1_28...
 800e660:	00000000 81100204 30a8bd82 2c866a7d     ...........0}j.,
 800e670:	82b28e5e 1060cbbe c1884c96 18240af7     ^.....`..L....$.
 800e680:	cf698b5f 95a71032 00000000 00000000     _.i.2...........
	...
 800e6dc:	74000000 4345445b 735d3832 74696c70     ...t[DEC28]split
 800e6ec:	74696e69 6574735f 325f3270 00000038     init_step2_28...
 800e6fc:	00000000 81100310 30a8bd82 2c866a7d     ...........0}j.,
 800e70c:	82b28e5e 1060cbbe c1884c96 18240af7     ^.....`..L....$.
 800e71c:	cf698b5f 95a71032 00000000 00000000     _.i.2...........
	...
 800e75c:	39ed4c10 80724d6f 826aa0fc bda5078f     .L.9oMr...j.....
 800e76c:	00000006 00000000 00000000 65000000     ...............e
 800e77c:	455b7462 3932434e 6c75665d 39325f6c     bt[ENC29]full_29
	...
 800e79c:	030b0000 3363a310 62eccc71 124174a0     ......c3q..b.tA.
 800e7ac:	e9474a62 126410b5 89f738fa b2af6fe4     bJG...d..8...o..
 800e7bc:	1ccbfa80 000086f7 00000000 00000000     ................
	...
 800e7f8:	a9100000 bb07740e 4eb4e036 768b4db1     .....t..6..N.M.v
 800e808:	000d2ad3 00000000 00000000 00000000     .*..............
 800e818:	74626500 434e455b 735d3932 74696c70     .ebt[ENC29]split
 800e828:	6574735f 325f3070 00000039 00000000     _step0_29.......
 800e838:	00000000 a3100203 cc713363 74a062ec     ........c3q..b.t
 800e848:	4a621241 10b5e947 38fa1264 6fe489f7     A.bJG...d..8...o
 800e858:	fa80b2af 86f71ccb 00000000 00000000     ................
	...
 800e8b4:	74000000 434e455b 735d3932 74696c70     ...t[ENC29]split
 800e8c4:	6574735f 325f3170 00000039 00000000     _step1_29.......
 800e8d4:	00000000 a3100308 cc713363 74a062ec     ........c3q..b.t
 800e8e4:	4a621241 10b5e947 38fa1264 6fe489f7     A.bJG...d..8...o
 800e8f4:	fa80b2af 86f71ccb 00000000 00000000     ................
	...
 800e934:	740ea910 e036bb07 4db14eb4 2ad3768b     ...t..6..N.M.v.*
 800e944:	0000000d 00000000 00000000 65000000     ...............e
 800e954:	455b7462 3932434e 6c70735d 6e697469     bt[ENC29]splitin
 800e964:	735f7469 30706574 0039325f 00000000     it_step0_29.....
 800e974:	02010000 3363a310 62eccc71 124174a0     ......c3q..b.tA.
 800e984:	e9474a62 126410b5 89f738fa b2af6fe4     bJG...d..8...o..
 800e994:	1ccbfa80 000086f7 00000000 00000000     ................
	...
 800e9f0:	455b7400 3932434e 6c70735d 6e697469     .t[ENC29]splitin
 800ea00:	735f7469 31706574 0039325f 00000000     it_step1_29.....
 800ea10:	02020000 3363a310 62eccc71 124174a0     ......c3q..b.tA.
 800ea20:	e9474a62 126410b5 89f738fa b2af6fe4     bJG...d..8...o..
 800ea30:	1ccbfa80 000086f7 00000000 00000000     ................
	...
 800ea8c:	455b7400 3932434e 6c70735d 6e697469     .t[ENC29]splitin
 800ea9c:	735f7469 32706574 0039325f 00000000     it_step2_29.....
 800eaac:	03080000 3363a310 62eccc71 124174a0     ......c3q..b.tA.
 800eabc:	e9474a62 126410b5 89f738fa b2af6fe4     bJG...d..8...o..
 800eacc:	1ccbfa80 000086f7 00000000 00000000     ................
	...
 800eb08:	a9100000 bb07740e 4eb4e036 768b4db1     .....t..6..N.M.v
 800eb18:	000d2ad3 00000000 00000000 00000000     .*..............
 800eb28:	74626500 4345445b 665d3932 5f6c6c75     .ebt[DEC29]full_
 800eb38:	00003932 00000000 00000000 00000000     29..............
 800eb48:	00000000 ef100315 b8d2f226 d07a215b     ........&...[!z.
 800eb58:	d6b284c7 10c6b62d 4faa71ad 374a0de4     ....-....q.O..J7
 800eb68:	6d31e39a 4e9804f1 00000000 00000000     ..1m...N........
	...
 800eba8:	5590f010 ad011b55 5fb58aa0 a8009346     ...UU......_F...
 800ebb8:	000000c0 00000000 00000000 65000000     ...............e
 800ebc8:	445b7462 39324345 6c70735d 735f7469     bt[DEC29]split_s
 800ebd8:	30706574 0039325f 00000000 00000000     tep0_29.........
 800ebe8:	02050000 f226ef10 215bb8d2 84c7d07a     ......&...[!z...
 800ebf8:	b62dd6b2 71ad10c6 0de44faa e39a374a     ..-....q.O..J7..
 800ec08:	04f16d31 00004e98 00000000 00000000     1m...N..........
	...
 800ec64:	445b7400 39324345 6c70735d 735f7469     .t[DEC29]split_s
 800ec74:	31706574 0039325f 00000000 00000000     tep1_29.........
 800ec84:	03100000 f226ef10 215bb8d2 84c7d07a     ......&...[!z...
 800ec94:	b62dd6b2 71ad10c6 0de44faa e39a374a     ..-....q.O..J7..
 800eca4:	04f16d31 00004e98 00000000 00000000     1m...N..........
	...
 800ece0:	f0100000 1b555590 8aa0ad01 93465fb5     .....UU......_F.
 800ecf0:	00c0a800 00000000 00000000 00000000     ................
 800ed00:	74626500 4345445b 735d3932 74696c70     .ebt[DEC29]split
 800ed10:	74696e69 6574735f 325f3070 00000039     init_step0_29...
 800ed20:	00000000 ef100201 b8d2f226 d07a215b     ........&...[!z.
 800ed30:	d6b284c7 10c6b62d 4faa71ad 374a0de4     ....-....q.O..J7
 800ed40:	6d31e39a 4e9804f1 00000000 00000000     ..1m...N........
	...
 800ed9c:	74000000 4345445b 735d3932 74696c70     ...t[DEC29]split
 800edac:	74696e69 6574735f 325f3170 00000039     init_step1_29...
 800edbc:	00000000 ef100204 b8d2f226 d07a215b     ........&...[!z.
 800edcc:	d6b284c7 10c6b62d 4faa71ad 374a0de4     ....-....q.O..J7
 800eddc:	6d31e39a 4e9804f1 00000000 00000000     ..1m...N........
	...
 800ee38:	74000000 4345445b 735d3932 74696c70     ...t[DEC29]split
 800ee48:	74696e69 6574735f 325f3270 00000039     init_step2_29...
 800ee58:	00000000 ef100310 b8d2f226 d07a215b     ........&...[!z.
 800ee68:	d6b284c7 10c6b62d 4faa71ad 374a0de4     ....-....q.O..J7
 800ee78:	6d31e39a 4e9804f1 00000000 00000000     ..1m...N........
	...
 800eeb8:	5590f010 ad011b55 5fb58aa0 a8009346     ...UU......_F...
 800eec8:	000000c0 00000000 00000000 65000000     ...............e
 800eed8:	455b7462 3033434e 6c75665d 30335f6c     bt[ENC30]full_30
	...
 800eef8:	030b0000 34dc7f10 4bd81826 7ff83400     .......4&..K.4..
 800ef08:	75241768 cdf51080 fd79e31f 7220af93     h.$u......y... r
 800ef18:	0bb8497a 00005848 00000000 00000000     zI..HX..........
	...
 800ef54:	f0100000 f71ef4bf 2def31ac b845ae09     .........1.-..E.
 800ef64:	002f1386 00000000 00000000 00000000     ../.............
 800ef74:	74626500 434e455b 735d3033 74696c70     .ebt[ENC30]split
 800ef84:	6574735f 335f3070 00000030 00000000     _step0_30.......
 800ef94:	00000000 7f100203 182634dc 34004bd8     .........4&..K.4
 800efa4:	17687ff8 10807524 e31fcdf5 af93fd79     ..h.$u......y...
 800efb4:	497a7220 58480bb8 00000000 00000000      rzI..HX........
	...
 800f010:	74000000 434e455b 735d3033 74696c70     ...t[ENC30]split
 800f020:	6574735f 335f3170 00000030 00000000     _step1_30.......
 800f030:	00000000 7f100308 182634dc 34004bd8     .........4&..K.4
 800f040:	17687ff8 10807524 e31fcdf5 af93fd79     ..h.$u......y...
 800f050:	497a7220 58480bb8 00000000 00000000      rzI..HX........
	...
 800f090:	f4bff010 31acf71e ae092def 1386b845     .......1.-..E...
 800f0a0:	0000002f 00000000 00000000 65000000     /..............e
 800f0b0:	455b7462 3033434e 6c70735d 6e697469     bt[ENC30]splitin
 800f0c0:	735f7469 30706574 0030335f 00000000     it_step0_30.....
 800f0d0:	02010000 34dc7f10 4bd81826 7ff83400     .......4&..K.4..
 800f0e0:	75241768 cdf51080 fd79e31f 7220af93     h.$u......y... r
 800f0f0:	0bb8497a 00005848 00000000 00000000     zI..HX..........
	...
 800f14c:	455b7400 3033434e 6c70735d 6e697469     .t[ENC30]splitin
 800f15c:	735f7469 31706574 0030335f 00000000     it_step1_30.....
 800f16c:	02020000 34dc7f10 4bd81826 7ff83400     .......4&..K.4..
 800f17c:	75241768 cdf51080 fd79e31f 7220af93     h.$u......y... r
 800f18c:	0bb8497a 00005848 00000000 00000000     zI..HX..........
	...
 800f1e8:	455b7400 3033434e 6c70735d 6e697469     .t[ENC30]splitin
 800f1f8:	735f7469 32706574 0030335f 00000000     it_step2_30.....
 800f208:	03080000 34dc7f10 4bd81826 7ff83400     .......4&..K.4..
 800f218:	75241768 cdf51080 fd79e31f 7220af93     h.$u......y... r
 800f228:	0bb8497a 00005848 00000000 00000000     zI..HX..........
	...
 800f264:	f0100000 f71ef4bf 2def31ac b845ae09     .........1.-..E.
 800f274:	002f1386 00000000 00000000 00000000     ../.............
 800f284:	74626500 4345445b 665d3033 5f6c6c75     .ebt[DEC30]full_
 800f294:	00003033 00000000 00000000 00000000     30..............
 800f2a4:	00000000 69100315 92b2a568 0e2742b8     .......ih....B'.
 800f2b4:	8e1089a7 10d8a567 c0a21fa0 9c17f820     ....g....... ...
 800f2c4:	b51b046d f4543c43 00000000 00000000     m...C<T.........
	...
 800f304:	768bc610 ffa69828 76c048c9 426fc0db     ...v(....H.v..oB
 800f314:	00000051 00000000 00000000 65000000     Q..............e
 800f324:	445b7462 30334345 6c70735d 735f7469     bt[DEC30]split_s
 800f334:	30706574 0030335f 00000000 00000000     tep0_30.........
 800f344:	02050000 a5686910 42b892b2 89a70e27     .....ih....B'...
 800f354:	a5678e10 1fa010d8 f820c0a2 046d9c17     ..g....... ...m.
 800f364:	3c43b51b 0000f454 00000000 00000000     ..C<T...........
	...
 800f3c0:	445b7400 30334345 6c70735d 735f7469     .t[DEC30]split_s
 800f3d0:	31706574 0030335f 00000000 00000000     tep1_30.........
 800f3e0:	03100000 a5686910 42b892b2 89a70e27     .....ih....B'...
 800f3f0:	a5678e10 1fa010d8 f820c0a2 046d9c17     ..g....... ...m.
 800f400:	3c43b51b 0000f454 00000000 00000000     ..C<T...........
	...
 800f43c:	c6100000 9828768b 48c9ffa6 c0db76c0     .....v(....H.v..
 800f44c:	0051426f 00000000 00000000 00000000     oBQ.............
 800f45c:	74626500 4345445b 735d3033 74696c70     .ebt[DEC30]split
 800f46c:	74696e69 6574735f 335f3070 00000030     init_step0_30...
 800f47c:	00000000 69100201 92b2a568 0e2742b8     .......ih....B'.
 800f48c:	8e1089a7 10d8a567 c0a21fa0 9c17f820     ....g....... ...
 800f49c:	b51b046d f4543c43 00000000 00000000     m...C<T.........
	...
 800f4f8:	74000000 4345445b 735d3033 74696c70     ...t[DEC30]split
 800f508:	74696e69 6574735f 335f3170 00000030     init_step1_30...
 800f518:	00000000 69100204 92b2a568 0e2742b8     .......ih....B'.
 800f528:	8e1089a7 10d8a567 c0a21fa0 9c17f820     ....g....... ...
 800f538:	b51b046d f4543c43 00000000 00000000     m...C<T.........
	...
 800f594:	74000000 4345445b 735d3033 74696c70     ...t[DEC30]split
 800f5a4:	74696e69 6574735f 335f3270 00000030     init_step2_30...
 800f5b4:	00000000 69100310 92b2a568 0e2742b8     .......ih....B'.
 800f5c4:	8e1089a7 10d8a567 c0a21fa0 9c17f820     ....g....... ...
 800f5d4:	b51b046d f4543c43 00000000 00000000     m...C<T.........
	...
 800f614:	768bc610 ffa69828 76c048c9 426fc0db     ...v(....H.v..oB
 800f624:	00000051 00000000 00000000 65000000     Q..............e
 800f634:	455b7462 3133434e 6c75665d 31335f6c     bt[ENC31]full_31
	...
 800f654:	030b0000 87060d10 e9ccb478 815c4c3c     ........x...<L\.
 800f664:	80b48933 ede810ae 2221e1de 867611f3     3.........!"..v.
 800f674:	cb361b6a 0000c4dd 00000000 00000000     j.6.............
	...
 800f6b0:	35100000 ba819e9d 09fb144f b207479c     ...5....O....G..
 800f6c0:	00e7f7a8 00000000 00000000 00000000     ................
 800f6d0:	74626500 434e455b 735d3133 74696c70     .ebt[ENC31]split
 800f6e0:	6574735f 335f3070 00000031 00000000     _step0_31.......
 800f6f0:	00000000 0d100203 b4788706 4c3ce9cc     ..........x...<L
 800f700:	8933815c 10ae80b4 e1deede8 11f32221     \.3.........!"..
 800f710:	1b6a8676 c4ddcb36 00000000 00000000     v.j.6...........
	...
 800f76c:	74000000 434e455b 735d3133 74696c70     ...t[ENC31]split
 800f77c:	6574735f 335f3170 00000031 00000000     _step1_31.......
 800f78c:	00000000 0d100308 b4788706 4c3ce9cc     ..........x...<L
 800f79c:	8933815c 10ae80b4 e1deede8 11f32221     \.3.........!"..
 800f7ac:	1b6a8676 c4ddcb36 00000000 00000000     v.j.6...........
	...
 800f7ec:	9e9d3510 144fba81 479c09fb f7a8b207     .5....O....G....
 800f7fc:	000000e7 00000000 00000000 65000000     ...............e
 800f80c:	455b7462 3133434e 6c70735d 6e697469     bt[ENC31]splitin
 800f81c:	735f7469 30706574 0031335f 00000000     it_step0_31.....
 800f82c:	02010000 87060d10 e9ccb478 815c4c3c     ........x...<L\.
 800f83c:	80b48933 ede810ae 2221e1de 867611f3     3.........!"..v.
 800f84c:	cb361b6a 0000c4dd 00000000 00000000     j.6.............
	...
 800f8a8:	455b7400 3133434e 6c70735d 6e697469     .t[ENC31]splitin
 800f8b8:	735f7469 31706574 0031335f 00000000     it_step1_31.....
 800f8c8:	02020000 87060d10 e9ccb478 815c4c3c     ........x...<L\.
 800f8d8:	80b48933 ede810ae 2221e1de 867611f3     3.........!"..v.
 800f8e8:	cb361b6a 0000c4dd 00000000 00000000     j.6.............
	...
 800f944:	455b7400 3133434e 6c70735d 6e697469     .t[ENC31]splitin
 800f954:	735f7469 32706574 0031335f 00000000     it_step2_31.....
 800f964:	03080000 87060d10 e9ccb478 815c4c3c     ........x...<L\.
 800f974:	80b48933 ede810ae 2221e1de 867611f3     3.........!"..v.
 800f984:	cb361b6a 0000c4dd 00000000 00000000     j.6.............
	...
 800f9c0:	35100000 ba819e9d 09fb144f b207479c     ...5....O....G..
 800f9d0:	00e7f7a8 00000000 00000000 00000000     ................
 800f9e0:	74626500 4345445b 665d3133 5f6c6c75     .ebt[DEC31]full_
 800f9f0:	00003133 00000000 00000000 00000000     31..............
 800fa00:	00000000 cc100315 bc2821f3 fd19b73f     .........!(.?...
 800fa10:	1e4c2fcb 10a69125 1fe7b1c9 d99e3ae0     ./L.%........:..
 800fa20:	c15b611f c70c2e48 00000000 00000000     .a[.H...........
	...
 800fa60:	90eb2510 c6523297 5df1c652 39301fae     .%...2R.R..]..09
 800fa70:	0000004a 00000000 00000000 65000000     J..............e
 800fa80:	445b7462 31334345 6c70735d 735f7469     bt[DEC31]split_s
 800fa90:	30706574 0031335f 00000000 00000000     tep0_31.........
 800faa0:	02050000 21f3cc10 b73fbc28 2fcbfd19     .......!(.?..../
 800fab0:	91251e4c b1c910a6 3ae01fe7 611fd99e     L.%........:...a
 800fac0:	2e48c15b 0000c70c 00000000 00000000     [.H.............
	...
 800fb1c:	445b7400 31334345 6c70735d 735f7469     .t[DEC31]split_s
 800fb2c:	31706574 0031335f 00000000 00000000     tep1_31.........
 800fb3c:	03100000 21f3cc10 b73fbc28 2fcbfd19     .......!(.?..../
 800fb4c:	91251e4c b1c910a6 3ae01fe7 611fd99e     L.%........:...a
 800fb5c:	2e48c15b 0000c70c 00000000 00000000     [.H.............
	...
 800fb98:	25100000 329790eb c652c652 1fae5df1     ...%...2R.R..]..
 800fba8:	004a3930 00000000 00000000 00000000     09J.............
 800fbb8:	74626500 4345445b 735d3133 74696c70     .ebt[DEC31]split
 800fbc8:	74696e69 6574735f 335f3070 00000031     init_step0_31...
 800fbd8:	00000000 cc100201 bc2821f3 fd19b73f     .........!(.?...
 800fbe8:	1e4c2fcb 10a69125 1fe7b1c9 d99e3ae0     ./L.%........:..
 800fbf8:	c15b611f c70c2e48 00000000 00000000     .a[.H...........
	...
 800fc54:	74000000 4345445b 735d3133 74696c70     ...t[DEC31]split
 800fc64:	74696e69 6574735f 335f3170 00000031     init_step1_31...
 800fc74:	00000000 cc100204 bc2821f3 fd19b73f     .........!(.?...
 800fc84:	1e4c2fcb 10a69125 1fe7b1c9 d99e3ae0     ./L.%........:..
 800fc94:	c15b611f c70c2e48 00000000 00000000     .a[.H...........
	...
 800fcf0:	74000000 4345445b 735d3133 74696c70     ...t[DEC31]split
 800fd00:	74696e69 6574735f 335f3270 00000031     init_step2_31...
 800fd10:	00000000 cc100310 bc2821f3 fd19b73f     .........!(.?...
 800fd20:	1e4c2fcb 10a69125 1fe7b1c9 d99e3ae0     ./L.%........:..
 800fd30:	c15b611f c70c2e48 00000000 00000000     .a[.H...........
	...
 800fd70:	90eb2510 c6523297 5df1c652 39301fae     .%...2R.R..]..09
 800fd80:	0000004a 00000000 00000000 65000000     J..............e
 800fd90:	455b7462 3233434e 6c75665d 32335f6c     bt[ENC32]full_32
	...
 800fdb0:	030b0000 5f8ffd10 faf85276 b43f49b3     ......._vR...I?.
 800fdc0:	2ea59840 d9da10da 72a14b2f 2360458a     @......./K.r.E`#
 800fdd0:	c486e89f 0000d2de 00000000 00000000     ................
	...
 800fe0c:	4a100000 3760e596 6e38b53b 27b7a1c5     ...J..`7;.8n...'
 800fe1c:	00f74742 00000000 00000000 00000000     BG..............
 800fe2c:	74626500 434e455b 735d3233 74696c70     .ebt[ENC32]split
 800fe3c:	6574735f 335f3070 00000032 00000000     _step0_32.......
 800fe4c:	00000000 fd100203 52765f8f 49b3faf8     ........._vR...I
 800fe5c:	9840b43f 10da2ea5 4b2fd9da 458a72a1     ?.@......./K.r.E
 800fe6c:	e89f2360 d2dec486 00000000 00000000     `#..............
	...
 800fec8:	74000000 434e455b 735d3233 74696c70     ...t[ENC32]split
 800fed8:	6574735f 335f3170 00000032 00000000     _step1_32.......
 800fee8:	00000000 fd100308 52765f8f 49b3faf8     ........._vR...I
 800fef8:	9840b43f 10da2ea5 4b2fd9da 458a72a1     ?.@......./K.r.E
 800ff08:	e89f2360 d2dec486 00000000 00000000     `#..............
	...
 800ff48:	e5964a10 b53b3760 a1c56e38 474227b7     .J..`7;.8n...'BG
 800ff58:	000000f7 00000000 00000000 65000000     ...............e
 800ff68:	455b7462 3233434e 6c70735d 6e697469     bt[ENC32]splitin
 800ff78:	735f7469 30706574 0032335f 00000000     it_step0_32.....
 800ff88:	02010000 5f8ffd10 faf85276 b43f49b3     ......._vR...I?.
 800ff98:	2ea59840 d9da10da 72a14b2f 2360458a     @......./K.r.E`#
 800ffa8:	c486e89f 0000d2de 00000000 00000000     ................
	...
 8010004:	455b7400 3233434e 6c70735d 6e697469     .t[ENC32]splitin
 8010014:	735f7469 31706574 0032335f 00000000     it_step1_32.....
 8010024:	02020000 5f8ffd10 faf85276 b43f49b3     ......._vR...I?.
 8010034:	2ea59840 d9da10da 72a14b2f 2360458a     @......./K.r.E`#
 8010044:	c486e89f 0000d2de 00000000 00000000     ................
	...
 80100a0:	455b7400 3233434e 6c70735d 6e697469     .t[ENC32]splitin
 80100b0:	735f7469 32706574 0032335f 00000000     it_step2_32.....
 80100c0:	03080000 5f8ffd10 faf85276 b43f49b3     ......._vR...I?.
 80100d0:	2ea59840 d9da10da 72a14b2f 2360458a     @......./K.r.E`#
 80100e0:	c486e89f 0000d2de 00000000 00000000     ................
	...
 801011c:	4a100000 3760e596 6e38b53b 27b7a1c5     ...J..`7;.8n...'
 801012c:	00f74742 00000000 00000000 00000000     BG..............
 801013c:	74626500 4345445b 665d3233 5f6c6c75     .ebt[DEC32]full_
 801014c:	00003233 00000000 00000000 00000000     32..............
 801015c:	00000000 08100315 a1ee96c0 545e182e     ..............^T
 801016c:	fb95feb5 10e0457c 6408e612 956a313b     ....|E.....d;1j.
 801017c:	fd695dd5 9e3681d0 00000000 00000000     .]i...6.........
	...
 80101bc:	f5e89c10 4c2e4097 d37dfcf8 3942ac6e     .....@.L..}.n.B9
 80101cc:	00000040 00000000 00000000 65000000     @..............e
 80101dc:	445b7462 32334345 6c70735d 735f7469     bt[DEC32]split_s
 80101ec:	30706574 0032335f 00000000 00000000     tep0_32.........
 80101fc:	02050000 96c00810 182ea1ee feb5545e     ............^T..
 801020c:	457cfb95 e61210e0 313b6408 5dd5956a     ..|E.....d;1j..]
 801021c:	81d0fd69 00009e36 00000000 00000000     i...6...........
	...
 8010278:	445b7400 32334345 6c70735d 735f7469     .t[DEC32]split_s
 8010288:	31706574 0032335f 00000000 00000000     tep1_32.........
 8010298:	03100000 96c00810 182ea1ee feb5545e     ............^T..
 80102a8:	457cfb95 e61210e0 313b6408 5dd5956a     ..|E.....d;1j..]
 80102b8:	81d0fd69 00009e36 00000000 00000000     i...6...........
	...
 80102f4:	9c100000 4097f5e8 fcf84c2e ac6ed37d     .......@.L..}.n.
 8010304:	00403942 00000000 00000000 00000000     B9@.............
 8010314:	74626500 4345445b 735d3233 74696c70     .ebt[DEC32]split
 8010324:	74696e69 6574735f 335f3070 00000032     init_step0_32...
 8010334:	00000000 08100201 a1ee96c0 545e182e     ..............^T
 8010344:	fb95feb5 10e0457c 6408e612 956a313b     ....|E.....d;1j.
 8010354:	fd695dd5 9e3681d0 00000000 00000000     .]i...6.........
	...
 80103b0:	74000000 4345445b 735d3233 74696c70     ...t[DEC32]split
 80103c0:	74696e69 6574735f 335f3170 00000032     init_step1_32...
 80103d0:	00000000 08100204 a1ee96c0 545e182e     ..............^T
 80103e0:	fb95feb5 10e0457c 6408e612 956a313b     ....|E.....d;1j.
 80103f0:	fd695dd5 9e3681d0 00000000 00000000     .]i...6.........
	...
 801044c:	74000000 4345445b 735d3233 74696c70     ...t[DEC32]split
 801045c:	74696e69 6574735f 335f3270 00000032     init_step2_32...
 801046c:	00000000 08100310 a1ee96c0 545e182e     ..............^T
 801047c:	fb95feb5 10e0457c 6408e612 956a313b     ....|E.....d;1j.
 801048c:	fd695dd5 9e3681d0 00000000 00000000     .]i...6.........
	...
 80104cc:	f5e89c10 4c2e4097 d37dfcf8 3942ac6e     .....@.L..}.n.B9
 80104dc:	00000040 00000000 00000000 65000000     @..............e
 80104ec:	455b7462 3333434e 6c75665d 33335f6c     bt[ENC33]full_33
	...
 801050c:	030b0000 8ecb9410 2cbde72c 9af1ed1d     ........,..,....
 801051c:	07ca5b1f 37c01053 95f045b7 6ff1ae39     .[..S..7.E..9..o
 801052c:	df5aa319 0000370e 00000000 00000000     ..Z..7..........
	...
 8010568:	cb100000 75aadebb ea5aead5 ab708847     .......u..Z.G.p.
 8010578:	006ce7ba 00000000 00000000 00000000     ..l.............
 8010588:	74626500 434e455b 735d3333 74696c70     .ebt[ENC33]split
 8010598:	6574735f 335f3070 00000033 00000000     _step0_33.......
 80105a8:	00000000 94100203 e72c8ecb ed1d2cbd     ..........,..,..
 80105b8:	5b1f9af1 105307ca 45b737c0 ae3995f0     ...[..S..7.E..9.
 80105c8:	a3196ff1 370edf5a 00000000 00000000     .o..Z..7........
	...
 8010624:	74000000 434e455b 735d3333 74696c70     ...t[ENC33]split
 8010634:	6574735f 335f3170 00000033 00000000     _step1_33.......
 8010644:	00000000 94100308 e72c8ecb ed1d2cbd     ..........,..,..
 8010654:	5b1f9af1 105307ca 45b737c0 ae3995f0     ...[..S..7.E..9.
 8010664:	a3196ff1 370edf5a 00000000 00000000     .o..Z..7........
	...
 80106a4:	debbcb10 ead575aa 8847ea5a e7baab70     .....u..Z.G.p...
 80106b4:	0000006c 00000000 00000000 65000000     l..............e
 80106c4:	455b7462 3333434e 6c70735d 6e697469     bt[ENC33]splitin
 80106d4:	735f7469 30706574 0033335f 00000000     it_step0_33.....
 80106e4:	02010000 8ecb9410 2cbde72c 9af1ed1d     ........,..,....
 80106f4:	07ca5b1f 37c01053 95f045b7 6ff1ae39     .[..S..7.E..9..o
 8010704:	df5aa319 0000370e 00000000 00000000     ..Z..7..........
	...
 8010760:	455b7400 3333434e 6c70735d 6e697469     .t[ENC33]splitin
 8010770:	735f7469 31706574 0033335f 00000000     it_step1_33.....
 8010780:	02020000 8ecb9410 2cbde72c 9af1ed1d     ........,..,....
 8010790:	07ca5b1f 37c01053 95f045b7 6ff1ae39     .[..S..7.E..9..o
 80107a0:	df5aa319 0000370e 00000000 00000000     ..Z..7..........
	...
 80107fc:	455b7400 3333434e 6c70735d 6e697469     .t[ENC33]splitin
 801080c:	735f7469 32706574 0033335f 00000000     it_step2_33.....
 801081c:	03080000 8ecb9410 2cbde72c 9af1ed1d     ........,..,....
 801082c:	07ca5b1f 37c01053 95f045b7 6ff1ae39     .[..S..7.E..9..o
 801083c:	df5aa319 0000370e 00000000 00000000     ..Z..7..........
	...
 8010878:	cb100000 75aadebb ea5aead5 ab708847     .......u..Z.G.p.
 8010888:	006ce7ba 00000000 00000000 00000000     ..l.............
 8010898:	74626500 4345445b 665d3333 5f6c6c75     .ebt[DEC33]full_
 80108a8:	00003333 00000000 00000000 00000000     33..............
 80108b8:	00000000 33100315 4f226afc e4a6cc6c     .......3.j"Ol...
 80108c8:	11e38ebc 1042f9ae b0af8ca3 3f871cf8     ......B........?
 80108d8:	eeba9beb 9bd1b692 00000000 00000000     ................
	...
 8010918:	88db8410 8d8af367 334e1970 65440bfd     ....g...p.N3..De
 8010928:	000000a2 00000000 00000000 65000000     ...............e
 8010938:	445b7462 33334345 6c70735d 735f7469     bt[DEC33]split_s
 8010948:	30706574 0033335f 00000000 00000000     tep0_33.........
 8010958:	02050000 6afc3310 cc6c4f22 8ebce4a6     .....3.j"Ol.....
 8010968:	f9ae11e3 8ca31042 1cf8b0af 9beb3f87     ....B........?..
 8010978:	b692eeba 00009bd1 00000000 00000000     ................
	...
 80109d4:	445b7400 33334345 6c70735d 735f7469     .t[DEC33]split_s
 80109e4:	31706574 0033335f 00000000 00000000     tep1_33.........
 80109f4:	03100000 6afc3310 cc6c4f22 8ebce4a6     .....3.j"Ol.....
 8010a04:	f9ae11e3 8ca31042 1cf8b0af 9beb3f87     ....B........?..
 8010a14:	b692eeba 00009bd1 00000000 00000000     ................
	...
 8010a50:	84100000 f36788db 19708d8a 0bfd334e     ......g...p.N3..
 8010a60:	00a26544 00000000 00000000 00000000     De..............
 8010a70:	74626500 4345445b 735d3333 74696c70     .ebt[DEC33]split
 8010a80:	74696e69 6574735f 335f3070 00000033     init_step0_33...
 8010a90:	00000000 33100201 4f226afc e4a6cc6c     .......3.j"Ol...
 8010aa0:	11e38ebc 1042f9ae b0af8ca3 3f871cf8     ......B........?
 8010ab0:	eeba9beb 9bd1b692 00000000 00000000     ................
	...
 8010b0c:	74000000 4345445b 735d3333 74696c70     ...t[DEC33]split
 8010b1c:	74696e69 6574735f 335f3170 00000033     init_step1_33...
 8010b2c:	00000000 33100204 4f226afc e4a6cc6c     .......3.j"Ol...
 8010b3c:	11e38ebc 1042f9ae b0af8ca3 3f871cf8     ......B........?
 8010b4c:	eeba9beb 9bd1b692 00000000 00000000     ................
	...
 8010ba8:	74000000 4345445b 735d3333 74696c70     ...t[DEC33]split
 8010bb8:	74696e69 6574735f 335f3270 00000033     init_step2_33...
 8010bc8:	00000000 33100310 4f226afc e4a6cc6c     .......3.j"Ol...
 8010bd8:	11e38ebc 1042f9ae b0af8ca3 3f871cf8     ......B........?
 8010be8:	eeba9beb 9bd1b692 00000000 00000000     ................
	...
 8010c28:	88db8410 8d8af367 334e1970 65440bfd     ....g...p.N3..De
 8010c38:	000000a2 00000000 00000000 65000000     ...............e
 8010c48:	455b7462 3433434e 6c75665d 34335f6c     bt[ENC34]full_34
	...
 8010c68:	030b0000 d4469410 262373b6 68e4950c     ......F..s#&...h
 8010c78:	980a7092 85dd10cd 6586992f 9a95a813     .p....../..e....
 8010c88:	958120fc 0000cfa7 00000000 00000000     . ..............
	...
 8010cc4:	b2100000 b28e412e 1075b5dd edfb6291     .....A....u..b..
 8010cd4:	00ad0c7a 00000000 00000000 00000000     z...............
 8010ce4:	74626500 434e455b 735d3433 74696c70     .ebt[ENC34]split
 8010cf4:	6574735f 335f3070 00000034 00000000     _step0_34.......
 8010d04:	00000000 94100203 73b6d446 950c2623     ........F..s#&..
 8010d14:	709268e4 10cd980a 992f85dd a8136586     .h.p....../..e..
 8010d24:	20fc9a95 cfa79581 00000000 00000000     ... ............
	...
 8010d80:	74000000 434e455b 735d3433 74696c70     ...t[ENC34]split
 8010d90:	6574735f 335f3170 00000034 00000000     _step1_34.......
 8010da0:	00000000 94100308 73b6d446 950c2623     ........F..s#&..
 8010db0:	709268e4 10cd980a 992f85dd a8136586     .h.p....../..e..
 8010dc0:	20fc9a95 cfa79581 00000000 00000000     ... ............
	...
 8010e00:	412eb210 b5ddb28e 62911075 0c7aedfb     ...A....u..b..z.
 8010e10:	000000ad 00000000 00000000 65000000     ...............e
 8010e20:	455b7462 3433434e 6c70735d 6e697469     bt[ENC34]splitin
 8010e30:	735f7469 30706574 0034335f 00000000     it_step0_34.....
 8010e40:	02010000 d4469410 262373b6 68e4950c     ......F..s#&...h
 8010e50:	980a7092 85dd10cd 6586992f 9a95a813     .p....../..e....
 8010e60:	958120fc 0000cfa7 00000000 00000000     . ..............
	...
 8010ebc:	455b7400 3433434e 6c70735d 6e697469     .t[ENC34]splitin
 8010ecc:	735f7469 31706574 0034335f 00000000     it_step1_34.....
 8010edc:	02020000 d4469410 262373b6 68e4950c     ......F..s#&...h
 8010eec:	980a7092 85dd10cd 6586992f 9a95a813     .p....../..e....
 8010efc:	958120fc 0000cfa7 00000000 00000000     . ..............
	...
 8010f58:	455b7400 3433434e 6c70735d 6e697469     .t[ENC34]splitin
 8010f68:	735f7469 32706574 0034335f 00000000     it_step2_34.....
 8010f78:	03080000 d4469410 262373b6 68e4950c     ......F..s#&...h
 8010f88:	980a7092 85dd10cd 6586992f 9a95a813     .p....../..e....
 8010f98:	958120fc 0000cfa7 00000000 00000000     . ..............
	...
 8010fd4:	b2100000 b28e412e 1075b5dd edfb6291     .....A....u..b..
 8010fe4:	00ad0c7a 00000000 00000000 00000000     z...............
 8010ff4:	74626500 4345445b 665d3433 5f6c6c75     .ebt[DEC34]full_
 8011004:	00003433 00000000 00000000 00000000     34..............
 8011014:	00000000 b2100315 44d862ac 5fcea07b     .........b.D{.._
 8011024:	38bd0c19 102dbeb8 aac94f89 13a41242     ...8..-..O..B...
 8011034:	433f3e11 0c4658d3 00000000 00000000     .>?C.XF.........
	...
 8011074:	5d2b4110 44531ba9 3fe735dc b2d91dc4     .A+]..SD.5.?....
 8011084:	00000062 00000000 00000000 65000000     b..............e
 8011094:	445b7462 34334345 6c70735d 735f7469     bt[DEC34]split_s
 80110a4:	30706574 0034335f 00000000 00000000     tep0_34.........
 80110b4:	02050000 62acb210 a07b44d8 0c195fce     .......b.D{.._..
 80110c4:	beb838bd 4f89102d 1242aac9 3e1113a4     .8..-..O..B....>
 80110d4:	58d3433f 00000c46 00000000 00000000     ?C.XF...........
	...
 8011130:	445b7400 34334345 6c70735d 735f7469     .t[DEC34]split_s
 8011140:	31706574 0034335f 00000000 00000000     tep1_34.........
 8011150:	03100000 62acb210 a07b44d8 0c195fce     .......b.D{.._..
 8011160:	beb838bd 4f89102d 1242aac9 3e1113a4     .8..-..O..B....>
 8011170:	58d3433f 00000c46 00000000 00000000     ?C.XF...........
	...
 80111ac:	41100000 1ba95d2b 35dc4453 1dc43fe7     ...A+]..SD.5.?..
 80111bc:	0062b2d9 00000000 00000000 00000000     ..b.............
 80111cc:	74626500 4345445b 735d3433 74696c70     .ebt[DEC34]split
 80111dc:	74696e69 6574735f 335f3070 00000034     init_step0_34...
 80111ec:	00000000 b2100201 44d862ac 5fcea07b     .........b.D{.._
 80111fc:	38bd0c19 102dbeb8 aac94f89 13a41242     ...8..-..O..B...
 801120c:	433f3e11 0c4658d3 00000000 00000000     .>?C.XF.........
	...
 8011268:	74000000 4345445b 735d3433 74696c70     ...t[DEC34]split
 8011278:	74696e69 6574735f 335f3170 00000034     init_step1_34...
 8011288:	00000000 b2100204 44d862ac 5fcea07b     .........b.D{.._
 8011298:	38bd0c19 102dbeb8 aac94f89 13a41242     ...8..-..O..B...
 80112a8:	433f3e11 0c4658d3 00000000 00000000     .>?C.XF.........
	...
 8011304:	74000000 4345445b 735d3433 74696c70     ...t[DEC34]split
 8011314:	74696e69 6574735f 335f3270 00000034     init_step2_34...
 8011324:	00000000 b2100310 44d862ac 5fcea07b     .........b.D{.._
 8011334:	38bd0c19 102dbeb8 aac94f89 13a41242     ...8..-..O..B...
 8011344:	433f3e11 0c4658d3 00000000 00000000     .>?C.XF.........
	...
 8011384:	5d2b4110 44531ba9 3fe735dc b2d91dc4     .A+]..SD.5.?....
 8011394:	00000062 00000000 00000000 65000000     b..............e
 80113a4:	455b7462 3533434e 6c75665d 35335f6c     bt[ENC35]full_35
	...
 80113c4:	030b0000 3d3ed310 229b3346 e2db763f     ......>=F3."?v..
 80113d4:	59ee61fd ceed10f4 b3a1e851 18157a8e     .a.Y....Q....z..
 80113e4:	dd613cad 0000cff6 00000000 00000000     .<a.............
	...
 8011420:	97100000 0ee51d0a fd3a73b9 dfffceac     .........s:.....
 8011430:	000f4266 00000000 00000000 00000000     fB..............
 8011440:	74626500 434e455b 735d3533 74696c70     .ebt[ENC35]split
 8011450:	6574735f 335f3070 00000035 00000000     _step0_35.......
 8011460:	00000000 d3100203 33463d3e 763f229b     ........>=F3."?v
 8011470:	61fde2db 10f459ee e851ceed 7a8eb3a1     ...a.Y....Q....z
 8011480:	3cad1815 cff6dd61 00000000 00000000     ...<a...........
	...
 80114dc:	74000000 434e455b 735d3533 74696c70     ...t[ENC35]split
 80114ec:	6574735f 335f3170 00000035 00000000     _step1_35.......
 80114fc:	00000000 d3100308 33463d3e 763f229b     ........>=F3."?v
 801150c:	61fde2db 10f459ee e851ceed 7a8eb3a1     ...a.Y....Q....z
 801151c:	3cad1815 cff6dd61 00000000 00000000     ...<a...........
	...
 801155c:	1d0a9710 73b90ee5 ceacfd3a 4266dfff     .......s:.....fB
 801156c:	0000000f 00000000 00000000 65000000     ...............e
 801157c:	455b7462 3533434e 6c70735d 6e697469     bt[ENC35]splitin
 801158c:	735f7469 30706574 0035335f 00000000     it_step0_35.....
 801159c:	02010000 3d3ed310 229b3346 e2db763f     ......>=F3."?v..
 80115ac:	59ee61fd ceed10f4 b3a1e851 18157a8e     .a.Y....Q....z..
 80115bc:	dd613cad 0000cff6 00000000 00000000     .<a.............
	...
 8011618:	455b7400 3533434e 6c70735d 6e697469     .t[ENC35]splitin
 8011628:	735f7469 31706574 0035335f 00000000     it_step1_35.....
 8011638:	02020000 3d3ed310 229b3346 e2db763f     ......>=F3."?v..
 8011648:	59ee61fd ceed10f4 b3a1e851 18157a8e     .a.Y....Q....z..
 8011658:	dd613cad 0000cff6 00000000 00000000     .<a.............
	...
 80116b4:	455b7400 3533434e 6c70735d 6e697469     .t[ENC35]splitin
 80116c4:	735f7469 32706574 0035335f 00000000     it_step2_35.....
 80116d4:	03080000 3d3ed310 229b3346 e2db763f     ......>=F3."?v..
 80116e4:	59ee61fd ceed10f4 b3a1e851 18157a8e     .a.Y....Q....z..
 80116f4:	dd613cad 0000cff6 00000000 00000000     .<a.............
	...
 8011730:	97100000 0ee51d0a fd3a73b9 dfffceac     .........s:.....
 8011740:	000f4266 00000000 00000000 00000000     fB..............
 8011750:	74626500 4345445b 665d3533 5f6c6c75     .ebt[DEC35]full_
 8011760:	00003533 00000000 00000000 00000000     35..............
 8011770:	00000000 2a100315 4d1f8bd2 873c20e0     .......*...M. <.
 8011780:	8af58bdc 10083481 f75043ac 3d18292b     .....4...CP.+).=
 8011790:	807ef594 ce6d9257 00000000 00000000     ..~.W.m.........
	...
 80117d0:	24a3d810 7d60b540 5b26ecbd 0c3ba93f     ...$@.`}..&[?.;.
 80117e0:	00000044 00000000 00000000 65000000     D..............e
 80117f0:	445b7462 35334345 6c70735d 735f7469     bt[DEC35]split_s
 8011800:	30706574 0035335f 00000000 00000000     tep0_35.........
 8011810:	02050000 8bd22a10 20e04d1f 8bdc873c     .....*...M. <...
 8011820:	34818af5 43ac1008 292bf750 f5943d18     ...4...CP.+).=..
 8011830:	9257807e 0000ce6d 00000000 00000000     ~.W.m...........
	...
 801188c:	445b7400 35334345 6c70735d 735f7469     .t[DEC35]split_s
 801189c:	31706574 0035335f 00000000 00000000     tep1_35.........
 80118ac:	03100000 8bd22a10 20e04d1f 8bdc873c     .....*...M. <...
 80118bc:	34818af5 43ac1008 292bf750 f5943d18     ...4...CP.+).=..
 80118cc:	9257807e 0000ce6d 00000000 00000000     ~.W.m...........
	...
 8011908:	d8100000 b54024a3 ecbd7d60 a93f5b26     .....$@.`}..&[?.
 8011918:	00440c3b 00000000 00000000 00000000     ;.D.............
 8011928:	74626500 4345445b 735d3533 74696c70     .ebt[DEC35]split
 8011938:	74696e69 6574735f 335f3070 00000035     init_step0_35...
 8011948:	00000000 2a100201 4d1f8bd2 873c20e0     .......*...M. <.
 8011958:	8af58bdc 10083481 f75043ac 3d18292b     .....4...CP.+).=
 8011968:	807ef594 ce6d9257 00000000 00000000     ..~.W.m.........
	...
 80119c4:	74000000 4345445b 735d3533 74696c70     ...t[DEC35]split
 80119d4:	74696e69 6574735f 335f3170 00000035     init_step1_35...
 80119e4:	00000000 2a100204 4d1f8bd2 873c20e0     .......*...M. <.
 80119f4:	8af58bdc 10083481 f75043ac 3d18292b     .....4...CP.+).=
 8011a04:	807ef594 ce6d9257 00000000 00000000     ..~.W.m.........
	...
 8011a60:	74000000 4345445b 735d3533 74696c70     ...t[DEC35]split
 8011a70:	74696e69 6574735f 335f3270 00000035     init_step2_35...
 8011a80:	00000000 2a100310 4d1f8bd2 873c20e0     .......*...M. <.
 8011a90:	8af58bdc 10083481 f75043ac 3d18292b     .....4...CP.+).=
 8011aa0:	807ef594 ce6d9257 00000000 00000000     ..~.W.m.........
	...
 8011ae0:	24a3d810 7d60b540 5b26ecbd 0c3ba93f     ...$@.`}..&[?.;.
 8011af0:	00000044 00000000 00000000 65000000     D..............e
 8011b00:	455b7462 3633434e 6c75665d 36335f6c     bt[ENC36]full_36
	...
 8011b20:	030b0000 6d9dd310 04634bf0 71dc3d16     .......m.Kc..=.q
 8011b30:	2a0a35b5 cc1610a6 39b21aef 973d3940     .5.*.......9@9=.
 8011b40:	1744daf8 00002680 00000000 00000000     ..D..&..........
	...
 8011b7c:	1c100000 f004e355 0a781ff8 edad4cf3     ....U.....x..L..
 8011b8c:	0081d6d9 00000000 00000000 00000000     ................
 8011b9c:	74626500 434e455b 735d3633 74696c70     .ebt[ENC36]split
 8011bac:	6574735f 335f3070 00000036 00000000     _step0_36.......
 8011bbc:	00000000 d3100203 4bf06d9d 3d160463     .........m.Kc..=
 8011bcc:	35b571dc 10a62a0a 1aefcc16 394039b2     .q.5.*.......9@9
 8011bdc:	daf8973d 26801744 00000000 00000000     =...D..&........
	...
 8011c38:	74000000 434e455b 735d3633 74696c70     ...t[ENC36]split
 8011c48:	6574735f 335f3170 00000036 00000000     _step1_36.......
 8011c58:	00000000 d3100308 4bf06d9d 3d160463     .........m.Kc..=
 8011c68:	35b571dc 10a62a0a 1aefcc16 394039b2     .q.5.*.......9@9
 8011c78:	daf8973d 26801744 00000000 00000000     =...D..&........
	...
 8011cb8:	e3551c10 1ff8f004 4cf30a78 d6d9edad     ..U.....x..L....
 8011cc8:	00000081 00000000 00000000 65000000     ...............e
 8011cd8:	455b7462 3633434e 6c70735d 6e697469     bt[ENC36]splitin
 8011ce8:	735f7469 30706574 0036335f 00000000     it_step0_36.....
 8011cf8:	02010000 6d9dd310 04634bf0 71dc3d16     .......m.Kc..=.q
 8011d08:	2a0a35b5 cc1610a6 39b21aef 973d3940     .5.*.......9@9=.
 8011d18:	1744daf8 00002680 00000000 00000000     ..D..&..........
	...
 8011d74:	455b7400 3633434e 6c70735d 6e697469     .t[ENC36]splitin
 8011d84:	735f7469 31706574 0036335f 00000000     it_step1_36.....
 8011d94:	02020000 6d9dd310 04634bf0 71dc3d16     .......m.Kc..=.q
 8011da4:	2a0a35b5 cc1610a6 39b21aef 973d3940     .5.*.......9@9=.
 8011db4:	1744daf8 00002680 00000000 00000000     ..D..&..........
	...
 8011e10:	455b7400 3633434e 6c70735d 6e697469     .t[ENC36]splitin
 8011e20:	735f7469 32706574 0036335f 00000000     it_step2_36.....
 8011e30:	03080000 6d9dd310 04634bf0 71dc3d16     .......m.Kc..=.q
 8011e40:	2a0a35b5 cc1610a6 39b21aef 973d3940     .5.*.......9@9=.
 8011e50:	1744daf8 00002680 00000000 00000000     ..D..&..........
	...
 8011e8c:	1c100000 f004e355 0a781ff8 edad4cf3     ....U.....x..L..
 8011e9c:	0081d6d9 00000000 00000000 00000000     ................
 8011eac:	74626500 4345445b 665d3633 5f6c6c75     .ebt[DEC36]full_
 8011ebc:	00003633 00000000 00000000 00000000     36..............
 8011ecc:	00000000 98100315 81b7a224 6742c9c6     ........$.....Bg
 8011edc:	a20ac374 101f9131 51d168cb baf99049     t...1....h.QI...
 8011eec:	e94f24a0 1a0ae413 00000000 00000000     .$O.............
	...
 8011f2c:	2f9c8a10 99cf7b8b f2a57a5f d480aff8     .../.{.._z......
 8011f3c:	00000089 00000000 00000000 65000000     ...............e
 8011f4c:	445b7462 36334345 6c70735d 735f7469     bt[DEC36]split_s
 8011f5c:	30706574 0036335f 00000000 00000000     tep0_36.........
 8011f6c:	02050000 a2249810 c9c681b7 c3746742     ......$.....Bgt.
 8011f7c:	9131a20a 68cb101f 904951d1 24a0baf9     ..1....h.QI....$
 8011f8c:	e413e94f 00001a0a 00000000 00000000     O...............
	...
 8011fe8:	445b7400 36334345 6c70735d 735f7469     .t[DEC36]split_s
 8011ff8:	31706574 0036335f 00000000 00000000     tep1_36.........
 8012008:	03100000 a2249810 c9c681b7 c3746742     ......$.....Bgt.
 8012018:	9131a20a 68cb101f 904951d1 24a0baf9     ..1....h.QI....$
 8012028:	e413e94f 00001a0a 00000000 00000000     O...............
	...
 8012064:	8a100000 7b8b2f9c 7a5f99cf aff8f2a5     ...../.{.._z....
 8012074:	0089d480 00000000 00000000 00000000     ................
 8012084:	74626500 4345445b 735d3633 74696c70     .ebt[DEC36]split
 8012094:	74696e69 6574735f 335f3070 00000036     init_step0_36...
 80120a4:	00000000 98100201 81b7a224 6742c9c6     ........$.....Bg
 80120b4:	a20ac374 101f9131 51d168cb baf99049     t...1....h.QI...
 80120c4:	e94f24a0 1a0ae413 00000000 00000000     .$O.............
	...
 8012120:	74000000 4345445b 735d3633 74696c70     ...t[DEC36]split
 8012130:	74696e69 6574735f 335f3170 00000036     init_step1_36...
 8012140:	00000000 98100204 81b7a224 6742c9c6     ........$.....Bg
 8012150:	a20ac374 101f9131 51d168cb baf99049     t...1....h.QI...
 8012160:	e94f24a0 1a0ae413 00000000 00000000     .$O.............
	...
 80121bc:	74000000 4345445b 735d3633 74696c70     ...t[DEC36]split
 80121cc:	74696e69 6574735f 335f3270 00000036     init_step2_36...
 80121dc:	00000000 98100310 81b7a224 6742c9c6     ........$.....Bg
 80121ec:	a20ac374 101f9131 51d168cb baf99049     t...1....h.QI...
 80121fc:	e94f24a0 1a0ae413 00000000 00000000     .$O.............
	...
 801223c:	2f9c8a10 99cf7b8b f2a57a5f d480aff8     .../.{.._z......
 801224c:	00000089 00000000 00000000 65000000     ...............e
 801225c:	455b7462 3733434e 6c75665d 37335f6c     bt[ENC37]full_37
	...
 801227c:	030b0000 bb4eb110 cce70a59 0271c1f1     ......N.Y.....q.
 801228c:	e039b9a6 396b1053 5a13be74 787f7ad2     ..9.S.k9t..Z.z.x
 801229c:	e2a01b66 0000ca3e 00000000 00000000     f...>...........
	...
 80122d8:	0b100000 b0754721 2123ec11 d9faf9af     ....!Gu...#!....
 80122e8:	00a85322 00000000 00000000 00000000     "S..............
 80122f8:	74626500 434e455b 735d3733 74696c70     .ebt[ENC37]split
 8012308:	6574735f 335f3070 00000037 00000000     _step0_37.......
 8012318:	00000000 b1100203 0a59bb4e c1f1cce7     ........N.Y.....
 8012328:	b9a60271 1053e039 be74396b 7ad25a13     q...9.S.k9t..Z.z
 8012338:	1b66787f ca3ee2a0 00000000 00000000     .xf...>.........
	...
 8012394:	74000000 434e455b 735d3733 74696c70     ...t[ENC37]split
 80123a4:	6574735f 335f3170 00000037 00000000     _step1_37.......
 80123b4:	00000000 b1100308 0a59bb4e c1f1cce7     ........N.Y.....
 80123c4:	b9a60271 1053e039 be74396b 7ad25a13     q...9.S.k9t..Z.z
 80123d4:	1b66787f ca3ee2a0 00000000 00000000     .xf...>.........
	...
 8012414:	47210b10 ec11b075 f9af2123 5322d9fa     ..!Gu...#!...."S
 8012424:	000000a8 00000000 00000000 65000000     ...............e
 8012434:	455b7462 3733434e 6c70735d 6e697469     bt[ENC37]splitin
 8012444:	735f7469 30706574 0037335f 00000000     it_step0_37.....
 8012454:	02010000 bb4eb110 cce70a59 0271c1f1     ......N.Y.....q.
 8012464:	e039b9a6 396b1053 5a13be74 787f7ad2     ..9.S.k9t..Z.z.x
 8012474:	e2a01b66 0000ca3e 00000000 00000000     f...>...........
	...
 80124d0:	455b7400 3733434e 6c70735d 6e697469     .t[ENC37]splitin
 80124e0:	735f7469 31706574 0037335f 00000000     it_step1_37.....
 80124f0:	02020000 bb4eb110 cce70a59 0271c1f1     ......N.Y.....q.
 8012500:	e039b9a6 396b1053 5a13be74 787f7ad2     ..9.S.k9t..Z.z.x
 8012510:	e2a01b66 0000ca3e 00000000 00000000     f...>...........
	...
 801256c:	455b7400 3733434e 6c70735d 6e697469     .t[ENC37]splitin
 801257c:	735f7469 32706574 0037335f 00000000     it_step2_37.....
 801258c:	03080000 bb4eb110 cce70a59 0271c1f1     ......N.Y.....q.
 801259c:	e039b9a6 396b1053 5a13be74 787f7ad2     ..9.S.k9t..Z.z.x
 80125ac:	e2a01b66 0000ca3e 00000000 00000000     f...>...........
	...
 80125e8:	0b100000 b0754721 2123ec11 d9faf9af     ....!Gu...#!....
 80125f8:	00a85322 00000000 00000000 00000000     "S..............
 8012608:	74626500 4345445b 665d3733 5f6c6c75     .ebt[DEC37]full_
 8012618:	00003733 00000000 00000000 00000000     37..............
 8012628:	00000000 0a100315 d3c62bbd 6c0dd58e     .........+.....l
 8012638:	d0b3c9ea 10bea81d 3688befa 7a6a0c86     ...........6..jz
 8012648:	0f7863d9 336fa61c 00000000 00000000     .cx...o3........
	...
 8012688:	594b9710 3271fd49 49fd3c03 0d536224     ..KYI.q2.<.I$bS.
 8012698:	000000af 00000000 00000000 65000000     ...............e
 80126a8:	445b7462 37334345 6c70735d 735f7469     bt[DEC37]split_s
 80126b8:	30706574 0037335f 00000000 00000000     tep0_37.........
 80126c8:	02050000 2bbd0a10 d58ed3c6 c9ea6c0d     .......+.....l..
 80126d8:	a81dd0b3 befa10be 0c863688 63d97a6a     .........6..jz.c
 80126e8:	a61c0f78 0000336f 00000000 00000000     x...o3..........
	...
 8012744:	445b7400 37334345 6c70735d 735f7469     .t[DEC37]split_s
 8012754:	31706574 0037335f 00000000 00000000     tep1_37.........
 8012764:	03100000 2bbd0a10 d58ed3c6 c9ea6c0d     .......+.....l..
 8012774:	a81dd0b3 befa10be 0c863688 63d97a6a     .........6..jz.c
 8012784:	a61c0f78 0000336f 00000000 00000000     x...o3..........
	...
 80127c0:	97100000 fd49594b 3c033271 622449fd     ....KYI.q2.<.I$b
 80127d0:	00af0d53 00000000 00000000 00000000     S...............
 80127e0:	74626500 4345445b 735d3733 74696c70     .ebt[DEC37]split
 80127f0:	74696e69 6574735f 335f3070 00000037     init_step0_37...
 8012800:	00000000 0a100201 d3c62bbd 6c0dd58e     .........+.....l
 8012810:	d0b3c9ea 10bea81d 3688befa 7a6a0c86     ...........6..jz
 8012820:	0f7863d9 336fa61c 00000000 00000000     .cx...o3........
	...
 801287c:	74000000 4345445b 735d3733 74696c70     ...t[DEC37]split
 801288c:	74696e69 6574735f 335f3170 00000037     init_step1_37...
 801289c:	00000000 0a100204 d3c62bbd 6c0dd58e     .........+.....l
 80128ac:	d0b3c9ea 10bea81d 3688befa 7a6a0c86     ...........6..jz
 80128bc:	0f7863d9 336fa61c 00000000 00000000     .cx...o3........
	...
 8012918:	74000000 4345445b 735d3733 74696c70     ...t[DEC37]split
 8012928:	74696e69 6574735f 335f3270 00000037     init_step2_37...
 8012938:	00000000 0a100310 d3c62bbd 6c0dd58e     .........+.....l
 8012948:	d0b3c9ea 10bea81d 3688befa 7a6a0c86     ...........6..jz
 8012958:	0f7863d9 336fa61c 00000000 00000000     .cx...o3........
	...
 8012998:	594b9710 3271fd49 49fd3c03 0d536224     ..KYI.q2.<.I$bS.
 80129a8:	000000af 00000000 00000000 65000000     ...............e
 80129b8:	455b7462 3833434e 6c75665d 38335f6c     bt[ENC38]full_38
	...
 80129d8:	030b0000 ba02b910 c4769f5c 3552d999     ........\.v...R5
 80129e8:	8154c1b7 ccb31087 05b152da 88fe7ca9     ..T......R...|..
 80129f8:	32585f68 0000c427 00000000 00000000     h_X2'...........
	...
 8012a34:	62100000 5009c546 6eb491b2 72c5c52c     ...bF..P...n,..r
 8012a44:	00c5956d 00000000 00000000 00000000     m...............
 8012a54:	74626500 434e455b 735d3833 74696c70     .ebt[ENC38]split
 8012a64:	6574735f 335f3070 00000038 00000000     _step0_38.......
 8012a74:	00000000 b9100203 9f5cba02 d999c476     ..........\.v...
 8012a84:	c1b73552 10878154 52daccb3 7ca905b1     R5..T......R...|
 8012a94:	5f6888fe c4273258 00000000 00000000     ..h_X2'.........
	...
 8012af0:	74000000 434e455b 735d3833 74696c70     ...t[ENC38]split
 8012b00:	6574735f 335f3170 00000038 00000000     _step1_38.......
 8012b10:	00000000 b9100308 9f5cba02 d999c476     ..........\.v...
 8012b20:	c1b73552 10878154 52daccb3 7ca905b1     R5..T......R...|
 8012b30:	5f6888fe c4273258 00000000 00000000     ..h_X2'.........
	...
 8012b70:	c5466210 91b25009 c52c6eb4 956d72c5     .bF..P...n,..rm.
 8012b80:	000000c5 00000000 00000000 65000000     ...............e
 8012b90:	455b7462 3833434e 6c70735d 6e697469     bt[ENC38]splitin
 8012ba0:	735f7469 30706574 0038335f 00000000     it_step0_38.....
 8012bb0:	02010000 ba02b910 c4769f5c 3552d999     ........\.v...R5
 8012bc0:	8154c1b7 ccb31087 05b152da 88fe7ca9     ..T......R...|..
 8012bd0:	32585f68 0000c427 00000000 00000000     h_X2'...........
	...
 8012c2c:	455b7400 3833434e 6c70735d 6e697469     .t[ENC38]splitin
 8012c3c:	735f7469 31706574 0038335f 00000000     it_step1_38.....
 8012c4c:	02020000 ba02b910 c4769f5c 3552d999     ........\.v...R5
 8012c5c:	8154c1b7 ccb31087 05b152da 88fe7ca9     ..T......R...|..
 8012c6c:	32585f68 0000c427 00000000 00000000     h_X2'...........
	...
 8012cc8:	455b7400 3833434e 6c70735d 6e697469     .t[ENC38]splitin
 8012cd8:	735f7469 32706574 0038335f 00000000     it_step2_38.....
