
../../binary/binary.elf:     file format elf32-littlearm


Disassembly of section .text:

08000000 <get_random>:
 8000000:	b480      	push	{r7}
 8000002:	af00      	add	r7, sp, #0
 8000004:	4b02      	ldr	r3, [pc, #8]	; (8000010 <get_random+0x10>)
 8000006:	681b      	ldr	r3, [r3, #0]
 8000008:	4618      	mov	r0, r3
 800000a:	46bd      	mov	sp, r7
 800000c:	bc80      	pop	{r7}
 800000e:	4770      	bx	lr
 8000010:	200000c0 	.word	0x200000c0

08000014 <rand32>:
 8000014:	b580      	push	{r7, lr}
 8000016:	af00      	add	r7, sp, #0
 8000018:	f7ff fff2 	bl	8000000 <get_random>
 800001c:	4603      	mov	r3, r0
 800001e:	4618      	mov	r0, r3
 8000020:	bd80      	pop	{r7, pc}
 8000022:	bf00      	nop

08000024 <rand_q>:
 8000024:	b580      	push	{r7, lr}
 8000026:	b084      	sub	sp, #16
 8000028:	af00      	add	r7, sp, #0
 800002a:	6078      	str	r0, [r7, #4]
 800002c:	f7ff fff2 	bl	8000014 <rand32>
 8000030:	60f8      	str	r0, [r7, #12]
 8000032:	68fb      	ldr	r3, [r7, #12]
 8000034:	4a16      	ldr	r2, [pc, #88]	; (8000090 <rand_q+0x6c>)
 8000036:	4293      	cmp	r3, r2
 8000038:	d8f8      	bhi.n	800002c <rand_q+0x8>
 800003a:	68fb      	ldr	r3, [r7, #12]
 800003c:	4a15      	ldr	r2, [pc, #84]	; (8000094 <rand_q+0x70>)
 800003e:	fba2 1203 	umull	r1, r2, r2, r3
 8000042:	0dd2      	lsrs	r2, r2, #23
 8000044:	4914      	ldr	r1, [pc, #80]	; (8000098 <rand_q+0x74>)
 8000046:	fb01 f202 	mul.w	r2, r1, r2
 800004a:	1a9b      	subs	r3, r3, r2
 800004c:	60fb      	str	r3, [r7, #12]
 800004e:	68fb      	ldr	r3, [r7, #12]
 8000050:	4a12      	ldr	r2, [pc, #72]	; (800009c <rand_q+0x78>)
 8000052:	fba2 1203 	umull	r1, r2, r2, r3
 8000056:	1a99      	subs	r1, r3, r2
 8000058:	0849      	lsrs	r1, r1, #1
 800005a:	440a      	add	r2, r1
 800005c:	0ad2      	lsrs	r2, r2, #11
 800005e:	f640 5101 	movw	r1, #3329	; 0xd01
 8000062:	fb01 f202 	mul.w	r2, r1, r2
 8000066:	1a9a      	subs	r2, r3, r2
 8000068:	b212      	sxth	r2, r2
 800006a:	687b      	ldr	r3, [r7, #4]
 800006c:	801a      	strh	r2, [r3, #0]
 800006e:	68fa      	ldr	r2, [r7, #12]
 8000070:	4b0a      	ldr	r3, [pc, #40]	; (800009c <rand_q+0x78>)
 8000072:	fba3 1302 	umull	r1, r3, r3, r2
 8000076:	1ad2      	subs	r2, r2, r3
 8000078:	0852      	lsrs	r2, r2, #1
 800007a:	4413      	add	r3, r2
 800007c:	0ada      	lsrs	r2, r3, #11
 800007e:	687b      	ldr	r3, [r7, #4]
 8000080:	3302      	adds	r3, #2
 8000082:	b212      	sxth	r2, r2
 8000084:	801a      	strh	r2, [r3, #0]
 8000086:	bf00      	nop
 8000088:	3710      	adds	r7, #16
 800008a:	46bd      	mov	sp, r7
 800008c:	bd80      	pop	{r7, pc}
 800008e:	bf00      	nop
 8000090:	ffa24f83 	.word	0xffa24f83
 8000094:	c1c6eadb 	.word	0xc1c6eadb
 8000098:	00a91a01 	.word	0x00a91a01
 800009c:	3afb7681 	.word	0x3afb7681

080000a0 <transpose32>:
 80000a0:	b570      	push	{r4, r5, r6, lr}
 80000a2:	f04f 0e05 	mov.w	lr, #5
 80000a6:	f64f 76ff 	movw	r6, #65535	; 0xffff
 80000aa:	2510      	movs	r5, #16
 80000ac:	ea6f 0c05 	mvn.w	ip, r5
 80000b0:	2200      	movs	r2, #0
 80000b2:	18a9      	adds	r1, r5, r2
 80000b4:	f850 3022 	ldr.w	r3, [r0, r2, lsl #2]
 80000b8:	f850 4021 	ldr.w	r4, [r0, r1, lsl #2]
 80000bc:	40eb      	lsrs	r3, r5
 80000be:	4063      	eors	r3, r4
 80000c0:	4033      	ands	r3, r6
 80000c2:	405c      	eors	r4, r3
 80000c4:	f840 4021 	str.w	r4, [r0, r1, lsl #2]
 80000c8:	f850 4022 	ldr.w	r4, [r0, r2, lsl #2]
 80000cc:	40ab      	lsls	r3, r5
 80000ce:	3101      	adds	r1, #1
 80000d0:	4063      	eors	r3, r4
 80000d2:	f840 3022 	str.w	r3, [r0, r2, lsl #2]
 80000d6:	ea01 020c 	and.w	r2, r1, ip
 80000da:	2a1f      	cmp	r2, #31
 80000dc:	dde9      	ble.n	80000b2 <transpose32+0x12>
 80000de:	106d      	asrs	r5, r5, #1
 80000e0:	fa06 f305 	lsl.w	r3, r6, r5
 80000e4:	f1be 0e01 	subs.w	lr, lr, #1
 80000e8:	ea86 0603 	eor.w	r6, r6, r3
 80000ec:	d1de      	bne.n	80000ac <transpose32+0xc>
 80000ee:	bd70      	pop	{r4, r5, r6, pc}

080000f0 <masked_poly>:
 80000f0:	e92d 4f70 	stmdb	sp!, {r4, r5, r6, r8, r9, sl, fp, lr}
 80000f4:	1cc3      	adds	r3, r0, #3
 80000f6:	1a5b      	subs	r3, r3, r1
 80000f8:	2b06      	cmp	r3, #6
 80000fa:	b082      	sub	sp, #8
 80000fc:	4604      	mov	r4, r0
 80000fe:	d94d      	bls.n	800019c <masked_poly+0xac>
 8000100:	f501 7500 	add.w	r5, r1, #512	; 0x200
 8000104:	4603      	mov	r3, r0
 8000106:	f851 2b04 	ldr.w	r2, [r1], #4
 800010a:	f843 2b04 	str.w	r2, [r3], #4
 800010e:	42a9      	cmp	r1, r5
 8000110:	d1f9      	bne.n	8000106 <masked_poly+0x16>
 8000112:	f8df 80a0 	ldr.w	r8, [pc, #160]	; 80001b4 <masked_poly+0xc4>
 8000116:	f504 7600 	add.w	r6, r4, #512	; 0x200
 800011a:	f640 5501 	movw	r5, #3329	; 0xd01
 800011e:	a801      	add	r0, sp, #4
 8000120:	f7ff ff80 	bl	8000024 <rand_q>
 8000124:	f9b4 0000 	ldrsh.w	r0, [r4]
 8000128:	f9bd 2004 	ldrsh.w	r2, [sp, #4]
 800012c:	f9b4 1002 	ldrsh.w	r1, [r4, #2]
 8000130:	f9bd 3006 	ldrsh.w	r3, [sp, #6]
 8000134:	4410      	add	r0, r2
 8000136:	4419      	add	r1, r3
 8000138:	1aaa      	subs	r2, r5, r2
 800013a:	1aeb      	subs	r3, r5, r3
 800013c:	fb88 ca00 	smull	ip, sl, r8, r0
 8000140:	fb88 c902 	smull	ip, r9, r8, r2
 8000144:	fb88 ce01 	smull	ip, lr, r8, r1
 8000148:	4482      	add	sl, r0
 800014a:	fb88 bc03 	smull	fp, ip, r8, r3
 800014e:	ea4f 7be0 	mov.w	fp, r0, asr #31
 8000152:	4491      	add	r9, r2
 8000154:	ebcb 2aea 	rsb	sl, fp, sl, asr #11
 8000158:	ea4f 7be2 	mov.w	fp, r2, asr #31
 800015c:	448e      	add	lr, r1
 800015e:	ebcb 29e9 	rsb	r9, fp, r9, asr #11
 8000162:	ea4f 7be1 	mov.w	fp, r1, asr #31
 8000166:	449c      	add	ip, r3
 8000168:	ebcb 2eee 	rsb	lr, fp, lr, asr #11
 800016c:	ea4f 7be3 	mov.w	fp, r3, asr #31
 8000170:	ebcb 2cec 	rsb	ip, fp, ip, asr #11
 8000174:	fb05 001a 	mls	r0, r5, sl, r0
 8000178:	fb05 2219 	mls	r2, r5, r9, r2
 800017c:	fb05 111e 	mls	r1, r5, lr, r1
 8000180:	fb05 331c 	mls	r3, r5, ip, r3
 8000184:	8020      	strh	r0, [r4, #0]
 8000186:	f8a4 2200 	strh.w	r2, [r4, #512]	; 0x200
 800018a:	8061      	strh	r1, [r4, #2]
 800018c:	f8a4 3202 	strh.w	r3, [r4, #514]	; 0x202
 8000190:	3404      	adds	r4, #4
 8000192:	42a6      	cmp	r6, r4
 8000194:	d1c3      	bne.n	800011e <masked_poly+0x2e>
 8000196:	b002      	add	sp, #8
 8000198:	e8bd 8f70 	ldmia.w	sp!, {r4, r5, r6, r8, r9, sl, fp, pc}
 800019c:	1e8a      	subs	r2, r1, #2
 800019e:	f501 73ff 	add.w	r3, r1, #510	; 0x1fe
 80001a2:	1e81      	subs	r1, r0, #2
 80001a4:	f932 5f02 	ldrsh.w	r5, [r2, #2]!
 80001a8:	f821 5f02 	strh.w	r5, [r1, #2]!
 80001ac:	4293      	cmp	r3, r2
 80001ae:	d1f9      	bne.n	80001a4 <masked_poly+0xb4>
 80001b0:	e7af      	b.n	8000112 <masked_poly+0x22>
 80001b2:	bf00      	nop
 80001b4:	9d7dbb41 	.word	0x9d7dbb41

080001b8 <masked_bitslice2dense>:
 80001b8:	e92d 4f70 	stmdb	sp!, {r4, r5, r6, r8, r9, sl, fp, lr}
 80001bc:	b086      	sub	sp, #24
 80001be:	460c      	mov	r4, r1
 80001c0:	4616      	mov	r6, r2
 80001c2:	9104      	str	r1, [sp, #16]
 80001c4:	461a      	mov	r2, r3
 80001c6:	9912      	ldr	r1, [sp, #72]	; 0x48
 80001c8:	9b0e      	ldr	r3, [sp, #56]	; 0x38
 80001ca:	9001      	str	r0, [sp, #4]
 80001cc:	2c00      	cmp	r4, #0
 80001ce:	d045      	beq.n	800025c <masked_bitslice2dense+0xa4>
 80001d0:	2800      	cmp	r0, #0
 80001d2:	d043      	beq.n	800025c <masked_bitslice2dense+0xa4>
 80001d4:	2901      	cmp	r1, #1
 80001d6:	d147      	bne.n	8000268 <masked_bitslice2dense+0xb0>
 80001d8:	ea4f 0b43 	mov.w	fp, r3, lsl #1
 80001dc:	9b10      	ldr	r3, [sp, #64]	; 0x40
 80001de:	9203      	str	r2, [sp, #12]
 80001e0:	3b04      	subs	r3, #4
 80001e2:	9302      	str	r3, [sp, #8]
 80001e4:	9b0f      	ldr	r3, [sp, #60]	; 0x3c
 80001e6:	009b      	lsls	r3, r3, #2
 80001e8:	9305      	str	r3, [sp, #20]
 80001ea:	f04f 0c00 	mov.w	ip, #0
 80001ee:	f04f 0a00 	mov.w	sl, #0
 80001f2:	f8dd 800c 	ldr.w	r8, [sp, #12]
 80001f6:	46d1      	mov	r9, sl
 80001f8:	f10c 0e01 	add.w	lr, ip, #1
 80001fc:	b38e      	cbz	r6, 8000262 <masked_bitslice2dense+0xaa>
 80001fe:	9a02      	ldr	r2, [sp, #8]
 8000200:	2300      	movs	r3, #0
 8000202:	4618      	mov	r0, r3
 8000204:	4619      	mov	r1, r3
 8000206:	eb02 058a 	add.w	r5, r2, sl, lsl #2
 800020a:	f855 2f04 	ldr.w	r2, [r5, #4]!
 800020e:	fa22 f40c 	lsr.w	r4, r2, ip
 8000212:	fa22 f20e 	lsr.w	r2, r2, lr
 8000216:	f004 0401 	and.w	r4, r4, #1
 800021a:	f002 0201 	and.w	r2, r2, #1
 800021e:	408c      	lsls	r4, r1
 8000220:	408a      	lsls	r2, r1
 8000222:	3101      	adds	r1, #1
 8000224:	4304      	orrs	r4, r0
 8000226:	431a      	orrs	r2, r3
 8000228:	428e      	cmp	r6, r1
 800022a:	b220      	sxth	r0, r4
 800022c:	b213      	sxth	r3, r2
 800022e:	d1ec      	bne.n	800020a <masked_bitslice2dense+0x52>
 8000230:	9a11      	ldr	r2, [sp, #68]	; 0x44
 8000232:	f8a8 0000 	strh.w	r0, [r8]
 8000236:	4492      	add	sl, r2
 8000238:	9a0f      	ldr	r2, [sp, #60]	; 0x3c
 800023a:	f828 3012 	strh.w	r3, [r8, r2, lsl #1]
 800023e:	9b01      	ldr	r3, [sp, #4]
 8000240:	f109 0901 	add.w	r9, r9, #1
 8000244:	454b      	cmp	r3, r9
 8000246:	44d8      	add	r8, fp
 8000248:	d1d8      	bne.n	80001fc <masked_bitslice2dense+0x44>
 800024a:	9b03      	ldr	r3, [sp, #12]
 800024c:	9a05      	ldr	r2, [sp, #20]
 800024e:	4413      	add	r3, r2
 8000250:	9303      	str	r3, [sp, #12]
 8000252:	9b04      	ldr	r3, [sp, #16]
 8000254:	f10c 0c02 	add.w	ip, ip, #2
 8000258:	4563      	cmp	r3, ip
 800025a:	d8c8      	bhi.n	80001ee <masked_bitslice2dense+0x36>
 800025c:	b006      	add	sp, #24
 800025e:	e8bd 8f70 	ldmia.w	sp!, {r4, r5, r6, r8, r9, sl, fp, pc}
 8000262:	4633      	mov	r3, r6
 8000264:	4630      	mov	r0, r6
 8000266:	e7e3      	b.n	8000230 <masked_bitslice2dense+0x78>
 8000268:	005b      	lsls	r3, r3, #1
 800026a:	9302      	str	r3, [sp, #8]
 800026c:	9b0f      	ldr	r3, [sp, #60]	; 0x3c
 800026e:	9203      	str	r2, [sp, #12]
 8000270:	009b      	lsls	r3, r3, #2
 8000272:	ea4f 0e81 	mov.w	lr, r1, lsl #2
 8000276:	9305      	str	r3, [sp, #20]
 8000278:	f04f 0c00 	mov.w	ip, #0
 800027c:	f04f 0b00 	mov.w	fp, #0
 8000280:	f8dd 900c 	ldr.w	r9, [sp, #12]
 8000284:	46da      	mov	sl, fp
 8000286:	f10c 0801 	add.w	r8, ip, #1
 800028a:	b396      	cbz	r6, 80002f2 <masked_bitslice2dense+0x13a>
 800028c:	9a10      	ldr	r2, [sp, #64]	; 0x40
 800028e:	2300      	movs	r3, #0
 8000290:	4618      	mov	r0, r3
 8000292:	4619      	mov	r1, r3
 8000294:	eb02 058b 	add.w	r5, r2, fp, lsl #2
 8000298:	682a      	ldr	r2, [r5, #0]
 800029a:	fa22 f40c 	lsr.w	r4, r2, ip
 800029e:	fa22 f208 	lsr.w	r2, r2, r8
 80002a2:	f004 0401 	and.w	r4, r4, #1
 80002a6:	f002 0201 	and.w	r2, r2, #1
 80002aa:	408c      	lsls	r4, r1
 80002ac:	408a      	lsls	r2, r1
 80002ae:	3101      	adds	r1, #1
 80002b0:	4304      	orrs	r4, r0
 80002b2:	4313      	orrs	r3, r2
 80002b4:	428e      	cmp	r6, r1
 80002b6:	4475      	add	r5, lr
 80002b8:	b220      	sxth	r0, r4
 80002ba:	b21b      	sxth	r3, r3
 80002bc:	d1ec      	bne.n	8000298 <masked_bitslice2dense+0xe0>
 80002be:	9a11      	ldr	r2, [sp, #68]	; 0x44
 80002c0:	f8a9 0000 	strh.w	r0, [r9]
 80002c4:	4493      	add	fp, r2
 80002c6:	9a0f      	ldr	r2, [sp, #60]	; 0x3c
 80002c8:	f829 3012 	strh.w	r3, [r9, r2, lsl #1]
 80002cc:	9b02      	ldr	r3, [sp, #8]
 80002ce:	4499      	add	r9, r3
 80002d0:	9b01      	ldr	r3, [sp, #4]
 80002d2:	f10a 0a01 	add.w	sl, sl, #1
 80002d6:	4553      	cmp	r3, sl
 80002d8:	d1d7      	bne.n	800028a <masked_bitslice2dense+0xd2>
 80002da:	9b03      	ldr	r3, [sp, #12]
 80002dc:	9a05      	ldr	r2, [sp, #20]
 80002de:	4413      	add	r3, r2
 80002e0:	9303      	str	r3, [sp, #12]
 80002e2:	9b04      	ldr	r3, [sp, #16]
 80002e4:	f10c 0c02 	add.w	ip, ip, #2
 80002e8:	4563      	cmp	r3, ip
 80002ea:	d8c7      	bhi.n	800027c <masked_bitslice2dense+0xc4>
 80002ec:	b006      	add	sp, #24
 80002ee:	e8bd 8f70 	ldmia.w	sp!, {r4, r5, r6, r8, r9, sl, fp, pc}
 80002f2:	4633      	mov	r3, r6
 80002f4:	4630      	mov	r0, r6
 80002f6:	e7e2      	b.n	80002be <masked_bitslice2dense+0x106>

080002f8 <masked_dense2bitslice_opt>:
 80002f8:	e92d 4f70 	stmdb	sp!, {r4, r5, r6, r8, r9, sl, fp, lr}
 80002fc:	b0c2      	sub	sp, #264	; 0x108
 80002fe:	930b      	str	r3, [sp, #44]	; 0x2c
 8000300:	9107      	str	r1, [sp, #28]
 8000302:	9b4a      	ldr	r3, [sp, #296]	; 0x128
 8000304:	900a      	str	r0, [sp, #40]	; 0x28
 8000306:	2800      	cmp	r0, #0
 8000308:	f000 810f 	beq.w	800052a <masked_dense2bitslice_opt+0x232>
 800030c:	994d      	ldr	r1, [sp, #308]	; 0x134
 800030e:	2901      	cmp	r1, #1
 8000310:	f040 8170 	bne.w	80005f4 <masked_dense2bitslice_opt+0x2fc>
 8000314:	1e59      	subs	r1, r3, #1
 8000316:	bf18      	it	ne
 8000318:	2101      	movne	r1, #1
 800031a:	2900      	cmp	r1, #0
 800031c:	f040 816a 	bne.w	80005f4 <masked_dense2bitslice_opt+0x2fc>
 8000320:	9b07      	ldr	r3, [sp, #28]
 8000322:	9d4b      	ldr	r5, [sp, #300]	; 0x12c
 8000324:	9105      	str	r1, [sp, #20]
 8000326:	f023 0401 	bic.w	r4, r3, #1
 800032a:	4618      	mov	r0, r3
 800032c:	009b      	lsls	r3, r3, #2
 800032e:	3308      	adds	r3, #8
 8000330:	9306      	str	r3, [sp, #24]
 8000332:	9b0b      	ldr	r3, [sp, #44]	; 0x2c
 8000334:	9108      	str	r1, [sp, #32]
 8000336:	009b      	lsls	r3, r3, #2
 8000338:	3d02      	subs	r5, #2
 800033a:	468a      	mov	sl, r1
 800033c:	930c      	str	r3, [sp, #48]	; 0x30
 800033e:	a942      	add	r1, sp, #264	; 0x108
 8000340:	eb02 0380 	add.w	r3, r2, r0, lsl #2
 8000344:	eb01 0184 	add.w	r1, r1, r4, lsl #2
 8000348:	f104 0b10 	add.w	fp, r4, #16
 800034c:	950d      	str	r5, [sp, #52]	; 0x34
 800034e:	9304      	str	r3, [sp, #16]
 8000350:	ad42      	add	r5, sp, #264	; 0x108
 8000352:	0843      	lsrs	r3, r0, #1
 8000354:	eb05 0b8b 	add.w	fp, r5, fp, lsl #2
 8000358:	9103      	str	r1, [sp, #12]
 800035a:	1905      	adds	r5, r0, r4
 800035c:	9309      	str	r3, [sp, #36]	; 0x24
 800035e:	a922      	add	r1, sp, #136	; 0x88
 8000360:	1e43      	subs	r3, r0, #1
 8000362:	940f      	str	r4, [sp, #60]	; 0x3c
 8000364:	9502      	str	r5, [sp, #8]
 8000366:	9201      	str	r2, [sp, #4]
 8000368:	f50d 7884 	add.w	r8, sp, #264	; 0x108
 800036c:	930e      	str	r3, [sp, #56]	; 0x38
 800036e:	4691      	mov	r9, r2
 8000370:	468c      	mov	ip, r1
 8000372:	9b0d      	ldr	r3, [sp, #52]	; 0x34
 8000374:	9a05      	ldr	r2, [sp, #20]
 8000376:	4660      	mov	r0, ip
 8000378:	eb03 0342 	add.w	r3, r3, r2, lsl #1
 800037c:	4661      	mov	r1, ip
 800037e:	f9b3 4042 	ldrsh.w	r4, [r3, #66]	; 0x42
 8000382:	f9b3 2002 	ldrsh.w	r2, [r3, #2]
 8000386:	ea42 4204 	orr.w	r2, r2, r4, lsl #16
 800038a:	f840 2b04 	str.w	r2, [r0], #4
 800038e:	4540      	cmp	r0, r8
 8000390:	f103 0302 	add.w	r3, r3, #2
 8000394:	d1f3      	bne.n	800037e <masked_dense2bitslice_opt+0x86>
 8000396:	f04f 0e05 	mov.w	lr, #5
 800039a:	f64f 76ff 	movw	r6, #65535	; 0xffff
 800039e:	2510      	movs	r5, #16
 80003a0:	ea6f 0c05 	mvn.w	ip, r5
 80003a4:	2200      	movs	r2, #0
 80003a6:	1950      	adds	r0, r2, r5
 80003a8:	f851 3022 	ldr.w	r3, [r1, r2, lsl #2]
 80003ac:	f851 4020 	ldr.w	r4, [r1, r0, lsl #2]
 80003b0:	40eb      	lsrs	r3, r5
 80003b2:	4063      	eors	r3, r4
 80003b4:	4033      	ands	r3, r6
 80003b6:	405c      	eors	r4, r3
 80003b8:	f841 4020 	str.w	r4, [r1, r0, lsl #2]
 80003bc:	f851 4022 	ldr.w	r4, [r1, r2, lsl #2]
 80003c0:	40ab      	lsls	r3, r5
 80003c2:	3001      	adds	r0, #1
 80003c4:	4063      	eors	r3, r4
 80003c6:	f841 3022 	str.w	r3, [r1, r2, lsl #2]
 80003ca:	ea00 020c 	and.w	r2, r0, ip
 80003ce:	2a1f      	cmp	r2, #31
 80003d0:	dde9      	ble.n	80003a6 <masked_dense2bitslice_opt+0xae>
 80003d2:	106d      	asrs	r5, r5, #1
 80003d4:	fa06 f305 	lsl.w	r3, r6, r5
 80003d8:	f1be 0e01 	subs.w	lr, lr, #1
 80003dc:	ea86 0603 	eor.w	r6, r6, r3
 80003e0:	d1de      	bne.n	80003a0 <masked_dense2bitslice_opt+0xa8>
 80003e2:	9b07      	ldr	r3, [sp, #28]
 80003e4:	468c      	mov	ip, r1
 80003e6:	2b00      	cmp	r3, #0
 80003e8:	f000 8086 	beq.w	80004f8 <masked_dense2bitslice_opt+0x200>
 80003ec:	9e04      	ldr	r6, [sp, #16]
 80003ee:	9a01      	ldr	r2, [sp, #4]
 80003f0:	9b0e      	ldr	r3, [sp, #56]	; 0x38
 80003f2:	4332      	orrs	r2, r6
 80003f4:	2b05      	cmp	r3, #5
 80003f6:	f3c2 0202 	ubfx	r2, r2, #0, #3
 80003fa:	bf94      	ite	ls
 80003fc:	2300      	movls	r3, #0
 80003fe:	2301      	movhi	r3, #1
 8000400:	2a00      	cmp	r2, #0
 8000402:	bf18      	it	ne
 8000404:	2300      	movne	r3, #0
 8000406:	ea4f 028a 	mov.w	r2, sl, lsl #2
 800040a:	2b00      	cmp	r3, #0
 800040c:	f000 8090 	beq.w	8000530 <masked_dense2bitslice_opt+0x238>
 8000410:	9906      	ldr	r1, [sp, #24]
 8000412:	f102 0008 	add.w	r0, r2, #8
 8000416:	f1a1 0308 	sub.w	r3, r1, #8
 800041a:	428a      	cmp	r2, r1
 800041c:	bfb8      	it	lt
 800041e:	4283      	cmplt	r3, r0
 8000420:	f2c0 8086 	blt.w	8000530 <masked_dense2bitslice_opt+0x238>
 8000424:	e9dd 2322 	ldrd	r2, r3, [sp, #136]	; 0x88
 8000428:	e9dd 4532 	ldrd	r4, r5, [sp, #200]	; 0xc8
 800042c:	9909      	ldr	r1, [sp, #36]	; 0x24
 800042e:	9801      	ldr	r0, [sp, #4]
 8000430:	2901      	cmp	r1, #1
 8000432:	e9c0 2300 	strd	r2, r3, [r0]
 8000436:	e9c6 4500 	strd	r4, r5, [r6]
 800043a:	4630      	mov	r0, r6
 800043c:	d94a      	bls.n	80004d4 <masked_dense2bitslice_opt+0x1dc>
 800043e:	e9dd 2324 	ldrd	r2, r3, [sp, #144]	; 0x90
 8000442:	e9dd 4534 	ldrd	r4, r5, [sp, #208]	; 0xd0
 8000446:	9e01      	ldr	r6, [sp, #4]
 8000448:	2902      	cmp	r1, #2
 800044a:	e9c6 2302 	strd	r2, r3, [r6, #8]
 800044e:	e9c0 4502 	strd	r4, r5, [r0, #8]
 8000452:	d03f      	beq.n	80004d4 <masked_dense2bitslice_opt+0x1dc>
 8000454:	e9dd 2326 	ldrd	r2, r3, [sp, #152]	; 0x98
 8000458:	e9dd 4536 	ldrd	r4, r5, [sp, #216]	; 0xd8
 800045c:	9e01      	ldr	r6, [sp, #4]
 800045e:	2903      	cmp	r1, #3
 8000460:	e9c6 2304 	strd	r2, r3, [r6, #16]
 8000464:	e9c0 4504 	strd	r4, r5, [r0, #16]
 8000468:	d034      	beq.n	80004d4 <masked_dense2bitslice_opt+0x1dc>
 800046a:	e9dd 2328 	ldrd	r2, r3, [sp, #160]	; 0xa0
 800046e:	e9dd 4538 	ldrd	r4, r5, [sp, #224]	; 0xe0
 8000472:	9e01      	ldr	r6, [sp, #4]
 8000474:	2904      	cmp	r1, #4
 8000476:	e9c6 2306 	strd	r2, r3, [r6, #24]
 800047a:	e9c0 4506 	strd	r4, r5, [r0, #24]
 800047e:	d029      	beq.n	80004d4 <masked_dense2bitslice_opt+0x1dc>
 8000480:	e9dd 232a 	ldrd	r2, r3, [sp, #168]	; 0xa8
 8000484:	e9dd 453a 	ldrd	r4, r5, [sp, #232]	; 0xe8
 8000488:	9e01      	ldr	r6, [sp, #4]
 800048a:	2905      	cmp	r1, #5
 800048c:	e9c6 2308 	strd	r2, r3, [r6, #32]
 8000490:	e9c0 4508 	strd	r4, r5, [r0, #32]
 8000494:	d01e      	beq.n	80004d4 <masked_dense2bitslice_opt+0x1dc>
 8000496:	e9dd 232c 	ldrd	r2, r3, [sp, #176]	; 0xb0
 800049a:	e9dd 453c 	ldrd	r4, r5, [sp, #240]	; 0xf0
 800049e:	9909      	ldr	r1, [sp, #36]	; 0x24
 80004a0:	9e01      	ldr	r6, [sp, #4]
 80004a2:	2906      	cmp	r1, #6
 80004a4:	e9c6 230a 	strd	r2, r3, [r6, #40]	; 0x28
 80004a8:	e9c0 450a 	strd	r4, r5, [r0, #40]	; 0x28
 80004ac:	d012      	beq.n	80004d4 <masked_dense2bitslice_opt+0x1dc>
 80004ae:	e9dd 232e 	ldrd	r2, r3, [sp, #184]	; 0xb8
 80004b2:	e9dd 453e 	ldrd	r4, r5, [sp, #248]	; 0xf8
 80004b6:	9909      	ldr	r1, [sp, #36]	; 0x24
 80004b8:	2907      	cmp	r1, #7
 80004ba:	e9c6 230c 	strd	r2, r3, [r6, #48]	; 0x30
 80004be:	e9c0 450c 	strd	r4, r5, [r0, #48]	; 0x30
 80004c2:	d007      	beq.n	80004d4 <masked_dense2bitslice_opt+0x1dc>
 80004c4:	e9dd 2330 	ldrd	r2, r3, [sp, #192]	; 0xc0
 80004c8:	e9dd 4540 	ldrd	r4, r5, [sp, #256]	; 0x100
 80004cc:	e9c6 230e 	strd	r2, r3, [r6, #56]	; 0x38
 80004d0:	e9c0 450e 	strd	r4, r5, [r0, #56]	; 0x38
 80004d4:	9b07      	ldr	r3, [sp, #28]
 80004d6:	4619      	mov	r1, r3
 80004d8:	9b0f      	ldr	r3, [sp, #60]	; 0x3c
 80004da:	4299      	cmp	r1, r3
 80004dc:	d00c      	beq.n	80004f8 <masked_dense2bitslice_opt+0x200>
 80004de:	eb03 020a 	add.w	r2, r3, sl
 80004e2:	9803      	ldr	r0, [sp, #12]
 80004e4:	9b02      	ldr	r3, [sp, #8]
 80004e6:	f850 0c80 	ldr.w	r0, [r0, #-128]
 80004ea:	f849 0022 	str.w	r0, [r9, r2, lsl #2]
 80004ee:	4453      	add	r3, sl
 80004f0:	f85b 2c80 	ldr.w	r2, [fp, #-128]
 80004f4:	f849 2023 	str.w	r2, [r9, r3, lsl #2]
 80004f8:	9901      	ldr	r1, [sp, #4]
 80004fa:	9a0c      	ldr	r2, [sp, #48]	; 0x30
 80004fc:	9b08      	ldr	r3, [sp, #32]
 80004fe:	4608      	mov	r0, r1
 8000500:	9904      	ldr	r1, [sp, #16]
 8000502:	4410      	add	r0, r2
 8000504:	9001      	str	r0, [sp, #4]
 8000506:	4608      	mov	r0, r1
 8000508:	9906      	ldr	r1, [sp, #24]
 800050a:	4410      	add	r0, r2
 800050c:	4411      	add	r1, r2
 800050e:	9a0b      	ldr	r2, [sp, #44]	; 0x2c
 8000510:	9106      	str	r1, [sp, #24]
 8000512:	4492      	add	sl, r2
 8000514:	994c      	ldr	r1, [sp, #304]	; 0x130
 8000516:	9a05      	ldr	r2, [sp, #20]
 8000518:	9004      	str	r0, [sp, #16]
 800051a:	440a      	add	r2, r1
 800051c:	9205      	str	r2, [sp, #20]
 800051e:	9a0a      	ldr	r2, [sp, #40]	; 0x28
 8000520:	3301      	adds	r3, #1
 8000522:	429a      	cmp	r2, r3
 8000524:	9308      	str	r3, [sp, #32]
 8000526:	f47f af24 	bne.w	8000372 <masked_dense2bitslice_opt+0x7a>
 800052a:	b042      	add	sp, #264	; 0x108
 800052c:	e8bd 8f70 	ldmia.w	sp!, {r4, r5, r6, r8, r9, sl, fp, pc}
 8000530:	9d07      	ldr	r5, [sp, #28]
 8000532:	9901      	ldr	r1, [sp, #4]
 8000534:	9c04      	ldr	r4, [sp, #16]
 8000536:	9b22      	ldr	r3, [sp, #136]	; 0x88
 8000538:	9a32      	ldr	r2, [sp, #200]	; 0xc8
 800053a:	600b      	str	r3, [r1, #0]
 800053c:	2d01      	cmp	r5, #1
 800053e:	6022      	str	r2, [r4, #0]
 8000540:	d9da      	bls.n	80004f8 <masked_dense2bitslice_opt+0x200>
 8000542:	9b23      	ldr	r3, [sp, #140]	; 0x8c
 8000544:	9a33      	ldr	r2, [sp, #204]	; 0xcc
 8000546:	604b      	str	r3, [r1, #4]
 8000548:	2d02      	cmp	r5, #2
 800054a:	6062      	str	r2, [r4, #4]
 800054c:	d0d4      	beq.n	80004f8 <masked_dense2bitslice_opt+0x200>
 800054e:	9b24      	ldr	r3, [sp, #144]	; 0x90
 8000550:	9a34      	ldr	r2, [sp, #208]	; 0xd0
 8000552:	608b      	str	r3, [r1, #8]
 8000554:	2d03      	cmp	r5, #3
 8000556:	60a2      	str	r2, [r4, #8]
 8000558:	d0ce      	beq.n	80004f8 <masked_dense2bitslice_opt+0x200>
 800055a:	9b25      	ldr	r3, [sp, #148]	; 0x94
 800055c:	9a35      	ldr	r2, [sp, #212]	; 0xd4
 800055e:	60cb      	str	r3, [r1, #12]
 8000560:	2d04      	cmp	r5, #4
 8000562:	60e2      	str	r2, [r4, #12]
 8000564:	d0c8      	beq.n	80004f8 <masked_dense2bitslice_opt+0x200>
 8000566:	9b26      	ldr	r3, [sp, #152]	; 0x98
 8000568:	9a36      	ldr	r2, [sp, #216]	; 0xd8
 800056a:	610b      	str	r3, [r1, #16]
 800056c:	2d05      	cmp	r5, #5
 800056e:	6122      	str	r2, [r4, #16]
 8000570:	d0c2      	beq.n	80004f8 <masked_dense2bitslice_opt+0x200>
 8000572:	9b27      	ldr	r3, [sp, #156]	; 0x9c
 8000574:	9a37      	ldr	r2, [sp, #220]	; 0xdc
 8000576:	614b      	str	r3, [r1, #20]
 8000578:	2d06      	cmp	r5, #6
 800057a:	6162      	str	r2, [r4, #20]
 800057c:	d0bc      	beq.n	80004f8 <masked_dense2bitslice_opt+0x200>
 800057e:	9b28      	ldr	r3, [sp, #160]	; 0xa0
 8000580:	9a38      	ldr	r2, [sp, #224]	; 0xe0
 8000582:	618b      	str	r3, [r1, #24]
 8000584:	2d07      	cmp	r5, #7
 8000586:	61a2      	str	r2, [r4, #24]
 8000588:	d0b6      	beq.n	80004f8 <masked_dense2bitslice_opt+0x200>
 800058a:	9b29      	ldr	r3, [sp, #164]	; 0xa4
 800058c:	9a39      	ldr	r2, [sp, #228]	; 0xe4
 800058e:	61cb      	str	r3, [r1, #28]
 8000590:	2d08      	cmp	r5, #8
 8000592:	61e2      	str	r2, [r4, #28]
 8000594:	d0b0      	beq.n	80004f8 <masked_dense2bitslice_opt+0x200>
 8000596:	9b2a      	ldr	r3, [sp, #168]	; 0xa8
 8000598:	9a3a      	ldr	r2, [sp, #232]	; 0xe8
 800059a:	620b      	str	r3, [r1, #32]
 800059c:	2d09      	cmp	r5, #9
 800059e:	6222      	str	r2, [r4, #32]
 80005a0:	d0aa      	beq.n	80004f8 <masked_dense2bitslice_opt+0x200>
 80005a2:	9b2b      	ldr	r3, [sp, #172]	; 0xac
 80005a4:	9a3b      	ldr	r2, [sp, #236]	; 0xec
 80005a6:	624b      	str	r3, [r1, #36]	; 0x24
 80005a8:	2d0a      	cmp	r5, #10
 80005aa:	6262      	str	r2, [r4, #36]	; 0x24
 80005ac:	d0a4      	beq.n	80004f8 <masked_dense2bitslice_opt+0x200>
 80005ae:	9b2c      	ldr	r3, [sp, #176]	; 0xb0
 80005b0:	9a3c      	ldr	r2, [sp, #240]	; 0xf0
 80005b2:	628b      	str	r3, [r1, #40]	; 0x28
 80005b4:	2d0b      	cmp	r5, #11
 80005b6:	62a2      	str	r2, [r4, #40]	; 0x28
 80005b8:	d09e      	beq.n	80004f8 <masked_dense2bitslice_opt+0x200>
 80005ba:	9b2d      	ldr	r3, [sp, #180]	; 0xb4
 80005bc:	9a3d      	ldr	r2, [sp, #244]	; 0xf4
 80005be:	62cb      	str	r3, [r1, #44]	; 0x2c
 80005c0:	2d0c      	cmp	r5, #12
 80005c2:	62e2      	str	r2, [r4, #44]	; 0x2c
 80005c4:	d098      	beq.n	80004f8 <masked_dense2bitslice_opt+0x200>
 80005c6:	9b2e      	ldr	r3, [sp, #184]	; 0xb8
 80005c8:	9a3e      	ldr	r2, [sp, #248]	; 0xf8
 80005ca:	630b      	str	r3, [r1, #48]	; 0x30
 80005cc:	2d0d      	cmp	r5, #13
 80005ce:	6322      	str	r2, [r4, #48]	; 0x30
 80005d0:	d092      	beq.n	80004f8 <masked_dense2bitslice_opt+0x200>
 80005d2:	9b2f      	ldr	r3, [sp, #188]	; 0xbc
 80005d4:	9a3f      	ldr	r2, [sp, #252]	; 0xfc
 80005d6:	634b      	str	r3, [r1, #52]	; 0x34
 80005d8:	2d0e      	cmp	r5, #14
 80005da:	6362      	str	r2, [r4, #52]	; 0x34
 80005dc:	d08c      	beq.n	80004f8 <masked_dense2bitslice_opt+0x200>
 80005de:	9b30      	ldr	r3, [sp, #192]	; 0xc0
 80005e0:	9a40      	ldr	r2, [sp, #256]	; 0x100
 80005e2:	638b      	str	r3, [r1, #56]	; 0x38
 80005e4:	2d0f      	cmp	r5, #15
 80005e6:	63a2      	str	r2, [r4, #56]	; 0x38
 80005e8:	d086      	beq.n	80004f8 <masked_dense2bitslice_opt+0x200>
 80005ea:	9b31      	ldr	r3, [sp, #196]	; 0xc4
 80005ec:	9a41      	ldr	r2, [sp, #260]	; 0x104
 80005ee:	63cb      	str	r3, [r1, #60]	; 0x3c
 80005f0:	63e2      	str	r2, [r4, #60]	; 0x3c
 80005f2:	e781      	b.n	80004f8 <masked_dense2bitslice_opt+0x200>
 80005f4:	9907      	ldr	r1, [sp, #28]
 80005f6:	ebc3 1403 	rsb	r4, r3, r3, lsl #4
 80005fa:	f101 0b0f 	add.w	fp, r1, #15
 80005fe:	eba3 1103 	sub.w	r1, r3, r3, lsl #4
 8000602:	9105      	str	r1, [sp, #20]
 8000604:	ebc3 7503 	rsb	r5, r3, r3, lsl #28
 8000608:	eb02 0484 	add.w	r4, r2, r4, lsl #2
 800060c:	951f      	str	r5, [sp, #124]	; 0x7c
 800060e:	9402      	str	r4, [sp, #8]
 8000610:	ebc3 75c3 	rsb	r5, r3, r3, lsl #31
 8000614:	9c05      	ldr	r4, [sp, #20]
 8000616:	9520      	str	r5, [sp, #128]	; 0x80
 8000618:	eba3 01c3 	sub.w	r1, r3, r3, lsl #3
 800061c:	2500      	movs	r5, #0
 800061e:	9111      	str	r1, [sp, #68]	; 0x44
 8000620:	9501      	str	r5, [sp, #4]
 8000622:	00a4      	lsls	r4, r4, #2
 8000624:	9d0b      	ldr	r5, [sp, #44]	; 0x2c
 8000626:	9406      	str	r4, [sp, #24]
 8000628:	9c11      	ldr	r4, [sp, #68]	; 0x44
 800062a:	00ad      	lsls	r5, r5, #2
 800062c:	eba3 0083 	sub.w	r0, r3, r3, lsl #2
 8000630:	fb03 fb0b 	mul.w	fp, r3, fp
 8000634:	9504      	str	r5, [sp, #16]
 8000636:	00e5      	lsls	r5, r4, #3
 8000638:	9017      	str	r0, [sp, #92]	; 0x5c
 800063a:	950b      	str	r5, [sp, #44]	; 0x2c
 800063c:	eb02 0b8b 	add.w	fp, r2, fp, lsl #2
 8000640:	0065      	lsls	r5, r4, #1
 8000642:	f06f 0233 	mvn.w	r2, #51	; 0x33
 8000646:	00a4      	lsls	r4, r4, #2
 8000648:	9419      	str	r4, [sp, #100]	; 0x64
 800064a:	f06f 060c 	mvn.w	r6, #12
 800064e:	fb02 f403 	mul.w	r4, r2, r3
 8000652:	9a17      	ldr	r2, [sp, #92]	; 0x5c
 8000654:	9408      	str	r4, [sp, #32]
 8000656:	fb06 f403 	mul.w	r4, r6, r3
 800065a:	9409      	str	r4, [sp, #36]	; 0x24
 800065c:	0114      	lsls	r4, r2, #4
 800065e:	9412      	str	r4, [sp, #72]	; 0x48
 8000660:	0094      	lsls	r4, r2, #2
 8000662:	9413      	str	r4, [sp, #76]	; 0x4c
 8000664:	00d4      	lsls	r4, r2, #3
 8000666:	941d      	str	r4, [sp, #116]	; 0x74
 8000668:	f06f 0c2b 	mvn.w	ip, #43	; 0x2b
 800066c:	0054      	lsls	r4, r2, #1
 800066e:	f06f 0e0a 	mvn.w	lr, #10
 8000672:	941e      	str	r4, [sp, #120]	; 0x78
 8000674:	fb0c f403 	mul.w	r4, ip, r3
 8000678:	f06f 0827 	mvn.w	r8, #39	; 0x27
 800067c:	940d      	str	r4, [sp, #52]	; 0x34
 800067e:	fb0e f403 	mul.w	r4, lr, r3
 8000682:	ebc3 60c3 	rsb	r0, r3, r3, lsl #27
 8000686:	f06f 0909 	mvn.w	r9, #9
 800068a:	940e      	str	r4, [sp, #56]	; 0x38
 800068c:	fb08 f403 	mul.w	r4, r8, r3
 8000690:	9003      	str	r0, [sp, #12]
 8000692:	940f      	str	r4, [sp, #60]	; 0x3c
 8000694:	f06f 0a23 	mvn.w	sl, #35	; 0x23
 8000698:	fb09 f403 	mul.w	r4, r9, r3
 800069c:	9a03      	ldr	r2, [sp, #12]
 800069e:	9410      	str	r4, [sp, #64]	; 0x40
 80006a0:	ebc3 7143 	rsb	r1, r3, r3, lsl #29
 80006a4:	fb0a f403 	mul.w	r4, sl, r3
 80006a8:	9415      	str	r4, [sp, #84]	; 0x54
 80006aa:	00cc      	lsls	r4, r1, #3
 80006ac:	ebc3 01c1 	rsb	r1, r3, r1, lsl #3
 80006b0:	9116      	str	r1, [sp, #88]	; 0x58
 80006b2:	0151      	lsls	r1, r2, #5
 80006b4:	950c      	str	r5, [sp, #48]	; 0x30
 80006b6:	9414      	str	r4, [sp, #80]	; 0x50
 80006b8:	9118      	str	r1, [sp, #96]	; 0x60
 80006ba:	f06f 0113 	mvn.w	r1, #19
 80006be:	ebc3 7083 	rsb	r0, r3, r3, lsl #30
 80006c2:	fb01 f103 	mul.w	r1, r1, r3
 80006c6:	9a1f      	ldr	r2, [sp, #124]	; 0x7c
 80006c8:	911b      	str	r1, [sp, #108]	; 0x6c
 80006ca:	0081      	lsls	r1, r0, #2
 80006cc:	911a      	str	r1, [sp, #104]	; 0x68
 80006ce:	ebc3 0180 	rsb	r1, r3, r0, lsl #2
 80006d2:	911c      	str	r1, [sp, #112]	; 0x70
 80006d4:	425b      	negs	r3, r3
 80006d6:	0111      	lsls	r1, r2, #4
 80006d8:	9a20      	ldr	r2, [sp, #128]	; 0x80
 80006da:	9321      	str	r3, [sp, #132]	; 0x84
 80006dc:	9b4d      	ldr	r3, [sp, #308]	; 0x134
 80006de:	911f      	str	r1, [sp, #124]	; 0x7c
 80006e0:	0052      	lsls	r2, r2, #1
 80006e2:	2500      	movs	r5, #0
 80006e4:	9220      	str	r2, [sp, #128]	; 0x80
 80006e6:	9503      	str	r5, [sp, #12]
 80006e8:	ea4f 0943 	mov.w	r9, r3, lsl #1
 80006ec:	ea4f 1883 	mov.w	r8, r3, lsl #6
 80006f0:	f50d 7e82 	add.w	lr, sp, #260	; 0x104
 80006f4:	a922      	add	r1, sp, #136	; 0x88
 80006f6:	9b4b      	ldr	r3, [sp, #300]	; 0x12c
 80006f8:	9a01      	ldr	r2, [sp, #4]
 80006fa:	a821      	add	r0, sp, #132	; 0x84
 80006fc:	eb03 0342 	add.w	r3, r3, r2, lsl #1
 8000700:	f933 4008 	ldrsh.w	r4, [r3, r8]
 8000704:	f9b3 2000 	ldrsh.w	r2, [r3]
 8000708:	ea42 4204 	orr.w	r2, r2, r4, lsl #16
 800070c:	f840 2f04 	str.w	r2, [r0, #4]!
 8000710:	4570      	cmp	r0, lr
 8000712:	444b      	add	r3, r9
 8000714:	d1f4      	bne.n	8000700 <masked_dense2bitslice_opt+0x408>
 8000716:	f04f 0a05 	mov.w	sl, #5
 800071a:	f64f 76ff 	movw	r6, #65535	; 0xffff
 800071e:	2510      	movs	r5, #16
 8000720:	ea6f 0c05 	mvn.w	ip, r5
 8000724:	2200      	movs	r2, #0
 8000726:	18a8      	adds	r0, r5, r2
 8000728:	f851 3022 	ldr.w	r3, [r1, r2, lsl #2]
 800072c:	f851 4020 	ldr.w	r4, [r1, r0, lsl #2]
 8000730:	40eb      	lsrs	r3, r5
 8000732:	4063      	eors	r3, r4
 8000734:	4033      	ands	r3, r6
 8000736:	405c      	eors	r4, r3
 8000738:	f841 4020 	str.w	r4, [r1, r0, lsl #2]
 800073c:	f851 4022 	ldr.w	r4, [r1, r2, lsl #2]
 8000740:	40ab      	lsls	r3, r5
 8000742:	3001      	adds	r0, #1
 8000744:	4063      	eors	r3, r4
 8000746:	f841 3022 	str.w	r3, [r1, r2, lsl #2]
 800074a:	ea00 020c 	and.w	r2, r0, ip
 800074e:	2a1f      	cmp	r2, #31
 8000750:	dde9      	ble.n	8000726 <masked_dense2bitslice_opt+0x42e>
 8000752:	106d      	asrs	r5, r5, #1
 8000754:	fa06 f305 	lsl.w	r3, r6, r5
 8000758:	f1ba 0a01 	subs.w	sl, sl, #1
 800075c:	ea86 0603 	eor.w	r6, r6, r3
 8000760:	d1de      	bne.n	8000720 <masked_dense2bitslice_opt+0x428>
 8000762:	9b07      	ldr	r3, [sp, #28]
 8000764:	2b00      	cmp	r3, #0
 8000766:	f000 808e 	beq.w	8000886 <masked_dense2bitslice_opt+0x58e>
 800076a:	9d06      	ldr	r5, [sp, #24]
 800076c:	9802      	ldr	r0, [sp, #8]
 800076e:	9b22      	ldr	r3, [sp, #136]	; 0x88
 8000770:	5143      	str	r3, [r0, r5]
 8000772:	9d07      	ldr	r5, [sp, #28]
 8000774:	9b05      	ldr	r3, [sp, #20]
 8000776:	9a32      	ldr	r2, [sp, #200]	; 0xc8
 8000778:	f84b 2023 	str.w	r2, [fp, r3, lsl #2]
 800077c:	2d01      	cmp	r5, #1
 800077e:	f240 8082 	bls.w	8000886 <masked_dense2bitslice_opt+0x58e>
 8000782:	9e0b      	ldr	r6, [sp, #44]	; 0x2c
 8000784:	9b23      	ldr	r3, [sp, #140]	; 0x8c
 8000786:	5183      	str	r3, [r0, r6]
 8000788:	9b0c      	ldr	r3, [sp, #48]	; 0x30
 800078a:	9a33      	ldr	r2, [sp, #204]	; 0xcc
 800078c:	f84b 2023 	str.w	r2, [fp, r3, lsl #2]
 8000790:	2d02      	cmp	r5, #2
 8000792:	d078      	beq.n	8000886 <masked_dense2bitslice_opt+0x58e>
 8000794:	9e08      	ldr	r6, [sp, #32]
 8000796:	9b24      	ldr	r3, [sp, #144]	; 0x90
 8000798:	5183      	str	r3, [r0, r6]
 800079a:	9b09      	ldr	r3, [sp, #36]	; 0x24
 800079c:	9a34      	ldr	r2, [sp, #208]	; 0xd0
 800079e:	f84b 2023 	str.w	r2, [fp, r3, lsl #2]
 80007a2:	2d03      	cmp	r5, #3
 80007a4:	d06f      	beq.n	8000886 <masked_dense2bitslice_opt+0x58e>
 80007a6:	9e12      	ldr	r6, [sp, #72]	; 0x48
 80007a8:	9b25      	ldr	r3, [sp, #148]	; 0x94
 80007aa:	5183      	str	r3, [r0, r6]
 80007ac:	9e13      	ldr	r6, [sp, #76]	; 0x4c
 80007ae:	9a35      	ldr	r2, [sp, #212]	; 0xd4
 80007b0:	f84b 2026 	str.w	r2, [fp, r6, lsl #2]
 80007b4:	2d04      	cmp	r5, #4
 80007b6:	d066      	beq.n	8000886 <masked_dense2bitslice_opt+0x58e>
 80007b8:	9c0d      	ldr	r4, [sp, #52]	; 0x34
 80007ba:	9b26      	ldr	r3, [sp, #152]	; 0x98
 80007bc:	5103      	str	r3, [r0, r4]
 80007be:	9b0e      	ldr	r3, [sp, #56]	; 0x38
 80007c0:	9a36      	ldr	r2, [sp, #216]	; 0xd8
 80007c2:	f84b 2023 	str.w	r2, [fp, r3, lsl #2]
 80007c6:	2d05      	cmp	r5, #5
 80007c8:	d05d      	beq.n	8000886 <masked_dense2bitslice_opt+0x58e>
 80007ca:	9c0f      	ldr	r4, [sp, #60]	; 0x3c
 80007cc:	9b27      	ldr	r3, [sp, #156]	; 0x9c
 80007ce:	5103      	str	r3, [r0, r4]
 80007d0:	9b10      	ldr	r3, [sp, #64]	; 0x40
 80007d2:	9a37      	ldr	r2, [sp, #220]	; 0xdc
 80007d4:	f84b 2023 	str.w	r2, [fp, r3, lsl #2]
 80007d8:	2d06      	cmp	r5, #6
 80007da:	d054      	beq.n	8000886 <masked_dense2bitslice_opt+0x58e>
 80007dc:	9c15      	ldr	r4, [sp, #84]	; 0x54
 80007de:	9b28      	ldr	r3, [sp, #160]	; 0xa0
 80007e0:	5103      	str	r3, [r0, r4]
 80007e2:	9b16      	ldr	r3, [sp, #88]	; 0x58
 80007e4:	9a38      	ldr	r2, [sp, #224]	; 0xe0
 80007e6:	f84b 2023 	str.w	r2, [fp, r3, lsl #2]
 80007ea:	2d07      	cmp	r5, #7
 80007ec:	d04b      	beq.n	8000886 <masked_dense2bitslice_opt+0x58e>
 80007ee:	9c18      	ldr	r4, [sp, #96]	; 0x60
 80007f0:	9b29      	ldr	r3, [sp, #164]	; 0xa4
 80007f2:	5103      	str	r3, [r0, r4]
 80007f4:	9b14      	ldr	r3, [sp, #80]	; 0x50
 80007f6:	9a39      	ldr	r2, [sp, #228]	; 0xe4
 80007f8:	f84b 2023 	str.w	r2, [fp, r3, lsl #2]
 80007fc:	2d08      	cmp	r5, #8
 80007fe:	d042      	beq.n	8000886 <masked_dense2bitslice_opt+0x58e>
 8000800:	9c19      	ldr	r4, [sp, #100]	; 0x64
 8000802:	9b2a      	ldr	r3, [sp, #168]	; 0xa8
 8000804:	5103      	str	r3, [r0, r4]
 8000806:	9c11      	ldr	r4, [sp, #68]	; 0x44
 8000808:	9a3a      	ldr	r2, [sp, #232]	; 0xe8
 800080a:	f84b 2024 	str.w	r2, [fp, r4, lsl #2]
 800080e:	2d09      	cmp	r5, #9
 8000810:	d039      	beq.n	8000886 <masked_dense2bitslice_opt+0x58e>
 8000812:	9c1d      	ldr	r4, [sp, #116]	; 0x74
 8000814:	9b2b      	ldr	r3, [sp, #172]	; 0xac
 8000816:	5103      	str	r3, [r0, r4]
 8000818:	9c1e      	ldr	r4, [sp, #120]	; 0x78
 800081a:	9a3b      	ldr	r2, [sp, #236]	; 0xec
 800081c:	f84b 2024 	str.w	r2, [fp, r4, lsl #2]
 8000820:	2d0a      	cmp	r5, #10
 8000822:	d030      	beq.n	8000886 <masked_dense2bitslice_opt+0x58e>
 8000824:	9c1b      	ldr	r4, [sp, #108]	; 0x6c
 8000826:	9b2c      	ldr	r3, [sp, #176]	; 0xb0
 8000828:	5103      	str	r3, [r0, r4]
 800082a:	9c1c      	ldr	r4, [sp, #112]	; 0x70
 800082c:	9a3c      	ldr	r2, [sp, #240]	; 0xf0
 800082e:	f84b 2024 	str.w	r2, [fp, r4, lsl #2]
 8000832:	2d0b      	cmp	r5, #11
 8000834:	d027      	beq.n	8000886 <masked_dense2bitslice_opt+0x58e>
 8000836:	9c1f      	ldr	r4, [sp, #124]	; 0x7c
 8000838:	9b2d      	ldr	r3, [sp, #180]	; 0xb4
 800083a:	5103      	str	r3, [r0, r4]
 800083c:	9c1a      	ldr	r4, [sp, #104]	; 0x68
 800083e:	9a3d      	ldr	r2, [sp, #244]	; 0xf4
 8000840:	f84b 2024 	str.w	r2, [fp, r4, lsl #2]
 8000844:	2d0c      	cmp	r5, #12
 8000846:	d01e      	beq.n	8000886 <masked_dense2bitslice_opt+0x58e>
 8000848:	9b2e      	ldr	r3, [sp, #184]	; 0xb8
 800084a:	5183      	str	r3, [r0, r6]
 800084c:	9e17      	ldr	r6, [sp, #92]	; 0x5c
 800084e:	9a3e      	ldr	r2, [sp, #248]	; 0xf8
 8000850:	f84b 2026 	str.w	r2, [fp, r6, lsl #2]
 8000854:	2d0d      	cmp	r5, #13
 8000856:	d016      	beq.n	8000886 <masked_dense2bitslice_opt+0x58e>
 8000858:	9e14      	ldr	r6, [sp, #80]	; 0x50
 800085a:	9b2f      	ldr	r3, [sp, #188]	; 0xbc
 800085c:	5183      	str	r3, [r0, r6]
 800085e:	9b20      	ldr	r3, [sp, #128]	; 0x80
 8000860:	9a3f      	ldr	r2, [sp, #252]	; 0xfc
 8000862:	f84b 2023 	str.w	r2, [fp, r3, lsl #2]
 8000866:	2d0e      	cmp	r5, #14
 8000868:	d00d      	beq.n	8000886 <masked_dense2bitslice_opt+0x58e>
 800086a:	9c1a      	ldr	r4, [sp, #104]	; 0x68
 800086c:	9b30      	ldr	r3, [sp, #192]	; 0xc0
 800086e:	5103      	str	r3, [r0, r4]
 8000870:	9b21      	ldr	r3, [sp, #132]	; 0x84
 8000872:	9a40      	ldr	r2, [sp, #256]	; 0x100
 8000874:	f84b 2023 	str.w	r2, [fp, r3, lsl #2]
 8000878:	2d0f      	cmp	r5, #15
 800087a:	d004      	beq.n	8000886 <masked_dense2bitslice_opt+0x58e>
 800087c:	9b31      	ldr	r3, [sp, #196]	; 0xc4
 800087e:	9a41      	ldr	r2, [sp, #260]	; 0x104
 8000880:	6003      	str	r3, [r0, #0]
 8000882:	f8cb 2000 	str.w	r2, [fp]
 8000886:	9802      	ldr	r0, [sp, #8]
 8000888:	9a04      	ldr	r2, [sp, #16]
 800088a:	9b03      	ldr	r3, [sp, #12]
 800088c:	4604      	mov	r4, r0
 800088e:	4414      	add	r4, r2
 8000890:	984c      	ldr	r0, [sp, #304]	; 0x130
 8000892:	9402      	str	r4, [sp, #8]
 8000894:	4493      	add	fp, r2
 8000896:	9a01      	ldr	r2, [sp, #4]
 8000898:	4402      	add	r2, r0
 800089a:	9201      	str	r2, [sp, #4]
 800089c:	9a0a      	ldr	r2, [sp, #40]	; 0x28
 800089e:	3301      	adds	r3, #1
 80008a0:	429a      	cmp	r2, r3
 80008a2:	9303      	str	r3, [sp, #12]
 80008a4:	f47f af27 	bne.w	80006f6 <masked_dense2bitslice_opt+0x3fe>
 80008a8:	b042      	add	sp, #264	; 0x108
 80008aa:	e8bd 8f70 	ldmia.w	sp!, {r4, r5, r6, r8, r9, sl, fp, pc}
 80008ae:	bf00      	nop

080008b0 <masked_bitslice2dense_opt>:
 80008b0:	e92d 4f70 	stmdb	sp!, {r4, r5, r6, r8, r9, sl, fp, lr}
 80008b4:	b0e0      	sub	sp, #384	; 0x180
 80008b6:	9105      	str	r1, [sp, #20]
 80008b8:	9207      	str	r2, [sp, #28]
 80008ba:	9309      	str	r3, [sp, #36]	; 0x24
 80008bc:	9008      	str	r0, [sp, #32]
 80008be:	2800      	cmp	r0, #0
 80008c0:	f000 8191 	beq.w	8000be6 <masked_bitslice2dense_opt+0x336>
 80008c4:	9b6b      	ldr	r3, [sp, #428]	; 0x1ac
 80008c6:	2b01      	cmp	r3, #1
 80008c8:	f040 8304 	bne.w	8000ed4 <masked_bitslice2dense_opt+0x624>
 80008cc:	9b68      	ldr	r3, [sp, #416]	; 0x1a0
 80008ce:	3b01      	subs	r3, #1
 80008d0:	bf18      	it	ne
 80008d2:	2301      	movne	r3, #1
 80008d4:	2b00      	cmp	r3, #0
 80008d6:	f040 82fd 	bne.w	8000ed4 <masked_bitslice2dense_opt+0x624>
 80008da:	008a      	lsls	r2, r1, #2
 80008dc:	460c      	mov	r4, r1
 80008de:	9216      	str	r2, [sp, #88]	; 0x58
 80008e0:	f102 0140 	add.w	r1, r2, #64	; 0x40
 80008e4:	aa40      	add	r2, sp, #256	; 0x100
 80008e6:	1850      	adds	r0, r2, r1
 80008e8:	4621      	mov	r1, r4
 80008ea:	eb02 0484 	add.w	r4, r2, r4, lsl #2
 80008ee:	1c4d      	adds	r5, r1, #1
 80008f0:	900f      	str	r0, [sp, #60]	; 0x3c
 80008f2:	9410      	str	r4, [sp, #64]	; 0x40
 80008f4:	4320      	orrs	r0, r4
 80008f6:	460c      	mov	r4, r1
 80008f8:	f1c1 010f 	rsb	r1, r1, #15
 80008fc:	290c      	cmp	r1, #12
 80008fe:	bf8c      	ite	hi
 8000900:	2101      	movhi	r1, #1
 8000902:	2100      	movls	r1, #0
 8000904:	2d10      	cmp	r5, #16
 8000906:	bf88      	it	hi
 8000908:	2100      	movhi	r1, #0
 800090a:	f010 0f04 	tst.w	r0, #4
 800090e:	bf18      	it	ne
 8000910:	2100      	movne	r1, #0
 8000912:	910b      	str	r1, [sp, #44]	; 0x2c
 8000914:	2d10      	cmp	r5, #16
 8000916:	f1c4 0110 	rsb	r1, r4, #16
 800091a:	9515      	str	r5, [sp, #84]	; 0x54
 800091c:	bf94      	ite	ls
 800091e:	460d      	movls	r5, r1
 8000920:	2501      	movhi	r5, #1
 8000922:	f025 0101 	bic.w	r1, r5, #1
 8000926:	9111      	str	r1, [sp, #68]	; 0x44
 8000928:	469b      	mov	fp, r3
 800092a:	1863      	adds	r3, r4, r1
 800092c:	9907      	ldr	r1, [sp, #28]
 800092e:	9301      	str	r3, [sp, #4]
 8000930:	3902      	subs	r1, #2
 8000932:	910d      	str	r1, [sp, #52]	; 0x34
 8000934:	9901      	ldr	r1, [sp, #4]
 8000936:	f8dd a1a4 	ldr.w	sl, [sp, #420]	; 0x1a4
 800093a:	950e      	str	r5, [sp, #56]	; 0x38
 800093c:	3110      	adds	r1, #16
 800093e:	f024 0601 	bic.w	r6, r4, #1
 8000942:	9102      	str	r1, [sp, #8]
 8000944:	0869      	lsrs	r1, r5, #1
 8000946:	9112      	str	r1, [sp, #72]	; 0x48
 8000948:	19a1      	adds	r1, r4, r6
 800094a:	9103      	str	r1, [sp, #12]
 800094c:	f106 0110 	add.w	r1, r6, #16
 8000950:	f104 0011 	add.w	r0, r4, #17
 8000954:	9104      	str	r1, [sp, #16]
 8000956:	a960      	add	r1, sp, #384	; 0x180
 8000958:	eb01 0180 	add.w	r1, r1, r0, lsl #2
 800095c:	f104 0c12 	add.w	ip, r4, #18
 8000960:	a860      	add	r0, sp, #384	; 0x180
 8000962:	911b      	str	r1, [sp, #108]	; 0x6c
 8000964:	eb00 018c 	add.w	r1, r0, ip, lsl #2
 8000968:	911c      	str	r1, [sp, #112]	; 0x70
 800096a:	0861      	lsrs	r1, r4, #1
 800096c:	9113      	str	r1, [sp, #76]	; 0x4c
 800096e:	f104 0110 	add.w	r1, r4, #16
 8000972:	9119      	str	r1, [sp, #100]	; 0x64
 8000974:	1ca1      	adds	r1, r4, #2
 8000976:	911a      	str	r1, [sp, #104]	; 0x68
 8000978:	1ce1      	adds	r1, r4, #3
 800097a:	9118      	str	r1, [sp, #96]	; 0x60
 800097c:	f104 0313 	add.w	r3, r4, #19
 8000980:	1d21      	adds	r1, r4, #4
 8000982:	eb00 0383 	add.w	r3, r0, r3, lsl #2
 8000986:	9117      	str	r1, [sp, #92]	; 0x5c
 8000988:	1d61      	adds	r1, r4, #5
 800098a:	931d      	str	r3, [sp, #116]	; 0x74
 800098c:	911e      	str	r1, [sp, #120]	; 0x78
 800098e:	9b6a      	ldr	r3, [sp, #424]	; 0x1a8
 8000990:	9614      	str	r6, [sp, #80]	; 0x50
 8000992:	1da1      	adds	r1, r4, #6
 8000994:	911f      	str	r1, [sp, #124]	; 0x7c
 8000996:	1de1      	adds	r1, r4, #7
 8000998:	009b      	lsls	r3, r3, #2
 800099a:	9120      	str	r1, [sp, #128]	; 0x80
 800099c:	f104 0108 	add.w	r1, r4, #8
 80009a0:	930c      	str	r3, [sp, #48]	; 0x30
 80009a2:	e9cd bb06 	strd	fp, fp, [sp, #24]
 80009a6:	9121      	str	r1, [sp, #132]	; 0x84
 80009a8:	f104 0109 	add.w	r1, r4, #9
 80009ac:	9122      	str	r1, [sp, #136]	; 0x88
 80009ae:	f104 010a 	add.w	r1, r4, #10
 80009b2:	9123      	str	r1, [sp, #140]	; 0x8c
 80009b4:	f104 010b 	add.w	r1, r4, #11
 80009b8:	9124      	str	r1, [sp, #144]	; 0x90
 80009ba:	f104 010c 	add.w	r1, r4, #12
 80009be:	4623      	mov	r3, r4
 80009c0:	9125      	str	r1, [sp, #148]	; 0x94
 80009c2:	f104 010d 	add.w	r1, r4, #13
 80009c6:	330f      	adds	r3, #15
 80009c8:	9126      	str	r1, [sp, #152]	; 0x98
 80009ca:	4621      	mov	r1, r4
 80009cc:	310e      	adds	r1, #14
 80009ce:	9328      	str	r3, [sp, #160]	; 0xa0
 80009d0:	ab3f      	add	r3, sp, #252	; 0xfc
 80009d2:	eb0a 0984 	add.w	r9, sl, r4, lsl #2
 80009d6:	9127      	str	r1, [sp, #156]	; 0x9c
 80009d8:	930a      	str	r3, [sp, #40]	; 0x28
 80009da:	f50d 7ebe 	add.w	lr, sp, #380	; 0x17c
 80009de:	9905      	ldr	r1, [sp, #20]
 80009e0:	2900      	cmp	r1, #0
 80009e2:	f000 8270 	beq.w	8000ec6 <masked_bitslice2dense_opt+0x616>
 80009e6:	ea4a 0309 	orr.w	r3, sl, r9
 80009ea:	075b      	lsls	r3, r3, #29
 80009ec:	f040 80fe 	bne.w	8000bec <masked_bitslice2dense_opt+0x33c>
 80009f0:	1e4b      	subs	r3, r1, #1
 80009f2:	2b05      	cmp	r3, #5
 80009f4:	f240 80fa 	bls.w	8000bec <masked_bitslice2dense_opt+0x33c>
 80009f8:	e9da 0100 	ldrd	r0, r1, [sl]
 80009fc:	e9d9 4500 	ldrd	r4, r5, [r9]
 8000a00:	9b13      	ldr	r3, [sp, #76]	; 0x4c
 8000a02:	2b01      	cmp	r3, #1
 8000a04:	e9cd 0140 	strd	r0, r1, [sp, #256]	; 0x100
 8000a08:	e9cd 4550 	strd	r4, r5, [sp, #320]	; 0x140
 8000a0c:	d943      	bls.n	8000a96 <masked_bitslice2dense_opt+0x1e6>
 8000a0e:	e9da 0102 	ldrd	r0, r1, [sl, #8]
 8000a12:	e9d9 4502 	ldrd	r4, r5, [r9, #8]
 8000a16:	2b02      	cmp	r3, #2
 8000a18:	e9cd 0142 	strd	r0, r1, [sp, #264]	; 0x108
 8000a1c:	e9cd 4552 	strd	r4, r5, [sp, #328]	; 0x148
 8000a20:	d039      	beq.n	8000a96 <masked_bitslice2dense_opt+0x1e6>
 8000a22:	e9da 0104 	ldrd	r0, r1, [sl, #16]
 8000a26:	e9d9 4504 	ldrd	r4, r5, [r9, #16]
 8000a2a:	2b03      	cmp	r3, #3
 8000a2c:	e9cd 0144 	strd	r0, r1, [sp, #272]	; 0x110
 8000a30:	e9cd 4554 	strd	r4, r5, [sp, #336]	; 0x150
 8000a34:	d02f      	beq.n	8000a96 <masked_bitslice2dense_opt+0x1e6>
 8000a36:	e9da 0106 	ldrd	r0, r1, [sl, #24]
 8000a3a:	e9d9 4506 	ldrd	r4, r5, [r9, #24]
 8000a3e:	2b04      	cmp	r3, #4
 8000a40:	e9cd 0146 	strd	r0, r1, [sp, #280]	; 0x118
 8000a44:	e9cd 4556 	strd	r4, r5, [sp, #344]	; 0x158
 8000a48:	d025      	beq.n	8000a96 <masked_bitslice2dense_opt+0x1e6>
 8000a4a:	e9da 0108 	ldrd	r0, r1, [sl, #32]
 8000a4e:	e9d9 4508 	ldrd	r4, r5, [r9, #32]
 8000a52:	2b05      	cmp	r3, #5
 8000a54:	e9cd 0148 	strd	r0, r1, [sp, #288]	; 0x120
 8000a58:	e9cd 4558 	strd	r4, r5, [sp, #352]	; 0x160
 8000a5c:	d01b      	beq.n	8000a96 <masked_bitslice2dense_opt+0x1e6>
 8000a5e:	e9da 010a 	ldrd	r0, r1, [sl, #40]	; 0x28
 8000a62:	e9d9 450a 	ldrd	r4, r5, [r9, #40]	; 0x28
 8000a66:	2b06      	cmp	r3, #6
 8000a68:	e9cd 014a 	strd	r0, r1, [sp, #296]	; 0x128
 8000a6c:	e9cd 455a 	strd	r4, r5, [sp, #360]	; 0x168
 8000a70:	d011      	beq.n	8000a96 <masked_bitslice2dense_opt+0x1e6>
 8000a72:	e9da 010c 	ldrd	r0, r1, [sl, #48]	; 0x30
 8000a76:	e9d9 450c 	ldrd	r4, r5, [r9, #48]	; 0x30
 8000a7a:	2b07      	cmp	r3, #7
 8000a7c:	e9cd 014c 	strd	r0, r1, [sp, #304]	; 0x130
 8000a80:	e9cd 455c 	strd	r4, r5, [sp, #368]	; 0x170
 8000a84:	d007      	beq.n	8000a96 <masked_bitslice2dense_opt+0x1e6>
 8000a86:	e9da 010e 	ldrd	r0, r1, [sl, #56]	; 0x38
 8000a8a:	e9d9 450e 	ldrd	r4, r5, [r9, #56]	; 0x38
 8000a8e:	e9cd 014e 	strd	r0, r1, [sp, #312]	; 0x138
 8000a92:	e9cd 455e 	strd	r4, r5, [sp, #376]	; 0x178
 8000a96:	9b05      	ldr	r3, [sp, #20]
 8000a98:	9c14      	ldr	r4, [sp, #80]	; 0x50
 8000a9a:	42a3      	cmp	r3, r4
 8000a9c:	d014      	beq.n	8000ac8 <masked_bitslice2dense_opt+0x218>
 8000a9e:	eb04 010b 	add.w	r1, r4, fp
 8000aa2:	9b03      	ldr	r3, [sp, #12]
 8000aa4:	9869      	ldr	r0, [sp, #420]	; 0x1a4
 8000aa6:	445b      	add	r3, fp
 8000aa8:	f850 0021 	ldr.w	r0, [r0, r1, lsl #2]
 8000aac:	9969      	ldr	r1, [sp, #420]	; 0x1a4
 8000aae:	f851 1023 	ldr.w	r1, [r1, r3, lsl #2]
 8000ab2:	ab60      	add	r3, sp, #384	; 0x180
 8000ab4:	eb03 0384 	add.w	r3, r3, r4, lsl #2
 8000ab8:	f843 0c80 	str.w	r0, [r3, #-128]
 8000abc:	9b04      	ldr	r3, [sp, #16]
 8000abe:	a860      	add	r0, sp, #384	; 0x180
 8000ac0:	eb00 0383 	add.w	r3, r0, r3, lsl #2
 8000ac4:	f843 1c80 	str.w	r1, [r3, #-128]
 8000ac8:	9b05      	ldr	r3, [sp, #20]
 8000aca:	2b0f      	cmp	r3, #15
 8000acc:	d846      	bhi.n	8000b5c <masked_bitslice2dense_opt+0x2ac>
 8000ace:	9b0b      	ldr	r3, [sp, #44]	; 0x2c
 8000ad0:	2b00      	cmp	r3, #0
 8000ad2:	f000 811a 	beq.w	8000d0a <masked_bitslice2dense_opt+0x45a>
 8000ad6:	9e12      	ldr	r6, [sp, #72]	; 0x48
 8000ad8:	9b10      	ldr	r3, [sp, #64]	; 0x40
 8000ada:	9d0f      	ldr	r5, [sp, #60]	; 0x3c
 8000adc:	2000      	movs	r0, #0
 8000ade:	2100      	movs	r1, #0
 8000ae0:	2e01      	cmp	r6, #1
 8000ae2:	e9c3 0100 	strd	r0, r1, [r3]
 8000ae6:	e9c5 0100 	strd	r0, r1, [r5]
 8000aea:	d927      	bls.n	8000b3c <masked_bitslice2dense_opt+0x28c>
 8000aec:	2e02      	cmp	r6, #2
 8000aee:	e9c3 0102 	strd	r0, r1, [r3, #8]
 8000af2:	e9c5 0102 	strd	r0, r1, [r5, #8]
 8000af6:	d021      	beq.n	8000b3c <masked_bitslice2dense_opt+0x28c>
 8000af8:	2e03      	cmp	r6, #3
 8000afa:	e9c3 0104 	strd	r0, r1, [r3, #16]
 8000afe:	e9c5 0104 	strd	r0, r1, [r5, #16]
 8000b02:	d01b      	beq.n	8000b3c <masked_bitslice2dense_opt+0x28c>
 8000b04:	2e04      	cmp	r6, #4
 8000b06:	e9c3 0106 	strd	r0, r1, [r3, #24]
 8000b0a:	e9c5 0106 	strd	r0, r1, [r5, #24]
 8000b0e:	d015      	beq.n	8000b3c <masked_bitslice2dense_opt+0x28c>
 8000b10:	2e05      	cmp	r6, #5
 8000b12:	e9c3 0108 	strd	r0, r1, [r3, #32]
 8000b16:	e9c5 0108 	strd	r0, r1, [r5, #32]
 8000b1a:	d00f      	beq.n	8000b3c <masked_bitslice2dense_opt+0x28c>
 8000b1c:	2e06      	cmp	r6, #6
 8000b1e:	e9c3 010a 	strd	r0, r1, [r3, #40]	; 0x28
 8000b22:	e9c5 010a 	strd	r0, r1, [r5, #40]	; 0x28
 8000b26:	d009      	beq.n	8000b3c <masked_bitslice2dense_opt+0x28c>
 8000b28:	2e07      	cmp	r6, #7
 8000b2a:	e9c3 010c 	strd	r0, r1, [r3, #48]	; 0x30
 8000b2e:	e9c5 010c 	strd	r0, r1, [r5, #48]	; 0x30
 8000b32:	d003      	beq.n	8000b3c <masked_bitslice2dense_opt+0x28c>
 8000b34:	e9c3 010e 	strd	r0, r1, [r3, #56]	; 0x38
 8000b38:	e9c5 010e 	strd	r0, r1, [r5, #56]	; 0x38
 8000b3c:	9b0e      	ldr	r3, [sp, #56]	; 0x38
 8000b3e:	9911      	ldr	r1, [sp, #68]	; 0x44
 8000b40:	428b      	cmp	r3, r1
 8000b42:	d00b      	beq.n	8000b5c <masked_bitslice2dense_opt+0x2ac>
 8000b44:	9b01      	ldr	r3, [sp, #4]
 8000b46:	a860      	add	r0, sp, #384	; 0x180
 8000b48:	eb00 0383 	add.w	r3, r0, r3, lsl #2
 8000b4c:	2100      	movs	r1, #0
 8000b4e:	f843 1c80 	str.w	r1, [r3, #-128]
 8000b52:	9b02      	ldr	r3, [sp, #8]
 8000b54:	eb00 0383 	add.w	r3, r0, r3, lsl #2
 8000b58:	f843 1c80 	str.w	r1, [r3, #-128]
 8000b5c:	f04f 0805 	mov.w	r8, #5
 8000b60:	f64f 76ff 	movw	r6, #65535	; 0xffff
 8000b64:	2510      	movs	r5, #16
 8000b66:	ea6f 0c05 	mvn.w	ip, r5
 8000b6a:	2100      	movs	r1, #0
 8000b6c:	1948      	adds	r0, r1, r5
 8000b6e:	f852 3021 	ldr.w	r3, [r2, r1, lsl #2]
 8000b72:	f852 4020 	ldr.w	r4, [r2, r0, lsl #2]
 8000b76:	40eb      	lsrs	r3, r5
 8000b78:	4063      	eors	r3, r4
 8000b7a:	4033      	ands	r3, r6
 8000b7c:	405c      	eors	r4, r3
 8000b7e:	f842 4020 	str.w	r4, [r2, r0, lsl #2]
 8000b82:	f852 4021 	ldr.w	r4, [r2, r1, lsl #2]
 8000b86:	40ab      	lsls	r3, r5
 8000b88:	3001      	adds	r0, #1
 8000b8a:	4063      	eors	r3, r4
 8000b8c:	f842 3021 	str.w	r3, [r2, r1, lsl #2]
 8000b90:	ea00 010c 	and.w	r1, r0, ip
 8000b94:	291f      	cmp	r1, #31
 8000b96:	dde9      	ble.n	8000b6c <masked_bitslice2dense_opt+0x2bc>
 8000b98:	106d      	asrs	r5, r5, #1
 8000b9a:	fa06 f305 	lsl.w	r3, r6, r5
 8000b9e:	f1b8 0801 	subs.w	r8, r8, #1
 8000ba2:	ea86 0603 	eor.w	r6, r6, r3
 8000ba6:	d1de      	bne.n	8000b66 <masked_bitslice2dense_opt+0x2b6>
 8000ba8:	9b0d      	ldr	r3, [sp, #52]	; 0x34
 8000baa:	9906      	ldr	r1, [sp, #24]
 8000bac:	980a      	ldr	r0, [sp, #40]	; 0x28
 8000bae:	eb03 0141 	add.w	r1, r3, r1, lsl #1
 8000bb2:	f850 3f04 	ldr.w	r3, [r0, #4]!
 8000bb6:	f821 3f02 	strh.w	r3, [r1, #2]!
 8000bba:	4570      	cmp	r0, lr
 8000bbc:	ea4f 4313 	mov.w	r3, r3, lsr #16
 8000bc0:	f8a1 3040 	strh.w	r3, [r1, #64]	; 0x40
 8000bc4:	d1f5      	bne.n	8000bb2 <masked_bitslice2dense_opt+0x302>
 8000bc6:	9906      	ldr	r1, [sp, #24]
 8000bc8:	9809      	ldr	r0, [sp, #36]	; 0x24
 8000bca:	9b07      	ldr	r3, [sp, #28]
 8000bcc:	4401      	add	r1, r0
 8000bce:	9106      	str	r1, [sp, #24]
 8000bd0:	990c      	ldr	r1, [sp, #48]	; 0x30
 8000bd2:	448a      	add	sl, r1
 8000bd4:	4489      	add	r9, r1
 8000bd6:	996a      	ldr	r1, [sp, #424]	; 0x1a8
 8000bd8:	448b      	add	fp, r1
 8000bda:	9908      	ldr	r1, [sp, #32]
 8000bdc:	3301      	adds	r3, #1
 8000bde:	4299      	cmp	r1, r3
 8000be0:	9307      	str	r3, [sp, #28]
 8000be2:	f47f aefc 	bne.w	80009de <masked_bitslice2dense_opt+0x12e>
 8000be6:	b060      	add	sp, #384	; 0x180
 8000be8:	e8bd 8f70 	ldmia.w	sp!, {r4, r5, r6, r8, r9, sl, fp, pc}
 8000bec:	9805      	ldr	r0, [sp, #20]
 8000bee:	f8da 3000 	ldr.w	r3, [sl]
 8000bf2:	f8d9 1000 	ldr.w	r1, [r9]
 8000bf6:	9340      	str	r3, [sp, #256]	; 0x100
 8000bf8:	2801      	cmp	r0, #1
 8000bfa:	9150      	str	r1, [sp, #320]	; 0x140
 8000bfc:	f67f af64 	bls.w	8000ac8 <masked_bitslice2dense_opt+0x218>
 8000c00:	f8da 3004 	ldr.w	r3, [sl, #4]
 8000c04:	f8d9 1004 	ldr.w	r1, [r9, #4]
 8000c08:	9341      	str	r3, [sp, #260]	; 0x104
 8000c0a:	2802      	cmp	r0, #2
 8000c0c:	9151      	str	r1, [sp, #324]	; 0x144
 8000c0e:	f43f af5e 	beq.w	8000ace <masked_bitslice2dense_opt+0x21e>
 8000c12:	f8da 3008 	ldr.w	r3, [sl, #8]
 8000c16:	f8d9 1008 	ldr.w	r1, [r9, #8]
 8000c1a:	9342      	str	r3, [sp, #264]	; 0x108
 8000c1c:	2803      	cmp	r0, #3
 8000c1e:	9152      	str	r1, [sp, #328]	; 0x148
 8000c20:	f43f af55 	beq.w	8000ace <masked_bitslice2dense_opt+0x21e>
 8000c24:	f8da 300c 	ldr.w	r3, [sl, #12]
 8000c28:	f8d9 100c 	ldr.w	r1, [r9, #12]
 8000c2c:	9343      	str	r3, [sp, #268]	; 0x10c
 8000c2e:	2804      	cmp	r0, #4
 8000c30:	9153      	str	r1, [sp, #332]	; 0x14c
 8000c32:	f43f af4c 	beq.w	8000ace <masked_bitslice2dense_opt+0x21e>
 8000c36:	f8da 3010 	ldr.w	r3, [sl, #16]
 8000c3a:	f8d9 1010 	ldr.w	r1, [r9, #16]
 8000c3e:	9344      	str	r3, [sp, #272]	; 0x110
 8000c40:	2805      	cmp	r0, #5
 8000c42:	9154      	str	r1, [sp, #336]	; 0x150
 8000c44:	f43f af43 	beq.w	8000ace <masked_bitslice2dense_opt+0x21e>
 8000c48:	f8da 3014 	ldr.w	r3, [sl, #20]
 8000c4c:	f8d9 1014 	ldr.w	r1, [r9, #20]
 8000c50:	9345      	str	r3, [sp, #276]	; 0x114
 8000c52:	2806      	cmp	r0, #6
 8000c54:	9155      	str	r1, [sp, #340]	; 0x154
 8000c56:	f43f af3a 	beq.w	8000ace <masked_bitslice2dense_opt+0x21e>
 8000c5a:	f8da 3018 	ldr.w	r3, [sl, #24]
 8000c5e:	f8d9 1018 	ldr.w	r1, [r9, #24]
 8000c62:	9346      	str	r3, [sp, #280]	; 0x118
 8000c64:	2807      	cmp	r0, #7
 8000c66:	9156      	str	r1, [sp, #344]	; 0x158
 8000c68:	f43f af31 	beq.w	8000ace <masked_bitslice2dense_opt+0x21e>
 8000c6c:	f8da 301c 	ldr.w	r3, [sl, #28]
 8000c70:	f8d9 101c 	ldr.w	r1, [r9, #28]
 8000c74:	9347      	str	r3, [sp, #284]	; 0x11c
 8000c76:	2808      	cmp	r0, #8
 8000c78:	9157      	str	r1, [sp, #348]	; 0x15c
 8000c7a:	f43f af28 	beq.w	8000ace <masked_bitslice2dense_opt+0x21e>
 8000c7e:	f8da 3020 	ldr.w	r3, [sl, #32]
 8000c82:	f8d9 1020 	ldr.w	r1, [r9, #32]
 8000c86:	9348      	str	r3, [sp, #288]	; 0x120
 8000c88:	2809      	cmp	r0, #9
 8000c8a:	9158      	str	r1, [sp, #352]	; 0x160
 8000c8c:	f43f af1f 	beq.w	8000ace <masked_bitslice2dense_opt+0x21e>
 8000c90:	f8da 3024 	ldr.w	r3, [sl, #36]	; 0x24
 8000c94:	f8d9 1024 	ldr.w	r1, [r9, #36]	; 0x24
 8000c98:	9349      	str	r3, [sp, #292]	; 0x124
 8000c9a:	280a      	cmp	r0, #10
 8000c9c:	9159      	str	r1, [sp, #356]	; 0x164
 8000c9e:	f43f af16 	beq.w	8000ace <masked_bitslice2dense_opt+0x21e>
 8000ca2:	f8da 3028 	ldr.w	r3, [sl, #40]	; 0x28
 8000ca6:	f8d9 1028 	ldr.w	r1, [r9, #40]	; 0x28
 8000caa:	934a      	str	r3, [sp, #296]	; 0x128
 8000cac:	280b      	cmp	r0, #11
 8000cae:	915a      	str	r1, [sp, #360]	; 0x168
 8000cb0:	f43f af0d 	beq.w	8000ace <masked_bitslice2dense_opt+0x21e>
 8000cb4:	f8da 302c 	ldr.w	r3, [sl, #44]	; 0x2c
 8000cb8:	f8d9 102c 	ldr.w	r1, [r9, #44]	; 0x2c
 8000cbc:	934b      	str	r3, [sp, #300]	; 0x12c
 8000cbe:	280c      	cmp	r0, #12
 8000cc0:	915b      	str	r1, [sp, #364]	; 0x16c
 8000cc2:	f43f af04 	beq.w	8000ace <masked_bitslice2dense_opt+0x21e>
 8000cc6:	f8da 3030 	ldr.w	r3, [sl, #48]	; 0x30
 8000cca:	f8d9 1030 	ldr.w	r1, [r9, #48]	; 0x30
 8000cce:	934c      	str	r3, [sp, #304]	; 0x130
 8000cd0:	280d      	cmp	r0, #13
 8000cd2:	915c      	str	r1, [sp, #368]	; 0x170
 8000cd4:	f43f aefb 	beq.w	8000ace <masked_bitslice2dense_opt+0x21e>
 8000cd8:	f8da 3034 	ldr.w	r3, [sl, #52]	; 0x34
 8000cdc:	f8d9 1034 	ldr.w	r1, [r9, #52]	; 0x34
 8000ce0:	934d      	str	r3, [sp, #308]	; 0x134
 8000ce2:	280e      	cmp	r0, #14
 8000ce4:	915d      	str	r1, [sp, #372]	; 0x174
 8000ce6:	f43f aef2 	beq.w	8000ace <masked_bitslice2dense_opt+0x21e>
 8000cea:	f8da 3038 	ldr.w	r3, [sl, #56]	; 0x38
 8000cee:	f8d9 1038 	ldr.w	r1, [r9, #56]	; 0x38
 8000cf2:	934e      	str	r3, [sp, #312]	; 0x138
 8000cf4:	280f      	cmp	r0, #15
 8000cf6:	915e      	str	r1, [sp, #376]	; 0x178
 8000cf8:	f43f aee9 	beq.w	8000ace <masked_bitslice2dense_opt+0x21e>
 8000cfc:	f8da 303c 	ldr.w	r3, [sl, #60]	; 0x3c
 8000d00:	f8d9 103c 	ldr.w	r1, [r9, #60]	; 0x3c
 8000d04:	934f      	str	r3, [sp, #316]	; 0x13c
 8000d06:	915f      	str	r1, [sp, #380]	; 0x17c
 8000d08:	e728      	b.n	8000b5c <masked_bitslice2dense_opt+0x2ac>
 8000d0a:	9916      	ldr	r1, [sp, #88]	; 0x58
 8000d0c:	ab60      	add	r3, sp, #384	; 0x180
 8000d0e:	440b      	add	r3, r1
 8000d10:	990b      	ldr	r1, [sp, #44]	; 0x2c
 8000d12:	f843 1c80 	str.w	r1, [r3, #-128]
 8000d16:	9b19      	ldr	r3, [sp, #100]	; 0x64
 8000d18:	a860      	add	r0, sp, #384	; 0x180
 8000d1a:	eb00 0383 	add.w	r3, r0, r3, lsl #2
 8000d1e:	f843 1c80 	str.w	r1, [r3, #-128]
 8000d22:	9b15      	ldr	r3, [sp, #84]	; 0x54
 8000d24:	2b0f      	cmp	r3, #15
 8000d26:	f63f af19 	bhi.w	8000b5c <masked_bitslice2dense_opt+0x2ac>
 8000d2a:	9915      	ldr	r1, [sp, #84]	; 0x54
 8000d2c:	a860      	add	r0, sp, #384	; 0x180
 8000d2e:	eb00 0181 	add.w	r1, r0, r1, lsl #2
 8000d32:	2300      	movs	r3, #0
 8000d34:	f841 3c80 	str.w	r3, [r1, #-128]
 8000d38:	991b      	ldr	r1, [sp, #108]	; 0x6c
 8000d3a:	f841 3c80 	str.w	r3, [r1, #-128]
 8000d3e:	991a      	ldr	r1, [sp, #104]	; 0x68
 8000d40:	290f      	cmp	r1, #15
 8000d42:	f63f af0b 	bhi.w	8000b5c <masked_bitslice2dense_opt+0x2ac>
 8000d46:	eb00 0181 	add.w	r1, r0, r1, lsl #2
 8000d4a:	f841 3c80 	str.w	r3, [r1, #-128]
 8000d4e:	991c      	ldr	r1, [sp, #112]	; 0x70
 8000d50:	f841 3c80 	str.w	r3, [r1, #-128]
 8000d54:	9918      	ldr	r1, [sp, #96]	; 0x60
 8000d56:	290f      	cmp	r1, #15
 8000d58:	f63f af00 	bhi.w	8000b5c <masked_bitslice2dense_opt+0x2ac>
 8000d5c:	eb00 0181 	add.w	r1, r0, r1, lsl #2
 8000d60:	9817      	ldr	r0, [sp, #92]	; 0x5c
 8000d62:	f841 3c80 	str.w	r3, [r1, #-128]
 8000d66:	991d      	ldr	r1, [sp, #116]	; 0x74
 8000d68:	280f      	cmp	r0, #15
 8000d6a:	f841 3c80 	str.w	r3, [r1, #-128]
 8000d6e:	f63f aef5 	bhi.w	8000b5c <masked_bitslice2dense_opt+0x2ac>
 8000d72:	ad60      	add	r5, sp, #384	; 0x180
 8000d74:	eb05 0080 	add.w	r0, r5, r0, lsl #2
 8000d78:	9c05      	ldr	r4, [sp, #20]
 8000d7a:	f840 3c80 	str.w	r3, [r0, #-128]
 8000d7e:	f104 0114 	add.w	r1, r4, #20
 8000d82:	981e      	ldr	r0, [sp, #120]	; 0x78
 8000d84:	eb05 0181 	add.w	r1, r5, r1, lsl #2
 8000d88:	280f      	cmp	r0, #15
 8000d8a:	f841 3c80 	str.w	r3, [r1, #-128]
 8000d8e:	f63f aee5 	bhi.w	8000b5c <masked_bitslice2dense_opt+0x2ac>
 8000d92:	eb05 0080 	add.w	r0, r5, r0, lsl #2
 8000d96:	f104 0115 	add.w	r1, r4, #21
 8000d9a:	f840 3c80 	str.w	r3, [r0, #-128]
 8000d9e:	981f      	ldr	r0, [sp, #124]	; 0x7c
 8000da0:	eb05 0181 	add.w	r1, r5, r1, lsl #2
 8000da4:	280f      	cmp	r0, #15
 8000da6:	f841 3c80 	str.w	r3, [r1, #-128]
 8000daa:	f63f aed7 	bhi.w	8000b5c <masked_bitslice2dense_opt+0x2ac>
 8000dae:	eb05 0080 	add.w	r0, r5, r0, lsl #2
 8000db2:	f104 0116 	add.w	r1, r4, #22
 8000db6:	f840 3c80 	str.w	r3, [r0, #-128]
 8000dba:	9820      	ldr	r0, [sp, #128]	; 0x80
 8000dbc:	eb05 0181 	add.w	r1, r5, r1, lsl #2
 8000dc0:	280f      	cmp	r0, #15
 8000dc2:	f841 3c80 	str.w	r3, [r1, #-128]
 8000dc6:	f63f aec9 	bhi.w	8000b5c <masked_bitslice2dense_opt+0x2ac>
 8000dca:	eb05 0080 	add.w	r0, r5, r0, lsl #2
 8000dce:	f104 0117 	add.w	r1, r4, #23
 8000dd2:	f840 3c80 	str.w	r3, [r0, #-128]
 8000dd6:	9821      	ldr	r0, [sp, #132]	; 0x84
 8000dd8:	eb05 0181 	add.w	r1, r5, r1, lsl #2
 8000ddc:	280f      	cmp	r0, #15
 8000dde:	f841 3c80 	str.w	r3, [r1, #-128]
 8000de2:	f63f aebb 	bhi.w	8000b5c <masked_bitslice2dense_opt+0x2ac>
 8000de6:	eb05 0080 	add.w	r0, r5, r0, lsl #2
 8000dea:	f104 0118 	add.w	r1, r4, #24
 8000dee:	f840 3c80 	str.w	r3, [r0, #-128]
 8000df2:	9822      	ldr	r0, [sp, #136]	; 0x88
 8000df4:	eb05 0181 	add.w	r1, r5, r1, lsl #2
 8000df8:	280f      	cmp	r0, #15
 8000dfa:	f841 3c80 	str.w	r3, [r1, #-128]
 8000dfe:	f63f aead 	bhi.w	8000b5c <masked_bitslice2dense_opt+0x2ac>
 8000e02:	eb05 0080 	add.w	r0, r5, r0, lsl #2
 8000e06:	f104 0119 	add.w	r1, r4, #25
 8000e0a:	f840 3c80 	str.w	r3, [r0, #-128]
 8000e0e:	9823      	ldr	r0, [sp, #140]	; 0x8c
 8000e10:	eb05 0181 	add.w	r1, r5, r1, lsl #2
 8000e14:	280f      	cmp	r0, #15
 8000e16:	f841 3c80 	str.w	r3, [r1, #-128]
 8000e1a:	f63f ae9f 	bhi.w	8000b5c <masked_bitslice2dense_opt+0x2ac>
 8000e1e:	f104 011a 	add.w	r1, r4, #26
 8000e22:	eb05 0181 	add.w	r1, r5, r1, lsl #2
 8000e26:	eb05 0080 	add.w	r0, r5, r0, lsl #2
 8000e2a:	9d24      	ldr	r5, [sp, #144]	; 0x90
 8000e2c:	f840 3c80 	str.w	r3, [r0, #-128]
 8000e30:	2d0f      	cmp	r5, #15
 8000e32:	f841 3c80 	str.w	r3, [r1, #-128]
 8000e36:	f63f ae91 	bhi.w	8000b5c <masked_bitslice2dense_opt+0x2ac>
 8000e3a:	ab60      	add	r3, sp, #384	; 0x180
 8000e3c:	f104 011b 	add.w	r1, r4, #27
 8000e40:	eb03 0181 	add.w	r1, r3, r1, lsl #2
 8000e44:	eb03 0385 	add.w	r3, r3, r5, lsl #2
 8000e48:	2000      	movs	r0, #0
 8000e4a:	f843 0c80 	str.w	r0, [r3, #-128]
 8000e4e:	f841 0c80 	str.w	r0, [r1, #-128]
 8000e52:	9925      	ldr	r1, [sp, #148]	; 0x94
 8000e54:	290f      	cmp	r1, #15
 8000e56:	f63f ae81 	bhi.w	8000b5c <masked_bitslice2dense_opt+0x2ac>
 8000e5a:	ad60      	add	r5, sp, #384	; 0x180
 8000e5c:	eb05 0181 	add.w	r1, r5, r1, lsl #2
 8000e60:	f104 031c 	add.w	r3, r4, #28
 8000e64:	f841 0c80 	str.w	r0, [r1, #-128]
 8000e68:	9926      	ldr	r1, [sp, #152]	; 0x98
 8000e6a:	eb05 0383 	add.w	r3, r5, r3, lsl #2
 8000e6e:	290f      	cmp	r1, #15
 8000e70:	f843 0c80 	str.w	r0, [r3, #-128]
 8000e74:	f63f ae72 	bhi.w	8000b5c <masked_bitslice2dense_opt+0x2ac>
 8000e78:	eb05 0181 	add.w	r1, r5, r1, lsl #2
 8000e7c:	f104 031d 	add.w	r3, r4, #29
 8000e80:	f841 0c80 	str.w	r0, [r1, #-128]
 8000e84:	9927      	ldr	r1, [sp, #156]	; 0x9c
 8000e86:	eb05 0383 	add.w	r3, r5, r3, lsl #2
 8000e8a:	290f      	cmp	r1, #15
 8000e8c:	f843 0c80 	str.w	r0, [r3, #-128]
 8000e90:	f63f ae64 	bhi.w	8000b5c <masked_bitslice2dense_opt+0x2ac>
 8000e94:	eb05 0181 	add.w	r1, r5, r1, lsl #2
 8000e98:	4623      	mov	r3, r4
 8000e9a:	f841 0c80 	str.w	r0, [r1, #-128]
 8000e9e:	331e      	adds	r3, #30
 8000ea0:	9928      	ldr	r1, [sp, #160]	; 0xa0
 8000ea2:	eb05 0383 	add.w	r3, r5, r3, lsl #2
 8000ea6:	290f      	cmp	r1, #15
 8000ea8:	f843 0c80 	str.w	r0, [r3, #-128]
 8000eac:	f63f ae56 	bhi.w	8000b5c <masked_bitslice2dense_opt+0x2ac>
 8000eb0:	f104 031f 	add.w	r3, r4, #31
 8000eb4:	eb05 0383 	add.w	r3, r5, r3, lsl #2
 8000eb8:	eb05 0181 	add.w	r1, r5, r1, lsl #2
 8000ebc:	f841 0c80 	str.w	r0, [r1, #-128]
 8000ec0:	f843 0c80 	str.w	r0, [r3, #-128]
 8000ec4:	e64a      	b.n	8000b5c <masked_bitslice2dense_opt+0x2ac>
 8000ec6:	9b0b      	ldr	r3, [sp, #44]	; 0x2c
 8000ec8:	2b00      	cmp	r3, #0
 8000eca:	f47f ae04 	bne.w	8000ad6 <masked_bitslice2dense_opt+0x226>
 8000ece:	9340      	str	r3, [sp, #256]	; 0x100
 8000ed0:	9350      	str	r3, [sp, #320]	; 0x140
 8000ed2:	e72a      	b.n	8000d2a <masked_bitslice2dense_opt+0x47a>
 8000ed4:	9805      	ldr	r0, [sp, #20]
 8000ed6:	9e6b      	ldr	r6, [sp, #428]	; 0x1ac
 8000ed8:	0083      	lsls	r3, r0, #2
 8000eda:	9316      	str	r3, [sp, #88]	; 0x58
 8000edc:	aa40      	add	r2, sp, #256	; 0x100
 8000ede:	3340      	adds	r3, #64	; 0x40
 8000ee0:	18d4      	adds	r4, r2, r3
 8000ee2:	eb02 0180 	add.w	r1, r2, r0, lsl #2
 8000ee6:	f1c0 030f 	rsb	r3, r0, #15
 8000eea:	2b0c      	cmp	r3, #12
 8000eec:	9411      	str	r4, [sp, #68]	; 0x44
 8000eee:	9110      	str	r1, [sp, #64]	; 0x40
 8000ef0:	ea41 0104 	orr.w	r1, r1, r4
 8000ef4:	f100 0401 	add.w	r4, r0, #1
 8000ef8:	bf8c      	ite	hi
 8000efa:	2301      	movhi	r3, #1
 8000efc:	2300      	movls	r3, #0
 8000efe:	2c10      	cmp	r4, #16
 8000f00:	bf88      	it	hi
 8000f02:	2300      	movhi	r3, #0
 8000f04:	f011 0f04 	tst.w	r1, #4
 8000f08:	bf18      	it	ne
 8000f0a:	2300      	movne	r3, #0
 8000f0c:	2c10      	cmp	r4, #16
 8000f0e:	930b      	str	r3, [sp, #44]	; 0x2c
 8000f10:	f1c0 0310 	rsb	r3, r0, #16
 8000f14:	bf88      	it	hi
 8000f16:	2301      	movhi	r3, #1
 8000f18:	4601      	mov	r1, r0
 8000f1a:	f023 0001 	bic.w	r0, r3, #1
 8000f1e:	9013      	str	r0, [sp, #76]	; 0x4c
 8000f20:	1808      	adds	r0, r1, r0
 8000f22:	930e      	str	r3, [sp, #56]	; 0x38
 8000f24:	4605      	mov	r5, r0
 8000f26:	f105 0a10 	add.w	sl, r5, #16
 8000f2a:	9002      	str	r0, [sp, #8]
 8000f2c:	9d0e      	ldr	r5, [sp, #56]	; 0x38
 8000f2e:	986b      	ldr	r0, [sp, #428]	; 0x1ac
 8000f30:	9422      	str	r4, [sp, #136]	; 0x88
 8000f32:	f101 040f 	add.w	r4, r1, #15
 8000f36:	fb00 fb04 	mul.w	fp, r0, r4
 8000f3a:	9437      	str	r4, [sp, #220]	; 0xdc
 8000f3c:	086d      	lsrs	r5, r5, #1
 8000f3e:	9c6b      	ldr	r4, [sp, #428]	; 0x1ac
 8000f40:	9512      	str	r5, [sp, #72]	; 0x48
 8000f42:	ebc0 1300 	rsb	r3, r0, r0, lsl #4
 8000f46:	9d69      	ldr	r5, [sp, #420]	; 0x1a4
 8000f48:	f8cd a004 	str.w	sl, [sp, #4]
 8000f4c:	eba0 1000 	sub.w	r0, r0, r0, lsl #4
 8000f50:	900d      	str	r0, [sp, #52]	; 0x34
 8000f52:	eba4 00c4 	sub.w	r0, r4, r4, lsl #3
 8000f56:	901d      	str	r0, [sp, #116]	; 0x74
 8000f58:	eb05 0a83 	add.w	sl, r5, r3, lsl #2
 8000f5c:	eb05 0b8b 	add.w	fp, r5, fp, lsl #2
 8000f60:	9d0d      	ldr	r5, [sp, #52]	; 0x34
 8000f62:	9b1d      	ldr	r3, [sp, #116]	; 0x74
 8000f64:	00ad      	lsls	r5, r5, #2
 8000f66:	950f      	str	r5, [sp, #60]	; 0x3c
 8000f68:	00dd      	lsls	r5, r3, #3
 8000f6a:	9517      	str	r5, [sp, #92]	; 0x5c
 8000f6c:	005d      	lsls	r5, r3, #1
 8000f6e:	9518      	str	r5, [sp, #96]	; 0x60
 8000f70:	009d      	lsls	r5, r3, #2
 8000f72:	9526      	str	r5, [sp, #152]	; 0x98
 8000f74:	9d6b      	ldr	r5, [sp, #428]	; 0x1ac
 8000f76:	f06f 0133 	mvn.w	r1, #51	; 0x33
 8000f7a:	ebc6 7846 	rsb	r8, r6, r6, lsl #29
 8000f7e:	ebc6 69c6 	rsb	r9, r6, r6, lsl #27
 8000f82:	fb01 f505 	mul.w	r5, r1, r5
 8000f86:	2600      	movs	r6, #0
 8000f88:	9603      	str	r6, [sp, #12]
 8000f8a:	9514      	str	r5, [sp, #80]	; 0x50
 8000f8c:	9e6a      	ldr	r6, [sp, #424]	; 0x1a8
 8000f8e:	9d6b      	ldr	r5, [sp, #428]	; 0x1ac
 8000f90:	f06f 000c 	mvn.w	r0, #12
 8000f94:	fb00 f505 	mul.w	r5, r0, r5
 8000f98:	eba4 0484 	sub.w	r4, r4, r4, lsl #2
 8000f9c:	00b6      	lsls	r6, r6, #2
 8000f9e:	9423      	str	r4, [sp, #140]	; 0x8c
 8000fa0:	960c      	str	r6, [sp, #48]	; 0x30
 8000fa2:	9515      	str	r5, [sp, #84]	; 0x54
 8000fa4:	9823      	ldr	r0, [sp, #140]	; 0x8c
 8000fa6:	9905      	ldr	r1, [sp, #20]
 8000fa8:	0105      	lsls	r5, r0, #4
 8000faa:	951e      	str	r5, [sp, #120]	; 0x78
 8000fac:	0085      	lsls	r5, r0, #2
 8000fae:	951f      	str	r5, [sp, #124]	; 0x7c
 8000fb0:	00c5      	lsls	r5, r0, #3
 8000fb2:	0040      	lsls	r0, r0, #1
 8000fb4:	9039      	str	r0, [sp, #228]	; 0xe4
 8000fb6:	986b      	ldr	r0, [sp, #428]	; 0x1ac
 8000fb8:	9538      	str	r5, [sp, #224]	; 0xe0
 8000fba:	f06f 042b 	mvn.w	r4, #43	; 0x2b
 8000fbe:	fb04 f000 	mul.w	r0, r4, r0
 8000fc2:	9019      	str	r0, [sp, #100]	; 0x64
 8000fc4:	986b      	ldr	r0, [sp, #428]	; 0x1ac
 8000fc6:	f06f 030a 	mvn.w	r3, #10
 8000fca:	fb03 f000 	mul.w	r0, r3, r0
 8000fce:	901a      	str	r0, [sp, #104]	; 0x68
 8000fd0:	986b      	ldr	r0, [sp, #428]	; 0x1ac
 8000fd2:	f06f 0327 	mvn.w	r3, #39	; 0x27
 8000fd6:	fb03 f000 	mul.w	r0, r3, r0
 8000fda:	901b      	str	r0, [sp, #108]	; 0x6c
 8000fdc:	986b      	ldr	r0, [sp, #428]	; 0x1ac
 8000fde:	f06f 0c09 	mvn.w	ip, #9
 8000fe2:	fb0c f000 	mul.w	r0, ip, r0
 8000fe6:	901c      	str	r0, [sp, #112]	; 0x70
 8000fe8:	986b      	ldr	r0, [sp, #428]	; 0x1ac
 8000fea:	f06f 0e23 	mvn.w	lr, #35	; 0x23
 8000fee:	fb0e f000 	mul.w	r0, lr, r0
 8000ff2:	4643      	mov	r3, r8
 8000ff4:	9020      	str	r0, [sp, #128]	; 0x80
 8000ff6:	00d8      	lsls	r0, r3, #3
 8000ff8:	9024      	str	r0, [sp, #144]	; 0x90
 8000ffa:	986b      	ldr	r0, [sp, #428]	; 0x1ac
 8000ffc:	464b      	mov	r3, r9
 8000ffe:	ebc0 00c8 	rsb	r0, r0, r8, lsl #3
 8001002:	9021      	str	r0, [sp, #132]	; 0x84
 8001004:	0158      	lsls	r0, r3, #5
 8001006:	9025      	str	r0, [sp, #148]	; 0x94
 8001008:	986b      	ldr	r0, [sp, #428]	; 0x1ac
 800100a:	f06f 0413 	mvn.w	r4, #19
 800100e:	fb04 f000 	mul.w	r0, r4, r0
 8001012:	9028      	str	r0, [sp, #160]	; 0xa0
 8001014:	986b      	ldr	r0, [sp, #428]	; 0x1ac
 8001016:	ebc0 7380 	rsb	r3, r0, r0, lsl #30
 800101a:	0098      	lsls	r0, r3, #2
 800101c:	903a      	str	r0, [sp, #232]	; 0xe8
 800101e:	986b      	ldr	r0, [sp, #428]	; 0x1ac
 8001020:	ebc0 0083 	rsb	r0, r0, r3, lsl #2
 8001024:	9027      	str	r0, [sp, #156]	; 0x9c
 8001026:	986b      	ldr	r0, [sp, #428]	; 0x1ac
 8001028:	ebc0 7300 	rsb	r3, r0, r0, lsl #28
 800102c:	0118      	lsls	r0, r3, #4
 800102e:	903b      	str	r0, [sp, #236]	; 0xec
 8001030:	986b      	ldr	r0, [sp, #428]	; 0x1ac
 8001032:	ebc0 73c0 	rsb	r3, r0, r0, lsl #31
 8001036:	0058      	lsls	r0, r3, #1
 8001038:	903c      	str	r0, [sp, #240]	; 0xf0
 800103a:	f101 0311 	add.w	r3, r1, #17
 800103e:	a860      	add	r0, sp, #384	; 0x180
 8001040:	eb00 0383 	add.w	r3, r0, r3, lsl #2
 8001044:	933d      	str	r3, [sp, #244]	; 0xf4
 8001046:	f101 0312 	add.w	r3, r1, #18
 800104a:	eb00 0383 	add.w	r3, r0, r3, lsl #2
 800104e:	2600      	movs	r6, #0
 8001050:	9604      	str	r6, [sp, #16]
 8001052:	933e      	str	r3, [sp, #248]	; 0xf8
 8001054:	460b      	mov	r3, r1
 8001056:	3313      	adds	r3, #19
 8001058:	eb00 0383 	add.w	r3, r0, r3, lsl #2
 800105c:	933f      	str	r3, [sp, #252]	; 0xfc
 800105e:	f101 0310 	add.w	r3, r1, #16
 8001062:	9329      	str	r3, [sp, #164]	; 0xa4
 8001064:	460b      	mov	r3, r1
 8001066:	3102      	adds	r1, #2
 8001068:	912a      	str	r1, [sp, #168]	; 0xa8
 800106a:	1cd9      	adds	r1, r3, #3
 800106c:	912b      	str	r1, [sp, #172]	; 0xac
 800106e:	1d19      	adds	r1, r3, #4
 8001070:	912c      	str	r1, [sp, #176]	; 0xb0
 8001072:	1d59      	adds	r1, r3, #5
 8001074:	912d      	str	r1, [sp, #180]	; 0xb4
 8001076:	1d99      	adds	r1, r3, #6
 8001078:	912e      	str	r1, [sp, #184]	; 0xb8
 800107a:	1dd9      	adds	r1, r3, #7
 800107c:	912f      	str	r1, [sp, #188]	; 0xbc
 800107e:	f103 0108 	add.w	r1, r3, #8
 8001082:	9130      	str	r1, [sp, #192]	; 0xc0
 8001084:	f103 0109 	add.w	r1, r3, #9
 8001088:	9131      	str	r1, [sp, #196]	; 0xc4
 800108a:	f103 010a 	add.w	r1, r3, #10
 800108e:	9132      	str	r1, [sp, #200]	; 0xc8
 8001090:	f103 010b 	add.w	r1, r3, #11
 8001094:	9133      	str	r1, [sp, #204]	; 0xcc
 8001096:	f103 010c 	add.w	r1, r3, #12
 800109a:	9134      	str	r1, [sp, #208]	; 0xd0
 800109c:	f103 010d 	add.w	r1, r3, #13
 80010a0:	330e      	adds	r3, #14
 80010a2:	9336      	str	r3, [sp, #216]	; 0xd8
 80010a4:	9b68      	ldr	r3, [sp, #416]	; 0x1a0
 80010a6:	9135      	str	r1, [sp, #212]	; 0xd4
 80010a8:	ea4f 0943 	mov.w	r9, r3, lsl #1
 80010ac:	ea4f 1883 	mov.w	r8, r3, lsl #6
 80010b0:	ab3f      	add	r3, sp, #252	; 0xfc
 80010b2:	930a      	str	r3, [sp, #40]	; 0x28
 80010b4:	9b05      	ldr	r3, [sp, #20]
 80010b6:	f50d 7ebe 	add.w	lr, sp, #380	; 0x17c
 80010ba:	2b00      	cmp	r3, #0
 80010bc:	f000 80f2 	beq.w	80012a4 <masked_bitslice2dense_opt+0x9f4>
 80010c0:	4618      	mov	r0, r3
 80010c2:	990d      	ldr	r1, [sp, #52]	; 0x34
 80010c4:	9b0f      	ldr	r3, [sp, #60]	; 0x3c
 80010c6:	f85b 1021 	ldr.w	r1, [fp, r1, lsl #2]
 80010ca:	f85a 3003 	ldr.w	r3, [sl, r3]
 80010ce:	9340      	str	r3, [sp, #256]	; 0x100
 80010d0:	2801      	cmp	r0, #1
 80010d2:	9150      	str	r1, [sp, #320]	; 0x140
 80010d4:	f240 80eb 	bls.w	80012ae <masked_bitslice2dense_opt+0x9fe>
 80010d8:	9b17      	ldr	r3, [sp, #92]	; 0x5c
 80010da:	9918      	ldr	r1, [sp, #96]	; 0x60
 80010dc:	f85a 3003 	ldr.w	r3, [sl, r3]
 80010e0:	f85b 1021 	ldr.w	r1, [fp, r1, lsl #2]
 80010e4:	9341      	str	r3, [sp, #260]	; 0x104
 80010e6:	2802      	cmp	r0, #2
 80010e8:	9151      	str	r1, [sp, #324]	; 0x144
 80010ea:	f000 80e2 	beq.w	80012b2 <masked_bitslice2dense_opt+0xa02>
 80010ee:	9b14      	ldr	r3, [sp, #80]	; 0x50
 80010f0:	9915      	ldr	r1, [sp, #84]	; 0x54
 80010f2:	f85a 3003 	ldr.w	r3, [sl, r3]
 80010f6:	f85b 1021 	ldr.w	r1, [fp, r1, lsl #2]
 80010fa:	9342      	str	r3, [sp, #264]	; 0x108
 80010fc:	2803      	cmp	r0, #3
 80010fe:	9152      	str	r1, [sp, #328]	; 0x148
 8001100:	f000 80d7 	beq.w	80012b2 <masked_bitslice2dense_opt+0xa02>
 8001104:	9b1e      	ldr	r3, [sp, #120]	; 0x78
 8001106:	9c1f      	ldr	r4, [sp, #124]	; 0x7c
 8001108:	f85a 3003 	ldr.w	r3, [sl, r3]
 800110c:	f85b 1024 	ldr.w	r1, [fp, r4, lsl #2]
 8001110:	9343      	str	r3, [sp, #268]	; 0x10c
 8001112:	2804      	cmp	r0, #4
 8001114:	9153      	str	r1, [sp, #332]	; 0x14c
 8001116:	f000 80cc 	beq.w	80012b2 <masked_bitslice2dense_opt+0xa02>
 800111a:	9b19      	ldr	r3, [sp, #100]	; 0x64
 800111c:	991a      	ldr	r1, [sp, #104]	; 0x68
 800111e:	f85a 3003 	ldr.w	r3, [sl, r3]
 8001122:	f85b 1021 	ldr.w	r1, [fp, r1, lsl #2]
 8001126:	9344      	str	r3, [sp, #272]	; 0x110
 8001128:	2805      	cmp	r0, #5
 800112a:	9154      	str	r1, [sp, #336]	; 0x150
 800112c:	f000 80c1 	beq.w	80012b2 <masked_bitslice2dense_opt+0xa02>
 8001130:	9b1b      	ldr	r3, [sp, #108]	; 0x6c
 8001132:	991c      	ldr	r1, [sp, #112]	; 0x70
 8001134:	f85a 3003 	ldr.w	r3, [sl, r3]
 8001138:	f85b 1021 	ldr.w	r1, [fp, r1, lsl #2]
 800113c:	9345      	str	r3, [sp, #276]	; 0x114
 800113e:	2806      	cmp	r0, #6
 8001140:	9155      	str	r1, [sp, #340]	; 0x154
 8001142:	f000 80b6 	beq.w	80012b2 <masked_bitslice2dense_opt+0xa02>
 8001146:	9b20      	ldr	r3, [sp, #128]	; 0x80
 8001148:	9921      	ldr	r1, [sp, #132]	; 0x84
 800114a:	f85a 3003 	ldr.w	r3, [sl, r3]
 800114e:	f85b 1021 	ldr.w	r1, [fp, r1, lsl #2]
 8001152:	9346      	str	r3, [sp, #280]	; 0x118
 8001154:	2807      	cmp	r0, #7
 8001156:	9156      	str	r1, [sp, #344]	; 0x158
 8001158:	f000 80ab 	beq.w	80012b2 <masked_bitslice2dense_opt+0xa02>
 800115c:	9b25      	ldr	r3, [sp, #148]	; 0x94
 800115e:	9d24      	ldr	r5, [sp, #144]	; 0x90
 8001160:	f85a 3003 	ldr.w	r3, [sl, r3]
 8001164:	f85b 1025 	ldr.w	r1, [fp, r5, lsl #2]
 8001168:	9347      	str	r3, [sp, #284]	; 0x11c
 800116a:	2808      	cmp	r0, #8
 800116c:	9157      	str	r1, [sp, #348]	; 0x15c
 800116e:	f000 80a0 	beq.w	80012b2 <masked_bitslice2dense_opt+0xa02>
 8001172:	9b26      	ldr	r3, [sp, #152]	; 0x98
 8001174:	991d      	ldr	r1, [sp, #116]	; 0x74
 8001176:	f85a 3003 	ldr.w	r3, [sl, r3]
 800117a:	f85b 1021 	ldr.w	r1, [fp, r1, lsl #2]
 800117e:	9348      	str	r3, [sp, #288]	; 0x120
 8001180:	2809      	cmp	r0, #9
 8001182:	9158      	str	r1, [sp, #352]	; 0x160
 8001184:	f000 8095 	beq.w	80012b2 <masked_bitslice2dense_opt+0xa02>
 8001188:	9b38      	ldr	r3, [sp, #224]	; 0xe0
 800118a:	9939      	ldr	r1, [sp, #228]	; 0xe4
 800118c:	f85a 3003 	ldr.w	r3, [sl, r3]
 8001190:	f85b 1021 	ldr.w	r1, [fp, r1, lsl #2]
 8001194:	9349      	str	r3, [sp, #292]	; 0x124
 8001196:	280a      	cmp	r0, #10
 8001198:	9159      	str	r1, [sp, #356]	; 0x164
 800119a:	f000 808a 	beq.w	80012b2 <masked_bitslice2dense_opt+0xa02>
 800119e:	9b28      	ldr	r3, [sp, #160]	; 0xa0
 80011a0:	9927      	ldr	r1, [sp, #156]	; 0x9c
 80011a2:	f85a 3003 	ldr.w	r3, [sl, r3]
 80011a6:	f85b 1021 	ldr.w	r1, [fp, r1, lsl #2]
 80011aa:	934a      	str	r3, [sp, #296]	; 0x128
 80011ac:	280b      	cmp	r0, #11
 80011ae:	915a      	str	r1, [sp, #360]	; 0x168
 80011b0:	d07f      	beq.n	80012b2 <masked_bitslice2dense_opt+0xa02>
 80011b2:	9b3b      	ldr	r3, [sp, #236]	; 0xec
 80011b4:	9e3a      	ldr	r6, [sp, #232]	; 0xe8
 80011b6:	f85a 3003 	ldr.w	r3, [sl, r3]
 80011ba:	f85b 1026 	ldr.w	r1, [fp, r6, lsl #2]
 80011be:	934b      	str	r3, [sp, #300]	; 0x12c
 80011c0:	280c      	cmp	r0, #12
 80011c2:	915b      	str	r1, [sp, #364]	; 0x16c
 80011c4:	d075      	beq.n	80012b2 <masked_bitslice2dense_opt+0xa02>
 80011c6:	9923      	ldr	r1, [sp, #140]	; 0x8c
 80011c8:	f85a 3004 	ldr.w	r3, [sl, r4]
 80011cc:	f85b 1021 	ldr.w	r1, [fp, r1, lsl #2]
 80011d0:	934c      	str	r3, [sp, #304]	; 0x130
 80011d2:	280d      	cmp	r0, #13
 80011d4:	915c      	str	r1, [sp, #368]	; 0x170
 80011d6:	d06c      	beq.n	80012b2 <masked_bitslice2dense_opt+0xa02>
 80011d8:	993c      	ldr	r1, [sp, #240]	; 0xf0
 80011da:	f85a 3005 	ldr.w	r3, [sl, r5]
 80011de:	f85b 1021 	ldr.w	r1, [fp, r1, lsl #2]
 80011e2:	934d      	str	r3, [sp, #308]	; 0x134
 80011e4:	280e      	cmp	r0, #14
 80011e6:	915d      	str	r1, [sp, #372]	; 0x174
 80011e8:	d063      	beq.n	80012b2 <masked_bitslice2dense_opt+0xa02>
 80011ea:	9b6b      	ldr	r3, [sp, #428]	; 0x1ac
 80011ec:	f85a 1006 	ldr.w	r1, [sl, r6]
 80011f0:	914e      	str	r1, [sp, #312]	; 0x138
 80011f2:	425b      	negs	r3, r3
 80011f4:	280f      	cmp	r0, #15
 80011f6:	f85b 3023 	ldr.w	r3, [fp, r3, lsl #2]
 80011fa:	935e      	str	r3, [sp, #376]	; 0x178
 80011fc:	d059      	beq.n	80012b2 <masked_bitslice2dense_opt+0xa02>
 80011fe:	f8da 3000 	ldr.w	r3, [sl]
 8001202:	f8db 1000 	ldr.w	r1, [fp]
 8001206:	934f      	str	r3, [sp, #316]	; 0x13c
 8001208:	915f      	str	r1, [sp, #380]	; 0x17c
 800120a:	2305      	movs	r3, #5
 800120c:	f8cd 9018 	str.w	r9, [sp, #24]
 8001210:	f64f 76ff 	movw	r6, #65535	; 0xffff
 8001214:	46c1      	mov	r9, r8
 8001216:	2510      	movs	r5, #16
 8001218:	4698      	mov	r8, r3
 800121a:	ea6f 0c05 	mvn.w	ip, r5
 800121e:	2100      	movs	r1, #0
 8001220:	1868      	adds	r0, r5, r1
 8001222:	f852 3021 	ldr.w	r3, [r2, r1, lsl #2]
 8001226:	f852 4020 	ldr.w	r4, [r2, r0, lsl #2]
 800122a:	40eb      	lsrs	r3, r5
 800122c:	4063      	eors	r3, r4
 800122e:	4033      	ands	r3, r6
 8001230:	405c      	eors	r4, r3
 8001232:	f842 4020 	str.w	r4, [r2, r0, lsl #2]
 8001236:	f852 4021 	ldr.w	r4, [r2, r1, lsl #2]
 800123a:	40ab      	lsls	r3, r5
 800123c:	3001      	adds	r0, #1
 800123e:	4063      	eors	r3, r4
 8001240:	f842 3021 	str.w	r3, [r2, r1, lsl #2]
 8001244:	ea00 010c 	and.w	r1, r0, ip
 8001248:	291f      	cmp	r1, #31
 800124a:	dde9      	ble.n	8001220 <masked_bitslice2dense_opt+0x970>
 800124c:	106d      	asrs	r5, r5, #1
 800124e:	fa06 f305 	lsl.w	r3, r6, r5
 8001252:	f1b8 0801 	subs.w	r8, r8, #1
 8001256:	ea86 0603 	eor.w	r6, r6, r3
 800125a:	d1de      	bne.n	800121a <masked_bitslice2dense_opt+0x96a>
 800125c:	9b07      	ldr	r3, [sp, #28]
 800125e:	9903      	ldr	r1, [sp, #12]
 8001260:	980a      	ldr	r0, [sp, #40]	; 0x28
 8001262:	46c8      	mov	r8, r9
 8001264:	f8dd 9018 	ldr.w	r9, [sp, #24]
 8001268:	eb03 0141 	add.w	r1, r3, r1, lsl #1
 800126c:	f850 3f04 	ldr.w	r3, [r0, #4]!
 8001270:	800b      	strh	r3, [r1, #0]
 8001272:	4570      	cmp	r0, lr
 8001274:	ea4f 4313 	mov.w	r3, r3, lsr #16
 8001278:	f821 3008 	strh.w	r3, [r1, r8]
 800127c:	4449      	add	r1, r9
 800127e:	d1f5      	bne.n	800126c <masked_bitslice2dense_opt+0x9bc>
 8001280:	9903      	ldr	r1, [sp, #12]
 8001282:	9809      	ldr	r0, [sp, #36]	; 0x24
 8001284:	9b04      	ldr	r3, [sp, #16]
 8001286:	4401      	add	r1, r0
 8001288:	9103      	str	r1, [sp, #12]
 800128a:	990c      	ldr	r1, [sp, #48]	; 0x30
 800128c:	448a      	add	sl, r1
 800128e:	448b      	add	fp, r1
 8001290:	9908      	ldr	r1, [sp, #32]
 8001292:	3301      	adds	r3, #1
 8001294:	4299      	cmp	r1, r3
 8001296:	9304      	str	r3, [sp, #16]
 8001298:	f43f aca5 	beq.w	8000be6 <masked_bitslice2dense_opt+0x336>
 800129c:	9b05      	ldr	r3, [sp, #20]
 800129e:	2b00      	cmp	r3, #0
 80012a0:	f47f af0e 	bne.w	80010c0 <masked_bitslice2dense_opt+0x810>
 80012a4:	9b0b      	ldr	r3, [sp, #44]	; 0x2c
 80012a6:	b93b      	cbnz	r3, 80012b8 <masked_bitslice2dense_opt+0xa08>
 80012a8:	9340      	str	r3, [sp, #256]	; 0x100
 80012aa:	9350      	str	r3, [sp, #320]	; 0x140
 80012ac:	e059      	b.n	8001362 <masked_bitslice2dense_opt+0xab2>
 80012ae:	280f      	cmp	r0, #15
 80012b0:	d8ab      	bhi.n	800120a <masked_bitslice2dense_opt+0x95a>
 80012b2:	9b0b      	ldr	r3, [sp, #44]	; 0x2c
 80012b4:	2b00      	cmp	r3, #0
 80012b6:	d044      	beq.n	8001342 <masked_bitslice2dense_opt+0xa92>
 80012b8:	9e12      	ldr	r6, [sp, #72]	; 0x48
 80012ba:	9b10      	ldr	r3, [sp, #64]	; 0x40
 80012bc:	9d11      	ldr	r5, [sp, #68]	; 0x44
 80012be:	2000      	movs	r0, #0
 80012c0:	2100      	movs	r1, #0
 80012c2:	2e01      	cmp	r6, #1
 80012c4:	e9c3 0100 	strd	r0, r1, [r3]
 80012c8:	e9c5 0100 	strd	r0, r1, [r5]
 80012cc:	d927      	bls.n	800131e <masked_bitslice2dense_opt+0xa6e>
 80012ce:	2e02      	cmp	r6, #2
 80012d0:	e9c3 0102 	strd	r0, r1, [r3, #8]
 80012d4:	e9c5 0102 	strd	r0, r1, [r5, #8]
 80012d8:	d021      	beq.n	800131e <masked_bitslice2dense_opt+0xa6e>
 80012da:	2e03      	cmp	r6, #3
 80012dc:	e9c3 0104 	strd	r0, r1, [r3, #16]
 80012e0:	e9c5 0104 	strd	r0, r1, [r5, #16]
 80012e4:	d01b      	beq.n	800131e <masked_bitslice2dense_opt+0xa6e>
 80012e6:	2e04      	cmp	r6, #4
 80012e8:	e9c3 0106 	strd	r0, r1, [r3, #24]
 80012ec:	e9c5 0106 	strd	r0, r1, [r5, #24]
 80012f0:	d015      	beq.n	800131e <masked_bitslice2dense_opt+0xa6e>
 80012f2:	2e05      	cmp	r6, #5
 80012f4:	e9c3 0108 	strd	r0, r1, [r3, #32]
 80012f8:	e9c5 0108 	strd	r0, r1, [r5, #32]
 80012fc:	d00f      	beq.n	800131e <masked_bitslice2dense_opt+0xa6e>
 80012fe:	2e06      	cmp	r6, #6
 8001300:	e9c3 010a 	strd	r0, r1, [r3, #40]	; 0x28
 8001304:	e9c5 010a 	strd	r0, r1, [r5, #40]	; 0x28
 8001308:	d009      	beq.n	800131e <masked_bitslice2dense_opt+0xa6e>
 800130a:	2e07      	cmp	r6, #7
 800130c:	e9c3 010c 	strd	r0, r1, [r3, #48]	; 0x30
 8001310:	e9c5 010c 	strd	r0, r1, [r5, #48]	; 0x30
 8001314:	d003      	beq.n	800131e <masked_bitslice2dense_opt+0xa6e>
 8001316:	e9c3 010e 	strd	r0, r1, [r3, #56]	; 0x38
 800131a:	e9c5 010e 	strd	r0, r1, [r5, #56]	; 0x38
 800131e:	9b0e      	ldr	r3, [sp, #56]	; 0x38
 8001320:	9913      	ldr	r1, [sp, #76]	; 0x4c
 8001322:	428b      	cmp	r3, r1
 8001324:	f43f af71 	beq.w	800120a <masked_bitslice2dense_opt+0x95a>
 8001328:	9b02      	ldr	r3, [sp, #8]
 800132a:	a860      	add	r0, sp, #384	; 0x180
 800132c:	eb00 0383 	add.w	r3, r0, r3, lsl #2
 8001330:	2100      	movs	r1, #0
 8001332:	f843 1c80 	str.w	r1, [r3, #-128]
 8001336:	9b01      	ldr	r3, [sp, #4]
 8001338:	eb00 0383 	add.w	r3, r0, r3, lsl #2
 800133c:	f843 1c80 	str.w	r1, [r3, #-128]
 8001340:	e763      	b.n	800120a <masked_bitslice2dense_opt+0x95a>
 8001342:	9916      	ldr	r1, [sp, #88]	; 0x58
 8001344:	ab60      	add	r3, sp, #384	; 0x180
 8001346:	440b      	add	r3, r1
 8001348:	990b      	ldr	r1, [sp, #44]	; 0x2c
 800134a:	f843 1c80 	str.w	r1, [r3, #-128]
 800134e:	9b29      	ldr	r3, [sp, #164]	; 0xa4
 8001350:	a860      	add	r0, sp, #384	; 0x180
 8001352:	eb00 0383 	add.w	r3, r0, r3, lsl #2
 8001356:	f843 1c80 	str.w	r1, [r3, #-128]
 800135a:	9b22      	ldr	r3, [sp, #136]	; 0x88
 800135c:	2b0f      	cmp	r3, #15
 800135e:	f63f af54 	bhi.w	800120a <masked_bitslice2dense_opt+0x95a>
 8001362:	9922      	ldr	r1, [sp, #136]	; 0x88
 8001364:	a860      	add	r0, sp, #384	; 0x180
 8001366:	eb00 0181 	add.w	r1, r0, r1, lsl #2
 800136a:	2300      	movs	r3, #0
 800136c:	f841 3c80 	str.w	r3, [r1, #-128]
 8001370:	993d      	ldr	r1, [sp, #244]	; 0xf4
 8001372:	f841 3c80 	str.w	r3, [r1, #-128]
 8001376:	992a      	ldr	r1, [sp, #168]	; 0xa8
 8001378:	290f      	cmp	r1, #15
 800137a:	f63f af46 	bhi.w	800120a <masked_bitslice2dense_opt+0x95a>
 800137e:	eb00 0181 	add.w	r1, r0, r1, lsl #2
 8001382:	f841 3c80 	str.w	r3, [r1, #-128]
 8001386:	993e      	ldr	r1, [sp, #248]	; 0xf8
 8001388:	f841 3c80 	str.w	r3, [r1, #-128]
 800138c:	992b      	ldr	r1, [sp, #172]	; 0xac
 800138e:	290f      	cmp	r1, #15
 8001390:	f63f af3b 	bhi.w	800120a <masked_bitslice2dense_opt+0x95a>
 8001394:	eb00 0181 	add.w	r1, r0, r1, lsl #2
 8001398:	982c      	ldr	r0, [sp, #176]	; 0xb0
 800139a:	f841 3c80 	str.w	r3, [r1, #-128]
 800139e:	993f      	ldr	r1, [sp, #252]	; 0xfc
 80013a0:	280f      	cmp	r0, #15
 80013a2:	f841 3c80 	str.w	r3, [r1, #-128]
 80013a6:	f63f af30 	bhi.w	800120a <masked_bitslice2dense_opt+0x95a>
 80013aa:	ad60      	add	r5, sp, #384	; 0x180
 80013ac:	eb05 0080 	add.w	r0, r5, r0, lsl #2
 80013b0:	9c05      	ldr	r4, [sp, #20]
 80013b2:	f840 3c80 	str.w	r3, [r0, #-128]
 80013b6:	f104 0114 	add.w	r1, r4, #20
 80013ba:	982d      	ldr	r0, [sp, #180]	; 0xb4
 80013bc:	eb05 0181 	add.w	r1, r5, r1, lsl #2
 80013c0:	280f      	cmp	r0, #15
 80013c2:	f841 3c80 	str.w	r3, [r1, #-128]
 80013c6:	f63f af20 	bhi.w	800120a <masked_bitslice2dense_opt+0x95a>
 80013ca:	eb05 0080 	add.w	r0, r5, r0, lsl #2
 80013ce:	f104 0115 	add.w	r1, r4, #21
 80013d2:	f840 3c80 	str.w	r3, [r0, #-128]
 80013d6:	982e      	ldr	r0, [sp, #184]	; 0xb8
 80013d8:	eb05 0181 	add.w	r1, r5, r1, lsl #2
 80013dc:	280f      	cmp	r0, #15
 80013de:	f841 3c80 	str.w	r3, [r1, #-128]
 80013e2:	f63f af12 	bhi.w	800120a <masked_bitslice2dense_opt+0x95a>
 80013e6:	eb05 0080 	add.w	r0, r5, r0, lsl #2
 80013ea:	f104 0116 	add.w	r1, r4, #22
 80013ee:	f840 3c80 	str.w	r3, [r0, #-128]
 80013f2:	982f      	ldr	r0, [sp, #188]	; 0xbc
 80013f4:	eb05 0181 	add.w	r1, r5, r1, lsl #2
 80013f8:	280f      	cmp	r0, #15
 80013fa:	f841 3c80 	str.w	r3, [r1, #-128]
 80013fe:	f63f af04 	bhi.w	800120a <masked_bitslice2dense_opt+0x95a>
 8001402:	eb05 0080 	add.w	r0, r5, r0, lsl #2
 8001406:	f104 0117 	add.w	r1, r4, #23
 800140a:	f840 3c80 	str.w	r3, [r0, #-128]
 800140e:	9830      	ldr	r0, [sp, #192]	; 0xc0
 8001410:	eb05 0181 	add.w	r1, r5, r1, lsl #2
 8001414:	280f      	cmp	r0, #15
 8001416:	f841 3c80 	str.w	r3, [r1, #-128]
 800141a:	f63f aef6 	bhi.w	800120a <masked_bitslice2dense_opt+0x95a>
 800141e:	eb05 0080 	add.w	r0, r5, r0, lsl #2
 8001422:	f104 0118 	add.w	r1, r4, #24
 8001426:	f840 3c80 	str.w	r3, [r0, #-128]
 800142a:	9831      	ldr	r0, [sp, #196]	; 0xc4
 800142c:	eb05 0181 	add.w	r1, r5, r1, lsl #2
 8001430:	280f      	cmp	r0, #15
 8001432:	f841 3c80 	str.w	r3, [r1, #-128]
 8001436:	f63f aee8 	bhi.w	800120a <masked_bitslice2dense_opt+0x95a>
 800143a:	eb05 0080 	add.w	r0, r5, r0, lsl #2
 800143e:	f104 0119 	add.w	r1, r4, #25
 8001442:	f840 3c80 	str.w	r3, [r0, #-128]
 8001446:	9832      	ldr	r0, [sp, #200]	; 0xc8
 8001448:	eb05 0181 	add.w	r1, r5, r1, lsl #2
 800144c:	280f      	cmp	r0, #15
 800144e:	f841 3c80 	str.w	r3, [r1, #-128]
 8001452:	f63f aeda 	bhi.w	800120a <masked_bitslice2dense_opt+0x95a>
 8001456:	eb05 0080 	add.w	r0, r5, r0, lsl #2
 800145a:	f104 011a 	add.w	r1, r4, #26
 800145e:	f840 3c80 	str.w	r3, [r0, #-128]
 8001462:	9833      	ldr	r0, [sp, #204]	; 0xcc
 8001464:	eb05 0181 	add.w	r1, r5, r1, lsl #2
 8001468:	280f      	cmp	r0, #15
 800146a:	f841 3c80 	str.w	r3, [r1, #-128]
 800146e:	f63f aecc 	bhi.w	800120a <masked_bitslice2dense_opt+0x95a>
 8001472:	eb05 0080 	add.w	r0, r5, r0, lsl #2
 8001476:	2300      	movs	r3, #0
 8001478:	f840 3c80 	str.w	r3, [r0, #-128]
 800147c:	f104 011b 	add.w	r1, r4, #27
 8001480:	9834      	ldr	r0, [sp, #208]	; 0xd0
 8001482:	eb05 0181 	add.w	r1, r5, r1, lsl #2
 8001486:	280f      	cmp	r0, #15
 8001488:	f841 3c80 	str.w	r3, [r1, #-128]
 800148c:	f63f aebd 	bhi.w	800120a <masked_bitslice2dense_opt+0x95a>
 8001490:	eb05 0080 	add.w	r0, r5, r0, lsl #2
 8001494:	f104 011c 	add.w	r1, r4, #28
 8001498:	f840 3c80 	str.w	r3, [r0, #-128]
 800149c:	9835      	ldr	r0, [sp, #212]	; 0xd4
 800149e:	eb05 0181 	add.w	r1, r5, r1, lsl #2
 80014a2:	280f      	cmp	r0, #15
 80014a4:	f841 3c80 	str.w	r3, [r1, #-128]
 80014a8:	f63f aeaf 	bhi.w	800120a <masked_bitslice2dense_opt+0x95a>
 80014ac:	eb05 0080 	add.w	r0, r5, r0, lsl #2
 80014b0:	f104 011d 	add.w	r1, r4, #29
 80014b4:	f840 3c80 	str.w	r3, [r0, #-128]
 80014b8:	9836      	ldr	r0, [sp, #216]	; 0xd8
 80014ba:	eb05 0181 	add.w	r1, r5, r1, lsl #2
 80014be:	280f      	cmp	r0, #15
 80014c0:	f841 3c80 	str.w	r3, [r1, #-128]
 80014c4:	f63f aea1 	bhi.w	800120a <masked_bitslice2dense_opt+0x95a>
 80014c8:	eb05 0080 	add.w	r0, r5, r0, lsl #2
 80014cc:	4621      	mov	r1, r4
 80014ce:	f840 3c80 	str.w	r3, [r0, #-128]
 80014d2:	311e      	adds	r1, #30
 80014d4:	9837      	ldr	r0, [sp, #220]	; 0xdc
 80014d6:	eb05 0181 	add.w	r1, r5, r1, lsl #2
 80014da:	280f      	cmp	r0, #15
 80014dc:	f841 3c80 	str.w	r3, [r1, #-128]
 80014e0:	f63f ae93 	bhi.w	800120a <masked_bitslice2dense_opt+0x95a>
 80014e4:	f104 011f 	add.w	r1, r4, #31
 80014e8:	eb05 0181 	add.w	r1, r5, r1, lsl #2
 80014ec:	eb05 0080 	add.w	r0, r5, r0, lsl #2
 80014f0:	f840 3c80 	str.w	r3, [r0, #-128]
 80014f4:	f841 3c80 	str.w	r3, [r1, #-128]
 80014f8:	e687      	b.n	800120a <masked_bitslice2dense_opt+0x95a>
 80014fa:	bf00      	nop

080014fc <secadd_constant>:
 80014fc:	e92d 4ff0 	stmdb	sp!, {r4, r5, r6, r7, r8, r9, sl, fp, lr}
 8001500:	0084      	lsls	r4, r0, #2
 8001502:	b08f      	sub	sp, #60	; 0x3c
 8001504:	4680      	mov	r8, r0
 8001506:	af04      	add	r7, sp, #16
 8001508:	1de0      	adds	r0, r4, #7
 800150a:	f020 0007 	bic.w	r0, r0, #7
 800150e:	f8c7 d000 	str.w	sp, [r7]
 8001512:	ebad 0d00 	sub.w	sp, sp, r0
 8001516:	f10d 0910 	add.w	r9, sp, #16
 800151a:	ebad 0d00 	sub.w	sp, sp, r0
 800151e:	f10d 0b10 	add.w	fp, sp, #16
 8001522:	ebad 0d00 	sub.w	sp, sp, r0
 8001526:	e9c7 3201 	strd	r3, r2, [r7, #4]
 800152a:	ab04      	add	r3, sp, #16
 800152c:	617b      	str	r3, [r7, #20]
 800152e:	6e7b      	ldr	r3, [r7, #100]	; 0x64
 8001530:	f8d7 a058 	ldr.w	sl, [r7, #88]	; 0x58
 8001534:	61f9      	str	r1, [r7, #28]
 8001536:	f013 0301 	ands.w	r3, r3, #1
 800153a:	f040 8116 	bne.w	800176a <secadd_constant+0x26e>
 800153e:	f1b8 0f00 	cmp.w	r8, #0
 8001542:	d036      	beq.n	80015b2 <secadd_constant+0xb6>
 8001544:	f108 32ff 	add.w	r2, r8, #4294967295	; 0xffffffff
 8001548:	2a05      	cmp	r2, #5
 800154a:	f3c9 0680 	ubfx	r6, r9, #2, #1
 800154e:	d914      	bls.n	800157a <secadd_constant+0x7e>
 8001550:	b10e      	cbz	r6, 8001556 <secadd_constant+0x5a>
 8001552:	f8c9 3000 	str.w	r3, [r9]
 8001556:	eba8 0506 	sub.w	r5, r8, r6
 800155a:	086c      	lsrs	r4, r5, #1
 800155c:	eb09 0286 	add.w	r2, r9, r6, lsl #2
 8001560:	2000      	movs	r0, #0
 8001562:	2100      	movs	r1, #0
 8001564:	3301      	adds	r3, #1
 8001566:	429c      	cmp	r4, r3
 8001568:	e8e2 0102 	strd	r0, r1, [r2], #8
 800156c:	d1fa      	bne.n	8001564 <secadd_constant+0x68>
 800156e:	f025 0201 	bic.w	r2, r5, #1
 8001572:	4295      	cmp	r5, r2
 8001574:	eb06 0302 	add.w	r3, r6, r2
 8001578:	d01b      	beq.n	80015b2 <secadd_constant+0xb6>
 800157a:	1c59      	adds	r1, r3, #1
 800157c:	2200      	movs	r2, #0
 800157e:	4588      	cmp	r8, r1
 8001580:	f849 2023 	str.w	r2, [r9, r3, lsl #2]
 8001584:	d915      	bls.n	80015b2 <secadd_constant+0xb6>
 8001586:	1c98      	adds	r0, r3, #2
 8001588:	4580      	cmp	r8, r0
 800158a:	f849 2021 	str.w	r2, [r9, r1, lsl #2]
 800158e:	d910      	bls.n	80015b2 <secadd_constant+0xb6>
 8001590:	1cd9      	adds	r1, r3, #3
 8001592:	4588      	cmp	r8, r1
 8001594:	f849 2020 	str.w	r2, [r9, r0, lsl #2]
 8001598:	d90b      	bls.n	80015b2 <secadd_constant+0xb6>
 800159a:	1d18      	adds	r0, r3, #4
 800159c:	4580      	cmp	r8, r0
 800159e:	f849 2021 	str.w	r2, [r9, r1, lsl #2]
 80015a2:	d906      	bls.n	80015b2 <secadd_constant+0xb6>
 80015a4:	3305      	adds	r3, #5
 80015a6:	4598      	cmp	r8, r3
 80015a8:	f849 2020 	str.w	r2, [r9, r0, lsl #2]
 80015ac:	d901      	bls.n	80015b2 <secadd_constant+0xb6>
 80015ae:	f849 2023 	str.w	r2, [r9, r3, lsl #2]
 80015b2:	6dfb      	ldr	r3, [r7, #92]	; 0x5c
 80015b4:	9300      	str	r3, [sp, #0]
 80015b6:	6d3a      	ldr	r2, [r7, #80]	; 0x50
 80015b8:	6879      	ldr	r1, [r7, #4]
 80015ba:	4653      	mov	r3, sl
 80015bc:	4640      	mov	r0, r8
 80015be:	f000 fe86 	bl	80022ce <copy_sharing_asm>
 80015c2:	69fb      	ldr	r3, [r7, #28]
 80015c4:	2b01      	cmp	r3, #1
 80015c6:	f240 80a9 	bls.w	800171c <secadd_constant+0x220>
 80015ca:	6e3b      	ldr	r3, [r7, #96]	; 0x60
 80015cc:	6d7a      	ldr	r2, [r7, #84]	; 0x54
 80015ce:	eb0a 0483 	add.w	r4, sl, r3, lsl #2
 80015d2:	009b      	lsls	r3, r3, #2
 80015d4:	60fb      	str	r3, [r7, #12]
 80015d6:	69fb      	ldr	r3, [r7, #28]
 80015d8:	3b01      	subs	r3, #1
 80015da:	61bb      	str	r3, [r7, #24]
 80015dc:	6d7b      	ldr	r3, [r7, #84]	; 0x54
 80015de:	009b      	lsls	r3, r3, #2
 80015e0:	613b      	str	r3, [r7, #16]
 80015e2:	687b      	ldr	r3, [r7, #4]
 80015e4:	2501      	movs	r5, #1
 80015e6:	e9c7 5408 	strd	r5, r4, [r7, #32]
 80015ea:	462e      	mov	r6, r5
 80015ec:	eb03 0a82 	add.w	sl, r3, r2, lsl #2
 80015f0:	e048      	b.n	8001684 <secadd_constant+0x188>
 80015f2:	6dfd      	ldr	r5, [r7, #92]	; 0x5c
 80015f4:	9500      	str	r5, [sp, #0]
 80015f6:	f000 fe6a 	bl	80022ce <copy_sharing_asm>
 80015fa:	e9cd 9601 	strd	r9, r6, [sp, #4]
 80015fe:	6dfb      	ldr	r3, [r7, #92]	; 0x5c
 8001600:	9300      	str	r3, [sp, #0]
 8001602:	6a7b      	ldr	r3, [r7, #36]	; 0x24
 8001604:	6979      	ldr	r1, [r7, #20]
 8001606:	2201      	movs	r2, #1
 8001608:	4640      	mov	r0, r8
 800160a:	f000 fe36 	bl	800227a <my_masked_xor_asm>
 800160e:	e9cd 9601 	strd	r9, r6, [sp, #4]
 8001612:	9600      	str	r6, [sp, #0]
 8001614:	6d3a      	ldr	r2, [r7, #80]	; 0x50
 8001616:	465b      	mov	r3, fp
 8001618:	4651      	mov	r1, sl
 800161a:	4640      	mov	r0, r8
 800161c:	f000 fe2d 	bl	800227a <my_masked_xor_asm>
 8001620:	f8db 2000 	ldr.w	r2, [fp]
 8001624:	f8da 3000 	ldr.w	r3, [sl]
 8001628:	69bd      	ldr	r5, [r7, #24]
 800162a:	6a3c      	ldr	r4, [r7, #32]
 800162c:	ea6f 0c02 	mvn.w	ip, r2
 8001630:	ea6f 0e03 	mvn.w	lr, r3
 8001634:	42ac      	cmp	r4, r5
 8001636:	465b      	mov	r3, fp
 8001638:	4649      	mov	r1, r9
 800163a:	4640      	mov	r0, r8
 800163c:	f04f 0201 	mov.w	r2, #1
 8001640:	f8cb c000 	str.w	ip, [fp]
 8001644:	f8ca e000 	str.w	lr, [sl]
 8001648:	d042      	beq.n	80016d0 <secadd_constant+0x1d4>
 800164a:	9602      	str	r6, [sp, #8]
 800164c:	697d      	ldr	r5, [r7, #20]
 800164e:	e9cd 6500 	strd	r6, r5, [sp]
 8001652:	f000 fd77 	bl	8002144 <my_masked_and_asm>
 8001656:	6dfb      	ldr	r3, [r7, #92]	; 0x5c
 8001658:	9302      	str	r3, [sp, #8]
 800165a:	6a7b      	ldr	r3, [r7, #36]	; 0x24
 800165c:	2201      	movs	r2, #1
 800165e:	e9cd 6300 	strd	r6, r3, [sp]
 8001662:	4649      	mov	r1, r9
 8001664:	464b      	mov	r3, r9
 8001666:	4640      	mov	r0, r8
 8001668:	f000 fe07 	bl	800227a <my_masked_xor_asm>
 800166c:	68fb      	ldr	r3, [r7, #12]
 800166e:	6a79      	ldr	r1, [r7, #36]	; 0x24
 8001670:	6a3a      	ldr	r2, [r7, #32]
 8001672:	4419      	add	r1, r3
 8001674:	693b      	ldr	r3, [r7, #16]
 8001676:	6279      	str	r1, [r7, #36]	; 0x24
 8001678:	449a      	add	sl, r3
 800167a:	69fb      	ldr	r3, [r7, #28]
 800167c:	3201      	adds	r2, #1
 800167e:	4293      	cmp	r3, r2
 8001680:	623a      	str	r2, [r7, #32]
 8001682:	d04b      	beq.n	800171c <secadd_constant+0x220>
 8001684:	6e7d      	ldr	r5, [r7, #100]	; 0x64
 8001686:	6a3c      	ldr	r4, [r7, #32]
 8001688:	6a7b      	ldr	r3, [r7, #36]	; 0x24
 800168a:	fa25 fc04 	lsr.w	ip, r5, r4
 800168e:	f01c 0f01 	tst.w	ip, #1
 8001692:	4659      	mov	r1, fp
 8001694:	4640      	mov	r0, r8
 8001696:	f04f 0201 	mov.w	r2, #1
 800169a:	d1aa      	bne.n	80015f2 <secadd_constant+0xf6>
 800169c:	9602      	str	r6, [sp, #8]
 800169e:	6a7b      	ldr	r3, [r7, #36]	; 0x24
 80016a0:	e9cd 6300 	strd	r6, r3, [sp]
 80016a4:	4651      	mov	r1, sl
 80016a6:	6d3a      	ldr	r2, [r7, #80]	; 0x50
 80016a8:	464b      	mov	r3, r9
 80016aa:	f000 fde6 	bl	800227a <my_masked_xor_asm>
 80016ae:	69bb      	ldr	r3, [r7, #24]
 80016b0:	6a3a      	ldr	r2, [r7, #32]
 80016b2:	429a      	cmp	r2, r3
 80016b4:	4649      	mov	r1, r9
 80016b6:	464b      	mov	r3, r9
 80016b8:	f04f 0201 	mov.w	r2, #1
 80016bc:	4640      	mov	r0, r8
 80016be:	d033      	beq.n	8001728 <secadd_constant+0x22c>
 80016c0:	6dfd      	ldr	r5, [r7, #92]	; 0x5c
 80016c2:	9502      	str	r5, [sp, #8]
 80016c4:	6a7c      	ldr	r4, [r7, #36]	; 0x24
 80016c6:	e9cd 6400 	strd	r6, r4, [sp]
 80016ca:	f000 fd3b 	bl	8002144 <my_masked_and_asm>
 80016ce:	e7cd      	b.n	800166c <secadd_constant+0x170>
 80016d0:	69fa      	ldr	r2, [r7, #28]
 80016d2:	68b9      	ldr	r1, [r7, #8]
 80016d4:	6a7c      	ldr	r4, [r7, #36]	; 0x24
 80016d6:	428a      	cmp	r2, r1
 80016d8:	d020      	beq.n	800171c <secadd_constant+0x220>
 80016da:	9602      	str	r6, [sp, #8]
 80016dc:	697b      	ldr	r3, [r7, #20]
 80016de:	e9cd 6300 	strd	r6, r3, [sp]
 80016e2:	693d      	ldr	r5, [r7, #16]
 80016e4:	61fa      	str	r2, [r7, #28]
 80016e6:	fb05 f502 	mul.w	r5, r5, r2
 80016ea:	465b      	mov	r3, fp
 80016ec:	2201      	movs	r2, #1
 80016ee:	4649      	mov	r1, r9
 80016f0:	f000 fd28 	bl	8002144 <my_masked_and_asm>
 80016f4:	6dfb      	ldr	r3, [r7, #92]	; 0x5c
 80016f6:	9600      	str	r6, [sp, #0]
 80016f8:	e9cd 4301 	strd	r4, r3, [sp, #4]
 80016fc:	687c      	ldr	r4, [r7, #4]
 80016fe:	6d3a      	ldr	r2, [r7, #80]	; 0x50
 8001700:	464b      	mov	r3, r9
 8001702:	4640      	mov	r0, r8
 8001704:	1961      	adds	r1, r4, r5
 8001706:	f000 fdb8 	bl	800227a <my_masked_xor_asm>
 800170a:	6e7b      	ldr	r3, [r7, #100]	; 0x64
 800170c:	69fa      	ldr	r2, [r7, #28]
 800170e:	fa23 f202 	lsr.w	r2, r3, r2
 8001712:	5963      	ldr	r3, [r4, r5]
 8001714:	f342 0200 	sbfx	r2, r2, #0, #1
 8001718:	4053      	eors	r3, r2
 800171a:	5163      	str	r3, [r4, r5]
 800171c:	f8d7 d000 	ldr.w	sp, [r7]
 8001720:	372c      	adds	r7, #44	; 0x2c
 8001722:	46bd      	mov	sp, r7
 8001724:	e8bd 8ff0 	ldmia.w	sp!, {r4, r5, r6, r7, r8, r9, sl, fp, pc}
 8001728:	69fb      	ldr	r3, [r7, #28]
 800172a:	68b9      	ldr	r1, [r7, #8]
 800172c:	6a7c      	ldr	r4, [r7, #36]	; 0x24
 800172e:	428b      	cmp	r3, r1
 8001730:	d0f4      	beq.n	800171c <secadd_constant+0x220>
 8001732:	6dfa      	ldr	r2, [r7, #92]	; 0x5c
 8001734:	693d      	ldr	r5, [r7, #16]
 8001736:	9600      	str	r6, [sp, #0]
 8001738:	e9cd 4201 	strd	r4, r2, [sp, #4]
 800173c:	687c      	ldr	r4, [r7, #4]
 800173e:	6d3a      	ldr	r2, [r7, #80]	; 0x50
 8001740:	fb05 f503 	mul.w	r5, r5, r3
 8001744:	1961      	adds	r1, r4, r5
 8001746:	464b      	mov	r3, r9
 8001748:	f000 fcfc 	bl	8002144 <my_masked_and_asm>
 800174c:	6e7a      	ldr	r2, [r7, #100]	; 0x64
 800174e:	69fb      	ldr	r3, [r7, #28]
 8001750:	fa22 f303 	lsr.w	r3, r2, r3
 8001754:	5962      	ldr	r2, [r4, r5]
 8001756:	f343 0300 	sbfx	r3, r3, #0, #1
 800175a:	4053      	eors	r3, r2
 800175c:	5163      	str	r3, [r4, r5]
 800175e:	f8d7 d000 	ldr.w	sp, [r7]
 8001762:	372c      	adds	r7, #44	; 0x2c
 8001764:	46bd      	mov	sp, r7
 8001766:	e8bd 8ff0 	ldmia.w	sp!, {r4, r5, r6, r7, r8, r9, sl, fp, pc}
 800176a:	f1b8 0f00 	cmp.w	r8, #0
 800176e:	d020      	beq.n	80017b2 <secadd_constant+0x2b6>
 8001770:	6dfb      	ldr	r3, [r7, #92]	; 0x5c
 8001772:	2b01      	cmp	r3, #1
 8001774:	d12a      	bne.n	80017cc <secadd_constant+0x2d0>
 8001776:	ea49 030a 	orr.w	r3, r9, sl
 800177a:	075b      	lsls	r3, r3, #29
 800177c:	d133      	bne.n	80017e6 <secadd_constant+0x2ea>
 800177e:	f108 33ff 	add.w	r3, r8, #4294967295	; 0xffffffff
 8001782:	2b0a      	cmp	r3, #10
 8001784:	d92f      	bls.n	80017e6 <secadd_constant+0x2ea>
 8001786:	ea4f 0458 	mov.w	r4, r8, lsr #1
 800178a:	eb09 04c4 	add.w	r4, r9, r4, lsl #3
 800178e:	f1aa 0208 	sub.w	r2, sl, #8
 8001792:	464b      	mov	r3, r9
 8001794:	e9f2 0102 	ldrd	r0, r1, [r2, #8]!
 8001798:	e8e3 0102 	strd	r0, r1, [r3], #8
 800179c:	42a3      	cmp	r3, r4
 800179e:	d1f9      	bne.n	8001794 <secadd_constant+0x298>
 80017a0:	f018 0f01 	tst.w	r8, #1
 80017a4:	f028 0301 	bic.w	r3, r8, #1
 80017a8:	d003      	beq.n	80017b2 <secadd_constant+0x2b6>
 80017aa:	f85a 2023 	ldr.w	r2, [sl, r3, lsl #2]
 80017ae:	f849 2023 	str.w	r2, [r9, r3, lsl #2]
 80017b2:	6dfb      	ldr	r3, [r7, #92]	; 0x5c
 80017b4:	9300      	str	r3, [sp, #0]
 80017b6:	687c      	ldr	r4, [r7, #4]
 80017b8:	6d3a      	ldr	r2, [r7, #80]	; 0x50
 80017ba:	4653      	mov	r3, sl
 80017bc:	4621      	mov	r1, r4
 80017be:	4640      	mov	r0, r8
 80017c0:	f000 fd85 	bl	80022ce <copy_sharing_asm>
 80017c4:	6823      	ldr	r3, [r4, #0]
 80017c6:	43db      	mvns	r3, r3
 80017c8:	6023      	str	r3, [r4, #0]
 80017ca:	e6fa      	b.n	80015c2 <secadd_constant+0xc6>
 80017cc:	009c      	lsls	r4, r3, #2
 80017ce:	4652      	mov	r2, sl
 80017d0:	f1a9 0104 	sub.w	r1, r9, #4
 80017d4:	2300      	movs	r3, #0
 80017d6:	3301      	adds	r3, #1
 80017d8:	6810      	ldr	r0, [r2, #0]
 80017da:	f841 0f04 	str.w	r0, [r1, #4]!
 80017de:	4598      	cmp	r8, r3
 80017e0:	4422      	add	r2, r4
 80017e2:	d1f8      	bne.n	80017d6 <secadd_constant+0x2da>
 80017e4:	e7e5      	b.n	80017b2 <secadd_constant+0x2b6>
 80017e6:	f1aa 0304 	sub.w	r3, sl, #4
 80017ea:	441c      	add	r4, r3
 80017ec:	f1a9 0204 	sub.w	r2, r9, #4
 80017f0:	f853 1f04 	ldr.w	r1, [r3, #4]!
 80017f4:	f842 1f04 	str.w	r1, [r2, #4]!
 80017f8:	42a3      	cmp	r3, r4
 80017fa:	d1f9      	bne.n	80017f0 <secadd_constant+0x2f4>
 80017fc:	e7d9      	b.n	80017b2 <secadd_constant+0x2b6>
 80017fe:	bf00      	nop

08001800 <secadd_constant_bmsk>:
 8001800:	e92d 4ff0 	stmdb	sp!, {r4, r5, r6, r7, r8, r9, sl, fp, lr}
 8001804:	0084      	lsls	r4, r0, #2
 8001806:	b08f      	sub	sp, #60	; 0x3c
 8001808:	3407      	adds	r4, #7
 800180a:	af04      	add	r7, sp, #16
 800180c:	f024 0407 	bic.w	r4, r4, #7
 8001810:	f8c7 d000 	str.w	sp, [r7]
 8001814:	ebad 0d04 	sub.w	sp, sp, r4
 8001818:	f10d 0b10 	add.w	fp, sp, #16
 800181c:	ebad 0d04 	sub.w	sp, sp, r4
 8001820:	f10d 0a10 	add.w	sl, sp, #16
 8001824:	ebad 0d04 	sub.w	sp, sp, r4
 8001828:	e9c7 3201 	strd	r3, r2, [r7, #4]
 800182c:	ab04      	add	r3, sp, #16
 800182e:	617b      	str	r3, [r7, #20]
 8001830:	6e7b      	ldr	r3, [r7, #100]	; 0x64
 8001832:	f8d7 9058 	ldr.w	r9, [r7, #88]	; 0x58
 8001836:	61f9      	str	r1, [r7, #28]
 8001838:	f013 0301 	ands.w	r3, r3, #1
 800183c:	4680      	mov	r8, r0
 800183e:	f040 80fb 	bne.w	8001a38 <secadd_constant_bmsk+0x238>
 8001842:	b3a8      	cbz	r0, 80018b0 <secadd_constant_bmsk+0xb0>
 8001844:	1e42      	subs	r2, r0, #1
 8001846:	2a05      	cmp	r2, #5
 8001848:	f3cb 0680 	ubfx	r6, fp, #2, #1
 800184c:	d914      	bls.n	8001878 <secadd_constant_bmsk+0x78>
 800184e:	b10e      	cbz	r6, 8001854 <secadd_constant_bmsk+0x54>
 8001850:	f8cb 3000 	str.w	r3, [fp]
 8001854:	eba8 0506 	sub.w	r5, r8, r6
 8001858:	086c      	lsrs	r4, r5, #1
 800185a:	eb0b 0286 	add.w	r2, fp, r6, lsl #2
 800185e:	2000      	movs	r0, #0
 8001860:	2100      	movs	r1, #0
 8001862:	3301      	adds	r3, #1
 8001864:	429c      	cmp	r4, r3
 8001866:	e8e2 0102 	strd	r0, r1, [r2], #8
 800186a:	d1fa      	bne.n	8001862 <secadd_constant_bmsk+0x62>
 800186c:	f025 0201 	bic.w	r2, r5, #1
 8001870:	4295      	cmp	r5, r2
 8001872:	eb06 0302 	add.w	r3, r6, r2
 8001876:	d01b      	beq.n	80018b0 <secadd_constant_bmsk+0xb0>
 8001878:	1c59      	adds	r1, r3, #1
 800187a:	2200      	movs	r2, #0
 800187c:	4588      	cmp	r8, r1
 800187e:	f84b 2023 	str.w	r2, [fp, r3, lsl #2]
 8001882:	d915      	bls.n	80018b0 <secadd_constant_bmsk+0xb0>
 8001884:	1c98      	adds	r0, r3, #2
 8001886:	4580      	cmp	r8, r0
 8001888:	f84b 2021 	str.w	r2, [fp, r1, lsl #2]
 800188c:	d910      	bls.n	80018b0 <secadd_constant_bmsk+0xb0>
 800188e:	1cd9      	adds	r1, r3, #3
 8001890:	4588      	cmp	r8, r1
 8001892:	f84b 2020 	str.w	r2, [fp, r0, lsl #2]
 8001896:	d90b      	bls.n	80018b0 <secadd_constant_bmsk+0xb0>
 8001898:	1d18      	adds	r0, r3, #4
 800189a:	4580      	cmp	r8, r0
 800189c:	f84b 2021 	str.w	r2, [fp, r1, lsl #2]
 80018a0:	d906      	bls.n	80018b0 <secadd_constant_bmsk+0xb0>
 80018a2:	3305      	adds	r3, #5
 80018a4:	4598      	cmp	r8, r3
 80018a6:	f84b 2020 	str.w	r2, [fp, r0, lsl #2]
 80018aa:	d901      	bls.n	80018b0 <secadd_constant_bmsk+0xb0>
 80018ac:	f84b 2023 	str.w	r2, [fp, r3, lsl #2]
 80018b0:	6dfb      	ldr	r3, [r7, #92]	; 0x5c
 80018b2:	9300      	str	r3, [sp, #0]
 80018b4:	6d3a      	ldr	r2, [r7, #80]	; 0x50
 80018b6:	6879      	ldr	r1, [r7, #4]
 80018b8:	464b      	mov	r3, r9
 80018ba:	4640      	mov	r0, r8
 80018bc:	f000 fd07 	bl	80022ce <copy_sharing_asm>
 80018c0:	69fb      	ldr	r3, [r7, #28]
 80018c2:	2b01      	cmp	r3, #1
 80018c4:	f240 809a 	bls.w	80019fc <secadd_constant_bmsk+0x1fc>
 80018c8:	6e3b      	ldr	r3, [r7, #96]	; 0x60
 80018ca:	6d7a      	ldr	r2, [r7, #84]	; 0x54
 80018cc:	eb09 0483 	add.w	r4, r9, r3, lsl #2
 80018d0:	009b      	lsls	r3, r3, #2
 80018d2:	60fb      	str	r3, [r7, #12]
 80018d4:	69fb      	ldr	r3, [r7, #28]
 80018d6:	3b01      	subs	r3, #1
 80018d8:	61bb      	str	r3, [r7, #24]
 80018da:	6d7b      	ldr	r3, [r7, #84]	; 0x54
 80018dc:	009b      	lsls	r3, r3, #2
 80018de:	613b      	str	r3, [r7, #16]
 80018e0:	687b      	ldr	r3, [r7, #4]
 80018e2:	2501      	movs	r5, #1
 80018e4:	eb03 0982 	add.w	r9, r3, r2, lsl #2
 80018e8:	4643      	mov	r3, r8
 80018ea:	e9c7 5408 	strd	r5, r4, [r7, #32]
 80018ee:	46d0      	mov	r8, sl
 80018f0:	462e      	mov	r6, r5
 80018f2:	469a      	mov	sl, r3
 80018f4:	e040      	b.n	8001978 <secadd_constant_bmsk+0x178>
 80018f6:	6efd      	ldr	r5, [r7, #108]	; 0x6c
 80018f8:	9502      	str	r5, [sp, #8]
 80018fa:	6ebd      	ldr	r5, [r7, #104]	; 0x68
 80018fc:	9501      	str	r5, [sp, #4]
 80018fe:	6dfd      	ldr	r5, [r7, #92]	; 0x5c
 8001900:	9500      	str	r5, [sp, #0]
 8001902:	f000 fcba 	bl	800227a <my_masked_xor_asm>
 8001906:	e9cd b601 	strd	fp, r6, [sp, #4]
 800190a:	6dfb      	ldr	r3, [r7, #92]	; 0x5c
 800190c:	9300      	str	r3, [sp, #0]
 800190e:	6a7b      	ldr	r3, [r7, #36]	; 0x24
 8001910:	6979      	ldr	r1, [r7, #20]
 8001912:	2201      	movs	r2, #1
 8001914:	4650      	mov	r0, sl
 8001916:	f000 fcb0 	bl	800227a <my_masked_xor_asm>
 800191a:	e9cd b601 	strd	fp, r6, [sp, #4]
 800191e:	9600      	str	r6, [sp, #0]
 8001920:	6d3a      	ldr	r2, [r7, #80]	; 0x50
 8001922:	4643      	mov	r3, r8
 8001924:	4649      	mov	r1, r9
 8001926:	4650      	mov	r0, sl
 8001928:	f000 fca7 	bl	800227a <my_masked_xor_asm>
 800192c:	69bd      	ldr	r5, [r7, #24]
 800192e:	6a3c      	ldr	r4, [r7, #32]
 8001930:	42ac      	cmp	r4, r5
 8001932:	4643      	mov	r3, r8
 8001934:	4659      	mov	r1, fp
 8001936:	4650      	mov	r0, sl
 8001938:	f04f 0201 	mov.w	r2, #1
 800193c:	d042      	beq.n	80019c4 <secadd_constant_bmsk+0x1c4>
 800193e:	9602      	str	r6, [sp, #8]
 8001940:	697d      	ldr	r5, [r7, #20]
 8001942:	e9cd 6500 	strd	r6, r5, [sp]
 8001946:	f000 fbfd 	bl	8002144 <my_masked_and_asm>
 800194a:	6dfb      	ldr	r3, [r7, #92]	; 0x5c
 800194c:	9302      	str	r3, [sp, #8]
 800194e:	6a7b      	ldr	r3, [r7, #36]	; 0x24
 8001950:	2201      	movs	r2, #1
 8001952:	e9cd 6300 	strd	r6, r3, [sp]
 8001956:	4659      	mov	r1, fp
 8001958:	465b      	mov	r3, fp
 800195a:	4650      	mov	r0, sl
 800195c:	f000 fc8d 	bl	800227a <my_masked_xor_asm>
 8001960:	68fb      	ldr	r3, [r7, #12]
 8001962:	6a79      	ldr	r1, [r7, #36]	; 0x24
 8001964:	6a3a      	ldr	r2, [r7, #32]
 8001966:	4419      	add	r1, r3
 8001968:	693b      	ldr	r3, [r7, #16]
 800196a:	6279      	str	r1, [r7, #36]	; 0x24
 800196c:	4499      	add	r9, r3
 800196e:	69fb      	ldr	r3, [r7, #28]
 8001970:	3201      	adds	r2, #1
 8001972:	4293      	cmp	r3, r2
 8001974:	623a      	str	r2, [r7, #32]
 8001976:	d041      	beq.n	80019fc <secadd_constant_bmsk+0x1fc>
 8001978:	6e7d      	ldr	r5, [r7, #100]	; 0x64
 800197a:	6a3c      	ldr	r4, [r7, #32]
 800197c:	6a7b      	ldr	r3, [r7, #36]	; 0x24
 800197e:	fa25 fc04 	lsr.w	ip, r5, r4
 8001982:	f01c 0f01 	tst.w	ip, #1
 8001986:	4641      	mov	r1, r8
 8001988:	4650      	mov	r0, sl
 800198a:	f04f 0201 	mov.w	r2, #1
 800198e:	d1b2      	bne.n	80018f6 <secadd_constant_bmsk+0xf6>
 8001990:	9602      	str	r6, [sp, #8]
 8001992:	6a7b      	ldr	r3, [r7, #36]	; 0x24
 8001994:	e9cd 6300 	strd	r6, r3, [sp]
 8001998:	4649      	mov	r1, r9
 800199a:	6d3a      	ldr	r2, [r7, #80]	; 0x50
 800199c:	465b      	mov	r3, fp
 800199e:	f000 fc6c 	bl	800227a <my_masked_xor_asm>
 80019a2:	69bb      	ldr	r3, [r7, #24]
 80019a4:	6a3a      	ldr	r2, [r7, #32]
 80019a6:	429a      	cmp	r2, r3
 80019a8:	4659      	mov	r1, fp
 80019aa:	465b      	mov	r3, fp
 80019ac:	f04f 0201 	mov.w	r2, #1
 80019b0:	4650      	mov	r0, sl
 80019b2:	d029      	beq.n	8001a08 <secadd_constant_bmsk+0x208>
 80019b4:	6dfd      	ldr	r5, [r7, #92]	; 0x5c
 80019b6:	9502      	str	r5, [sp, #8]
 80019b8:	6a7c      	ldr	r4, [r7, #36]	; 0x24
 80019ba:	e9cd 6400 	strd	r6, r4, [sp]
 80019be:	f000 fbc1 	bl	8002144 <my_masked_and_asm>
 80019c2:	e7cd      	b.n	8001960 <secadd_constant_bmsk+0x160>
 80019c4:	69fd      	ldr	r5, [r7, #28]
 80019c6:	68ba      	ldr	r2, [r7, #8]
 80019c8:	6a7c      	ldr	r4, [r7, #36]	; 0x24
 80019ca:	4295      	cmp	r5, r2
 80019cc:	46c2      	mov	sl, r8
 80019ce:	4680      	mov	r8, r0
 80019d0:	d014      	beq.n	80019fc <secadd_constant_bmsk+0x1fc>
 80019d2:	9602      	str	r6, [sp, #8]
 80019d4:	697b      	ldr	r3, [r7, #20]
 80019d6:	2201      	movs	r2, #1
 80019d8:	e9cd 6300 	strd	r6, r3, [sp]
 80019dc:	4653      	mov	r3, sl
 80019de:	f000 fbb1 	bl	8002144 <my_masked_and_asm>
 80019e2:	6dfb      	ldr	r3, [r7, #92]	; 0x5c
 80019e4:	9600      	str	r6, [sp, #0]
 80019e6:	e9cd 4301 	strd	r4, r3, [sp, #4]
 80019ea:	6878      	ldr	r0, [r7, #4]
 80019ec:	6939      	ldr	r1, [r7, #16]
 80019ee:	6d3a      	ldr	r2, [r7, #80]	; 0x50
 80019f0:	fb01 0105 	mla	r1, r1, r5, r0
 80019f4:	465b      	mov	r3, fp
 80019f6:	4640      	mov	r0, r8
 80019f8:	f000 fc3f 	bl	800227a <my_masked_xor_asm>
 80019fc:	f8d7 d000 	ldr.w	sp, [r7]
 8001a00:	372c      	adds	r7, #44	; 0x2c
 8001a02:	46bd      	mov	sp, r7
 8001a04:	e8bd 8ff0 	ldmia.w	sp!, {r4, r5, r6, r7, r8, r9, sl, fp, pc}
 8001a08:	69f9      	ldr	r1, [r7, #28]
 8001a0a:	68ba      	ldr	r2, [r7, #8]
 8001a0c:	6a7c      	ldr	r4, [r7, #36]	; 0x24
 8001a0e:	4291      	cmp	r1, r2
 8001a10:	d0f4      	beq.n	80019fc <secadd_constant_bmsk+0x1fc>
 8001a12:	6dfb      	ldr	r3, [r7, #92]	; 0x5c
 8001a14:	9600      	str	r6, [sp, #0]
 8001a16:	e9cd 4301 	strd	r4, r3, [sp, #4]
 8001a1a:	6938      	ldr	r0, [r7, #16]
 8001a1c:	687c      	ldr	r4, [r7, #4]
 8001a1e:	6d3a      	ldr	r2, [r7, #80]	; 0x50
 8001a20:	fb00 4101 	mla	r1, r0, r1, r4
 8001a24:	465b      	mov	r3, fp
 8001a26:	4650      	mov	r0, sl
 8001a28:	f000 fb8c 	bl	8002144 <my_masked_and_asm>
 8001a2c:	f8d7 d000 	ldr.w	sp, [r7]
 8001a30:	372c      	adds	r7, #44	; 0x2c
 8001a32:	46bd      	mov	sp, r7
 8001a34:	e8bd 8ff0 	ldmia.w	sp!, {r4, r5, r6, r7, r8, r9, sl, fp, pc}
 8001a38:	6efb      	ldr	r3, [r7, #108]	; 0x6c
 8001a3a:	9302      	str	r3, [sp, #8]
 8001a3c:	6ebb      	ldr	r3, [r7, #104]	; 0x68
 8001a3e:	9301      	str	r3, [sp, #4]
 8001a40:	6dfb      	ldr	r3, [r7, #92]	; 0x5c
 8001a42:	9300      	str	r3, [sp, #0]
 8001a44:	4659      	mov	r1, fp
 8001a46:	464b      	mov	r3, r9
 8001a48:	2201      	movs	r2, #1
 8001a4a:	f000 fb7b 	bl	8002144 <my_masked_and_asm>
 8001a4e:	6efb      	ldr	r3, [r7, #108]	; 0x6c
 8001a50:	9302      	str	r3, [sp, #8]
 8001a52:	6ebb      	ldr	r3, [r7, #104]	; 0x68
 8001a54:	9301      	str	r3, [sp, #4]
 8001a56:	6dfb      	ldr	r3, [r7, #92]	; 0x5c
 8001a58:	9300      	str	r3, [sp, #0]
 8001a5a:	6d3a      	ldr	r2, [r7, #80]	; 0x50
 8001a5c:	6879      	ldr	r1, [r7, #4]
 8001a5e:	464b      	mov	r3, r9
 8001a60:	4640      	mov	r0, r8
 8001a62:	f000 fc0a 	bl	800227a <my_masked_xor_asm>
 8001a66:	e72b      	b.n	80018c0 <secadd_constant_bmsk+0xc0>

08001a68 <RefreshIOS_rec>:
 8001a68:	2901      	cmp	r1, #1
 8001a6a:	d035      	beq.n	8001ad8 <RefreshIOS_rec+0x70>
 8001a6c:	2902      	cmp	r1, #2
 8001a6e:	e92d 4f70 	stmdb	sp!, {r4, r5, r6, r8, r9, sl, fp, lr}
 8001a72:	460c      	mov	r4, r1
 8001a74:	4615      	mov	r5, r2
 8001a76:	469a      	mov	sl, r3
 8001a78:	d022      	beq.n	8001ac0 <RefreshIOS_rec+0x58>
 8001a7a:	084e      	lsrs	r6, r1, #1
 8001a7c:	ea4f 0883 	mov.w	r8, r3, lsl #2
 8001a80:	4683      	mov	fp, r0
 8001a82:	4631      	mov	r1, r6
 8001a84:	fb08 5906 	mla	r9, r8, r6, r5
 8001a88:	f7ff ffee 	bl	8001a68 <RefreshIOS_rec>
 8001a8c:	1ba1      	subs	r1, r4, r6
 8001a8e:	4658      	mov	r0, fp
 8001a90:	4653      	mov	r3, sl
 8001a92:	464a      	mov	r2, r9
 8001a94:	f7ff ffe8 	bl	8001a68 <RefreshIOS_rec>
 8001a98:	b186      	cbz	r6, 8001abc <RefreshIOS_rec+0x54>
 8001a9a:	2400      	movs	r4, #0
 8001a9c:	46a2      	mov	sl, r4
 8001a9e:	f7fe fab9 	bl	8000014 <rand32>
 8001aa2:	592b      	ldr	r3, [r5, r4]
 8001aa4:	4043      	eors	r3, r0
 8001aa6:	512b      	str	r3, [r5, r4]
 8001aa8:	f859 3004 	ldr.w	r3, [r9, r4]
 8001aac:	f10a 0a01 	add.w	sl, sl, #1
 8001ab0:	4058      	eors	r0, r3
 8001ab2:	4556      	cmp	r6, sl
 8001ab4:	f849 0004 	str.w	r0, [r9, r4]
 8001ab8:	4444      	add	r4, r8
 8001aba:	d1f0      	bne.n	8001a9e <RefreshIOS_rec+0x36>
 8001abc:	e8bd 8f70 	ldmia.w	sp!, {r4, r5, r6, r8, r9, sl, fp, pc}
 8001ac0:	f7fe fa9e 	bl	8000000 <get_random>
 8001ac4:	682b      	ldr	r3, [r5, #0]
 8001ac6:	4043      	eors	r3, r0
 8001ac8:	602b      	str	r3, [r5, #0]
 8001aca:	f855 302a 	ldr.w	r3, [r5, sl, lsl #2]
 8001ace:	4058      	eors	r0, r3
 8001ad0:	f845 002a 	str.w	r0, [r5, sl, lsl #2]
 8001ad4:	e8bd 8f70 	ldmia.w	sp!, {r4, r5, r6, r8, r9, sl, fp, pc}
 8001ad8:	4770      	bx	lr
 8001ada:	bf00      	nop

08001adc <cipher>:
 8001adc:	e92d 4ff0 	stmdb	sp!, {r4, r5, r6, r7, r8, r9, sl, fp, lr}
 8001ae0:	ea4f 0c80 	mov.w	ip, r0, lsl #2
 8001ae4:	f10c 0c07 	add.w	ip, ip, #7
 8001ae8:	f02c 0c07 	bic.w	ip, ip, #7
 8001aec:	b091      	sub	sp, #68	; 0x44
 8001aee:	af04      	add	r7, sp, #16
 8001af0:	ebad 0d0c 	sub.w	sp, sp, ip
 8001af4:	f10d 0810 	add.w	r8, sp, #16
 8001af8:	ebad 0d0c 	sub.w	sp, sp, ip
 8001afc:	6efc      	ldr	r4, [r7, #108]	; 0x6c
 8001afe:	6e3e      	ldr	r6, [r7, #96]	; 0x60
 8001b00:	6278      	str	r0, [r7, #36]	; 0x24
 8001b02:	f10d 0a10 	add.w	sl, sp, #16
 8001b06:	ebad 0d0c 	sub.w	sp, sp, ip
 8001b0a:	4694      	mov	ip, r2
 8001b0c:	6f3a      	ldr	r2, [r7, #112]	; 0x70
 8001b0e:	f8c7 c008 	str.w	ip, [r7, #8]
 8001b12:	e9cd 4201 	strd	r4, r2, [sp, #4]
 8001b16:	6e7a      	ldr	r2, [r7, #100]	; 0x64
 8001b18:	9200      	str	r2, [sp, #0]
 8001b1a:	468e      	mov	lr, r1
 8001b1c:	461d      	mov	r5, r3
 8001b1e:	4641      	mov	r1, r8
 8001b20:	4633      	mov	r3, r6
 8001b22:	2201      	movs	r2, #1
 8001b24:	46f3      	mov	fp, lr
 8001b26:	f8c7 e01c 	str.w	lr, [r7, #28]
 8001b2a:	f8d7 905c 	ldr.w	r9, [r7, #92]	; 0x5c
 8001b2e:	f000 fb09 	bl	8002144 <my_masked_and_asm>
 8001b32:	6f3a      	ldr	r2, [r7, #112]	; 0x70
 8001b34:	607d      	str	r5, [r7, #4]
 8001b36:	e9cd 4201 	strd	r4, r2, [sp, #4]
 8001b3a:	6e7a      	ldr	r2, [r7, #100]	; 0x64
 8001b3c:	9200      	str	r2, [sp, #0]
 8001b3e:	4629      	mov	r1, r5
 8001b40:	4633      	mov	r3, r6
 8001b42:	6a78      	ldr	r0, [r7, #36]	; 0x24
 8001b44:	6dba      	ldr	r2, [r7, #88]	; 0x58
 8001b46:	ad04      	add	r5, sp, #16
 8001b48:	623d      	str	r5, [r7, #32]
 8001b4a:	f000 fb96 	bl	800227a <my_masked_xor_asm>
 8001b4e:	465b      	mov	r3, fp
 8001b50:	2b01      	cmp	r3, #1
 8001b52:	d97b      	bls.n	8001c4c <cipher+0x170>
 8001b54:	6eba      	ldr	r2, [r7, #104]	; 0x68
 8001b56:	eb06 0682 	add.w	r6, r6, r2, lsl #2
 8001b5a:	0092      	lsls	r2, r2, #2
 8001b5c:	60fa      	str	r2, [r7, #12]
 8001b5e:	6f7a      	ldr	r2, [r7, #116]	; 0x74
 8001b60:	62fe      	str	r6, [r7, #44]	; 0x2c
 8001b62:	eb04 0282 	add.w	r2, r4, r2, lsl #2
 8001b66:	3b01      	subs	r3, #1
 8001b68:	62ba      	str	r2, [r7, #40]	; 0x28
 8001b6a:	613b      	str	r3, [r7, #16]
 8001b6c:	6f7a      	ldr	r2, [r7, #116]	; 0x74
 8001b6e:	ea4f 0389 	mov.w	r3, r9, lsl #2
 8001b72:	61bb      	str	r3, [r7, #24]
 8001b74:	687b      	ldr	r3, [r7, #4]
 8001b76:	f04f 0b01 	mov.w	fp, #1
 8001b7a:	0092      	lsls	r2, r2, #2
 8001b7c:	617a      	str	r2, [r7, #20]
 8001b7e:	465c      	mov	r4, fp
 8001b80:	eb03 0989 	add.w	r9, r3, r9, lsl #2
 8001b84:	e016      	b.n	8001bb4 <cipher+0xd8>
 8001b86:	6a3d      	ldr	r5, [r7, #32]
 8001b88:	9402      	str	r4, [sp, #8]
 8001b8a:	e9cd 4500 	strd	r4, r5, [sp]
 8001b8e:	f000 fad9 	bl	8002144 <my_masked_and_asm>
 8001b92:	6afe      	ldr	r6, [r7, #44]	; 0x2c
 8001b94:	68fd      	ldr	r5, [r7, #12]
 8001b96:	6e7b      	ldr	r3, [r7, #100]	; 0x64
 8001b98:	9302      	str	r3, [sp, #8]
 8001b9a:	e9cd 4600 	strd	r4, r6, [sp]
 8001b9e:	4643      	mov	r3, r8
 8001ba0:	6a78      	ldr	r0, [r7, #36]	; 0x24
 8001ba2:	2201      	movs	r2, #1
 8001ba4:	4641      	mov	r1, r8
 8001ba6:	442e      	add	r6, r5
 8001ba8:	62fe      	str	r6, [r7, #44]	; 0x2c
 8001baa:	f000 fb66 	bl	800227a <my_masked_xor_asm>
 8001bae:	69fb      	ldr	r3, [r7, #28]
 8001bb0:	455b      	cmp	r3, fp
 8001bb2:	d04b      	beq.n	8001c4c <cipher+0x170>
 8001bb4:	6a7d      	ldr	r5, [r7, #36]	; 0x24
 8001bb6:	6afe      	ldr	r6, [r7, #44]	; 0x2c
 8001bb8:	6f3b      	ldr	r3, [r7, #112]	; 0x70
 8001bba:	6e7a      	ldr	r2, [r7, #100]	; 0x64
 8001bbc:	9302      	str	r3, [sp, #8]
 8001bbe:	6abb      	ldr	r3, [r7, #40]	; 0x28
 8001bc0:	9301      	str	r3, [sp, #4]
 8001bc2:	4628      	mov	r0, r5
 8001bc4:	4633      	mov	r3, r6
 8001bc6:	9200      	str	r2, [sp, #0]
 8001bc8:	4651      	mov	r1, sl
 8001bca:	2201      	movs	r2, #1
 8001bcc:	f000 fb55 	bl	800227a <my_masked_xor_asm>
 8001bd0:	6e7a      	ldr	r2, [r7, #100]	; 0x64
 8001bd2:	6a39      	ldr	r1, [r7, #32]
 8001bd4:	9200      	str	r2, [sp, #0]
 8001bd6:	4633      	mov	r3, r6
 8001bd8:	4628      	mov	r0, r5
 8001bda:	2201      	movs	r2, #1
 8001bdc:	e9cd 8401 	strd	r8, r4, [sp, #4]
 8001be0:	f000 fb4b 	bl	800227a <my_masked_xor_asm>
 8001be4:	4649      	mov	r1, r9
 8001be6:	4628      	mov	r0, r5
 8001be8:	6dba      	ldr	r2, [r7, #88]	; 0x58
 8001bea:	9400      	str	r4, [sp, #0]
 8001bec:	4653      	mov	r3, sl
 8001bee:	e9cd 8401 	strd	r8, r4, [sp, #4]
 8001bf2:	f000 fb42 	bl	800227a <my_masked_xor_asm>
 8001bf6:	693e      	ldr	r6, [r7, #16]
 8001bf8:	4628      	mov	r0, r5
 8001bfa:	45b3      	cmp	fp, r6
 8001bfc:	697d      	ldr	r5, [r7, #20]
 8001bfe:	6abe      	ldr	r6, [r7, #40]	; 0x28
 8001c00:	442e      	add	r6, r5
 8001c02:	69bd      	ldr	r5, [r7, #24]
 8001c04:	62be      	str	r6, [r7, #40]	; 0x28
 8001c06:	f04f 0201 	mov.w	r2, #1
 8001c0a:	4653      	mov	r3, sl
 8001c0c:	4641      	mov	r1, r8
 8001c0e:	4493      	add	fp, r2
 8001c10:	44a9      	add	r9, r5
 8001c12:	d1b8      	bne.n	8001b86 <cipher+0xaa>
 8001c14:	69fd      	ldr	r5, [r7, #28]
 8001c16:	68ba      	ldr	r2, [r7, #8]
 8001c18:	6afe      	ldr	r6, [r7, #44]	; 0x2c
 8001c1a:	4295      	cmp	r5, r2
 8001c1c:	d016      	beq.n	8001c4c <cipher+0x170>
 8001c1e:	6a3a      	ldr	r2, [r7, #32]
 8001c20:	f8d7 9024 	ldr.w	r9, [r7, #36]	; 0x24
 8001c24:	9402      	str	r4, [sp, #8]
 8001c26:	e9cd 4200 	strd	r4, r2, [sp]
 8001c2a:	4648      	mov	r0, r9
 8001c2c:	2201      	movs	r2, #1
 8001c2e:	f000 fa89 	bl	8002144 <my_masked_and_asm>
 8001c32:	6e7a      	ldr	r2, [r7, #100]	; 0x64
 8001c34:	69b8      	ldr	r0, [r7, #24]
 8001c36:	9400      	str	r4, [sp, #0]
 8001c38:	687c      	ldr	r4, [r7, #4]
 8001c3a:	e9cd 6201 	strd	r6, r2, [sp, #4]
 8001c3e:	fb05 4100 	mla	r1, r5, r0, r4
 8001c42:	6dba      	ldr	r2, [r7, #88]	; 0x58
 8001c44:	4643      	mov	r3, r8
 8001c46:	4648      	mov	r0, r9
 8001c48:	f000 fb17 	bl	800227a <my_masked_xor_asm>
 8001c4c:	3734      	adds	r7, #52	; 0x34
 8001c4e:	46bd      	mov	sp, r7
 8001c50:	e8bd 8ff0 	ldmia.w	sp!, {r4, r5, r6, r7, r8, r9, sl, fp, pc}

08001c54 <report_done>:
 8001c54:	b508      	push	{r3, lr}
 8001c56:	f7ff fffd 	bl	8001c54 <report_done>
 8001c5a:	bf00      	nop

08001c5c <initialize_local>:
 8001c5c:	b470      	push	{r4, r5, r6}
 8001c5e:	b9a2      	cbnz	r2, 8001c8a <initialize_local+0x2e>
 8001c60:	1f04      	subs	r4, r0, #4
 8001c62:	f100 025c 	add.w	r2, r0, #92	; 0x5c
 8001c66:	784b      	ldrb	r3, [r1, #1]
 8001c68:	780e      	ldrb	r6, [r1, #0]
 8001c6a:	78cd      	ldrb	r5, [r1, #3]
 8001c6c:	7888      	ldrb	r0, [r1, #2]
 8001c6e:	041b      	lsls	r3, r3, #16
 8001c70:	ea43 6306 	orr.w	r3, r3, r6, lsl #24
 8001c74:	432b      	orrs	r3, r5
 8001c76:	ea43 2300 	orr.w	r3, r3, r0, lsl #8
 8001c7a:	f844 3f04 	str.w	r3, [r4, #4]!
 8001c7e:	4294      	cmp	r4, r2
 8001c80:	f101 0104 	add.w	r1, r1, #4
 8001c84:	d1ef      	bne.n	8001c66 <initialize_local+0xa>
 8001c86:	bc70      	pop	{r4, r5, r6}
 8001c88:	4770      	bx	lr
 8001c8a:	1f02      	subs	r2, r0, #4
 8001c8c:	f101 0660 	add.w	r6, r1, #96	; 0x60
 8001c90:	f891 3061 	ldrb.w	r3, [r1, #97]	; 0x61
 8001c94:	f891 5060 	ldrb.w	r5, [r1, #96]	; 0x60
 8001c98:	f891 4063 	ldrb.w	r4, [r1, #99]	; 0x63
 8001c9c:	f891 0062 	ldrb.w	r0, [r1, #98]	; 0x62
 8001ca0:	041b      	lsls	r3, r3, #16
 8001ca2:	ea43 6305 	orr.w	r3, r3, r5, lsl #24
 8001ca6:	4323      	orrs	r3, r4
 8001ca8:	3104      	adds	r1, #4
 8001caa:	ea43 2300 	orr.w	r3, r3, r0, lsl #8
 8001cae:	42b1      	cmp	r1, r6
 8001cb0:	f842 3f04 	str.w	r3, [r2, #4]!
 8001cb4:	d1ec      	bne.n	8001c90 <initialize_local+0x34>
 8001cb6:	bc70      	pop	{r4, r5, r6}
 8001cb8:	4770      	bx	lr
 8001cba:	bf00      	nop

08001cbc <initialize_local_reverse>:
 8001cbc:	b410      	push	{r4}
 8001cbe:	3902      	subs	r1, #2
 8001cc0:	1c44      	adds	r4, r0, #1
 8001cc2:	2300      	movs	r3, #0
 8001cc4:	f931 2f02 	ldrsh.w	r2, [r1, #2]!
 8001cc8:	1212      	asrs	r2, r2, #8
 8001cca:	f800 2013 	strb.w	r2, [r0, r3, lsl #1]
 8001cce:	880a      	ldrh	r2, [r1, #0]
 8001cd0:	f804 2013 	strb.w	r2, [r4, r3, lsl #1]
 8001cd4:	3301      	adds	r3, #1
 8001cd6:	2bc0      	cmp	r3, #192	; 0xc0
 8001cd8:	d1f4      	bne.n	8001cc4 <initialize_local_reverse+0x8>
 8001cda:	bc10      	pop	{r4}
 8001cdc:	4770      	bx	lr
 8001cde:	bf00      	nop

08001ce0 <StrAPoly2APoly>:
 8001ce0:	b410      	push	{r4}
 8001ce2:	1e8a      	subs	r2, r1, #2
 8001ce4:	1c84      	adds	r4, r0, #2
 8001ce6:	2300      	movs	r3, #0
 8001ce8:	f932 1f02 	ldrsh.w	r1, [r2, #2]!
 8001cec:	f820 1023 	strh.w	r1, [r0, r3, lsl #2]
 8001cf0:	f9b2 1200 	ldrsh.w	r1, [r2, #512]	; 0x200
 8001cf4:	f824 1023 	strh.w	r1, [r4, r3, lsl #2]
 8001cf8:	3301      	adds	r3, #1
 8001cfa:	f5b3 7f80 	cmp.w	r3, #256	; 0x100
 8001cfe:	d1f3      	bne.n	8001ce8 <StrAPoly2APoly+0x8>
 8001d00:	bc10      	pop	{r4}
 8001d02:	4770      	bx	lr

08001d04 <poly_frombytes>:
 8001d04:	b430      	push	{r4, r5}
 8001d06:	2200      	movs	r2, #0
 8001d08:	1c85      	adds	r5, r0, #2
 8001d0a:	784b      	ldrb	r3, [r1, #1]
 8001d0c:	780c      	ldrb	r4, [r1, #0]
 8001d0e:	021b      	lsls	r3, r3, #8
 8001d10:	f403 6370 	and.w	r3, r3, #3840	; 0xf00
 8001d14:	4323      	orrs	r3, r4
 8001d16:	f820 3022 	strh.w	r3, [r0, r2, lsl #2]
 8001d1a:	788b      	ldrb	r3, [r1, #2]
 8001d1c:	784c      	ldrb	r4, [r1, #1]
 8001d1e:	011b      	lsls	r3, r3, #4
 8001d20:	ea43 1314 	orr.w	r3, r3, r4, lsr #4
 8001d24:	f825 3022 	strh.w	r3, [r5, r2, lsl #2]
 8001d28:	3201      	adds	r2, #1
 8001d2a:	2a80      	cmp	r2, #128	; 0x80
 8001d2c:	f101 0103 	add.w	r1, r1, #3
 8001d30:	d1eb      	bne.n	8001d0a <poly_frombytes+0x6>
 8001d32:	bc30      	pop	{r4, r5}
 8001d34:	4770      	bx	lr
 8001d36:	bf00      	nop

08001d38 <masked_dense2bitslice>:
 8001d38:	e92d 4f70 	stmdb	sp!, {r4, r5, r6, r8, r9, sl, fp, lr}
 8001d3c:	b08c      	sub	sp, #48	; 0x30
 8001d3e:	f8dd e054 	ldr.w	lr, [sp, #84]	; 0x54
 8001d42:	9008      	str	r0, [sp, #32]
 8001d44:	9103      	str	r1, [sp, #12]
 8001d46:	2a00      	cmp	r2, #0
 8001d48:	f000 80c8 	beq.w	8001edc <masked_dense2bitslice+0x1a4>
 8001d4c:	4692      	mov	sl, r2
 8001d4e:	2800      	cmp	r0, #0
 8001d50:	f000 80c4 	beq.w	8001edc <masked_dense2bitslice+0x1a4>
 8001d54:	9a14      	ldr	r2, [sp, #80]	; 0x50
 8001d56:	2a01      	cmp	r2, #1
 8001d58:	f040 80fd 	bne.w	8001f56 <masked_dense2bitslice+0x21e>
 8001d5c:	2400      	movs	r4, #0
 8001d5e:	f100 3bff 	add.w	fp, r0, #4294967295	; 0xffffffff
 8001d62:	f8cd b004 	str.w	fp, [sp, #4]
 8001d66:	4606      	mov	r6, r0
 8001d68:	4625      	mov	r5, r4
 8001d6a:	f04f 0800 	mov.w	r8, #0
 8001d6e:	f04f 0900 	mov.w	r9, #0
 8001d72:	46a3      	mov	fp, r4
 8001d74:	9a01      	ldr	r2, [sp, #4]
 8001d76:	eb03 0184 	add.w	r1, r3, r4, lsl #2
 8001d7a:	2a05      	cmp	r2, #5
 8001d7c:	f3c1 0180 	ubfx	r1, r1, #2, #1
 8001d80:	f240 80af 	bls.w	8001ee2 <masked_dense2bitslice+0x1aa>
 8001d84:	b109      	cbz	r1, 8001d8a <masked_dense2bitslice+0x52>
 8001d86:	f843 5024 	str.w	r5, [r3, r4, lsl #2]
 8001d8a:	eba6 0c01 	sub.w	ip, r6, r1
 8001d8e:	190a      	adds	r2, r1, r4
 8001d90:	ea4f 005c 	mov.w	r0, ip, lsr #1
 8001d94:	eb03 0282 	add.w	r2, r3, r2, lsl #2
 8001d98:	eb02 00c0 	add.w	r0, r2, r0, lsl #3
 8001d9c:	e8e2 8902 	strd	r8, r9, [r2], #8
 8001da0:	4282      	cmp	r2, r0
 8001da2:	d1fb      	bne.n	8001d9c <masked_dense2bitslice+0x64>
 8001da4:	f02c 0201 	bic.w	r2, ip, #1
 8001da8:	4562      	cmp	r2, ip
 8001daa:	4411      	add	r1, r2
 8001dac:	d021      	beq.n	8001df2 <masked_dense2bitslice+0xba>
 8001dae:	1908      	adds	r0, r1, r4
 8001db0:	1c4a      	adds	r2, r1, #1
 8001db2:	4296      	cmp	r6, r2
 8001db4:	f843 5020 	str.w	r5, [r3, r0, lsl #2]
 8001db8:	d91b      	bls.n	8001df2 <masked_dense2bitslice+0xba>
 8001dba:	4422      	add	r2, r4
 8001dbc:	1c88      	adds	r0, r1, #2
 8001dbe:	4286      	cmp	r6, r0
 8001dc0:	f843 5022 	str.w	r5, [r3, r2, lsl #2]
 8001dc4:	d915      	bls.n	8001df2 <masked_dense2bitslice+0xba>
 8001dc6:	4420      	add	r0, r4
 8001dc8:	1cca      	adds	r2, r1, #3
 8001dca:	4296      	cmp	r6, r2
 8001dcc:	f843 5020 	str.w	r5, [r3, r0, lsl #2]
 8001dd0:	d90f      	bls.n	8001df2 <masked_dense2bitslice+0xba>
 8001dd2:	4422      	add	r2, r4
 8001dd4:	1d08      	adds	r0, r1, #4
 8001dd6:	4286      	cmp	r6, r0
 8001dd8:	f843 5022 	str.w	r5, [r3, r2, lsl #2]
 8001ddc:	d909      	bls.n	8001df2 <masked_dense2bitslice+0xba>
 8001dde:	3105      	adds	r1, #5
 8001de0:	428e      	cmp	r6, r1
 8001de2:	4420      	add	r0, r4
 8001de4:	bf88      	it	hi
 8001de6:	1909      	addhi	r1, r1, r4
 8001de8:	f843 5020 	str.w	r5, [r3, r0, lsl #2]
 8001dec:	bf88      	it	hi
 8001dee:	f843 5021 	strhi.w	r5, [r3, r1, lsl #2]
 8001df2:	f10b 0b01 	add.w	fp, fp, #1
 8001df6:	45da      	cmp	sl, fp
 8001df8:	4474      	add	r4, lr
 8001dfa:	d1bb      	bne.n	8001d74 <masked_dense2bitslice+0x3c>
 8001dfc:	9a03      	ldr	r2, [sp, #12]
 8001dfe:	f012 0203 	ands.w	r2, r2, #3
 8001e02:	d170      	bne.n	8001ee6 <masked_dense2bitslice+0x1ae>
 8001e04:	9903      	ldr	r1, [sp, #12]
 8001e06:	2900      	cmp	r1, #0
 8001e08:	d068      	beq.n	8001edc <masked_dense2bitslice+0x1a4>
 8001e0a:	f1be 0f01 	cmp.w	lr, #1
 8001e0e:	f040 80ec 	bne.w	8001fea <masked_dense2bitslice+0x2b2>
 8001e12:	9918      	ldr	r1, [sp, #96]	; 0x60
 8001e14:	9302      	str	r3, [sp, #8]
 8001e16:	4618      	mov	r0, r3
 8001e18:	eb01 0341 	add.w	r3, r1, r1, lsl #1
 8001e1c:	005b      	lsls	r3, r3, #1
 8001e1e:	9914      	ldr	r1, [sp, #80]	; 0x50
 8001e20:	9305      	str	r3, [sp, #20]
 8001e22:	9b18      	ldr	r3, [sp, #96]	; 0x60
 8001e24:	9206      	str	r2, [sp, #24]
 8001e26:	0089      	lsls	r1, r1, #2
 8001e28:	00db      	lsls	r3, r3, #3
 8001e2a:	eb00 0a8a 	add.w	sl, r0, sl, lsl #2
 8001e2e:	9109      	str	r1, [sp, #36]	; 0x24
 8001e30:	9207      	str	r2, [sp, #28]
 8001e32:	9304      	str	r3, [sp, #16]
 8001e34:	9b16      	ldr	r3, [sp, #88]	; 0x58
 8001e36:	9a06      	ldr	r2, [sp, #24]
 8001e38:	eb03 0342 	add.w	r3, r3, r2, lsl #1
 8001e3c:	9301      	str	r3, [sp, #4]
 8001e3e:	f04f 0c00 	mov.w	ip, #0
 8001e42:	9b01      	ldr	r3, [sp, #4]
 8001e44:	9918      	ldr	r1, [sp, #96]	; 0x60
 8001e46:	9a05      	ldr	r2, [sp, #20]
 8001e48:	f933 4011 	ldrsh.w	r4, [r3, r1, lsl #1]
 8001e4c:	f933 0021 	ldrsh.w	r0, [r3, r1, lsl #2]
 8001e50:	f9b3 5000 	ldrsh.w	r5, [r3]
 8001e54:	5e99      	ldrsh	r1, [r3, r2]
 8001e56:	9a02      	ldr	r2, [sp, #8]
 8001e58:	f10c 0901 	add.w	r9, ip, #1
 8001e5c:	f10c 0802 	add.w	r8, ip, #2
 8001e60:	f10c 0e03 	add.w	lr, ip, #3
 8001e64:	f004 0301 	and.w	r3, r4, #1
 8001e68:	f005 0b01 	and.w	fp, r5, #1
 8001e6c:	6816      	ldr	r6, [r2, #0]
 8001e6e:	fa0b fb0c 	lsl.w	fp, fp, ip
 8001e72:	fa03 f309 	lsl.w	r3, r3, r9
 8001e76:	ea43 030b 	orr.w	r3, r3, fp
 8001e7a:	f000 0b01 	and.w	fp, r0, #1
 8001e7e:	4333      	orrs	r3, r6
 8001e80:	fa0b fb08 	lsl.w	fp, fp, r8
 8001e84:	f001 0601 	and.w	r6, r1, #1
 8001e88:	ea43 030b 	orr.w	r3, r3, fp
 8001e8c:	fa06 f60e 	lsl.w	r6, r6, lr
 8001e90:	4333      	orrs	r3, r6
 8001e92:	f842 3b04 	str.w	r3, [r2], #4
 8001e96:	4592      	cmp	sl, r2
 8001e98:	ea4f 0464 	mov.w	r4, r4, asr #1
 8001e9c:	ea4f 0565 	mov.w	r5, r5, asr #1
 8001ea0:	ea4f 0060 	mov.w	r0, r0, asr #1
 8001ea4:	ea4f 0161 	mov.w	r1, r1, asr #1
 8001ea8:	d1dc      	bne.n	8001e64 <masked_dense2bitslice+0x12c>
 8001eaa:	9b01      	ldr	r3, [sp, #4]
 8001eac:	9a04      	ldr	r2, [sp, #16]
 8001eae:	4413      	add	r3, r2
 8001eb0:	9301      	str	r3, [sp, #4]
 8001eb2:	9b03      	ldr	r3, [sp, #12]
 8001eb4:	f10c 0c04 	add.w	ip, ip, #4
 8001eb8:	4563      	cmp	r3, ip
 8001eba:	d8c2      	bhi.n	8001e42 <masked_dense2bitslice+0x10a>
 8001ebc:	9902      	ldr	r1, [sp, #8]
 8001ebe:	9a09      	ldr	r2, [sp, #36]	; 0x24
 8001ec0:	9b07      	ldr	r3, [sp, #28]
 8001ec2:	4608      	mov	r0, r1
 8001ec4:	4410      	add	r0, r2
 8001ec6:	9917      	ldr	r1, [sp, #92]	; 0x5c
 8001ec8:	9002      	str	r0, [sp, #8]
 8001eca:	4492      	add	sl, r2
 8001ecc:	9a06      	ldr	r2, [sp, #24]
 8001ece:	440a      	add	r2, r1
 8001ed0:	9206      	str	r2, [sp, #24]
 8001ed2:	9a08      	ldr	r2, [sp, #32]
 8001ed4:	3301      	adds	r3, #1
 8001ed6:	429a      	cmp	r2, r3
 8001ed8:	9307      	str	r3, [sp, #28]
 8001eda:	d1ab      	bne.n	8001e34 <masked_dense2bitslice+0xfc>
 8001edc:	b00c      	add	sp, #48	; 0x30
 8001ede:	e8bd 8f70 	ldmia.w	sp!, {r4, r5, r6, r8, r9, sl, fp, pc}
 8001ee2:	2100      	movs	r1, #0
 8001ee4:	e763      	b.n	8001dae <masked_dense2bitslice+0x76>
 8001ee6:	f1ba 0f00 	cmp.w	sl, #0
 8001eea:	d0f7      	beq.n	8001edc <masked_dense2bitslice+0x1a4>
 8001eec:	f1be 0f01 	cmp.w	lr, #1
 8001ef0:	d148      	bne.n	8001f84 <masked_dense2bitslice+0x24c>
 8001ef2:	eb03 058a 	add.w	r5, r3, sl, lsl #2
 8001ef6:	461e      	mov	r6, r3
 8001ef8:	9b14      	ldr	r3, [sp, #80]	; 0x50
 8001efa:	9808      	ldr	r0, [sp, #32]
 8001efc:	f8dd b00c 	ldr.w	fp, [sp, #12]
 8001f00:	ea4f 0983 	mov.w	r9, r3, lsl #2
 8001f04:	9b18      	ldr	r3, [sp, #96]	; 0x60
 8001f06:	f04f 0800 	mov.w	r8, #0
 8001f0a:	ea4f 0e43 	mov.w	lr, r3, lsl #1
 8001f0e:	46c2      	mov	sl, r8
 8001f10:	9b16      	ldr	r3, [sp, #88]	; 0x58
 8001f12:	2400      	movs	r4, #0
 8001f14:	eb03 0c48 	add.w	ip, r3, r8, lsl #1
 8001f18:	f9bc 1000 	ldrsh.w	r1, [ip]
 8001f1c:	9001      	str	r0, [sp, #4]
 8001f1e:	4632      	mov	r2, r6
 8001f20:	6810      	ldr	r0, [r2, #0]
 8001f22:	f001 0301 	and.w	r3, r1, #1
 8001f26:	40a3      	lsls	r3, r4
 8001f28:	4303      	orrs	r3, r0
 8001f2a:	f842 3b04 	str.w	r3, [r2], #4
 8001f2e:	42aa      	cmp	r2, r5
 8001f30:	ea4f 0161 	mov.w	r1, r1, asr #1
 8001f34:	d1f4      	bne.n	8001f20 <masked_dense2bitslice+0x1e8>
 8001f36:	3401      	adds	r4, #1
 8001f38:	45a3      	cmp	fp, r4
 8001f3a:	9801      	ldr	r0, [sp, #4]
 8001f3c:	44f4      	add	ip, lr
 8001f3e:	d8eb      	bhi.n	8001f18 <masked_dense2bitslice+0x1e0>
 8001f40:	9b17      	ldr	r3, [sp, #92]	; 0x5c
 8001f42:	f10a 0a01 	add.w	sl, sl, #1
 8001f46:	4550      	cmp	r0, sl
 8001f48:	444e      	add	r6, r9
 8001f4a:	444d      	add	r5, r9
 8001f4c:	4498      	add	r8, r3
 8001f4e:	d1df      	bne.n	8001f10 <masked_dense2bitslice+0x1d8>
 8001f50:	b00c      	add	sp, #48	; 0x30
 8001f52:	e8bd 8f70 	ldmia.w	sp!, {r4, r5, r6, r8, r9, sl, fp, pc}
 8001f56:	2500      	movs	r5, #0
 8001f58:	4684      	mov	ip, r0
 8001f5a:	462e      	mov	r6, r5
 8001f5c:	462c      	mov	r4, r5
 8001f5e:	0090      	lsls	r0, r2, #2
 8001f60:	eb03 0185 	add.w	r1, r3, r5, lsl #2
 8001f64:	2200      	movs	r2, #0
 8001f66:	3201      	adds	r2, #1
 8001f68:	4594      	cmp	ip, r2
 8001f6a:	600c      	str	r4, [r1, #0]
 8001f6c:	4401      	add	r1, r0
 8001f6e:	d1fa      	bne.n	8001f66 <masked_dense2bitslice+0x22e>
 8001f70:	3601      	adds	r6, #1
 8001f72:	45b2      	cmp	sl, r6
 8001f74:	4475      	add	r5, lr
 8001f76:	d1f3      	bne.n	8001f60 <masked_dense2bitslice+0x228>
 8001f78:	9a03      	ldr	r2, [sp, #12]
 8001f7a:	f012 0203 	ands.w	r2, r2, #3
 8001f7e:	f43f af41 	beq.w	8001e04 <masked_dense2bitslice+0xcc>
 8001f82:	e7b0      	b.n	8001ee6 <masked_dense2bitslice+0x1ae>
 8001f84:	9a14      	ldr	r2, [sp, #80]	; 0x50
 8001f86:	f8dd b00c 	ldr.w	fp, [sp, #12]
 8001f8a:	0092      	lsls	r2, r2, #2
 8001f8c:	9202      	str	r2, [sp, #8]
 8001f8e:	9a18      	ldr	r2, [sp, #96]	; 0x60
 8001f90:	f04f 0900 	mov.w	r9, #0
 8001f94:	0056      	lsls	r6, r2, #1
 8001f96:	ea4f 0e8e 	mov.w	lr, lr, lsl #2
 8001f9a:	f8cd 9004 	str.w	r9, [sp, #4]
 8001f9e:	9a16      	ldr	r2, [sp, #88]	; 0x58
 8001fa0:	f04f 0c00 	mov.w	ip, #0
 8001fa4:	eb02 0849 	add.w	r8, r2, r9, lsl #1
 8001fa8:	f9b8 4000 	ldrsh.w	r4, [r8]
 8001fac:	461a      	mov	r2, r3
 8001fae:	2000      	movs	r0, #0
 8001fb0:	6811      	ldr	r1, [r2, #0]
 8001fb2:	f004 0501 	and.w	r5, r4, #1
 8001fb6:	fa05 f50c 	lsl.w	r5, r5, ip
 8001fba:	3001      	adds	r0, #1
 8001fbc:	4329      	orrs	r1, r5
 8001fbe:	4582      	cmp	sl, r0
 8001fc0:	6011      	str	r1, [r2, #0]
 8001fc2:	ea4f 0464 	mov.w	r4, r4, asr #1
 8001fc6:	4472      	add	r2, lr
 8001fc8:	d1f2      	bne.n	8001fb0 <masked_dense2bitslice+0x278>
 8001fca:	f10c 0c01 	add.w	ip, ip, #1
 8001fce:	45e3      	cmp	fp, ip
 8001fd0:	44b0      	add	r8, r6
 8001fd2:	d8e9      	bhi.n	8001fa8 <masked_dense2bitslice+0x270>
 8001fd4:	9902      	ldr	r1, [sp, #8]
 8001fd6:	9a01      	ldr	r2, [sp, #4]
 8001fd8:	440b      	add	r3, r1
 8001fda:	9917      	ldr	r1, [sp, #92]	; 0x5c
 8001fdc:	4489      	add	r9, r1
 8001fde:	9908      	ldr	r1, [sp, #32]
 8001fe0:	3201      	adds	r2, #1
 8001fe2:	4291      	cmp	r1, r2
 8001fe4:	9201      	str	r2, [sp, #4]
 8001fe6:	d1da      	bne.n	8001f9e <masked_dense2bitslice+0x266>
 8001fe8:	e778      	b.n	8001edc <masked_dense2bitslice+0x1a4>
 8001fea:	9918      	ldr	r1, [sp, #96]	; 0x60
 8001fec:	9209      	str	r2, [sp, #36]	; 0x24
 8001fee:	4610      	mov	r0, r2
 8001ff0:	9305      	str	r3, [sp, #20]
 8001ff2:	eb01 0241 	add.w	r2, r1, r1, lsl #1
 8001ff6:	ea4f 038e 	mov.w	r3, lr, lsl #2
 8001ffa:	9301      	str	r3, [sp, #4]
 8001ffc:	0053      	lsls	r3, r2, #1
 8001ffe:	9914      	ldr	r1, [sp, #80]	; 0x50
 8002000:	9307      	str	r3, [sp, #28]
 8002002:	9b18      	ldr	r3, [sp, #96]	; 0x60
 8002004:	900a      	str	r0, [sp, #40]	; 0x28
 8002006:	0089      	lsls	r1, r1, #2
 8002008:	00db      	lsls	r3, r3, #3
 800200a:	910b      	str	r1, [sp, #44]	; 0x2c
 800200c:	9306      	str	r3, [sp, #24]
 800200e:	f8cd a008 	str.w	sl, [sp, #8]
 8002012:	9b16      	ldr	r3, [sp, #88]	; 0x58
 8002014:	9a09      	ldr	r2, [sp, #36]	; 0x24
 8002016:	eb03 0342 	add.w	r3, r3, r2, lsl #1
 800201a:	9304      	str	r3, [sp, #16]
 800201c:	f04f 0e00 	mov.w	lr, #0
 8002020:	9b04      	ldr	r3, [sp, #16]
 8002022:	9a07      	ldr	r2, [sp, #28]
 8002024:	9918      	ldr	r1, [sp, #96]	; 0x60
 8002026:	5e98      	ldrsh	r0, [r3, r2]
 8002028:	f9b3 c000 	ldrsh.w	ip, [r3]
 800202c:	9a05      	ldr	r2, [sp, #20]
 800202e:	f933 5011 	ldrsh.w	r5, [r3, r1, lsl #1]
 8002032:	f933 4021 	ldrsh.w	r4, [r3, r1, lsl #2]
 8002036:	f10e 0a01 	add.w	sl, lr, #1
 800203a:	f10e 0902 	add.w	r9, lr, #2
 800203e:	f10e 0803 	add.w	r8, lr, #3
 8002042:	2100      	movs	r1, #0
 8002044:	f00c 0301 	and.w	r3, ip, #1
 8002048:	f005 0b01 	and.w	fp, r5, #1
 800204c:	6816      	ldr	r6, [r2, #0]
 800204e:	fa03 f30e 	lsl.w	r3, r3, lr
 8002052:	fa0b fb0a 	lsl.w	fp, fp, sl
 8002056:	ea43 0b0b 	orr.w	fp, r3, fp
 800205a:	f004 0301 	and.w	r3, r4, #1
 800205e:	ea4b 0606 	orr.w	r6, fp, r6
 8002062:	fa03 f309 	lsl.w	r3, r3, r9
 8002066:	f000 0b01 	and.w	fp, r0, #1
 800206a:	431e      	orrs	r6, r3
 800206c:	fa0b fb08 	lsl.w	fp, fp, r8
 8002070:	9b01      	ldr	r3, [sp, #4]
 8002072:	ea46 060b 	orr.w	r6, r6, fp
 8002076:	6016      	str	r6, [r2, #0]
 8002078:	441a      	add	r2, r3
 800207a:	9b02      	ldr	r3, [sp, #8]
 800207c:	3101      	adds	r1, #1
 800207e:	428b      	cmp	r3, r1
 8002080:	ea4f 0c6c 	mov.w	ip, ip, asr #1
 8002084:	ea4f 0565 	mov.w	r5, r5, asr #1
 8002088:	ea4f 0464 	mov.w	r4, r4, asr #1
 800208c:	ea4f 0060 	mov.w	r0, r0, asr #1
 8002090:	d1d8      	bne.n	8002044 <masked_dense2bitslice+0x30c>
 8002092:	9b04      	ldr	r3, [sp, #16]
 8002094:	9a06      	ldr	r2, [sp, #24]
 8002096:	4413      	add	r3, r2
 8002098:	9304      	str	r3, [sp, #16]
 800209a:	9b03      	ldr	r3, [sp, #12]
 800209c:	f10e 0e04 	add.w	lr, lr, #4
 80020a0:	4573      	cmp	r3, lr
 80020a2:	d8bd      	bhi.n	8002020 <masked_dense2bitslice+0x2e8>
 80020a4:	9a05      	ldr	r2, [sp, #20]
 80020a6:	990b      	ldr	r1, [sp, #44]	; 0x2c
 80020a8:	9b0a      	ldr	r3, [sp, #40]	; 0x28
 80020aa:	440a      	add	r2, r1
 80020ac:	9205      	str	r2, [sp, #20]
 80020ae:	9917      	ldr	r1, [sp, #92]	; 0x5c
 80020b0:	9a09      	ldr	r2, [sp, #36]	; 0x24
 80020b2:	440a      	add	r2, r1
 80020b4:	9209      	str	r2, [sp, #36]	; 0x24
 80020b6:	9a08      	ldr	r2, [sp, #32]
 80020b8:	3301      	adds	r3, #1
 80020ba:	429a      	cmp	r2, r3
 80020bc:	930a      	str	r3, [sp, #40]	; 0x28
 80020be:	d1a8      	bne.n	8002012 <masked_dense2bitslice+0x2da>
 80020c0:	e70c      	b.n	8001edc <masked_dense2bitslice+0x1a4>
 80020c2:	bf00      	nop

080020c4 <main>:
 80020c4:	e92d 4f70 	stmdb	sp!, {r4, r5, r6, r8, r9, sl, fp, lr}
 80020c8:	f5ad 7d00 	sub.w	sp, sp, #512	; 0x200
 80020cc:	491c      	ldr	r1, [pc, #112]	; (8002140 <main+0x7c>)
 80020ce:	a808      	add	r0, sp, #32
 80020d0:	2200      	movs	r2, #0
 80020d2:	f7ff fdc3 	bl	8001c5c <initialize_local>
 80020d6:	491a      	ldr	r1, [pc, #104]	; (8002140 <main+0x7c>)
 80020d8:	a820      	add	r0, sp, #128	; 0x80
 80020da:	2201      	movs	r2, #1
 80020dc:	f7ff fdbe 	bl	8001c5c <initialize_local>
 80020e0:	ae38      	add	r6, sp, #224	; 0xe0
 80020e2:	f50d 78a0 	add.w	r8, sp, #320	; 0x140
 80020e6:	ac08      	add	r4, sp, #32
 80020e8:	f10d 0b80 	add.w	fp, sp, #128	; 0x80
 80020ec:	46b2      	mov	sl, r6
 80020ee:	46c1      	mov	r9, r8
 80020f0:	ad14      	add	r5, sp, #80	; 0x50
 80020f2:	f7fd ff8f 	bl	8000014 <rand32>
 80020f6:	f854 3b04 	ldr.w	r3, [r4], #4
 80020fa:	4043      	eors	r3, r0
 80020fc:	e9ca 3000 	strd	r3, r0, [sl]
 8002100:	f7fd ff88 	bl	8000014 <rand32>
 8002104:	f85b 3b04 	ldr.w	r3, [fp], #4
 8002108:	42ac      	cmp	r4, r5
 800210a:	ea83 0300 	eor.w	r3, r3, r0
 800210e:	e9c9 3000 	strd	r3, r0, [r9]
 8002112:	f10a 0a08 	add.w	sl, sl, #8
 8002116:	f109 0908 	add.w	r9, r9, #8
 800211a:	d1ea      	bne.n	80020f2 <main+0x2e>
 800211c:	2002      	movs	r0, #2
 800211e:	2301      	movs	r3, #1
 8002120:	220c      	movs	r2, #12
 8002122:	9007      	str	r0, [sp, #28]
 8002124:	9004      	str	r0, [sp, #16]
 8002126:	9001      	str	r0, [sp, #4]
 8002128:	9306      	str	r3, [sp, #24]
 800212a:	9303      	str	r3, [sp, #12]
 800212c:	9300      	str	r3, [sp, #0]
 800212e:	4611      	mov	r1, r2
 8002130:	ab68      	add	r3, sp, #416	; 0x1a0
 8002132:	f8cd 8014 	str.w	r8, [sp, #20]
 8002136:	9602      	str	r6, [sp, #8]
 8002138:	f7ff fcd0 	bl	8001adc <cipher>
 800213c:	f7ff fd8a 	bl	8001c54 <report_done>
 8002140:	20000000 	.word	0x20000000

08002144 <my_masked_and_asm>:
 8002144:	e92d 5ff0 	stmdb	sp!, {r4, r5, r6, r7, r8, r9, sl, fp, ip, lr}
 8002148:	9c0a      	ldr	r4, [sp, #40]	; 0x28
 800214a:	9d0b      	ldr	r5, [sp, #44]	; 0x2c
 800214c:	9e0c      	ldr	r6, [sp, #48]	; 0x30
 800214e:	ea4f 0484 	mov.w	r4, r4, lsl #2
 8002152:	ea4f 0686 	mov.w	r6, r6, lsl #2
 8002156:	4607      	mov	r7, r0
 8002158:	4698      	mov	r8, r3
 800215a:	b406      	push	{r1, r2}
 800215c:	b0a0      	sub	sp, #128	; 0x80
 800215e:	941f      	str	r4, [sp, #124]	; 0x7c
 8002160:	f04f 0000 	mov.w	r0, #0

08002164 <loop_ab>:
 8002164:	fb00 f204 	mul.w	r2, r0, r4
 8002168:	991f      	ldr	r1, [sp, #124]	; 0x7c
 800216a:	f858 1002 	ldr.w	r1, [r8, r2]
 800216e:	9a1f      	ldr	r2, [sp, #124]	; 0x7c
 8002170:	fb00 f206 	mul.w	r2, r0, r6
 8002174:	58aa      	ldr	r2, [r5, r2]
 8002176:	ea02 0201 	and.w	r2, r2, r1
 800217a:	ea4f 0180 	mov.w	r1, r0, lsl #2
 800217e:	f84d 2001 	str.w	r2, [sp, r1]
 8002182:	911f      	str	r1, [sp, #124]	; 0x7c
 8002184:	f04f 0200 	mov.w	r2, #0
 8002188:	f100 0001 	add.w	r0, r0, #1
 800218c:	4287      	cmp	r7, r0
 800218e:	d1e9      	bne.n	8002164 <loop_ab>
 8002190:	2f01      	cmp	r7, #1
 8002192:	d056      	beq.n	8002242 <my_out>
 8002194:	f04f 0900 	mov.w	r9, #0

08002198 <loop_cross_ext>:
 8002198:	f109 0a01 	add.w	sl, r9, #1

0800219c <loop_cross_in>:
 800219c:	f7fd ff30 	bl	8000000 <get_random>
 80021a0:	fb0a f206 	mul.w	r2, sl, r6
 80021a4:	58aa      	ldr	r2, [r5, r2]
 80021a6:	9b1f      	ldr	r3, [sp, #124]	; 0x7c
 80021a8:	ea82 0200 	eor.w	r2, r2, r0
 80021ac:	fb09 f104 	mul.w	r1, r9, r4
 80021b0:	f858 1001 	ldr.w	r1, [r8, r1]
 80021b4:	ea20 0301 	bic.w	r3, r0, r1
 80021b8:	901e      	str	r0, [sp, #120]	; 0x78
 80021ba:	f8cd 907c 	str.w	r9, [sp, #124]	; 0x7c
 80021be:	f04f 0000 	mov.w	r0, #0
 80021c2:	ea01 0202 	and.w	r2, r1, r2
 80021c6:	ea4f 0189 	mov.w	r1, r9, lsl #2
 80021ca:	ea82 0303 	eor.w	r3, r2, r3
 80021ce:	9a1f      	ldr	r2, [sp, #124]	; 0x7c
 80021d0:	f85d 2001 	ldr.w	r2, [sp, r1]
 80021d4:	ea82 0203 	eor.w	r2, r2, r3
 80021d8:	f84d 2001 	str.w	r2, [sp, r1]
 80021dc:	911f      	str	r1, [sp, #124]	; 0x7c
 80021de:	f04f 0200 	mov.w	r2, #0
 80021e2:	f04f 0300 	mov.w	r3, #0
 80021e6:	981e      	ldr	r0, [sp, #120]	; 0x78
 80021e8:	fb09 f206 	mul.w	r2, r9, r6
 80021ec:	58aa      	ldr	r2, [r5, r2]
 80021ee:	9b1f      	ldr	r3, [sp, #124]	; 0x7c
 80021f0:	ea82 0200 	eor.w	r2, r2, r0
 80021f4:	fb0a f104 	mul.w	r1, sl, r4
 80021f8:	f858 1001 	ldr.w	r1, [r8, r1]
 80021fc:	ea20 0301 	bic.w	r3, r0, r1
 8002200:	f04f 0000 	mov.w	r0, #0
 8002204:	901e      	str	r0, [sp, #120]	; 0x78
 8002206:	ea01 0202 	and.w	r2, r1, r2
 800220a:	ea4f 018a 	mov.w	r1, sl, lsl #2
 800220e:	ea82 0303 	eor.w	r3, r2, r3
 8002212:	9a1f      	ldr	r2, [sp, #124]	; 0x7c
 8002214:	f85d 2001 	ldr.w	r2, [sp, r1]
 8002218:	ea82 0203 	eor.w	r2, r2, r3
 800221c:	f84d 2001 	str.w	r2, [sp, r1]
 8002220:	911f      	str	r1, [sp, #124]	; 0x7c
 8002222:	f04f 0200 	mov.w	r2, #0
 8002226:	f04f 0300 	mov.w	r3, #0
 800222a:	f10a 0a01 	add.w	sl, sl, #1
 800222e:	4557      	cmp	r7, sl
 8002230:	d1b4      	bne.n	800219c <loop_cross_in>
 8002232:	f1a7 0701 	sub.w	r7, r7, #1
 8002236:	f109 0901 	add.w	r9, r9, #1
 800223a:	454f      	cmp	r7, r9
 800223c:	f107 0701 	add.w	r7, r7, #1
 8002240:	d1aa      	bne.n	8002198 <loop_cross_ext>

08002242 <my_out>:
 8002242:	b020      	add	sp, #128	; 0x80
 8002244:	bc06      	pop	{r1, r2}
 8002246:	b406      	push	{r1, r2}
 8002248:	b0a0      	sub	sp, #128	; 0x80
 800224a:	f04f 0000 	mov.w	r0, #0
 800224e:	ea4f 0282 	mov.w	r2, r2, lsl #2

08002252 <loop_cmp>:
 8002252:	9c1f      	ldr	r4, [sp, #124]	; 0x7c
 8002254:	ea4f 0480 	mov.w	r4, r0, lsl #2
 8002258:	f85d 4004 	ldr.w	r4, [sp, r4]
 800225c:	fb00 f302 	mul.w	r3, r0, r2
 8002260:	50c8      	str	r0, [r1, r3]
 8002262:	50cc      	str	r4, [r1, r3]
 8002264:	9b1f      	ldr	r3, [sp, #124]	; 0x7c
 8002266:	f100 0001 	add.w	r0, r0, #1
 800226a:	f04f 0400 	mov.w	r4, #0
 800226e:	4287      	cmp	r7, r0
 8002270:	d1ef      	bne.n	8002252 <loop_cmp>

08002272 <my_out_full>:
 8002272:	b020      	add	sp, #128	; 0x80
 8002274:	bc06      	pop	{r1, r2}
 8002276:	e8bd 9ff0 	ldmia.w	sp!, {r4, r5, r6, r7, r8, r9, sl, fp, ip, pc}

0800227a <my_masked_xor_asm>:
 800227a:	e92d 5ff0 	stmdb	sp!, {r4, r5, r6, r7, r8, r9, sl, fp, ip, lr}
 800227e:	9c0a      	ldr	r4, [sp, #40]	; 0x28
 8002280:	9d0b      	ldr	r5, [sp, #44]	; 0x2c
 8002282:	9e0c      	ldr	r6, [sp, #48]	; 0x30
 8002284:	ea4f 0080 	mov.w	r0, r0, lsl #2
 8002288:	b081      	sub	sp, #4
 800228a:	f04f 0700 	mov.w	r7, #0
 800228e:	9700      	str	r7, [sp, #0]

08002290 <loop_ab_xor>:
 8002290:	f8dd 8000 	ldr.w	r8, [sp]
 8002294:	fb07 f804 	mul.w	r8, r7, r4
 8002298:	f853 8008 	ldr.w	r8, [r3, r8]
 800229c:	f8dd 9000 	ldr.w	r9, [sp]
 80022a0:	fb07 f906 	mul.w	r9, r7, r6
 80022a4:	f855 9009 	ldr.w	r9, [r5, r9]
 80022a8:	ea89 0908 	eor.w	r9, r9, r8
 80022ac:	fb07 f802 	mul.w	r8, r7, r2
 80022b0:	9700      	str	r7, [sp, #0]
 80022b2:	f841 7008 	str.w	r7, [r1, r8]
 80022b6:	f841 9008 	str.w	r9, [r1, r8]
 80022ba:	9f00      	ldr	r7, [sp, #0]
 80022bc:	f04f 0900 	mov.w	r9, #0
 80022c0:	f107 0704 	add.w	r7, r7, #4
 80022c4:	4287      	cmp	r7, r0
 80022c6:	d1e3      	bne.n	8002290 <loop_ab_xor>
 80022c8:	b001      	add	sp, #4
 80022ca:	e8bd 9ff0 	ldmia.w	sp!, {r4, r5, r6, r7, r8, r9, sl, fp, ip, pc}

080022ce <copy_sharing_asm>:
 80022ce:	b190      	cbz	r0, 80022f6 <cp_out>
 80022d0:	b471      	push	{r0, r4, r5, r6}
 80022d2:	0095      	lsls	r5, r2, #2
 80022d4:	9a04      	ldr	r2, [sp, #16]
 80022d6:	0096      	lsls	r6, r2, #2
 80022d8:	2200      	movs	r2, #0

080022da <copy_sharing_loop>:
 80022da:	3201      	adds	r2, #1
 80022dc:	9c00      	ldr	r4, [sp, #0]
 80022de:	681c      	ldr	r4, [r3, #0]
 80022e0:	9000      	str	r0, [sp, #0]
 80022e2:	600c      	str	r4, [r1, #0]
 80022e4:	f04f 0400 	mov.w	r4, #0
 80022e8:	4290      	cmp	r0, r2
 80022ea:	4433      	add	r3, r6
 80022ec:	4429      	add	r1, r5
 80022ee:	d1f4      	bne.n	80022da <copy_sharing_loop>
 80022f0:	9000      	str	r0, [sp, #0]
 80022f2:	bc71      	pop	{r0, r4, r5, r6}
 80022f4:	4770      	bx	lr

080022f6 <cp_out>:
 80022f6:	4770      	bx	lr
