
../../binary/binary.elf:     file format elf32-littlearm


Disassembly of section .text:

08000000 <get_random>:
 8000000:	b480      	push	{r7}
 8000002:	af00      	add	r7, sp, #0
 8000004:	4b02      	ldr	r3, [pc, #8]	; (8000010 <get_random+0x10>)
 8000006:	681b      	ldr	r3, [r3, #0]
 8000008:	4618      	mov	r0, r3
 800000a:	46bd      	mov	sp, r7
 800000c:	bc80      	pop	{r7}
 800000e:	4770      	bx	lr
 8000010:	20000000 	.word	0x20000000

08000014 <rand32>:
 8000014:	b580      	push	{r7, lr}
 8000016:	af00      	add	r7, sp, #0
 8000018:	f7ff fff2 	bl	8000000 <get_random>
 800001c:	4603      	mov	r3, r0
 800001e:	4618      	mov	r0, r3
 8000020:	bd80      	pop	{r7, pc}
 8000022:	bf00      	nop

08000024 <rand_q>:
 8000024:	b580      	push	{r7, lr}
 8000026:	b084      	sub	sp, #16
 8000028:	af00      	add	r7, sp, #0
 800002a:	6078      	str	r0, [r7, #4]
 800002c:	f7ff fff2 	bl	8000014 <rand32>
 8000030:	60f8      	str	r0, [r7, #12]
 8000032:	68fb      	ldr	r3, [r7, #12]
 8000034:	4a16      	ldr	r2, [pc, #88]	; (8000090 <rand_q+0x6c>)
 8000036:	4293      	cmp	r3, r2
 8000038:	d8f8      	bhi.n	800002c <rand_q+0x8>
 800003a:	68fb      	ldr	r3, [r7, #12]
 800003c:	4a15      	ldr	r2, [pc, #84]	; (8000094 <rand_q+0x70>)
 800003e:	fba2 1203 	umull	r1, r2, r2, r3
 8000042:	0dd2      	lsrs	r2, r2, #23
 8000044:	4914      	ldr	r1, [pc, #80]	; (8000098 <rand_q+0x74>)
 8000046:	fb01 f202 	mul.w	r2, r1, r2
 800004a:	1a9b      	subs	r3, r3, r2
 800004c:	60fb      	str	r3, [r7, #12]
 800004e:	68fb      	ldr	r3, [r7, #12]
 8000050:	4a12      	ldr	r2, [pc, #72]	; (800009c <rand_q+0x78>)
 8000052:	fba2 1203 	umull	r1, r2, r2, r3
 8000056:	1a99      	subs	r1, r3, r2
 8000058:	0849      	lsrs	r1, r1, #1
 800005a:	440a      	add	r2, r1
 800005c:	0ad2      	lsrs	r2, r2, #11
 800005e:	f640 5101 	movw	r1, #3329	; 0xd01
 8000062:	fb01 f202 	mul.w	r2, r1, r2
 8000066:	1a9a      	subs	r2, r3, r2
 8000068:	b212      	sxth	r2, r2
 800006a:	687b      	ldr	r3, [r7, #4]
 800006c:	801a      	strh	r2, [r3, #0]
 800006e:	68fa      	ldr	r2, [r7, #12]
 8000070:	4b0a      	ldr	r3, [pc, #40]	; (800009c <rand_q+0x78>)
 8000072:	fba3 1302 	umull	r1, r3, r3, r2
 8000076:	1ad2      	subs	r2, r2, r3
 8000078:	0852      	lsrs	r2, r2, #1
 800007a:	4413      	add	r3, r2
 800007c:	0ada      	lsrs	r2, r3, #11
 800007e:	687b      	ldr	r3, [r7, #4]
 8000080:	3302      	adds	r3, #2
 8000082:	b212      	sxth	r2, r2
 8000084:	801a      	strh	r2, [r3, #0]
 8000086:	bf00      	nop
 8000088:	3710      	adds	r7, #16
 800008a:	46bd      	mov	sp, r7
 800008c:	bd80      	pop	{r7, pc}
 800008e:	bf00      	nop
 8000090:	ffa24f83 	.word	0xffa24f83
 8000094:	c1c6eadb 	.word	0xc1c6eadb
 8000098:	00a91a01 	.word	0x00a91a01
 800009c:	3afb7681 	.word	0x3afb7681

080000a0 <transpose32>:
 80000a0:	b570      	push	{r4, r5, r6, lr}
 80000a2:	f04f 0e05 	mov.w	lr, #5
 80000a6:	f64f 76ff 	movw	r6, #65535	; 0xffff
 80000aa:	2510      	movs	r5, #16
 80000ac:	ea6f 0c05 	mvn.w	ip, r5
 80000b0:	2200      	movs	r2, #0
 80000b2:	18a9      	adds	r1, r5, r2
 80000b4:	f850 3022 	ldr.w	r3, [r0, r2, lsl #2]
 80000b8:	f850 4021 	ldr.w	r4, [r0, r1, lsl #2]
 80000bc:	40eb      	lsrs	r3, r5
 80000be:	4063      	eors	r3, r4
 80000c0:	4033      	ands	r3, r6
 80000c2:	405c      	eors	r4, r3
 80000c4:	f840 4021 	str.w	r4, [r0, r1, lsl #2]
 80000c8:	f850 4022 	ldr.w	r4, [r0, r2, lsl #2]
 80000cc:	40ab      	lsls	r3, r5
 80000ce:	3101      	adds	r1, #1
 80000d0:	4063      	eors	r3, r4
 80000d2:	f840 3022 	str.w	r3, [r0, r2, lsl #2]
 80000d6:	ea01 020c 	and.w	r2, r1, ip
 80000da:	2a1f      	cmp	r2, #31
 80000dc:	dde9      	ble.n	80000b2 <transpose32+0x12>
 80000de:	106d      	asrs	r5, r5, #1
 80000e0:	fa06 f305 	lsl.w	r3, r6, r5
 80000e4:	f1be 0e01 	subs.w	lr, lr, #1
 80000e8:	ea86 0603 	eor.w	r6, r6, r3
 80000ec:	d1de      	bne.n	80000ac <transpose32+0xc>
 80000ee:	bd70      	pop	{r4, r5, r6, pc}

080000f0 <masked_dense2bitslice_opt>:
 80000f0:	e92d 4f70 	stmdb	sp!, {r4, r5, r6, r8, r9, sl, fp, lr}
 80000f4:	b0c2      	sub	sp, #264	; 0x108
 80000f6:	930b      	str	r3, [sp, #44]	; 0x2c
 80000f8:	9107      	str	r1, [sp, #28]
 80000fa:	9b4a      	ldr	r3, [sp, #296]	; 0x128
 80000fc:	900a      	str	r0, [sp, #40]	; 0x28
 80000fe:	2800      	cmp	r0, #0
 8000100:	f000 810f 	beq.w	8000322 <masked_dense2bitslice_opt+0x232>
 8000104:	994d      	ldr	r1, [sp, #308]	; 0x134
 8000106:	2901      	cmp	r1, #1
 8000108:	f040 8170 	bne.w	80003ec <masked_dense2bitslice_opt+0x2fc>
 800010c:	1e59      	subs	r1, r3, #1
 800010e:	bf18      	it	ne
 8000110:	2101      	movne	r1, #1
 8000112:	2900      	cmp	r1, #0
 8000114:	f040 816a 	bne.w	80003ec <masked_dense2bitslice_opt+0x2fc>
 8000118:	9b07      	ldr	r3, [sp, #28]
 800011a:	9d4b      	ldr	r5, [sp, #300]	; 0x12c
 800011c:	9105      	str	r1, [sp, #20]
 800011e:	f023 0401 	bic.w	r4, r3, #1
 8000122:	4618      	mov	r0, r3
 8000124:	009b      	lsls	r3, r3, #2
 8000126:	3308      	adds	r3, #8
 8000128:	9306      	str	r3, [sp, #24]
 800012a:	9b0b      	ldr	r3, [sp, #44]	; 0x2c
 800012c:	9108      	str	r1, [sp, #32]
 800012e:	009b      	lsls	r3, r3, #2
 8000130:	3d02      	subs	r5, #2
 8000132:	468a      	mov	sl, r1
 8000134:	930c      	str	r3, [sp, #48]	; 0x30
 8000136:	a942      	add	r1, sp, #264	; 0x108
 8000138:	eb02 0380 	add.w	r3, r2, r0, lsl #2
 800013c:	eb01 0184 	add.w	r1, r1, r4, lsl #2
 8000140:	f104 0b10 	add.w	fp, r4, #16
 8000144:	950d      	str	r5, [sp, #52]	; 0x34
 8000146:	9304      	str	r3, [sp, #16]
 8000148:	ad42      	add	r5, sp, #264	; 0x108
 800014a:	0843      	lsrs	r3, r0, #1
 800014c:	eb05 0b8b 	add.w	fp, r5, fp, lsl #2
 8000150:	9103      	str	r1, [sp, #12]
 8000152:	1905      	adds	r5, r0, r4
 8000154:	9309      	str	r3, [sp, #36]	; 0x24
 8000156:	a922      	add	r1, sp, #136	; 0x88
 8000158:	1e43      	subs	r3, r0, #1
 800015a:	940f      	str	r4, [sp, #60]	; 0x3c
 800015c:	9502      	str	r5, [sp, #8]
 800015e:	9201      	str	r2, [sp, #4]
 8000160:	f50d 7884 	add.w	r8, sp, #264	; 0x108
 8000164:	930e      	str	r3, [sp, #56]	; 0x38
 8000166:	4691      	mov	r9, r2
 8000168:	468c      	mov	ip, r1
 800016a:	9b0d      	ldr	r3, [sp, #52]	; 0x34
 800016c:	9a05      	ldr	r2, [sp, #20]
 800016e:	4660      	mov	r0, ip
 8000170:	eb03 0342 	add.w	r3, r3, r2, lsl #1
 8000174:	4661      	mov	r1, ip
 8000176:	f9b3 4042 	ldrsh.w	r4, [r3, #66]	; 0x42
 800017a:	f9b3 2002 	ldrsh.w	r2, [r3, #2]
 800017e:	ea42 4204 	orr.w	r2, r2, r4, lsl #16
 8000182:	f840 2b04 	str.w	r2, [r0], #4
 8000186:	4540      	cmp	r0, r8
 8000188:	f103 0302 	add.w	r3, r3, #2
 800018c:	d1f3      	bne.n	8000176 <masked_dense2bitslice_opt+0x86>
 800018e:	f04f 0e05 	mov.w	lr, #5
 8000192:	f64f 76ff 	movw	r6, #65535	; 0xffff
 8000196:	2510      	movs	r5, #16
 8000198:	ea6f 0c05 	mvn.w	ip, r5
 800019c:	2200      	movs	r2, #0
 800019e:	1950      	adds	r0, r2, r5
 80001a0:	f851 3022 	ldr.w	r3, [r1, r2, lsl #2]
 80001a4:	f851 4020 	ldr.w	r4, [r1, r0, lsl #2]
 80001a8:	40eb      	lsrs	r3, r5
 80001aa:	4063      	eors	r3, r4
 80001ac:	4033      	ands	r3, r6
 80001ae:	405c      	eors	r4, r3
 80001b0:	f841 4020 	str.w	r4, [r1, r0, lsl #2]
 80001b4:	f851 4022 	ldr.w	r4, [r1, r2, lsl #2]
 80001b8:	40ab      	lsls	r3, r5
 80001ba:	3001      	adds	r0, #1
 80001bc:	4063      	eors	r3, r4
 80001be:	f841 3022 	str.w	r3, [r1, r2, lsl #2]
 80001c2:	ea00 020c 	and.w	r2, r0, ip
 80001c6:	2a1f      	cmp	r2, #31
 80001c8:	dde9      	ble.n	800019e <masked_dense2bitslice_opt+0xae>
 80001ca:	106d      	asrs	r5, r5, #1
 80001cc:	fa06 f305 	lsl.w	r3, r6, r5
 80001d0:	f1be 0e01 	subs.w	lr, lr, #1
 80001d4:	ea86 0603 	eor.w	r6, r6, r3
 80001d8:	d1de      	bne.n	8000198 <masked_dense2bitslice_opt+0xa8>
 80001da:	9b07      	ldr	r3, [sp, #28]
 80001dc:	468c      	mov	ip, r1
 80001de:	2b00      	cmp	r3, #0
 80001e0:	f000 8086 	beq.w	80002f0 <masked_dense2bitslice_opt+0x200>
 80001e4:	9e04      	ldr	r6, [sp, #16]
 80001e6:	9a01      	ldr	r2, [sp, #4]
 80001e8:	9b0e      	ldr	r3, [sp, #56]	; 0x38
 80001ea:	4332      	orrs	r2, r6
 80001ec:	2b05      	cmp	r3, #5
 80001ee:	f3c2 0202 	ubfx	r2, r2, #0, #3
 80001f2:	bf94      	ite	ls
 80001f4:	2300      	movls	r3, #0
 80001f6:	2301      	movhi	r3, #1
 80001f8:	2a00      	cmp	r2, #0
 80001fa:	bf18      	it	ne
 80001fc:	2300      	movne	r3, #0
 80001fe:	ea4f 028a 	mov.w	r2, sl, lsl #2
 8000202:	2b00      	cmp	r3, #0
 8000204:	f000 8090 	beq.w	8000328 <masked_dense2bitslice_opt+0x238>
 8000208:	9906      	ldr	r1, [sp, #24]
 800020a:	f102 0008 	add.w	r0, r2, #8
 800020e:	f1a1 0308 	sub.w	r3, r1, #8
 8000212:	428a      	cmp	r2, r1
 8000214:	bfb8      	it	lt
 8000216:	4283      	cmplt	r3, r0
 8000218:	f2c0 8086 	blt.w	8000328 <masked_dense2bitslice_opt+0x238>
 800021c:	e9dd 2322 	ldrd	r2, r3, [sp, #136]	; 0x88
 8000220:	e9dd 4532 	ldrd	r4, r5, [sp, #200]	; 0xc8
 8000224:	9909      	ldr	r1, [sp, #36]	; 0x24
 8000226:	9801      	ldr	r0, [sp, #4]
 8000228:	2901      	cmp	r1, #1
 800022a:	e9c0 2300 	strd	r2, r3, [r0]
 800022e:	e9c6 4500 	strd	r4, r5, [r6]
 8000232:	4630      	mov	r0, r6
 8000234:	d94a      	bls.n	80002cc <masked_dense2bitslice_opt+0x1dc>
 8000236:	e9dd 2324 	ldrd	r2, r3, [sp, #144]	; 0x90
 800023a:	e9dd 4534 	ldrd	r4, r5, [sp, #208]	; 0xd0
 800023e:	9e01      	ldr	r6, [sp, #4]
 8000240:	2902      	cmp	r1, #2
 8000242:	e9c6 2302 	strd	r2, r3, [r6, #8]
 8000246:	e9c0 4502 	strd	r4, r5, [r0, #8]
 800024a:	d03f      	beq.n	80002cc <masked_dense2bitslice_opt+0x1dc>
 800024c:	e9dd 2326 	ldrd	r2, r3, [sp, #152]	; 0x98
 8000250:	e9dd 4536 	ldrd	r4, r5, [sp, #216]	; 0xd8
 8000254:	9e01      	ldr	r6, [sp, #4]
 8000256:	2903      	cmp	r1, #3
 8000258:	e9c6 2304 	strd	r2, r3, [r6, #16]
 800025c:	e9c0 4504 	strd	r4, r5, [r0, #16]
 8000260:	d034      	beq.n	80002cc <masked_dense2bitslice_opt+0x1dc>
 8000262:	e9dd 2328 	ldrd	r2, r3, [sp, #160]	; 0xa0
 8000266:	e9dd 4538 	ldrd	r4, r5, [sp, #224]	; 0xe0
 800026a:	9e01      	ldr	r6, [sp, #4]
 800026c:	2904      	cmp	r1, #4
 800026e:	e9c6 2306 	strd	r2, r3, [r6, #24]
 8000272:	e9c0 4506 	strd	r4, r5, [r0, #24]
 8000276:	d029      	beq.n	80002cc <masked_dense2bitslice_opt+0x1dc>
 8000278:	e9dd 232a 	ldrd	r2, r3, [sp, #168]	; 0xa8
 800027c:	e9dd 453a 	ldrd	r4, r5, [sp, #232]	; 0xe8
 8000280:	9e01      	ldr	r6, [sp, #4]
 8000282:	2905      	cmp	r1, #5
 8000284:	e9c6 2308 	strd	r2, r3, [r6, #32]
 8000288:	e9c0 4508 	strd	r4, r5, [r0, #32]
 800028c:	d01e      	beq.n	80002cc <masked_dense2bitslice_opt+0x1dc>
 800028e:	e9dd 232c 	ldrd	r2, r3, [sp, #176]	; 0xb0
 8000292:	e9dd 453c 	ldrd	r4, r5, [sp, #240]	; 0xf0
 8000296:	9909      	ldr	r1, [sp, #36]	; 0x24
 8000298:	9e01      	ldr	r6, [sp, #4]
 800029a:	2906      	cmp	r1, #6
 800029c:	e9c6 230a 	strd	r2, r3, [r6, #40]	; 0x28
 80002a0:	e9c0 450a 	strd	r4, r5, [r0, #40]	; 0x28
 80002a4:	d012      	beq.n	80002cc <masked_dense2bitslice_opt+0x1dc>
 80002a6:	e9dd 232e 	ldrd	r2, r3, [sp, #184]	; 0xb8
 80002aa:	e9dd 453e 	ldrd	r4, r5, [sp, #248]	; 0xf8
 80002ae:	9909      	ldr	r1, [sp, #36]	; 0x24
 80002b0:	2907      	cmp	r1, #7
 80002b2:	e9c6 230c 	strd	r2, r3, [r6, #48]	; 0x30
 80002b6:	e9c0 450c 	strd	r4, r5, [r0, #48]	; 0x30
 80002ba:	d007      	beq.n	80002cc <masked_dense2bitslice_opt+0x1dc>
 80002bc:	e9dd 2330 	ldrd	r2, r3, [sp, #192]	; 0xc0
 80002c0:	e9dd 4540 	ldrd	r4, r5, [sp, #256]	; 0x100
 80002c4:	e9c6 230e 	strd	r2, r3, [r6, #56]	; 0x38
 80002c8:	e9c0 450e 	strd	r4, r5, [r0, #56]	; 0x38
 80002cc:	9b07      	ldr	r3, [sp, #28]
 80002ce:	4619      	mov	r1, r3
 80002d0:	9b0f      	ldr	r3, [sp, #60]	; 0x3c
 80002d2:	4299      	cmp	r1, r3
 80002d4:	d00c      	beq.n	80002f0 <masked_dense2bitslice_opt+0x200>
 80002d6:	eb03 020a 	add.w	r2, r3, sl
 80002da:	9803      	ldr	r0, [sp, #12]
 80002dc:	9b02      	ldr	r3, [sp, #8]
 80002de:	f850 0c80 	ldr.w	r0, [r0, #-128]
 80002e2:	f849 0022 	str.w	r0, [r9, r2, lsl #2]
 80002e6:	4453      	add	r3, sl
 80002e8:	f85b 2c80 	ldr.w	r2, [fp, #-128]
 80002ec:	f849 2023 	str.w	r2, [r9, r3, lsl #2]
 80002f0:	9901      	ldr	r1, [sp, #4]
 80002f2:	9a0c      	ldr	r2, [sp, #48]	; 0x30
 80002f4:	9b08      	ldr	r3, [sp, #32]
 80002f6:	4608      	mov	r0, r1
 80002f8:	9904      	ldr	r1, [sp, #16]
 80002fa:	4410      	add	r0, r2
 80002fc:	9001      	str	r0, [sp, #4]
 80002fe:	4608      	mov	r0, r1
 8000300:	9906      	ldr	r1, [sp, #24]
 8000302:	4410      	add	r0, r2
 8000304:	4411      	add	r1, r2
 8000306:	9a0b      	ldr	r2, [sp, #44]	; 0x2c
 8000308:	9106      	str	r1, [sp, #24]
 800030a:	4492      	add	sl, r2
 800030c:	994c      	ldr	r1, [sp, #304]	; 0x130
 800030e:	9a05      	ldr	r2, [sp, #20]
 8000310:	9004      	str	r0, [sp, #16]
 8000312:	440a      	add	r2, r1
 8000314:	9205      	str	r2, [sp, #20]
 8000316:	9a0a      	ldr	r2, [sp, #40]	; 0x28
 8000318:	3301      	adds	r3, #1
 800031a:	429a      	cmp	r2, r3
 800031c:	9308      	str	r3, [sp, #32]
 800031e:	f47f af24 	bne.w	800016a <masked_dense2bitslice_opt+0x7a>
 8000322:	b042      	add	sp, #264	; 0x108
 8000324:	e8bd 8f70 	ldmia.w	sp!, {r4, r5, r6, r8, r9, sl, fp, pc}
 8000328:	9d07      	ldr	r5, [sp, #28]
 800032a:	9901      	ldr	r1, [sp, #4]
 800032c:	9c04      	ldr	r4, [sp, #16]
 800032e:	9b22      	ldr	r3, [sp, #136]	; 0x88
 8000330:	9a32      	ldr	r2, [sp, #200]	; 0xc8
 8000332:	600b      	str	r3, [r1, #0]
 8000334:	2d01      	cmp	r5, #1
 8000336:	6022      	str	r2, [r4, #0]
 8000338:	d9da      	bls.n	80002f0 <masked_dense2bitslice_opt+0x200>
 800033a:	9b23      	ldr	r3, [sp, #140]	; 0x8c
 800033c:	9a33      	ldr	r2, [sp, #204]	; 0xcc
 800033e:	604b      	str	r3, [r1, #4]
 8000340:	2d02      	cmp	r5, #2
 8000342:	6062      	str	r2, [r4, #4]
 8000344:	d0d4      	beq.n	80002f0 <masked_dense2bitslice_opt+0x200>
 8000346:	9b24      	ldr	r3, [sp, #144]	; 0x90
 8000348:	9a34      	ldr	r2, [sp, #208]	; 0xd0
 800034a:	608b      	str	r3, [r1, #8]
 800034c:	2d03      	cmp	r5, #3
 800034e:	60a2      	str	r2, [r4, #8]
 8000350:	d0ce      	beq.n	80002f0 <masked_dense2bitslice_opt+0x200>
 8000352:	9b25      	ldr	r3, [sp, #148]	; 0x94
 8000354:	9a35      	ldr	r2, [sp, #212]	; 0xd4
 8000356:	60cb      	str	r3, [r1, #12]
 8000358:	2d04      	cmp	r5, #4
 800035a:	60e2      	str	r2, [r4, #12]
 800035c:	d0c8      	beq.n	80002f0 <masked_dense2bitslice_opt+0x200>
 800035e:	9b26      	ldr	r3, [sp, #152]	; 0x98
 8000360:	9a36      	ldr	r2, [sp, #216]	; 0xd8
 8000362:	610b      	str	r3, [r1, #16]
 8000364:	2d05      	cmp	r5, #5
 8000366:	6122      	str	r2, [r4, #16]
 8000368:	d0c2      	beq.n	80002f0 <masked_dense2bitslice_opt+0x200>
 800036a:	9b27      	ldr	r3, [sp, #156]	; 0x9c
 800036c:	9a37      	ldr	r2, [sp, #220]	; 0xdc
 800036e:	614b      	str	r3, [r1, #20]
 8000370:	2d06      	cmp	r5, #6
 8000372:	6162      	str	r2, [r4, #20]
 8000374:	d0bc      	beq.n	80002f0 <masked_dense2bitslice_opt+0x200>
 8000376:	9b28      	ldr	r3, [sp, #160]	; 0xa0
 8000378:	9a38      	ldr	r2, [sp, #224]	; 0xe0
 800037a:	618b      	str	r3, [r1, #24]
 800037c:	2d07      	cmp	r5, #7
 800037e:	61a2      	str	r2, [r4, #24]
 8000380:	d0b6      	beq.n	80002f0 <masked_dense2bitslice_opt+0x200>
 8000382:	9b29      	ldr	r3, [sp, #164]	; 0xa4
 8000384:	9a39      	ldr	r2, [sp, #228]	; 0xe4
 8000386:	61cb      	str	r3, [r1, #28]
 8000388:	2d08      	cmp	r5, #8
 800038a:	61e2      	str	r2, [r4, #28]
 800038c:	d0b0      	beq.n	80002f0 <masked_dense2bitslice_opt+0x200>
 800038e:	9b2a      	ldr	r3, [sp, #168]	; 0xa8
 8000390:	9a3a      	ldr	r2, [sp, #232]	; 0xe8
 8000392:	620b      	str	r3, [r1, #32]
 8000394:	2d09      	cmp	r5, #9
 8000396:	6222      	str	r2, [r4, #32]
 8000398:	d0aa      	beq.n	80002f0 <masked_dense2bitslice_opt+0x200>
 800039a:	9b2b      	ldr	r3, [sp, #172]	; 0xac
 800039c:	9a3b      	ldr	r2, [sp, #236]	; 0xec
 800039e:	624b      	str	r3, [r1, #36]	; 0x24
 80003a0:	2d0a      	cmp	r5, #10
 80003a2:	6262      	str	r2, [r4, #36]	; 0x24
 80003a4:	d0a4      	beq.n	80002f0 <masked_dense2bitslice_opt+0x200>
 80003a6:	9b2c      	ldr	r3, [sp, #176]	; 0xb0
 80003a8:	9a3c      	ldr	r2, [sp, #240]	; 0xf0
 80003aa:	628b      	str	r3, [r1, #40]	; 0x28
 80003ac:	2d0b      	cmp	r5, #11
 80003ae:	62a2      	str	r2, [r4, #40]	; 0x28
 80003b0:	d09e      	beq.n	80002f0 <masked_dense2bitslice_opt+0x200>
 80003b2:	9b2d      	ldr	r3, [sp, #180]	; 0xb4
 80003b4:	9a3d      	ldr	r2, [sp, #244]	; 0xf4
 80003b6:	62cb      	str	r3, [r1, #44]	; 0x2c
 80003b8:	2d0c      	cmp	r5, #12
 80003ba:	62e2      	str	r2, [r4, #44]	; 0x2c
 80003bc:	d098      	beq.n	80002f0 <masked_dense2bitslice_opt+0x200>
 80003be:	9b2e      	ldr	r3, [sp, #184]	; 0xb8
 80003c0:	9a3e      	ldr	r2, [sp, #248]	; 0xf8
 80003c2:	630b      	str	r3, [r1, #48]	; 0x30
 80003c4:	2d0d      	cmp	r5, #13
 80003c6:	6322      	str	r2, [r4, #48]	; 0x30
 80003c8:	d092      	beq.n	80002f0 <masked_dense2bitslice_opt+0x200>
 80003ca:	9b2f      	ldr	r3, [sp, #188]	; 0xbc
 80003cc:	9a3f      	ldr	r2, [sp, #252]	; 0xfc
 80003ce:	634b      	str	r3, [r1, #52]	; 0x34
 80003d0:	2d0e      	cmp	r5, #14
 80003d2:	6362      	str	r2, [r4, #52]	; 0x34
 80003d4:	d08c      	beq.n	80002f0 <masked_dense2bitslice_opt+0x200>
 80003d6:	9b30      	ldr	r3, [sp, #192]	; 0xc0
 80003d8:	9a40      	ldr	r2, [sp, #256]	; 0x100
 80003da:	638b      	str	r3, [r1, #56]	; 0x38
 80003dc:	2d0f      	cmp	r5, #15
 80003de:	63a2      	str	r2, [r4, #56]	; 0x38
 80003e0:	d086      	beq.n	80002f0 <masked_dense2bitslice_opt+0x200>
 80003e2:	9b31      	ldr	r3, [sp, #196]	; 0xc4
 80003e4:	9a41      	ldr	r2, [sp, #260]	; 0x104
 80003e6:	63cb      	str	r3, [r1, #60]	; 0x3c
 80003e8:	63e2      	str	r2, [r4, #60]	; 0x3c
 80003ea:	e781      	b.n	80002f0 <masked_dense2bitslice_opt+0x200>
 80003ec:	9907      	ldr	r1, [sp, #28]
 80003ee:	ebc3 1403 	rsb	r4, r3, r3, lsl #4
 80003f2:	f101 0b0f 	add.w	fp, r1, #15
 80003f6:	eba3 1103 	sub.w	r1, r3, r3, lsl #4
 80003fa:	9105      	str	r1, [sp, #20]
 80003fc:	ebc3 7503 	rsb	r5, r3, r3, lsl #28
 8000400:	eb02 0484 	add.w	r4, r2, r4, lsl #2
 8000404:	951f      	str	r5, [sp, #124]	; 0x7c
 8000406:	9402      	str	r4, [sp, #8]
 8000408:	ebc3 75c3 	rsb	r5, r3, r3, lsl #31
 800040c:	9c05      	ldr	r4, [sp, #20]
 800040e:	9520      	str	r5, [sp, #128]	; 0x80
 8000410:	eba3 01c3 	sub.w	r1, r3, r3, lsl #3
 8000414:	2500      	movs	r5, #0
 8000416:	9111      	str	r1, [sp, #68]	; 0x44
 8000418:	9501      	str	r5, [sp, #4]
 800041a:	00a4      	lsls	r4, r4, #2
 800041c:	9d0b      	ldr	r5, [sp, #44]	; 0x2c
 800041e:	9406      	str	r4, [sp, #24]
 8000420:	9c11      	ldr	r4, [sp, #68]	; 0x44
 8000422:	00ad      	lsls	r5, r5, #2
 8000424:	eba3 0083 	sub.w	r0, r3, r3, lsl #2
 8000428:	fb03 fb0b 	mul.w	fp, r3, fp
 800042c:	9504      	str	r5, [sp, #16]
 800042e:	00e5      	lsls	r5, r4, #3
 8000430:	9017      	str	r0, [sp, #92]	; 0x5c
 8000432:	950b      	str	r5, [sp, #44]	; 0x2c
 8000434:	eb02 0b8b 	add.w	fp, r2, fp, lsl #2
 8000438:	0065      	lsls	r5, r4, #1
 800043a:	f06f 0233 	mvn.w	r2, #51	; 0x33
 800043e:	00a4      	lsls	r4, r4, #2
 8000440:	9419      	str	r4, [sp, #100]	; 0x64
 8000442:	f06f 060c 	mvn.w	r6, #12
 8000446:	fb02 f403 	mul.w	r4, r2, r3
 800044a:	9a17      	ldr	r2, [sp, #92]	; 0x5c
 800044c:	9408      	str	r4, [sp, #32]
 800044e:	fb06 f403 	mul.w	r4, r6, r3
 8000452:	9409      	str	r4, [sp, #36]	; 0x24
 8000454:	0114      	lsls	r4, r2, #4
 8000456:	9412      	str	r4, [sp, #72]	; 0x48
 8000458:	0094      	lsls	r4, r2, #2
 800045a:	9413      	str	r4, [sp, #76]	; 0x4c
 800045c:	00d4      	lsls	r4, r2, #3
 800045e:	941d      	str	r4, [sp, #116]	; 0x74
 8000460:	f06f 0c2b 	mvn.w	ip, #43	; 0x2b
 8000464:	0054      	lsls	r4, r2, #1
 8000466:	f06f 0e0a 	mvn.w	lr, #10
 800046a:	941e      	str	r4, [sp, #120]	; 0x78
 800046c:	fb0c f403 	mul.w	r4, ip, r3
 8000470:	f06f 0827 	mvn.w	r8, #39	; 0x27
 8000474:	940d      	str	r4, [sp, #52]	; 0x34
 8000476:	fb0e f403 	mul.w	r4, lr, r3
 800047a:	ebc3 60c3 	rsb	r0, r3, r3, lsl #27
 800047e:	f06f 0909 	mvn.w	r9, #9
 8000482:	940e      	str	r4, [sp, #56]	; 0x38
 8000484:	fb08 f403 	mul.w	r4, r8, r3
 8000488:	9003      	str	r0, [sp, #12]
 800048a:	940f      	str	r4, [sp, #60]	; 0x3c
 800048c:	f06f 0a23 	mvn.w	sl, #35	; 0x23
 8000490:	fb09 f403 	mul.w	r4, r9, r3
 8000494:	9a03      	ldr	r2, [sp, #12]
 8000496:	9410      	str	r4, [sp, #64]	; 0x40
 8000498:	ebc3 7143 	rsb	r1, r3, r3, lsl #29
 800049c:	fb0a f403 	mul.w	r4, sl, r3
 80004a0:	9415      	str	r4, [sp, #84]	; 0x54
 80004a2:	00cc      	lsls	r4, r1, #3
 80004a4:	ebc3 01c1 	rsb	r1, r3, r1, lsl #3
 80004a8:	9116      	str	r1, [sp, #88]	; 0x58
 80004aa:	0151      	lsls	r1, r2, #5
 80004ac:	950c      	str	r5, [sp, #48]	; 0x30
 80004ae:	9414      	str	r4, [sp, #80]	; 0x50
 80004b0:	9118      	str	r1, [sp, #96]	; 0x60
 80004b2:	f06f 0113 	mvn.w	r1, #19
 80004b6:	ebc3 7083 	rsb	r0, r3, r3, lsl #30
 80004ba:	fb01 f103 	mul.w	r1, r1, r3
 80004be:	9a1f      	ldr	r2, [sp, #124]	; 0x7c
 80004c0:	911b      	str	r1, [sp, #108]	; 0x6c
 80004c2:	0081      	lsls	r1, r0, #2
 80004c4:	911a      	str	r1, [sp, #104]	; 0x68
 80004c6:	ebc3 0180 	rsb	r1, r3, r0, lsl #2
 80004ca:	911c      	str	r1, [sp, #112]	; 0x70
 80004cc:	425b      	negs	r3, r3
 80004ce:	0111      	lsls	r1, r2, #4
 80004d0:	9a20      	ldr	r2, [sp, #128]	; 0x80
 80004d2:	9321      	str	r3, [sp, #132]	; 0x84
 80004d4:	9b4d      	ldr	r3, [sp, #308]	; 0x134
 80004d6:	911f      	str	r1, [sp, #124]	; 0x7c
 80004d8:	0052      	lsls	r2, r2, #1
 80004da:	2500      	movs	r5, #0
 80004dc:	9220      	str	r2, [sp, #128]	; 0x80
 80004de:	9503      	str	r5, [sp, #12]
 80004e0:	ea4f 0943 	mov.w	r9, r3, lsl #1
 80004e4:	ea4f 1883 	mov.w	r8, r3, lsl #6
 80004e8:	f50d 7e82 	add.w	lr, sp, #260	; 0x104
 80004ec:	a922      	add	r1, sp, #136	; 0x88
 80004ee:	9b4b      	ldr	r3, [sp, #300]	; 0x12c
 80004f0:	9a01      	ldr	r2, [sp, #4]
 80004f2:	a821      	add	r0, sp, #132	; 0x84
 80004f4:	eb03 0342 	add.w	r3, r3, r2, lsl #1
 80004f8:	f933 4008 	ldrsh.w	r4, [r3, r8]
 80004fc:	f9b3 2000 	ldrsh.w	r2, [r3]
 8000500:	ea42 4204 	orr.w	r2, r2, r4, lsl #16
 8000504:	f840 2f04 	str.w	r2, [r0, #4]!
 8000508:	4570      	cmp	r0, lr
 800050a:	444b      	add	r3, r9
 800050c:	d1f4      	bne.n	80004f8 <masked_dense2bitslice_opt+0x408>
 800050e:	f04f 0a05 	mov.w	sl, #5
 8000512:	f64f 76ff 	movw	r6, #65535	; 0xffff
 8000516:	2510      	movs	r5, #16
 8000518:	ea6f 0c05 	mvn.w	ip, r5
 800051c:	2200      	movs	r2, #0
 800051e:	18a8      	adds	r0, r5, r2
 8000520:	f851 3022 	ldr.w	r3, [r1, r2, lsl #2]
 8000524:	f851 4020 	ldr.w	r4, [r1, r0, lsl #2]
 8000528:	40eb      	lsrs	r3, r5
 800052a:	4063      	eors	r3, r4
 800052c:	4033      	ands	r3, r6
 800052e:	405c      	eors	r4, r3
 8000530:	f841 4020 	str.w	r4, [r1, r0, lsl #2]
 8000534:	f851 4022 	ldr.w	r4, [r1, r2, lsl #2]
 8000538:	40ab      	lsls	r3, r5
 800053a:	3001      	adds	r0, #1
 800053c:	4063      	eors	r3, r4
 800053e:	f841 3022 	str.w	r3, [r1, r2, lsl #2]
 8000542:	ea00 020c 	and.w	r2, r0, ip
 8000546:	2a1f      	cmp	r2, #31
 8000548:	dde9      	ble.n	800051e <masked_dense2bitslice_opt+0x42e>
 800054a:	106d      	asrs	r5, r5, #1
 800054c:	fa06 f305 	lsl.w	r3, r6, r5
 8000550:	f1ba 0a01 	subs.w	sl, sl, #1
 8000554:	ea86 0603 	eor.w	r6, r6, r3
 8000558:	d1de      	bne.n	8000518 <masked_dense2bitslice_opt+0x428>
 800055a:	9b07      	ldr	r3, [sp, #28]
 800055c:	2b00      	cmp	r3, #0
 800055e:	f000 808e 	beq.w	800067e <masked_dense2bitslice_opt+0x58e>
 8000562:	9d06      	ldr	r5, [sp, #24]
 8000564:	9802      	ldr	r0, [sp, #8]
 8000566:	9b22      	ldr	r3, [sp, #136]	; 0x88
 8000568:	5143      	str	r3, [r0, r5]
 800056a:	9d07      	ldr	r5, [sp, #28]
 800056c:	9b05      	ldr	r3, [sp, #20]
 800056e:	9a32      	ldr	r2, [sp, #200]	; 0xc8
 8000570:	f84b 2023 	str.w	r2, [fp, r3, lsl #2]
 8000574:	2d01      	cmp	r5, #1
 8000576:	f240 8082 	bls.w	800067e <masked_dense2bitslice_opt+0x58e>
 800057a:	9e0b      	ldr	r6, [sp, #44]	; 0x2c
 800057c:	9b23      	ldr	r3, [sp, #140]	; 0x8c
 800057e:	5183      	str	r3, [r0, r6]
 8000580:	9b0c      	ldr	r3, [sp, #48]	; 0x30
 8000582:	9a33      	ldr	r2, [sp, #204]	; 0xcc
 8000584:	f84b 2023 	str.w	r2, [fp, r3, lsl #2]
 8000588:	2d02      	cmp	r5, #2
 800058a:	d078      	beq.n	800067e <masked_dense2bitslice_opt+0x58e>
 800058c:	9e08      	ldr	r6, [sp, #32]
 800058e:	9b24      	ldr	r3, [sp, #144]	; 0x90
 8000590:	5183      	str	r3, [r0, r6]
 8000592:	9b09      	ldr	r3, [sp, #36]	; 0x24
 8000594:	9a34      	ldr	r2, [sp, #208]	; 0xd0
 8000596:	f84b 2023 	str.w	r2, [fp, r3, lsl #2]
 800059a:	2d03      	cmp	r5, #3
 800059c:	d06f      	beq.n	800067e <masked_dense2bitslice_opt+0x58e>
 800059e:	9e12      	ldr	r6, [sp, #72]	; 0x48
 80005a0:	9b25      	ldr	r3, [sp, #148]	; 0x94
 80005a2:	5183      	str	r3, [r0, r6]
 80005a4:	9e13      	ldr	r6, [sp, #76]	; 0x4c
 80005a6:	9a35      	ldr	r2, [sp, #212]	; 0xd4
 80005a8:	f84b 2026 	str.w	r2, [fp, r6, lsl #2]
 80005ac:	2d04      	cmp	r5, #4
 80005ae:	d066      	beq.n	800067e <masked_dense2bitslice_opt+0x58e>
 80005b0:	9c0d      	ldr	r4, [sp, #52]	; 0x34
 80005b2:	9b26      	ldr	r3, [sp, #152]	; 0x98
 80005b4:	5103      	str	r3, [r0, r4]
 80005b6:	9b0e      	ldr	r3, [sp, #56]	; 0x38
 80005b8:	9a36      	ldr	r2, [sp, #216]	; 0xd8
 80005ba:	f84b 2023 	str.w	r2, [fp, r3, lsl #2]
 80005be:	2d05      	cmp	r5, #5
 80005c0:	d05d      	beq.n	800067e <masked_dense2bitslice_opt+0x58e>
 80005c2:	9c0f      	ldr	r4, [sp, #60]	; 0x3c
 80005c4:	9b27      	ldr	r3, [sp, #156]	; 0x9c
 80005c6:	5103      	str	r3, [r0, r4]
 80005c8:	9b10      	ldr	r3, [sp, #64]	; 0x40
 80005ca:	9a37      	ldr	r2, [sp, #220]	; 0xdc
 80005cc:	f84b 2023 	str.w	r2, [fp, r3, lsl #2]
 80005d0:	2d06      	cmp	r5, #6
 80005d2:	d054      	beq.n	800067e <masked_dense2bitslice_opt+0x58e>
 80005d4:	9c15      	ldr	r4, [sp, #84]	; 0x54
 80005d6:	9b28      	ldr	r3, [sp, #160]	; 0xa0
 80005d8:	5103      	str	r3, [r0, r4]
 80005da:	9b16      	ldr	r3, [sp, #88]	; 0x58
 80005dc:	9a38      	ldr	r2, [sp, #224]	; 0xe0
 80005de:	f84b 2023 	str.w	r2, [fp, r3, lsl #2]
 80005e2:	2d07      	cmp	r5, #7
 80005e4:	d04b      	beq.n	800067e <masked_dense2bitslice_opt+0x58e>
 80005e6:	9c18      	ldr	r4, [sp, #96]	; 0x60
 80005e8:	9b29      	ldr	r3, [sp, #164]	; 0xa4
 80005ea:	5103      	str	r3, [r0, r4]
 80005ec:	9b14      	ldr	r3, [sp, #80]	; 0x50
 80005ee:	9a39      	ldr	r2, [sp, #228]	; 0xe4
 80005f0:	f84b 2023 	str.w	r2, [fp, r3, lsl #2]
 80005f4:	2d08      	cmp	r5, #8
 80005f6:	d042      	beq.n	800067e <masked_dense2bitslice_opt+0x58e>
 80005f8:	9c19      	ldr	r4, [sp, #100]	; 0x64
 80005fa:	9b2a      	ldr	r3, [sp, #168]	; 0xa8
 80005fc:	5103      	str	r3, [r0, r4]
 80005fe:	9c11      	ldr	r4, [sp, #68]	; 0x44
 8000600:	9a3a      	ldr	r2, [sp, #232]	; 0xe8
 8000602:	f84b 2024 	str.w	r2, [fp, r4, lsl #2]
 8000606:	2d09      	cmp	r5, #9
 8000608:	d039      	beq.n	800067e <masked_dense2bitslice_opt+0x58e>
 800060a:	9c1d      	ldr	r4, [sp, #116]	; 0x74
 800060c:	9b2b      	ldr	r3, [sp, #172]	; 0xac
 800060e:	5103      	str	r3, [r0, r4]
 8000610:	9c1e      	ldr	r4, [sp, #120]	; 0x78
 8000612:	9a3b      	ldr	r2, [sp, #236]	; 0xec
 8000614:	f84b 2024 	str.w	r2, [fp, r4, lsl #2]
 8000618:	2d0a      	cmp	r5, #10
 800061a:	d030      	beq.n	800067e <masked_dense2bitslice_opt+0x58e>
 800061c:	9c1b      	ldr	r4, [sp, #108]	; 0x6c
 800061e:	9b2c      	ldr	r3, [sp, #176]	; 0xb0
 8000620:	5103      	str	r3, [r0, r4]
 8000622:	9c1c      	ldr	r4, [sp, #112]	; 0x70
 8000624:	9a3c      	ldr	r2, [sp, #240]	; 0xf0
 8000626:	f84b 2024 	str.w	r2, [fp, r4, lsl #2]
 800062a:	2d0b      	cmp	r5, #11
 800062c:	d027      	beq.n	800067e <masked_dense2bitslice_opt+0x58e>
 800062e:	9c1f      	ldr	r4, [sp, #124]	; 0x7c
 8000630:	9b2d      	ldr	r3, [sp, #180]	; 0xb4
 8000632:	5103      	str	r3, [r0, r4]
 8000634:	9c1a      	ldr	r4, [sp, #104]	; 0x68
 8000636:	9a3d      	ldr	r2, [sp, #244]	; 0xf4
 8000638:	f84b 2024 	str.w	r2, [fp, r4, lsl #2]
 800063c:	2d0c      	cmp	r5, #12
 800063e:	d01e      	beq.n	800067e <masked_dense2bitslice_opt+0x58e>
 8000640:	9b2e      	ldr	r3, [sp, #184]	; 0xb8
 8000642:	5183      	str	r3, [r0, r6]
 8000644:	9e17      	ldr	r6, [sp, #92]	; 0x5c
 8000646:	9a3e      	ldr	r2, [sp, #248]	; 0xf8
 8000648:	f84b 2026 	str.w	r2, [fp, r6, lsl #2]
 800064c:	2d0d      	cmp	r5, #13
 800064e:	d016      	beq.n	800067e <masked_dense2bitslice_opt+0x58e>
 8000650:	9e14      	ldr	r6, [sp, #80]	; 0x50
 8000652:	9b2f      	ldr	r3, [sp, #188]	; 0xbc
 8000654:	5183      	str	r3, [r0, r6]
 8000656:	9b20      	ldr	r3, [sp, #128]	; 0x80
 8000658:	9a3f      	ldr	r2, [sp, #252]	; 0xfc
 800065a:	f84b 2023 	str.w	r2, [fp, r3, lsl #2]
 800065e:	2d0e      	cmp	r5, #14
 8000660:	d00d      	beq.n	800067e <masked_dense2bitslice_opt+0x58e>
 8000662:	9c1a      	ldr	r4, [sp, #104]	; 0x68
 8000664:	9b30      	ldr	r3, [sp, #192]	; 0xc0
 8000666:	5103      	str	r3, [r0, r4]
 8000668:	9b21      	ldr	r3, [sp, #132]	; 0x84
 800066a:	9a40      	ldr	r2, [sp, #256]	; 0x100
 800066c:	f84b 2023 	str.w	r2, [fp, r3, lsl #2]
 8000670:	2d0f      	cmp	r5, #15
 8000672:	d004      	beq.n	800067e <masked_dense2bitslice_opt+0x58e>
 8000674:	9b31      	ldr	r3, [sp, #196]	; 0xc4
 8000676:	9a41      	ldr	r2, [sp, #260]	; 0x104
 8000678:	6003      	str	r3, [r0, #0]
 800067a:	f8cb 2000 	str.w	r2, [fp]
 800067e:	9802      	ldr	r0, [sp, #8]
 8000680:	9a04      	ldr	r2, [sp, #16]
 8000682:	9b03      	ldr	r3, [sp, #12]
 8000684:	4604      	mov	r4, r0
 8000686:	4414      	add	r4, r2
 8000688:	984c      	ldr	r0, [sp, #304]	; 0x130
 800068a:	9402      	str	r4, [sp, #8]
 800068c:	4493      	add	fp, r2
 800068e:	9a01      	ldr	r2, [sp, #4]
 8000690:	4402      	add	r2, r0
 8000692:	9201      	str	r2, [sp, #4]
 8000694:	9a0a      	ldr	r2, [sp, #40]	; 0x28
 8000696:	3301      	adds	r3, #1
 8000698:	429a      	cmp	r2, r3
 800069a:	9303      	str	r3, [sp, #12]
 800069c:	f47f af27 	bne.w	80004ee <masked_dense2bitslice_opt+0x3fe>
 80006a0:	b042      	add	sp, #264	; 0x108
 80006a2:	e8bd 8f70 	ldmia.w	sp!, {r4, r5, r6, r8, r9, sl, fp, pc}
 80006a6:	bf00      	nop

080006a8 <masked_bitslice2dense_opt>:
 80006a8:	e92d 4f70 	stmdb	sp!, {r4, r5, r6, r8, r9, sl, fp, lr}
 80006ac:	b0e0      	sub	sp, #384	; 0x180
 80006ae:	9105      	str	r1, [sp, #20]
 80006b0:	9207      	str	r2, [sp, #28]
 80006b2:	9309      	str	r3, [sp, #36]	; 0x24
 80006b4:	9008      	str	r0, [sp, #32]
 80006b6:	2800      	cmp	r0, #0
 80006b8:	f000 8191 	beq.w	80009de <masked_bitslice2dense_opt+0x336>
 80006bc:	9b6b      	ldr	r3, [sp, #428]	; 0x1ac
 80006be:	2b01      	cmp	r3, #1
 80006c0:	f040 8304 	bne.w	8000ccc <masked_bitslice2dense_opt+0x624>
 80006c4:	9b68      	ldr	r3, [sp, #416]	; 0x1a0
 80006c6:	3b01      	subs	r3, #1
 80006c8:	bf18      	it	ne
 80006ca:	2301      	movne	r3, #1
 80006cc:	2b00      	cmp	r3, #0
 80006ce:	f040 82fd 	bne.w	8000ccc <masked_bitslice2dense_opt+0x624>
 80006d2:	008a      	lsls	r2, r1, #2
 80006d4:	460c      	mov	r4, r1
 80006d6:	9216      	str	r2, [sp, #88]	; 0x58
 80006d8:	f102 0140 	add.w	r1, r2, #64	; 0x40
 80006dc:	aa40      	add	r2, sp, #256	; 0x100
 80006de:	1850      	adds	r0, r2, r1
 80006e0:	4621      	mov	r1, r4
 80006e2:	eb02 0484 	add.w	r4, r2, r4, lsl #2
 80006e6:	1c4d      	adds	r5, r1, #1
 80006e8:	900f      	str	r0, [sp, #60]	; 0x3c
 80006ea:	9410      	str	r4, [sp, #64]	; 0x40
 80006ec:	4320      	orrs	r0, r4
 80006ee:	460c      	mov	r4, r1
 80006f0:	f1c1 010f 	rsb	r1, r1, #15
 80006f4:	290c      	cmp	r1, #12
 80006f6:	bf8c      	ite	hi
 80006f8:	2101      	movhi	r1, #1
 80006fa:	2100      	movls	r1, #0
 80006fc:	2d10      	cmp	r5, #16
 80006fe:	bf88      	it	hi
 8000700:	2100      	movhi	r1, #0
 8000702:	f010 0f04 	tst.w	r0, #4
 8000706:	bf18      	it	ne
 8000708:	2100      	movne	r1, #0
 800070a:	910b      	str	r1, [sp, #44]	; 0x2c
 800070c:	2d10      	cmp	r5, #16
 800070e:	f1c4 0110 	rsb	r1, r4, #16
 8000712:	9515      	str	r5, [sp, #84]	; 0x54
 8000714:	bf94      	ite	ls
 8000716:	460d      	movls	r5, r1
 8000718:	2501      	movhi	r5, #1
 800071a:	f025 0101 	bic.w	r1, r5, #1
 800071e:	9111      	str	r1, [sp, #68]	; 0x44
 8000720:	469b      	mov	fp, r3
 8000722:	1863      	adds	r3, r4, r1
 8000724:	9907      	ldr	r1, [sp, #28]
 8000726:	9301      	str	r3, [sp, #4]
 8000728:	3902      	subs	r1, #2
 800072a:	910d      	str	r1, [sp, #52]	; 0x34
 800072c:	9901      	ldr	r1, [sp, #4]
 800072e:	f8dd a1a4 	ldr.w	sl, [sp, #420]	; 0x1a4
 8000732:	950e      	str	r5, [sp, #56]	; 0x38
 8000734:	3110      	adds	r1, #16
 8000736:	f024 0601 	bic.w	r6, r4, #1
 800073a:	9102      	str	r1, [sp, #8]
 800073c:	0869      	lsrs	r1, r5, #1
 800073e:	9112      	str	r1, [sp, #72]	; 0x48
 8000740:	19a1      	adds	r1, r4, r6
 8000742:	9103      	str	r1, [sp, #12]
 8000744:	f106 0110 	add.w	r1, r6, #16
 8000748:	f104 0011 	add.w	r0, r4, #17
 800074c:	9104      	str	r1, [sp, #16]
 800074e:	a960      	add	r1, sp, #384	; 0x180
 8000750:	eb01 0180 	add.w	r1, r1, r0, lsl #2
 8000754:	f104 0c12 	add.w	ip, r4, #18
 8000758:	a860      	add	r0, sp, #384	; 0x180
 800075a:	911b      	str	r1, [sp, #108]	; 0x6c
 800075c:	eb00 018c 	add.w	r1, r0, ip, lsl #2
 8000760:	911c      	str	r1, [sp, #112]	; 0x70
 8000762:	0861      	lsrs	r1, r4, #1
 8000764:	9113      	str	r1, [sp, #76]	; 0x4c
 8000766:	f104 0110 	add.w	r1, r4, #16
 800076a:	9119      	str	r1, [sp, #100]	; 0x64
 800076c:	1ca1      	adds	r1, r4, #2
 800076e:	911a      	str	r1, [sp, #104]	; 0x68
 8000770:	1ce1      	adds	r1, r4, #3
 8000772:	9118      	str	r1, [sp, #96]	; 0x60
 8000774:	f104 0313 	add.w	r3, r4, #19
 8000778:	1d21      	adds	r1, r4, #4
 800077a:	eb00 0383 	add.w	r3, r0, r3, lsl #2
 800077e:	9117      	str	r1, [sp, #92]	; 0x5c
 8000780:	1d61      	adds	r1, r4, #5
 8000782:	931d      	str	r3, [sp, #116]	; 0x74
 8000784:	911e      	str	r1, [sp, #120]	; 0x78
 8000786:	9b6a      	ldr	r3, [sp, #424]	; 0x1a8
 8000788:	9614      	str	r6, [sp, #80]	; 0x50
 800078a:	1da1      	adds	r1, r4, #6
 800078c:	911f      	str	r1, [sp, #124]	; 0x7c
 800078e:	1de1      	adds	r1, r4, #7
 8000790:	009b      	lsls	r3, r3, #2
 8000792:	9120      	str	r1, [sp, #128]	; 0x80
 8000794:	f104 0108 	add.w	r1, r4, #8
 8000798:	930c      	str	r3, [sp, #48]	; 0x30
 800079a:	e9cd bb06 	strd	fp, fp, [sp, #24]
 800079e:	9121      	str	r1, [sp, #132]	; 0x84
 80007a0:	f104 0109 	add.w	r1, r4, #9
 80007a4:	9122      	str	r1, [sp, #136]	; 0x88
 80007a6:	f104 010a 	add.w	r1, r4, #10
 80007aa:	9123      	str	r1, [sp, #140]	; 0x8c
 80007ac:	f104 010b 	add.w	r1, r4, #11
 80007b0:	9124      	str	r1, [sp, #144]	; 0x90
 80007b2:	f104 010c 	add.w	r1, r4, #12
 80007b6:	4623      	mov	r3, r4
 80007b8:	9125      	str	r1, [sp, #148]	; 0x94
 80007ba:	f104 010d 	add.w	r1, r4, #13
 80007be:	330f      	adds	r3, #15
 80007c0:	9126      	str	r1, [sp, #152]	; 0x98
 80007c2:	4621      	mov	r1, r4
 80007c4:	310e      	adds	r1, #14
 80007c6:	9328      	str	r3, [sp, #160]	; 0xa0
 80007c8:	ab3f      	add	r3, sp, #252	; 0xfc
 80007ca:	eb0a 0984 	add.w	r9, sl, r4, lsl #2
 80007ce:	9127      	str	r1, [sp, #156]	; 0x9c
 80007d0:	930a      	str	r3, [sp, #40]	; 0x28
 80007d2:	f50d 7ebe 	add.w	lr, sp, #380	; 0x17c
 80007d6:	9905      	ldr	r1, [sp, #20]
 80007d8:	2900      	cmp	r1, #0
 80007da:	f000 8270 	beq.w	8000cbe <masked_bitslice2dense_opt+0x616>
 80007de:	ea4a 0309 	orr.w	r3, sl, r9
 80007e2:	075b      	lsls	r3, r3, #29
 80007e4:	f040 80fe 	bne.w	80009e4 <masked_bitslice2dense_opt+0x33c>
 80007e8:	1e4b      	subs	r3, r1, #1
 80007ea:	2b05      	cmp	r3, #5
 80007ec:	f240 80fa 	bls.w	80009e4 <masked_bitslice2dense_opt+0x33c>
 80007f0:	e9da 0100 	ldrd	r0, r1, [sl]
 80007f4:	e9d9 4500 	ldrd	r4, r5, [r9]
 80007f8:	9b13      	ldr	r3, [sp, #76]	; 0x4c
 80007fa:	2b01      	cmp	r3, #1
 80007fc:	e9cd 0140 	strd	r0, r1, [sp, #256]	; 0x100
 8000800:	e9cd 4550 	strd	r4, r5, [sp, #320]	; 0x140
 8000804:	d943      	bls.n	800088e <masked_bitslice2dense_opt+0x1e6>
 8000806:	e9da 0102 	ldrd	r0, r1, [sl, #8]
 800080a:	e9d9 4502 	ldrd	r4, r5, [r9, #8]
 800080e:	2b02      	cmp	r3, #2
 8000810:	e9cd 0142 	strd	r0, r1, [sp, #264]	; 0x108
 8000814:	e9cd 4552 	strd	r4, r5, [sp, #328]	; 0x148
 8000818:	d039      	beq.n	800088e <masked_bitslice2dense_opt+0x1e6>
 800081a:	e9da 0104 	ldrd	r0, r1, [sl, #16]
 800081e:	e9d9 4504 	ldrd	r4, r5, [r9, #16]
 8000822:	2b03      	cmp	r3, #3
 8000824:	e9cd 0144 	strd	r0, r1, [sp, #272]	; 0x110
 8000828:	e9cd 4554 	strd	r4, r5, [sp, #336]	; 0x150
 800082c:	d02f      	beq.n	800088e <masked_bitslice2dense_opt+0x1e6>
 800082e:	e9da 0106 	ldrd	r0, r1, [sl, #24]
 8000832:	e9d9 4506 	ldrd	r4, r5, [r9, #24]
 8000836:	2b04      	cmp	r3, #4
 8000838:	e9cd 0146 	strd	r0, r1, [sp, #280]	; 0x118
 800083c:	e9cd 4556 	strd	r4, r5, [sp, #344]	; 0x158
 8000840:	d025      	beq.n	800088e <masked_bitslice2dense_opt+0x1e6>
 8000842:	e9da 0108 	ldrd	r0, r1, [sl, #32]
 8000846:	e9d9 4508 	ldrd	r4, r5, [r9, #32]
 800084a:	2b05      	cmp	r3, #5
 800084c:	e9cd 0148 	strd	r0, r1, [sp, #288]	; 0x120
 8000850:	e9cd 4558 	strd	r4, r5, [sp, #352]	; 0x160
 8000854:	d01b      	beq.n	800088e <masked_bitslice2dense_opt+0x1e6>
 8000856:	e9da 010a 	ldrd	r0, r1, [sl, #40]	; 0x28
 800085a:	e9d9 450a 	ldrd	r4, r5, [r9, #40]	; 0x28
 800085e:	2b06      	cmp	r3, #6
 8000860:	e9cd 014a 	strd	r0, r1, [sp, #296]	; 0x128
 8000864:	e9cd 455a 	strd	r4, r5, [sp, #360]	; 0x168
 8000868:	d011      	beq.n	800088e <masked_bitslice2dense_opt+0x1e6>
 800086a:	e9da 010c 	ldrd	r0, r1, [sl, #48]	; 0x30
 800086e:	e9d9 450c 	ldrd	r4, r5, [r9, #48]	; 0x30
 8000872:	2b07      	cmp	r3, #7
 8000874:	e9cd 014c 	strd	r0, r1, [sp, #304]	; 0x130
 8000878:	e9cd 455c 	strd	r4, r5, [sp, #368]	; 0x170
 800087c:	d007      	beq.n	800088e <masked_bitslice2dense_opt+0x1e6>
 800087e:	e9da 010e 	ldrd	r0, r1, [sl, #56]	; 0x38
 8000882:	e9d9 450e 	ldrd	r4, r5, [r9, #56]	; 0x38
 8000886:	e9cd 014e 	strd	r0, r1, [sp, #312]	; 0x138
 800088a:	e9cd 455e 	strd	r4, r5, [sp, #376]	; 0x178
 800088e:	9b05      	ldr	r3, [sp, #20]
 8000890:	9c14      	ldr	r4, [sp, #80]	; 0x50
 8000892:	42a3      	cmp	r3, r4
 8000894:	d014      	beq.n	80008c0 <masked_bitslice2dense_opt+0x218>
 8000896:	eb04 010b 	add.w	r1, r4, fp
 800089a:	9b03      	ldr	r3, [sp, #12]
 800089c:	9869      	ldr	r0, [sp, #420]	; 0x1a4
 800089e:	445b      	add	r3, fp
 80008a0:	f850 0021 	ldr.w	r0, [r0, r1, lsl #2]
 80008a4:	9969      	ldr	r1, [sp, #420]	; 0x1a4
 80008a6:	f851 1023 	ldr.w	r1, [r1, r3, lsl #2]
 80008aa:	ab60      	add	r3, sp, #384	; 0x180
 80008ac:	eb03 0384 	add.w	r3, r3, r4, lsl #2
 80008b0:	f843 0c80 	str.w	r0, [r3, #-128]
 80008b4:	9b04      	ldr	r3, [sp, #16]
 80008b6:	a860      	add	r0, sp, #384	; 0x180
 80008b8:	eb00 0383 	add.w	r3, r0, r3, lsl #2
 80008bc:	f843 1c80 	str.w	r1, [r3, #-128]
 80008c0:	9b05      	ldr	r3, [sp, #20]
 80008c2:	2b0f      	cmp	r3, #15
 80008c4:	d846      	bhi.n	8000954 <masked_bitslice2dense_opt+0x2ac>
 80008c6:	9b0b      	ldr	r3, [sp, #44]	; 0x2c
 80008c8:	2b00      	cmp	r3, #0
 80008ca:	f000 811a 	beq.w	8000b02 <masked_bitslice2dense_opt+0x45a>
 80008ce:	9e12      	ldr	r6, [sp, #72]	; 0x48
 80008d0:	9b10      	ldr	r3, [sp, #64]	; 0x40
 80008d2:	9d0f      	ldr	r5, [sp, #60]	; 0x3c
 80008d4:	2000      	movs	r0, #0
 80008d6:	2100      	movs	r1, #0
 80008d8:	2e01      	cmp	r6, #1
 80008da:	e9c3 0100 	strd	r0, r1, [r3]
 80008de:	e9c5 0100 	strd	r0, r1, [r5]
 80008e2:	d927      	bls.n	8000934 <masked_bitslice2dense_opt+0x28c>
 80008e4:	2e02      	cmp	r6, #2
 80008e6:	e9c3 0102 	strd	r0, r1, [r3, #8]
 80008ea:	e9c5 0102 	strd	r0, r1, [r5, #8]
 80008ee:	d021      	beq.n	8000934 <masked_bitslice2dense_opt+0x28c>
 80008f0:	2e03      	cmp	r6, #3
 80008f2:	e9c3 0104 	strd	r0, r1, [r3, #16]
 80008f6:	e9c5 0104 	strd	r0, r1, [r5, #16]
 80008fa:	d01b      	beq.n	8000934 <masked_bitslice2dense_opt+0x28c>
 80008fc:	2e04      	cmp	r6, #4
 80008fe:	e9c3 0106 	strd	r0, r1, [r3, #24]
 8000902:	e9c5 0106 	strd	r0, r1, [r5, #24]
 8000906:	d015      	beq.n	8000934 <masked_bitslice2dense_opt+0x28c>
 8000908:	2e05      	cmp	r6, #5
 800090a:	e9c3 0108 	strd	r0, r1, [r3, #32]
 800090e:	e9c5 0108 	strd	r0, r1, [r5, #32]
 8000912:	d00f      	beq.n	8000934 <masked_bitslice2dense_opt+0x28c>
 8000914:	2e06      	cmp	r6, #6
 8000916:	e9c3 010a 	strd	r0, r1, [r3, #40]	; 0x28
 800091a:	e9c5 010a 	strd	r0, r1, [r5, #40]	; 0x28
 800091e:	d009      	beq.n	8000934 <masked_bitslice2dense_opt+0x28c>
 8000920:	2e07      	cmp	r6, #7
 8000922:	e9c3 010c 	strd	r0, r1, [r3, #48]	; 0x30
 8000926:	e9c5 010c 	strd	r0, r1, [r5, #48]	; 0x30
 800092a:	d003      	beq.n	8000934 <masked_bitslice2dense_opt+0x28c>
 800092c:	e9c3 010e 	strd	r0, r1, [r3, #56]	; 0x38
 8000930:	e9c5 010e 	strd	r0, r1, [r5, #56]	; 0x38
 8000934:	9b0e      	ldr	r3, [sp, #56]	; 0x38
 8000936:	9911      	ldr	r1, [sp, #68]	; 0x44
 8000938:	428b      	cmp	r3, r1
 800093a:	d00b      	beq.n	8000954 <masked_bitslice2dense_opt+0x2ac>
 800093c:	9b01      	ldr	r3, [sp, #4]
 800093e:	a860      	add	r0, sp, #384	; 0x180
 8000940:	eb00 0383 	add.w	r3, r0, r3, lsl #2
 8000944:	2100      	movs	r1, #0
 8000946:	f843 1c80 	str.w	r1, [r3, #-128]
 800094a:	9b02      	ldr	r3, [sp, #8]
 800094c:	eb00 0383 	add.w	r3, r0, r3, lsl #2
 8000950:	f843 1c80 	str.w	r1, [r3, #-128]
 8000954:	f04f 0805 	mov.w	r8, #5
 8000958:	f64f 76ff 	movw	r6, #65535	; 0xffff
 800095c:	2510      	movs	r5, #16
 800095e:	ea6f 0c05 	mvn.w	ip, r5
 8000962:	2100      	movs	r1, #0
 8000964:	1948      	adds	r0, r1, r5
 8000966:	f852 3021 	ldr.w	r3, [r2, r1, lsl #2]
 800096a:	f852 4020 	ldr.w	r4, [r2, r0, lsl #2]
 800096e:	40eb      	lsrs	r3, r5
 8000970:	4063      	eors	r3, r4
 8000972:	4033      	ands	r3, r6
 8000974:	405c      	eors	r4, r3
 8000976:	f842 4020 	str.w	r4, [r2, r0, lsl #2]
 800097a:	f852 4021 	ldr.w	r4, [r2, r1, lsl #2]
 800097e:	40ab      	lsls	r3, r5
 8000980:	3001      	adds	r0, #1
 8000982:	4063      	eors	r3, r4
 8000984:	f842 3021 	str.w	r3, [r2, r1, lsl #2]
 8000988:	ea00 010c 	and.w	r1, r0, ip
 800098c:	291f      	cmp	r1, #31
 800098e:	dde9      	ble.n	8000964 <masked_bitslice2dense_opt+0x2bc>
 8000990:	106d      	asrs	r5, r5, #1
 8000992:	fa06 f305 	lsl.w	r3, r6, r5
 8000996:	f1b8 0801 	subs.w	r8, r8, #1
 800099a:	ea86 0603 	eor.w	r6, r6, r3
 800099e:	d1de      	bne.n	800095e <masked_bitslice2dense_opt+0x2b6>
 80009a0:	9b0d      	ldr	r3, [sp, #52]	; 0x34
 80009a2:	9906      	ldr	r1, [sp, #24]
 80009a4:	980a      	ldr	r0, [sp, #40]	; 0x28
 80009a6:	eb03 0141 	add.w	r1, r3, r1, lsl #1
 80009aa:	f850 3f04 	ldr.w	r3, [r0, #4]!
 80009ae:	f821 3f02 	strh.w	r3, [r1, #2]!
 80009b2:	4570      	cmp	r0, lr
 80009b4:	ea4f 4313 	mov.w	r3, r3, lsr #16
 80009b8:	f8a1 3040 	strh.w	r3, [r1, #64]	; 0x40
 80009bc:	d1f5      	bne.n	80009aa <masked_bitslice2dense_opt+0x302>
 80009be:	9906      	ldr	r1, [sp, #24]
 80009c0:	9809      	ldr	r0, [sp, #36]	; 0x24
 80009c2:	9b07      	ldr	r3, [sp, #28]
 80009c4:	4401      	add	r1, r0
 80009c6:	9106      	str	r1, [sp, #24]
 80009c8:	990c      	ldr	r1, [sp, #48]	; 0x30
 80009ca:	448a      	add	sl, r1
 80009cc:	4489      	add	r9, r1
 80009ce:	996a      	ldr	r1, [sp, #424]	; 0x1a8
 80009d0:	448b      	add	fp, r1
 80009d2:	9908      	ldr	r1, [sp, #32]
 80009d4:	3301      	adds	r3, #1
 80009d6:	4299      	cmp	r1, r3
 80009d8:	9307      	str	r3, [sp, #28]
 80009da:	f47f aefc 	bne.w	80007d6 <masked_bitslice2dense_opt+0x12e>
 80009de:	b060      	add	sp, #384	; 0x180
 80009e0:	e8bd 8f70 	ldmia.w	sp!, {r4, r5, r6, r8, r9, sl, fp, pc}
 80009e4:	9805      	ldr	r0, [sp, #20]
 80009e6:	f8da 3000 	ldr.w	r3, [sl]
 80009ea:	f8d9 1000 	ldr.w	r1, [r9]
 80009ee:	9340      	str	r3, [sp, #256]	; 0x100
 80009f0:	2801      	cmp	r0, #1
 80009f2:	9150      	str	r1, [sp, #320]	; 0x140
 80009f4:	f67f af64 	bls.w	80008c0 <masked_bitslice2dense_opt+0x218>
 80009f8:	f8da 3004 	ldr.w	r3, [sl, #4]
 80009fc:	f8d9 1004 	ldr.w	r1, [r9, #4]
 8000a00:	9341      	str	r3, [sp, #260]	; 0x104
 8000a02:	2802      	cmp	r0, #2
 8000a04:	9151      	str	r1, [sp, #324]	; 0x144
 8000a06:	f43f af5e 	beq.w	80008c6 <masked_bitslice2dense_opt+0x21e>
 8000a0a:	f8da 3008 	ldr.w	r3, [sl, #8]
 8000a0e:	f8d9 1008 	ldr.w	r1, [r9, #8]
 8000a12:	9342      	str	r3, [sp, #264]	; 0x108
 8000a14:	2803      	cmp	r0, #3
 8000a16:	9152      	str	r1, [sp, #328]	; 0x148
 8000a18:	f43f af55 	beq.w	80008c6 <masked_bitslice2dense_opt+0x21e>
 8000a1c:	f8da 300c 	ldr.w	r3, [sl, #12]
 8000a20:	f8d9 100c 	ldr.w	r1, [r9, #12]
 8000a24:	9343      	str	r3, [sp, #268]	; 0x10c
 8000a26:	2804      	cmp	r0, #4
 8000a28:	9153      	str	r1, [sp, #332]	; 0x14c
 8000a2a:	f43f af4c 	beq.w	80008c6 <masked_bitslice2dense_opt+0x21e>
 8000a2e:	f8da 3010 	ldr.w	r3, [sl, #16]
 8000a32:	f8d9 1010 	ldr.w	r1, [r9, #16]
 8000a36:	9344      	str	r3, [sp, #272]	; 0x110
 8000a38:	2805      	cmp	r0, #5
 8000a3a:	9154      	str	r1, [sp, #336]	; 0x150
 8000a3c:	f43f af43 	beq.w	80008c6 <masked_bitslice2dense_opt+0x21e>
 8000a40:	f8da 3014 	ldr.w	r3, [sl, #20]
 8000a44:	f8d9 1014 	ldr.w	r1, [r9, #20]
 8000a48:	9345      	str	r3, [sp, #276]	; 0x114
 8000a4a:	2806      	cmp	r0, #6
 8000a4c:	9155      	str	r1, [sp, #340]	; 0x154
 8000a4e:	f43f af3a 	beq.w	80008c6 <masked_bitslice2dense_opt+0x21e>
 8000a52:	f8da 3018 	ldr.w	r3, [sl, #24]
 8000a56:	f8d9 1018 	ldr.w	r1, [r9, #24]
 8000a5a:	9346      	str	r3, [sp, #280]	; 0x118
 8000a5c:	2807      	cmp	r0, #7
 8000a5e:	9156      	str	r1, [sp, #344]	; 0x158
 8000a60:	f43f af31 	beq.w	80008c6 <masked_bitslice2dense_opt+0x21e>
 8000a64:	f8da 301c 	ldr.w	r3, [sl, #28]
 8000a68:	f8d9 101c 	ldr.w	r1, [r9, #28]
 8000a6c:	9347      	str	r3, [sp, #284]	; 0x11c
 8000a6e:	2808      	cmp	r0, #8
 8000a70:	9157      	str	r1, [sp, #348]	; 0x15c
 8000a72:	f43f af28 	beq.w	80008c6 <masked_bitslice2dense_opt+0x21e>
 8000a76:	f8da 3020 	ldr.w	r3, [sl, #32]
 8000a7a:	f8d9 1020 	ldr.w	r1, [r9, #32]
 8000a7e:	9348      	str	r3, [sp, #288]	; 0x120
 8000a80:	2809      	cmp	r0, #9
 8000a82:	9158      	str	r1, [sp, #352]	; 0x160
 8000a84:	f43f af1f 	beq.w	80008c6 <masked_bitslice2dense_opt+0x21e>
 8000a88:	f8da 3024 	ldr.w	r3, [sl, #36]	; 0x24
 8000a8c:	f8d9 1024 	ldr.w	r1, [r9, #36]	; 0x24
 8000a90:	9349      	str	r3, [sp, #292]	; 0x124
 8000a92:	280a      	cmp	r0, #10
 8000a94:	9159      	str	r1, [sp, #356]	; 0x164
 8000a96:	f43f af16 	beq.w	80008c6 <masked_bitslice2dense_opt+0x21e>
 8000a9a:	f8da 3028 	ldr.w	r3, [sl, #40]	; 0x28
 8000a9e:	f8d9 1028 	ldr.w	r1, [r9, #40]	; 0x28
 8000aa2:	934a      	str	r3, [sp, #296]	; 0x128
 8000aa4:	280b      	cmp	r0, #11
 8000aa6:	915a      	str	r1, [sp, #360]	; 0x168
 8000aa8:	f43f af0d 	beq.w	80008c6 <masked_bitslice2dense_opt+0x21e>
 8000aac:	f8da 302c 	ldr.w	r3, [sl, #44]	; 0x2c
 8000ab0:	f8d9 102c 	ldr.w	r1, [r9, #44]	; 0x2c
 8000ab4:	934b      	str	r3, [sp, #300]	; 0x12c
 8000ab6:	280c      	cmp	r0, #12
 8000ab8:	915b      	str	r1, [sp, #364]	; 0x16c
 8000aba:	f43f af04 	beq.w	80008c6 <masked_bitslice2dense_opt+0x21e>
 8000abe:	f8da 3030 	ldr.w	r3, [sl, #48]	; 0x30
 8000ac2:	f8d9 1030 	ldr.w	r1, [r9, #48]	; 0x30
 8000ac6:	934c      	str	r3, [sp, #304]	; 0x130
 8000ac8:	280d      	cmp	r0, #13
 8000aca:	915c      	str	r1, [sp, #368]	; 0x170
 8000acc:	f43f aefb 	beq.w	80008c6 <masked_bitslice2dense_opt+0x21e>
 8000ad0:	f8da 3034 	ldr.w	r3, [sl, #52]	; 0x34
 8000ad4:	f8d9 1034 	ldr.w	r1, [r9, #52]	; 0x34
 8000ad8:	934d      	str	r3, [sp, #308]	; 0x134
 8000ada:	280e      	cmp	r0, #14
 8000adc:	915d      	str	r1, [sp, #372]	; 0x174
 8000ade:	f43f aef2 	beq.w	80008c6 <masked_bitslice2dense_opt+0x21e>
 8000ae2:	f8da 3038 	ldr.w	r3, [sl, #56]	; 0x38
 8000ae6:	f8d9 1038 	ldr.w	r1, [r9, #56]	; 0x38
 8000aea:	934e      	str	r3, [sp, #312]	; 0x138
 8000aec:	280f      	cmp	r0, #15
 8000aee:	915e      	str	r1, [sp, #376]	; 0x178
 8000af0:	f43f aee9 	beq.w	80008c6 <masked_bitslice2dense_opt+0x21e>
 8000af4:	f8da 303c 	ldr.w	r3, [sl, #60]	; 0x3c
 8000af8:	f8d9 103c 	ldr.w	r1, [r9, #60]	; 0x3c
 8000afc:	934f      	str	r3, [sp, #316]	; 0x13c
 8000afe:	915f      	str	r1, [sp, #380]	; 0x17c
 8000b00:	e728      	b.n	8000954 <masked_bitslice2dense_opt+0x2ac>
 8000b02:	9916      	ldr	r1, [sp, #88]	; 0x58
 8000b04:	ab60      	add	r3, sp, #384	; 0x180
 8000b06:	440b      	add	r3, r1
 8000b08:	990b      	ldr	r1, [sp, #44]	; 0x2c
 8000b0a:	f843 1c80 	str.w	r1, [r3, #-128]
 8000b0e:	9b19      	ldr	r3, [sp, #100]	; 0x64
 8000b10:	a860      	add	r0, sp, #384	; 0x180
 8000b12:	eb00 0383 	add.w	r3, r0, r3, lsl #2
 8000b16:	f843 1c80 	str.w	r1, [r3, #-128]
 8000b1a:	9b15      	ldr	r3, [sp, #84]	; 0x54
 8000b1c:	2b0f      	cmp	r3, #15
 8000b1e:	f63f af19 	bhi.w	8000954 <masked_bitslice2dense_opt+0x2ac>
 8000b22:	9915      	ldr	r1, [sp, #84]	; 0x54
 8000b24:	a860      	add	r0, sp, #384	; 0x180
 8000b26:	eb00 0181 	add.w	r1, r0, r1, lsl #2
 8000b2a:	2300      	movs	r3, #0
 8000b2c:	f841 3c80 	str.w	r3, [r1, #-128]
 8000b30:	991b      	ldr	r1, [sp, #108]	; 0x6c
 8000b32:	f841 3c80 	str.w	r3, [r1, #-128]
 8000b36:	991a      	ldr	r1, [sp, #104]	; 0x68
 8000b38:	290f      	cmp	r1, #15
 8000b3a:	f63f af0b 	bhi.w	8000954 <masked_bitslice2dense_opt+0x2ac>
 8000b3e:	eb00 0181 	add.w	r1, r0, r1, lsl #2
 8000b42:	f841 3c80 	str.w	r3, [r1, #-128]
 8000b46:	991c      	ldr	r1, [sp, #112]	; 0x70
 8000b48:	f841 3c80 	str.w	r3, [r1, #-128]
 8000b4c:	9918      	ldr	r1, [sp, #96]	; 0x60
 8000b4e:	290f      	cmp	r1, #15
 8000b50:	f63f af00 	bhi.w	8000954 <masked_bitslice2dense_opt+0x2ac>
 8000b54:	eb00 0181 	add.w	r1, r0, r1, lsl #2
 8000b58:	9817      	ldr	r0, [sp, #92]	; 0x5c
 8000b5a:	f841 3c80 	str.w	r3, [r1, #-128]
 8000b5e:	991d      	ldr	r1, [sp, #116]	; 0x74
 8000b60:	280f      	cmp	r0, #15
 8000b62:	f841 3c80 	str.w	r3, [r1, #-128]
 8000b66:	f63f aef5 	bhi.w	8000954 <masked_bitslice2dense_opt+0x2ac>
 8000b6a:	ad60      	add	r5, sp, #384	; 0x180
 8000b6c:	eb05 0080 	add.w	r0, r5, r0, lsl #2
 8000b70:	9c05      	ldr	r4, [sp, #20]
 8000b72:	f840 3c80 	str.w	r3, [r0, #-128]
 8000b76:	f104 0114 	add.w	r1, r4, #20
 8000b7a:	981e      	ldr	r0, [sp, #120]	; 0x78
 8000b7c:	eb05 0181 	add.w	r1, r5, r1, lsl #2
 8000b80:	280f      	cmp	r0, #15
 8000b82:	f841 3c80 	str.w	r3, [r1, #-128]
 8000b86:	f63f aee5 	bhi.w	8000954 <masked_bitslice2dense_opt+0x2ac>
 8000b8a:	eb05 0080 	add.w	r0, r5, r0, lsl #2
 8000b8e:	f104 0115 	add.w	r1, r4, #21
 8000b92:	f840 3c80 	str.w	r3, [r0, #-128]
 8000b96:	981f      	ldr	r0, [sp, #124]	; 0x7c
 8000b98:	eb05 0181 	add.w	r1, r5, r1, lsl #2
 8000b9c:	280f      	cmp	r0, #15
 8000b9e:	f841 3c80 	str.w	r3, [r1, #-128]
 8000ba2:	f63f aed7 	bhi.w	8000954 <masked_bitslice2dense_opt+0x2ac>
 8000ba6:	eb05 0080 	add.w	r0, r5, r0, lsl #2
 8000baa:	f104 0116 	add.w	r1, r4, #22
 8000bae:	f840 3c80 	str.w	r3, [r0, #-128]
 8000bb2:	9820      	ldr	r0, [sp, #128]	; 0x80
 8000bb4:	eb05 0181 	add.w	r1, r5, r1, lsl #2
 8000bb8:	280f      	cmp	r0, #15
 8000bba:	f841 3c80 	str.w	r3, [r1, #-128]
 8000bbe:	f63f aec9 	bhi.w	8000954 <masked_bitslice2dense_opt+0x2ac>
 8000bc2:	eb05 0080 	add.w	r0, r5, r0, lsl #2
 8000bc6:	f104 0117 	add.w	r1, r4, #23
 8000bca:	f840 3c80 	str.w	r3, [r0, #-128]
 8000bce:	9821      	ldr	r0, [sp, #132]	; 0x84
 8000bd0:	eb05 0181 	add.w	r1, r5, r1, lsl #2
 8000bd4:	280f      	cmp	r0, #15
 8000bd6:	f841 3c80 	str.w	r3, [r1, #-128]
 8000bda:	f63f aebb 	bhi.w	8000954 <masked_bitslice2dense_opt+0x2ac>
 8000bde:	eb05 0080 	add.w	r0, r5, r0, lsl #2
 8000be2:	f104 0118 	add.w	r1, r4, #24
 8000be6:	f840 3c80 	str.w	r3, [r0, #-128]
 8000bea:	9822      	ldr	r0, [sp, #136]	; 0x88
 8000bec:	eb05 0181 	add.w	r1, r5, r1, lsl #2
 8000bf0:	280f      	cmp	r0, #15
 8000bf2:	f841 3c80 	str.w	r3, [r1, #-128]
 8000bf6:	f63f aead 	bhi.w	8000954 <masked_bitslice2dense_opt+0x2ac>
 8000bfa:	eb05 0080 	add.w	r0, r5, r0, lsl #2
 8000bfe:	f104 0119 	add.w	r1, r4, #25
 8000c02:	f840 3c80 	str.w	r3, [r0, #-128]
 8000c06:	9823      	ldr	r0, [sp, #140]	; 0x8c
 8000c08:	eb05 0181 	add.w	r1, r5, r1, lsl #2
 8000c0c:	280f      	cmp	r0, #15
 8000c0e:	f841 3c80 	str.w	r3, [r1, #-128]
 8000c12:	f63f ae9f 	bhi.w	8000954 <masked_bitslice2dense_opt+0x2ac>
 8000c16:	f104 011a 	add.w	r1, r4, #26
 8000c1a:	eb05 0181 	add.w	r1, r5, r1, lsl #2
 8000c1e:	eb05 0080 	add.w	r0, r5, r0, lsl #2
 8000c22:	9d24      	ldr	r5, [sp, #144]	; 0x90
 8000c24:	f840 3c80 	str.w	r3, [r0, #-128]
 8000c28:	2d0f      	cmp	r5, #15
 8000c2a:	f841 3c80 	str.w	r3, [r1, #-128]
 8000c2e:	f63f ae91 	bhi.w	8000954 <masked_bitslice2dense_opt+0x2ac>
 8000c32:	ab60      	add	r3, sp, #384	; 0x180
 8000c34:	f104 011b 	add.w	r1, r4, #27
 8000c38:	eb03 0181 	add.w	r1, r3, r1, lsl #2
 8000c3c:	eb03 0385 	add.w	r3, r3, r5, lsl #2
 8000c40:	2000      	movs	r0, #0
 8000c42:	f843 0c80 	str.w	r0, [r3, #-128]
 8000c46:	f841 0c80 	str.w	r0, [r1, #-128]
 8000c4a:	9925      	ldr	r1, [sp, #148]	; 0x94
 8000c4c:	290f      	cmp	r1, #15
 8000c4e:	f63f ae81 	bhi.w	8000954 <masked_bitslice2dense_opt+0x2ac>
 8000c52:	ad60      	add	r5, sp, #384	; 0x180
 8000c54:	eb05 0181 	add.w	r1, r5, r1, lsl #2
 8000c58:	f104 031c 	add.w	r3, r4, #28
 8000c5c:	f841 0c80 	str.w	r0, [r1, #-128]
 8000c60:	9926      	ldr	r1, [sp, #152]	; 0x98
 8000c62:	eb05 0383 	add.w	r3, r5, r3, lsl #2
 8000c66:	290f      	cmp	r1, #15
 8000c68:	f843 0c80 	str.w	r0, [r3, #-128]
 8000c6c:	f63f ae72 	bhi.w	8000954 <masked_bitslice2dense_opt+0x2ac>
 8000c70:	eb05 0181 	add.w	r1, r5, r1, lsl #2
 8000c74:	f104 031d 	add.w	r3, r4, #29
 8000c78:	f841 0c80 	str.w	r0, [r1, #-128]
 8000c7c:	9927      	ldr	r1, [sp, #156]	; 0x9c
 8000c7e:	eb05 0383 	add.w	r3, r5, r3, lsl #2
 8000c82:	290f      	cmp	r1, #15
 8000c84:	f843 0c80 	str.w	r0, [r3, #-128]
 8000c88:	f63f ae64 	bhi.w	8000954 <masked_bitslice2dense_opt+0x2ac>
 8000c8c:	eb05 0181 	add.w	r1, r5, r1, lsl #2
 8000c90:	4623      	mov	r3, r4
 8000c92:	f841 0c80 	str.w	r0, [r1, #-128]
 8000c96:	331e      	adds	r3, #30
 8000c98:	9928      	ldr	r1, [sp, #160]	; 0xa0
 8000c9a:	eb05 0383 	add.w	r3, r5, r3, lsl #2
 8000c9e:	290f      	cmp	r1, #15
 8000ca0:	f843 0c80 	str.w	r0, [r3, #-128]
 8000ca4:	f63f ae56 	bhi.w	8000954 <masked_bitslice2dense_opt+0x2ac>
 8000ca8:	f104 031f 	add.w	r3, r4, #31
 8000cac:	eb05 0383 	add.w	r3, r5, r3, lsl #2
 8000cb0:	eb05 0181 	add.w	r1, r5, r1, lsl #2
 8000cb4:	f841 0c80 	str.w	r0, [r1, #-128]
 8000cb8:	f843 0c80 	str.w	r0, [r3, #-128]
 8000cbc:	e64a      	b.n	8000954 <masked_bitslice2dense_opt+0x2ac>
 8000cbe:	9b0b      	ldr	r3, [sp, #44]	; 0x2c
 8000cc0:	2b00      	cmp	r3, #0
 8000cc2:	f47f ae04 	bne.w	80008ce <masked_bitslice2dense_opt+0x226>
 8000cc6:	9340      	str	r3, [sp, #256]	; 0x100
 8000cc8:	9350      	str	r3, [sp, #320]	; 0x140
 8000cca:	e72a      	b.n	8000b22 <masked_bitslice2dense_opt+0x47a>
 8000ccc:	9805      	ldr	r0, [sp, #20]
 8000cce:	9e6b      	ldr	r6, [sp, #428]	; 0x1ac
 8000cd0:	0083      	lsls	r3, r0, #2
 8000cd2:	9316      	str	r3, [sp, #88]	; 0x58
 8000cd4:	aa40      	add	r2, sp, #256	; 0x100
 8000cd6:	3340      	adds	r3, #64	; 0x40
 8000cd8:	18d4      	adds	r4, r2, r3
 8000cda:	eb02 0180 	add.w	r1, r2, r0, lsl #2
 8000cde:	f1c0 030f 	rsb	r3, r0, #15
 8000ce2:	2b0c      	cmp	r3, #12
 8000ce4:	9411      	str	r4, [sp, #68]	; 0x44
 8000ce6:	9110      	str	r1, [sp, #64]	; 0x40
 8000ce8:	ea41 0104 	orr.w	r1, r1, r4
 8000cec:	f100 0401 	add.w	r4, r0, #1
 8000cf0:	bf8c      	ite	hi
 8000cf2:	2301      	movhi	r3, #1
 8000cf4:	2300      	movls	r3, #0
 8000cf6:	2c10      	cmp	r4, #16
 8000cf8:	bf88      	it	hi
 8000cfa:	2300      	movhi	r3, #0
 8000cfc:	f011 0f04 	tst.w	r1, #4
 8000d00:	bf18      	it	ne
 8000d02:	2300      	movne	r3, #0
 8000d04:	2c10      	cmp	r4, #16
 8000d06:	930b      	str	r3, [sp, #44]	; 0x2c
 8000d08:	f1c0 0310 	rsb	r3, r0, #16
 8000d0c:	bf88      	it	hi
 8000d0e:	2301      	movhi	r3, #1
 8000d10:	4601      	mov	r1, r0
 8000d12:	f023 0001 	bic.w	r0, r3, #1
 8000d16:	9013      	str	r0, [sp, #76]	; 0x4c
 8000d18:	1808      	adds	r0, r1, r0
 8000d1a:	930e      	str	r3, [sp, #56]	; 0x38
 8000d1c:	4605      	mov	r5, r0
 8000d1e:	f105 0a10 	add.w	sl, r5, #16
 8000d22:	9002      	str	r0, [sp, #8]
 8000d24:	9d0e      	ldr	r5, [sp, #56]	; 0x38
 8000d26:	986b      	ldr	r0, [sp, #428]	; 0x1ac
 8000d28:	9422      	str	r4, [sp, #136]	; 0x88
 8000d2a:	f101 040f 	add.w	r4, r1, #15
 8000d2e:	fb00 fb04 	mul.w	fp, r0, r4
 8000d32:	9437      	str	r4, [sp, #220]	; 0xdc
 8000d34:	086d      	lsrs	r5, r5, #1
 8000d36:	9c6b      	ldr	r4, [sp, #428]	; 0x1ac
 8000d38:	9512      	str	r5, [sp, #72]	; 0x48
 8000d3a:	ebc0 1300 	rsb	r3, r0, r0, lsl #4
 8000d3e:	9d69      	ldr	r5, [sp, #420]	; 0x1a4
 8000d40:	f8cd a004 	str.w	sl, [sp, #4]
 8000d44:	eba0 1000 	sub.w	r0, r0, r0, lsl #4
 8000d48:	900d      	str	r0, [sp, #52]	; 0x34
 8000d4a:	eba4 00c4 	sub.w	r0, r4, r4, lsl #3
 8000d4e:	901d      	str	r0, [sp, #116]	; 0x74
 8000d50:	eb05 0a83 	add.w	sl, r5, r3, lsl #2
 8000d54:	eb05 0b8b 	add.w	fp, r5, fp, lsl #2
 8000d58:	9d0d      	ldr	r5, [sp, #52]	; 0x34
 8000d5a:	9b1d      	ldr	r3, [sp, #116]	; 0x74
 8000d5c:	00ad      	lsls	r5, r5, #2
 8000d5e:	950f      	str	r5, [sp, #60]	; 0x3c
 8000d60:	00dd      	lsls	r5, r3, #3
 8000d62:	9517      	str	r5, [sp, #92]	; 0x5c
 8000d64:	005d      	lsls	r5, r3, #1
 8000d66:	9518      	str	r5, [sp, #96]	; 0x60
 8000d68:	009d      	lsls	r5, r3, #2
 8000d6a:	9526      	str	r5, [sp, #152]	; 0x98
 8000d6c:	9d6b      	ldr	r5, [sp, #428]	; 0x1ac
 8000d6e:	f06f 0133 	mvn.w	r1, #51	; 0x33
 8000d72:	ebc6 7846 	rsb	r8, r6, r6, lsl #29
 8000d76:	ebc6 69c6 	rsb	r9, r6, r6, lsl #27
 8000d7a:	fb01 f505 	mul.w	r5, r1, r5
 8000d7e:	2600      	movs	r6, #0
 8000d80:	9603      	str	r6, [sp, #12]
 8000d82:	9514      	str	r5, [sp, #80]	; 0x50
 8000d84:	9e6a      	ldr	r6, [sp, #424]	; 0x1a8
 8000d86:	9d6b      	ldr	r5, [sp, #428]	; 0x1ac
 8000d88:	f06f 000c 	mvn.w	r0, #12
 8000d8c:	fb00 f505 	mul.w	r5, r0, r5
 8000d90:	eba4 0484 	sub.w	r4, r4, r4, lsl #2
 8000d94:	00b6      	lsls	r6, r6, #2
 8000d96:	9423      	str	r4, [sp, #140]	; 0x8c
 8000d98:	960c      	str	r6, [sp, #48]	; 0x30
 8000d9a:	9515      	str	r5, [sp, #84]	; 0x54
 8000d9c:	9823      	ldr	r0, [sp, #140]	; 0x8c
 8000d9e:	9905      	ldr	r1, [sp, #20]
 8000da0:	0105      	lsls	r5, r0, #4
 8000da2:	951e      	str	r5, [sp, #120]	; 0x78
 8000da4:	0085      	lsls	r5, r0, #2
 8000da6:	951f      	str	r5, [sp, #124]	; 0x7c
 8000da8:	00c5      	lsls	r5, r0, #3
 8000daa:	0040      	lsls	r0, r0, #1
 8000dac:	9039      	str	r0, [sp, #228]	; 0xe4
 8000dae:	986b      	ldr	r0, [sp, #428]	; 0x1ac
 8000db0:	9538      	str	r5, [sp, #224]	; 0xe0
 8000db2:	f06f 042b 	mvn.w	r4, #43	; 0x2b
 8000db6:	fb04 f000 	mul.w	r0, r4, r0
 8000dba:	9019      	str	r0, [sp, #100]	; 0x64
 8000dbc:	986b      	ldr	r0, [sp, #428]	; 0x1ac
 8000dbe:	f06f 030a 	mvn.w	r3, #10
 8000dc2:	fb03 f000 	mul.w	r0, r3, r0
 8000dc6:	901a      	str	r0, [sp, #104]	; 0x68
 8000dc8:	986b      	ldr	r0, [sp, #428]	; 0x1ac
 8000dca:	f06f 0327 	mvn.w	r3, #39	; 0x27
 8000dce:	fb03 f000 	mul.w	r0, r3, r0
 8000dd2:	901b      	str	r0, [sp, #108]	; 0x6c
 8000dd4:	986b      	ldr	r0, [sp, #428]	; 0x1ac
 8000dd6:	f06f 0c09 	mvn.w	ip, #9
 8000dda:	fb0c f000 	mul.w	r0, ip, r0
 8000dde:	901c      	str	r0, [sp, #112]	; 0x70
 8000de0:	986b      	ldr	r0, [sp, #428]	; 0x1ac
 8000de2:	f06f 0e23 	mvn.w	lr, #35	; 0x23
 8000de6:	fb0e f000 	mul.w	r0, lr, r0
 8000dea:	4643      	mov	r3, r8
 8000dec:	9020      	str	r0, [sp, #128]	; 0x80
 8000dee:	00d8      	lsls	r0, r3, #3
 8000df0:	9024      	str	r0, [sp, #144]	; 0x90
 8000df2:	986b      	ldr	r0, [sp, #428]	; 0x1ac
 8000df4:	464b      	mov	r3, r9
 8000df6:	ebc0 00c8 	rsb	r0, r0, r8, lsl #3
 8000dfa:	9021      	str	r0, [sp, #132]	; 0x84
 8000dfc:	0158      	lsls	r0, r3, #5
 8000dfe:	9025      	str	r0, [sp, #148]	; 0x94
 8000e00:	986b      	ldr	r0, [sp, #428]	; 0x1ac
 8000e02:	f06f 0413 	mvn.w	r4, #19
 8000e06:	fb04 f000 	mul.w	r0, r4, r0
 8000e0a:	9028      	str	r0, [sp, #160]	; 0xa0
 8000e0c:	986b      	ldr	r0, [sp, #428]	; 0x1ac
 8000e0e:	ebc0 7380 	rsb	r3, r0, r0, lsl #30
 8000e12:	0098      	lsls	r0, r3, #2
 8000e14:	903a      	str	r0, [sp, #232]	; 0xe8
 8000e16:	986b      	ldr	r0, [sp, #428]	; 0x1ac
 8000e18:	ebc0 0083 	rsb	r0, r0, r3, lsl #2
 8000e1c:	9027      	str	r0, [sp, #156]	; 0x9c
 8000e1e:	986b      	ldr	r0, [sp, #428]	; 0x1ac
 8000e20:	ebc0 7300 	rsb	r3, r0, r0, lsl #28
 8000e24:	0118      	lsls	r0, r3, #4
 8000e26:	903b      	str	r0, [sp, #236]	; 0xec
 8000e28:	986b      	ldr	r0, [sp, #428]	; 0x1ac
 8000e2a:	ebc0 73c0 	rsb	r3, r0, r0, lsl #31
 8000e2e:	0058      	lsls	r0, r3, #1
 8000e30:	903c      	str	r0, [sp, #240]	; 0xf0
 8000e32:	f101 0311 	add.w	r3, r1, #17
 8000e36:	a860      	add	r0, sp, #384	; 0x180
 8000e38:	eb00 0383 	add.w	r3, r0, r3, lsl #2
 8000e3c:	933d      	str	r3, [sp, #244]	; 0xf4
 8000e3e:	f101 0312 	add.w	r3, r1, #18
 8000e42:	eb00 0383 	add.w	r3, r0, r3, lsl #2
 8000e46:	2600      	movs	r6, #0
 8000e48:	9604      	str	r6, [sp, #16]
 8000e4a:	933e      	str	r3, [sp, #248]	; 0xf8
 8000e4c:	460b      	mov	r3, r1
 8000e4e:	3313      	adds	r3, #19
 8000e50:	eb00 0383 	add.w	r3, r0, r3, lsl #2
 8000e54:	933f      	str	r3, [sp, #252]	; 0xfc
 8000e56:	f101 0310 	add.w	r3, r1, #16
 8000e5a:	9329      	str	r3, [sp, #164]	; 0xa4
 8000e5c:	460b      	mov	r3, r1
 8000e5e:	3102      	adds	r1, #2
 8000e60:	912a      	str	r1, [sp, #168]	; 0xa8
 8000e62:	1cd9      	adds	r1, r3, #3
 8000e64:	912b      	str	r1, [sp, #172]	; 0xac
 8000e66:	1d19      	adds	r1, r3, #4
 8000e68:	912c      	str	r1, [sp, #176]	; 0xb0
 8000e6a:	1d59      	adds	r1, r3, #5
 8000e6c:	912d      	str	r1, [sp, #180]	; 0xb4
 8000e6e:	1d99      	adds	r1, r3, #6
 8000e70:	912e      	str	r1, [sp, #184]	; 0xb8
 8000e72:	1dd9      	adds	r1, r3, #7
 8000e74:	912f      	str	r1, [sp, #188]	; 0xbc
 8000e76:	f103 0108 	add.w	r1, r3, #8
 8000e7a:	9130      	str	r1, [sp, #192]	; 0xc0
 8000e7c:	f103 0109 	add.w	r1, r3, #9
 8000e80:	9131      	str	r1, [sp, #196]	; 0xc4
 8000e82:	f103 010a 	add.w	r1, r3, #10
 8000e86:	9132      	str	r1, [sp, #200]	; 0xc8
 8000e88:	f103 010b 	add.w	r1, r3, #11
 8000e8c:	9133      	str	r1, [sp, #204]	; 0xcc
 8000e8e:	f103 010c 	add.w	r1, r3, #12
 8000e92:	9134      	str	r1, [sp, #208]	; 0xd0
 8000e94:	f103 010d 	add.w	r1, r3, #13
 8000e98:	330e      	adds	r3, #14
 8000e9a:	9336      	str	r3, [sp, #216]	; 0xd8
 8000e9c:	9b68      	ldr	r3, [sp, #416]	; 0x1a0
 8000e9e:	9135      	str	r1, [sp, #212]	; 0xd4
 8000ea0:	ea4f 0943 	mov.w	r9, r3, lsl #1
 8000ea4:	ea4f 1883 	mov.w	r8, r3, lsl #6
 8000ea8:	ab3f      	add	r3, sp, #252	; 0xfc
 8000eaa:	930a      	str	r3, [sp, #40]	; 0x28
 8000eac:	9b05      	ldr	r3, [sp, #20]
 8000eae:	f50d 7ebe 	add.w	lr, sp, #380	; 0x17c
 8000eb2:	2b00      	cmp	r3, #0
 8000eb4:	f000 80f2 	beq.w	800109c <masked_bitslice2dense_opt+0x9f4>
 8000eb8:	4618      	mov	r0, r3
 8000eba:	990d      	ldr	r1, [sp, #52]	; 0x34
 8000ebc:	9b0f      	ldr	r3, [sp, #60]	; 0x3c
 8000ebe:	f85b 1021 	ldr.w	r1, [fp, r1, lsl #2]
 8000ec2:	f85a 3003 	ldr.w	r3, [sl, r3]
 8000ec6:	9340      	str	r3, [sp, #256]	; 0x100
 8000ec8:	2801      	cmp	r0, #1
 8000eca:	9150      	str	r1, [sp, #320]	; 0x140
 8000ecc:	f240 80eb 	bls.w	80010a6 <masked_bitslice2dense_opt+0x9fe>
 8000ed0:	9b17      	ldr	r3, [sp, #92]	; 0x5c
 8000ed2:	9918      	ldr	r1, [sp, #96]	; 0x60
 8000ed4:	f85a 3003 	ldr.w	r3, [sl, r3]
 8000ed8:	f85b 1021 	ldr.w	r1, [fp, r1, lsl #2]
 8000edc:	9341      	str	r3, [sp, #260]	; 0x104
 8000ede:	2802      	cmp	r0, #2
 8000ee0:	9151      	str	r1, [sp, #324]	; 0x144
 8000ee2:	f000 80e2 	beq.w	80010aa <masked_bitslice2dense_opt+0xa02>
 8000ee6:	9b14      	ldr	r3, [sp, #80]	; 0x50
 8000ee8:	9915      	ldr	r1, [sp, #84]	; 0x54
 8000eea:	f85a 3003 	ldr.w	r3, [sl, r3]
 8000eee:	f85b 1021 	ldr.w	r1, [fp, r1, lsl #2]
 8000ef2:	9342      	str	r3, [sp, #264]	; 0x108
 8000ef4:	2803      	cmp	r0, #3
 8000ef6:	9152      	str	r1, [sp, #328]	; 0x148
 8000ef8:	f000 80d7 	beq.w	80010aa <masked_bitslice2dense_opt+0xa02>
 8000efc:	9b1e      	ldr	r3, [sp, #120]	; 0x78
 8000efe:	9c1f      	ldr	r4, [sp, #124]	; 0x7c
 8000f00:	f85a 3003 	ldr.w	r3, [sl, r3]
 8000f04:	f85b 1024 	ldr.w	r1, [fp, r4, lsl #2]
 8000f08:	9343      	str	r3, [sp, #268]	; 0x10c
 8000f0a:	2804      	cmp	r0, #4
 8000f0c:	9153      	str	r1, [sp, #332]	; 0x14c
 8000f0e:	f000 80cc 	beq.w	80010aa <masked_bitslice2dense_opt+0xa02>
 8000f12:	9b19      	ldr	r3, [sp, #100]	; 0x64
 8000f14:	991a      	ldr	r1, [sp, #104]	; 0x68
 8000f16:	f85a 3003 	ldr.w	r3, [sl, r3]
 8000f1a:	f85b 1021 	ldr.w	r1, [fp, r1, lsl #2]
 8000f1e:	9344      	str	r3, [sp, #272]	; 0x110
 8000f20:	2805      	cmp	r0, #5
 8000f22:	9154      	str	r1, [sp, #336]	; 0x150
 8000f24:	f000 80c1 	beq.w	80010aa <masked_bitslice2dense_opt+0xa02>
 8000f28:	9b1b      	ldr	r3, [sp, #108]	; 0x6c
 8000f2a:	991c      	ldr	r1, [sp, #112]	; 0x70
 8000f2c:	f85a 3003 	ldr.w	r3, [sl, r3]
 8000f30:	f85b 1021 	ldr.w	r1, [fp, r1, lsl #2]
 8000f34:	9345      	str	r3, [sp, #276]	; 0x114
 8000f36:	2806      	cmp	r0, #6
 8000f38:	9155      	str	r1, [sp, #340]	; 0x154
 8000f3a:	f000 80b6 	beq.w	80010aa <masked_bitslice2dense_opt+0xa02>
 8000f3e:	9b20      	ldr	r3, [sp, #128]	; 0x80
 8000f40:	9921      	ldr	r1, [sp, #132]	; 0x84
 8000f42:	f85a 3003 	ldr.w	r3, [sl, r3]
 8000f46:	f85b 1021 	ldr.w	r1, [fp, r1, lsl #2]
 8000f4a:	9346      	str	r3, [sp, #280]	; 0x118
 8000f4c:	2807      	cmp	r0, #7
 8000f4e:	9156      	str	r1, [sp, #344]	; 0x158
 8000f50:	f000 80ab 	beq.w	80010aa <masked_bitslice2dense_opt+0xa02>
 8000f54:	9b25      	ldr	r3, [sp, #148]	; 0x94
 8000f56:	9d24      	ldr	r5, [sp, #144]	; 0x90
 8000f58:	f85a 3003 	ldr.w	r3, [sl, r3]
 8000f5c:	f85b 1025 	ldr.w	r1, [fp, r5, lsl #2]
 8000f60:	9347      	str	r3, [sp, #284]	; 0x11c
 8000f62:	2808      	cmp	r0, #8
 8000f64:	9157      	str	r1, [sp, #348]	; 0x15c
 8000f66:	f000 80a0 	beq.w	80010aa <masked_bitslice2dense_opt+0xa02>
 8000f6a:	9b26      	ldr	r3, [sp, #152]	; 0x98
 8000f6c:	991d      	ldr	r1, [sp, #116]	; 0x74
 8000f6e:	f85a 3003 	ldr.w	r3, [sl, r3]
 8000f72:	f85b 1021 	ldr.w	r1, [fp, r1, lsl #2]
 8000f76:	9348      	str	r3, [sp, #288]	; 0x120
 8000f78:	2809      	cmp	r0, #9
 8000f7a:	9158      	str	r1, [sp, #352]	; 0x160
 8000f7c:	f000 8095 	beq.w	80010aa <masked_bitslice2dense_opt+0xa02>
 8000f80:	9b38      	ldr	r3, [sp, #224]	; 0xe0
 8000f82:	9939      	ldr	r1, [sp, #228]	; 0xe4
 8000f84:	f85a 3003 	ldr.w	r3, [sl, r3]
 8000f88:	f85b 1021 	ldr.w	r1, [fp, r1, lsl #2]
 8000f8c:	9349      	str	r3, [sp, #292]	; 0x124
 8000f8e:	280a      	cmp	r0, #10
 8000f90:	9159      	str	r1, [sp, #356]	; 0x164
 8000f92:	f000 808a 	beq.w	80010aa <masked_bitslice2dense_opt+0xa02>
 8000f96:	9b28      	ldr	r3, [sp, #160]	; 0xa0
 8000f98:	9927      	ldr	r1, [sp, #156]	; 0x9c
 8000f9a:	f85a 3003 	ldr.w	r3, [sl, r3]
 8000f9e:	f85b 1021 	ldr.w	r1, [fp, r1, lsl #2]
 8000fa2:	934a      	str	r3, [sp, #296]	; 0x128
 8000fa4:	280b      	cmp	r0, #11
 8000fa6:	915a      	str	r1, [sp, #360]	; 0x168
 8000fa8:	d07f      	beq.n	80010aa <masked_bitslice2dense_opt+0xa02>
 8000faa:	9b3b      	ldr	r3, [sp, #236]	; 0xec
 8000fac:	9e3a      	ldr	r6, [sp, #232]	; 0xe8
 8000fae:	f85a 3003 	ldr.w	r3, [sl, r3]
 8000fb2:	f85b 1026 	ldr.w	r1, [fp, r6, lsl #2]
 8000fb6:	934b      	str	r3, [sp, #300]	; 0x12c
 8000fb8:	280c      	cmp	r0, #12
 8000fba:	915b      	str	r1, [sp, #364]	; 0x16c
 8000fbc:	d075      	beq.n	80010aa <masked_bitslice2dense_opt+0xa02>
 8000fbe:	9923      	ldr	r1, [sp, #140]	; 0x8c
 8000fc0:	f85a 3004 	ldr.w	r3, [sl, r4]
 8000fc4:	f85b 1021 	ldr.w	r1, [fp, r1, lsl #2]
 8000fc8:	934c      	str	r3, [sp, #304]	; 0x130
 8000fca:	280d      	cmp	r0, #13
 8000fcc:	915c      	str	r1, [sp, #368]	; 0x170
 8000fce:	d06c      	beq.n	80010aa <masked_bitslice2dense_opt+0xa02>
 8000fd0:	993c      	ldr	r1, [sp, #240]	; 0xf0
 8000fd2:	f85a 3005 	ldr.w	r3, [sl, r5]
 8000fd6:	f85b 1021 	ldr.w	r1, [fp, r1, lsl #2]
 8000fda:	934d      	str	r3, [sp, #308]	; 0x134
 8000fdc:	280e      	cmp	r0, #14
 8000fde:	915d      	str	r1, [sp, #372]	; 0x174
 8000fe0:	d063      	beq.n	80010aa <masked_bitslice2dense_opt+0xa02>
 8000fe2:	9b6b      	ldr	r3, [sp, #428]	; 0x1ac
 8000fe4:	f85a 1006 	ldr.w	r1, [sl, r6]
 8000fe8:	914e      	str	r1, [sp, #312]	; 0x138
 8000fea:	425b      	negs	r3, r3
 8000fec:	280f      	cmp	r0, #15
 8000fee:	f85b 3023 	ldr.w	r3, [fp, r3, lsl #2]
 8000ff2:	935e      	str	r3, [sp, #376]	; 0x178
 8000ff4:	d059      	beq.n	80010aa <masked_bitslice2dense_opt+0xa02>
 8000ff6:	f8da 3000 	ldr.w	r3, [sl]
 8000ffa:	f8db 1000 	ldr.w	r1, [fp]
 8000ffe:	934f      	str	r3, [sp, #316]	; 0x13c
 8001000:	915f      	str	r1, [sp, #380]	; 0x17c
 8001002:	2305      	movs	r3, #5
 8001004:	f8cd 9018 	str.w	r9, [sp, #24]
 8001008:	f64f 76ff 	movw	r6, #65535	; 0xffff
 800100c:	46c1      	mov	r9, r8
 800100e:	2510      	movs	r5, #16
 8001010:	4698      	mov	r8, r3
 8001012:	ea6f 0c05 	mvn.w	ip, r5
 8001016:	2100      	movs	r1, #0
 8001018:	1868      	adds	r0, r5, r1
 800101a:	f852 3021 	ldr.w	r3, [r2, r1, lsl #2]
 800101e:	f852 4020 	ldr.w	r4, [r2, r0, lsl #2]
 8001022:	40eb      	lsrs	r3, r5
 8001024:	4063      	eors	r3, r4
 8001026:	4033      	ands	r3, r6
 8001028:	405c      	eors	r4, r3
 800102a:	f842 4020 	str.w	r4, [r2, r0, lsl #2]
 800102e:	f852 4021 	ldr.w	r4, [r2, r1, lsl #2]
 8001032:	40ab      	lsls	r3, r5
 8001034:	3001      	adds	r0, #1
 8001036:	4063      	eors	r3, r4
 8001038:	f842 3021 	str.w	r3, [r2, r1, lsl #2]
 800103c:	ea00 010c 	and.w	r1, r0, ip
 8001040:	291f      	cmp	r1, #31
 8001042:	dde9      	ble.n	8001018 <masked_bitslice2dense_opt+0x970>
 8001044:	106d      	asrs	r5, r5, #1
 8001046:	fa06 f305 	lsl.w	r3, r6, r5
 800104a:	f1b8 0801 	subs.w	r8, r8, #1
 800104e:	ea86 0603 	eor.w	r6, r6, r3
 8001052:	d1de      	bne.n	8001012 <masked_bitslice2dense_opt+0x96a>
 8001054:	9b07      	ldr	r3, [sp, #28]
 8001056:	9903      	ldr	r1, [sp, #12]
 8001058:	980a      	ldr	r0, [sp, #40]	; 0x28
 800105a:	46c8      	mov	r8, r9
 800105c:	f8dd 9018 	ldr.w	r9, [sp, #24]
 8001060:	eb03 0141 	add.w	r1, r3, r1, lsl #1
 8001064:	f850 3f04 	ldr.w	r3, [r0, #4]!
 8001068:	800b      	strh	r3, [r1, #0]
 800106a:	4570      	cmp	r0, lr
 800106c:	ea4f 4313 	mov.w	r3, r3, lsr #16
 8001070:	f821 3008 	strh.w	r3, [r1, r8]
 8001074:	4449      	add	r1, r9
 8001076:	d1f5      	bne.n	8001064 <masked_bitslice2dense_opt+0x9bc>
 8001078:	9903      	ldr	r1, [sp, #12]
 800107a:	9809      	ldr	r0, [sp, #36]	; 0x24
 800107c:	9b04      	ldr	r3, [sp, #16]
 800107e:	4401      	add	r1, r0
 8001080:	9103      	str	r1, [sp, #12]
 8001082:	990c      	ldr	r1, [sp, #48]	; 0x30
 8001084:	448a      	add	sl, r1
 8001086:	448b      	add	fp, r1
 8001088:	9908      	ldr	r1, [sp, #32]
 800108a:	3301      	adds	r3, #1
 800108c:	4299      	cmp	r1, r3
 800108e:	9304      	str	r3, [sp, #16]
 8001090:	f43f aca5 	beq.w	80009de <masked_bitslice2dense_opt+0x336>
 8001094:	9b05      	ldr	r3, [sp, #20]
 8001096:	2b00      	cmp	r3, #0
 8001098:	f47f af0e 	bne.w	8000eb8 <masked_bitslice2dense_opt+0x810>
 800109c:	9b0b      	ldr	r3, [sp, #44]	; 0x2c
 800109e:	b93b      	cbnz	r3, 80010b0 <masked_bitslice2dense_opt+0xa08>
 80010a0:	9340      	str	r3, [sp, #256]	; 0x100
 80010a2:	9350      	str	r3, [sp, #320]	; 0x140
 80010a4:	e059      	b.n	800115a <masked_bitslice2dense_opt+0xab2>
 80010a6:	280f      	cmp	r0, #15
 80010a8:	d8ab      	bhi.n	8001002 <masked_bitslice2dense_opt+0x95a>
 80010aa:	9b0b      	ldr	r3, [sp, #44]	; 0x2c
 80010ac:	2b00      	cmp	r3, #0
 80010ae:	d044      	beq.n	800113a <masked_bitslice2dense_opt+0xa92>
 80010b0:	9e12      	ldr	r6, [sp, #72]	; 0x48
 80010b2:	9b10      	ldr	r3, [sp, #64]	; 0x40
 80010b4:	9d11      	ldr	r5, [sp, #68]	; 0x44
 80010b6:	2000      	movs	r0, #0
 80010b8:	2100      	movs	r1, #0
 80010ba:	2e01      	cmp	r6, #1
 80010bc:	e9c3 0100 	strd	r0, r1, [r3]
 80010c0:	e9c5 0100 	strd	r0, r1, [r5]
 80010c4:	d927      	bls.n	8001116 <masked_bitslice2dense_opt+0xa6e>
 80010c6:	2e02      	cmp	r6, #2
 80010c8:	e9c3 0102 	strd	r0, r1, [r3, #8]
 80010cc:	e9c5 0102 	strd	r0, r1, [r5, #8]
 80010d0:	d021      	beq.n	8001116 <masked_bitslice2dense_opt+0xa6e>
 80010d2:	2e03      	cmp	r6, #3
 80010d4:	e9c3 0104 	strd	r0, r1, [r3, #16]
 80010d8:	e9c5 0104 	strd	r0, r1, [r5, #16]
 80010dc:	d01b      	beq.n	8001116 <masked_bitslice2dense_opt+0xa6e>
 80010de:	2e04      	cmp	r6, #4
 80010e0:	e9c3 0106 	strd	r0, r1, [r3, #24]
 80010e4:	e9c5 0106 	strd	r0, r1, [r5, #24]
 80010e8:	d015      	beq.n	8001116 <masked_bitslice2dense_opt+0xa6e>
 80010ea:	2e05      	cmp	r6, #5
 80010ec:	e9c3 0108 	strd	r0, r1, [r3, #32]
 80010f0:	e9c5 0108 	strd	r0, r1, [r5, #32]
 80010f4:	d00f      	beq.n	8001116 <masked_bitslice2dense_opt+0xa6e>
 80010f6:	2e06      	cmp	r6, #6
 80010f8:	e9c3 010a 	strd	r0, r1, [r3, #40]	; 0x28
 80010fc:	e9c5 010a 	strd	r0, r1, [r5, #40]	; 0x28
 8001100:	d009      	beq.n	8001116 <masked_bitslice2dense_opt+0xa6e>
 8001102:	2e07      	cmp	r6, #7
 8001104:	e9c3 010c 	strd	r0, r1, [r3, #48]	; 0x30
 8001108:	e9c5 010c 	strd	r0, r1, [r5, #48]	; 0x30
 800110c:	d003      	beq.n	8001116 <masked_bitslice2dense_opt+0xa6e>
 800110e:	e9c3 010e 	strd	r0, r1, [r3, #56]	; 0x38
 8001112:	e9c5 010e 	strd	r0, r1, [r5, #56]	; 0x38
 8001116:	9b0e      	ldr	r3, [sp, #56]	; 0x38
 8001118:	9913      	ldr	r1, [sp, #76]	; 0x4c
 800111a:	428b      	cmp	r3, r1
 800111c:	f43f af71 	beq.w	8001002 <masked_bitslice2dense_opt+0x95a>
 8001120:	9b02      	ldr	r3, [sp, #8]
 8001122:	a860      	add	r0, sp, #384	; 0x180
 8001124:	eb00 0383 	add.w	r3, r0, r3, lsl #2
 8001128:	2100      	movs	r1, #0
 800112a:	f843 1c80 	str.w	r1, [r3, #-128]
 800112e:	9b01      	ldr	r3, [sp, #4]
 8001130:	eb00 0383 	add.w	r3, r0, r3, lsl #2
 8001134:	f843 1c80 	str.w	r1, [r3, #-128]
 8001138:	e763      	b.n	8001002 <masked_bitslice2dense_opt+0x95a>
 800113a:	9916      	ldr	r1, [sp, #88]	; 0x58
 800113c:	ab60      	add	r3, sp, #384	; 0x180
 800113e:	440b      	add	r3, r1
 8001140:	990b      	ldr	r1, [sp, #44]	; 0x2c
 8001142:	f843 1c80 	str.w	r1, [r3, #-128]
 8001146:	9b29      	ldr	r3, [sp, #164]	; 0xa4
 8001148:	a860      	add	r0, sp, #384	; 0x180
 800114a:	eb00 0383 	add.w	r3, r0, r3, lsl #2
 800114e:	f843 1c80 	str.w	r1, [r3, #-128]
 8001152:	9b22      	ldr	r3, [sp, #136]	; 0x88
 8001154:	2b0f      	cmp	r3, #15
 8001156:	f63f af54 	bhi.w	8001002 <masked_bitslice2dense_opt+0x95a>
 800115a:	9922      	ldr	r1, [sp, #136]	; 0x88
 800115c:	a860      	add	r0, sp, #384	; 0x180
 800115e:	eb00 0181 	add.w	r1, r0, r1, lsl #2
 8001162:	2300      	movs	r3, #0
 8001164:	f841 3c80 	str.w	r3, [r1, #-128]
 8001168:	993d      	ldr	r1, [sp, #244]	; 0xf4
 800116a:	f841 3c80 	str.w	r3, [r1, #-128]
 800116e:	992a      	ldr	r1, [sp, #168]	; 0xa8
 8001170:	290f      	cmp	r1, #15
 8001172:	f63f af46 	bhi.w	8001002 <masked_bitslice2dense_opt+0x95a>
 8001176:	eb00 0181 	add.w	r1, r0, r1, lsl #2
 800117a:	f841 3c80 	str.w	r3, [r1, #-128]
 800117e:	993e      	ldr	r1, [sp, #248]	; 0xf8
 8001180:	f841 3c80 	str.w	r3, [r1, #-128]
 8001184:	992b      	ldr	r1, [sp, #172]	; 0xac
 8001186:	290f      	cmp	r1, #15
 8001188:	f63f af3b 	bhi.w	8001002 <masked_bitslice2dense_opt+0x95a>
 800118c:	eb00 0181 	add.w	r1, r0, r1, lsl #2
 8001190:	982c      	ldr	r0, [sp, #176]	; 0xb0
 8001192:	f841 3c80 	str.w	r3, [r1, #-128]
 8001196:	993f      	ldr	r1, [sp, #252]	; 0xfc
 8001198:	280f      	cmp	r0, #15
 800119a:	f841 3c80 	str.w	r3, [r1, #-128]
 800119e:	f63f af30 	bhi.w	8001002 <masked_bitslice2dense_opt+0x95a>
 80011a2:	ad60      	add	r5, sp, #384	; 0x180
 80011a4:	eb05 0080 	add.w	r0, r5, r0, lsl #2
 80011a8:	9c05      	ldr	r4, [sp, #20]
 80011aa:	f840 3c80 	str.w	r3, [r0, #-128]
 80011ae:	f104 0114 	add.w	r1, r4, #20
 80011b2:	982d      	ldr	r0, [sp, #180]	; 0xb4
 80011b4:	eb05 0181 	add.w	r1, r5, r1, lsl #2
 80011b8:	280f      	cmp	r0, #15
 80011ba:	f841 3c80 	str.w	r3, [r1, #-128]
 80011be:	f63f af20 	bhi.w	8001002 <masked_bitslice2dense_opt+0x95a>
 80011c2:	eb05 0080 	add.w	r0, r5, r0, lsl #2
 80011c6:	f104 0115 	add.w	r1, r4, #21
 80011ca:	f840 3c80 	str.w	r3, [r0, #-128]
 80011ce:	982e      	ldr	r0, [sp, #184]	; 0xb8
 80011d0:	eb05 0181 	add.w	r1, r5, r1, lsl #2
 80011d4:	280f      	cmp	r0, #15
 80011d6:	f841 3c80 	str.w	r3, [r1, #-128]
 80011da:	f63f af12 	bhi.w	8001002 <masked_bitslice2dense_opt+0x95a>
 80011de:	eb05 0080 	add.w	r0, r5, r0, lsl #2
 80011e2:	f104 0116 	add.w	r1, r4, #22
 80011e6:	f840 3c80 	str.w	r3, [r0, #-128]
 80011ea:	982f      	ldr	r0, [sp, #188]	; 0xbc
 80011ec:	eb05 0181 	add.w	r1, r5, r1, lsl #2
 80011f0:	280f      	cmp	r0, #15
 80011f2:	f841 3c80 	str.w	r3, [r1, #-128]
 80011f6:	f63f af04 	bhi.w	8001002 <masked_bitslice2dense_opt+0x95a>
 80011fa:	eb05 0080 	add.w	r0, r5, r0, lsl #2
 80011fe:	f104 0117 	add.w	r1, r4, #23
 8001202:	f840 3c80 	str.w	r3, [r0, #-128]
 8001206:	9830      	ldr	r0, [sp, #192]	; 0xc0
 8001208:	eb05 0181 	add.w	r1, r5, r1, lsl #2
 800120c:	280f      	cmp	r0, #15
 800120e:	f841 3c80 	str.w	r3, [r1, #-128]
 8001212:	f63f aef6 	bhi.w	8001002 <masked_bitslice2dense_opt+0x95a>
 8001216:	eb05 0080 	add.w	r0, r5, r0, lsl #2
 800121a:	f104 0118 	add.w	r1, r4, #24
 800121e:	f840 3c80 	str.w	r3, [r0, #-128]
 8001222:	9831      	ldr	r0, [sp, #196]	; 0xc4
 8001224:	eb05 0181 	add.w	r1, r5, r1, lsl #2
 8001228:	280f      	cmp	r0, #15
 800122a:	f841 3c80 	str.w	r3, [r1, #-128]
 800122e:	f63f aee8 	bhi.w	8001002 <masked_bitslice2dense_opt+0x95a>
 8001232:	eb05 0080 	add.w	r0, r5, r0, lsl #2
 8001236:	f104 0119 	add.w	r1, r4, #25
 800123a:	f840 3c80 	str.w	r3, [r0, #-128]
 800123e:	9832      	ldr	r0, [sp, #200]	; 0xc8
 8001240:	eb05 0181 	add.w	r1, r5, r1, lsl #2
 8001244:	280f      	cmp	r0, #15
 8001246:	f841 3c80 	str.w	r3, [r1, #-128]
 800124a:	f63f aeda 	bhi.w	8001002 <masked_bitslice2dense_opt+0x95a>
 800124e:	eb05 0080 	add.w	r0, r5, r0, lsl #2
 8001252:	f104 011a 	add.w	r1, r4, #26
 8001256:	f840 3c80 	str.w	r3, [r0, #-128]
 800125a:	9833      	ldr	r0, [sp, #204]	; 0xcc
 800125c:	eb05 0181 	add.w	r1, r5, r1, lsl #2
 8001260:	280f      	cmp	r0, #15
 8001262:	f841 3c80 	str.w	r3, [r1, #-128]
 8001266:	f63f aecc 	bhi.w	8001002 <masked_bitslice2dense_opt+0x95a>
 800126a:	eb05 0080 	add.w	r0, r5, r0, lsl #2
 800126e:	2300      	movs	r3, #0
 8001270:	f840 3c80 	str.w	r3, [r0, #-128]
 8001274:	f104 011b 	add.w	r1, r4, #27
 8001278:	9834      	ldr	r0, [sp, #208]	; 0xd0
 800127a:	eb05 0181 	add.w	r1, r5, r1, lsl #2
 800127e:	280f      	cmp	r0, #15
 8001280:	f841 3c80 	str.w	r3, [r1, #-128]
 8001284:	f63f aebd 	bhi.w	8001002 <masked_bitslice2dense_opt+0x95a>
 8001288:	eb05 0080 	add.w	r0, r5, r0, lsl #2
 800128c:	f104 011c 	add.w	r1, r4, #28
 8001290:	f840 3c80 	str.w	r3, [r0, #-128]
 8001294:	9835      	ldr	r0, [sp, #212]	; 0xd4
 8001296:	eb05 0181 	add.w	r1, r5, r1, lsl #2
 800129a:	280f      	cmp	r0, #15
 800129c:	f841 3c80 	str.w	r3, [r1, #-128]
 80012a0:	f63f aeaf 	bhi.w	8001002 <masked_bitslice2dense_opt+0x95a>
 80012a4:	eb05 0080 	add.w	r0, r5, r0, lsl #2
 80012a8:	f104 011d 	add.w	r1, r4, #29
 80012ac:	f840 3c80 	str.w	r3, [r0, #-128]
 80012b0:	9836      	ldr	r0, [sp, #216]	; 0xd8
 80012b2:	eb05 0181 	add.w	r1, r5, r1, lsl #2
 80012b6:	280f      	cmp	r0, #15
 80012b8:	f841 3c80 	str.w	r3, [r1, #-128]
 80012bc:	f63f aea1 	bhi.w	8001002 <masked_bitslice2dense_opt+0x95a>
 80012c0:	eb05 0080 	add.w	r0, r5, r0, lsl #2
 80012c4:	4621      	mov	r1, r4
 80012c6:	f840 3c80 	str.w	r3, [r0, #-128]
 80012ca:	311e      	adds	r1, #30
 80012cc:	9837      	ldr	r0, [sp, #220]	; 0xdc
 80012ce:	eb05 0181 	add.w	r1, r5, r1, lsl #2
 80012d2:	280f      	cmp	r0, #15
 80012d4:	f841 3c80 	str.w	r3, [r1, #-128]
 80012d8:	f63f ae93 	bhi.w	8001002 <masked_bitslice2dense_opt+0x95a>
 80012dc:	f104 011f 	add.w	r1, r4, #31
 80012e0:	eb05 0181 	add.w	r1, r5, r1, lsl #2
 80012e4:	eb05 0080 	add.w	r0, r5, r0, lsl #2
 80012e8:	f840 3c80 	str.w	r3, [r0, #-128]
 80012ec:	f841 3c80 	str.w	r3, [r1, #-128]
 80012f0:	e687      	b.n	8001002 <masked_bitslice2dense_opt+0x95a>
 80012f2:	bf00      	nop

080012f4 <secadd_constant>:
 80012f4:	e92d 4ff0 	stmdb	sp!, {r4, r5, r6, r7, r8, r9, sl, fp, lr}
 80012f8:	0084      	lsls	r4, r0, #2
 80012fa:	b08f      	sub	sp, #60	; 0x3c
 80012fc:	4680      	mov	r8, r0
 80012fe:	af04      	add	r7, sp, #16
 8001300:	1de0      	adds	r0, r4, #7
 8001302:	f020 0007 	bic.w	r0, r0, #7
 8001306:	f8c7 d000 	str.w	sp, [r7]
 800130a:	ebad 0d00 	sub.w	sp, sp, r0
 800130e:	f10d 0910 	add.w	r9, sp, #16
 8001312:	ebad 0d00 	sub.w	sp, sp, r0
 8001316:	f10d 0b10 	add.w	fp, sp, #16
 800131a:	ebad 0d00 	sub.w	sp, sp, r0
 800131e:	e9c7 3201 	strd	r3, r2, [r7, #4]
 8001322:	ab04      	add	r3, sp, #16
 8001324:	617b      	str	r3, [r7, #20]
 8001326:	6e7b      	ldr	r3, [r7, #100]	; 0x64
 8001328:	f8d7 a058 	ldr.w	sl, [r7, #88]	; 0x58
 800132c:	61f9      	str	r1, [r7, #28]
 800132e:	f013 0301 	ands.w	r3, r3, #1
 8001332:	f040 8116 	bne.w	8001562 <secadd_constant+0x26e>
 8001336:	f1b8 0f00 	cmp.w	r8, #0
 800133a:	d036      	beq.n	80013aa <secadd_constant+0xb6>
 800133c:	f108 32ff 	add.w	r2, r8, #4294967295	; 0xffffffff
 8001340:	2a05      	cmp	r2, #5
 8001342:	f3c9 0680 	ubfx	r6, r9, #2, #1
 8001346:	d914      	bls.n	8001372 <secadd_constant+0x7e>
 8001348:	b10e      	cbz	r6, 800134e <secadd_constant+0x5a>
 800134a:	f8c9 3000 	str.w	r3, [r9]
 800134e:	eba8 0506 	sub.w	r5, r8, r6
 8001352:	086c      	lsrs	r4, r5, #1
 8001354:	eb09 0286 	add.w	r2, r9, r6, lsl #2
 8001358:	2000      	movs	r0, #0
 800135a:	2100      	movs	r1, #0
 800135c:	3301      	adds	r3, #1
 800135e:	429c      	cmp	r4, r3
 8001360:	e8e2 0102 	strd	r0, r1, [r2], #8
 8001364:	d1fa      	bne.n	800135c <secadd_constant+0x68>
 8001366:	f025 0201 	bic.w	r2, r5, #1
 800136a:	4295      	cmp	r5, r2
 800136c:	eb06 0302 	add.w	r3, r6, r2
 8001370:	d01b      	beq.n	80013aa <secadd_constant+0xb6>
 8001372:	1c59      	adds	r1, r3, #1
 8001374:	2200      	movs	r2, #0
 8001376:	4588      	cmp	r8, r1
 8001378:	f849 2023 	str.w	r2, [r9, r3, lsl #2]
 800137c:	d915      	bls.n	80013aa <secadd_constant+0xb6>
 800137e:	1c98      	adds	r0, r3, #2
 8001380:	4580      	cmp	r8, r0
 8001382:	f849 2021 	str.w	r2, [r9, r1, lsl #2]
 8001386:	d910      	bls.n	80013aa <secadd_constant+0xb6>
 8001388:	1cd9      	adds	r1, r3, #3
 800138a:	4588      	cmp	r8, r1
 800138c:	f849 2020 	str.w	r2, [r9, r0, lsl #2]
 8001390:	d90b      	bls.n	80013aa <secadd_constant+0xb6>
 8001392:	1d18      	adds	r0, r3, #4
 8001394:	4580      	cmp	r8, r0
 8001396:	f849 2021 	str.w	r2, [r9, r1, lsl #2]
 800139a:	d906      	bls.n	80013aa <secadd_constant+0xb6>
 800139c:	3305      	adds	r3, #5
 800139e:	4598      	cmp	r8, r3
 80013a0:	f849 2020 	str.w	r2, [r9, r0, lsl #2]
 80013a4:	d901      	bls.n	80013aa <secadd_constant+0xb6>
 80013a6:	f849 2023 	str.w	r2, [r9, r3, lsl #2]
 80013aa:	6dfb      	ldr	r3, [r7, #92]	; 0x5c
 80013ac:	9300      	str	r3, [sp, #0]
 80013ae:	6d3a      	ldr	r2, [r7, #80]	; 0x50
 80013b0:	6879      	ldr	r1, [r7, #4]
 80013b2:	4653      	mov	r3, sl
 80013b4:	4640      	mov	r0, r8
 80013b6:	f004 fcc8 	bl	8005d4a <copy_sharing_asm>
 80013ba:	69fb      	ldr	r3, [r7, #28]
 80013bc:	2b01      	cmp	r3, #1
 80013be:	f240 80a9 	bls.w	8001514 <secadd_constant+0x220>
 80013c2:	6e3b      	ldr	r3, [r7, #96]	; 0x60
 80013c4:	6d7a      	ldr	r2, [r7, #84]	; 0x54
 80013c6:	eb0a 0483 	add.w	r4, sl, r3, lsl #2
 80013ca:	009b      	lsls	r3, r3, #2
 80013cc:	60fb      	str	r3, [r7, #12]
 80013ce:	69fb      	ldr	r3, [r7, #28]
 80013d0:	3b01      	subs	r3, #1
 80013d2:	61bb      	str	r3, [r7, #24]
 80013d4:	6d7b      	ldr	r3, [r7, #84]	; 0x54
 80013d6:	009b      	lsls	r3, r3, #2
 80013d8:	613b      	str	r3, [r7, #16]
 80013da:	687b      	ldr	r3, [r7, #4]
 80013dc:	2501      	movs	r5, #1
 80013de:	e9c7 5408 	strd	r5, r4, [r7, #32]
 80013e2:	462e      	mov	r6, r5
 80013e4:	eb03 0a82 	add.w	sl, r3, r2, lsl #2
 80013e8:	e048      	b.n	800147c <secadd_constant+0x188>
 80013ea:	6dfd      	ldr	r5, [r7, #92]	; 0x5c
 80013ec:	9500      	str	r5, [sp, #0]
 80013ee:	f004 fcac 	bl	8005d4a <copy_sharing_asm>
 80013f2:	e9cd 9601 	strd	r9, r6, [sp, #4]
 80013f6:	6dfb      	ldr	r3, [r7, #92]	; 0x5c
 80013f8:	9300      	str	r3, [sp, #0]
 80013fa:	6a7b      	ldr	r3, [r7, #36]	; 0x24
 80013fc:	6979      	ldr	r1, [r7, #20]
 80013fe:	2201      	movs	r2, #1
 8001400:	4640      	mov	r0, r8
 8001402:	f004 fc78 	bl	8005cf6 <my_masked_xor_asm>
 8001406:	e9cd 9601 	strd	r9, r6, [sp, #4]
 800140a:	9600      	str	r6, [sp, #0]
 800140c:	6d3a      	ldr	r2, [r7, #80]	; 0x50
 800140e:	465b      	mov	r3, fp
 8001410:	4651      	mov	r1, sl
 8001412:	4640      	mov	r0, r8
 8001414:	f004 fc6f 	bl	8005cf6 <my_masked_xor_asm>
 8001418:	f8db 2000 	ldr.w	r2, [fp]
 800141c:	f8da 3000 	ldr.w	r3, [sl]
 8001420:	69bd      	ldr	r5, [r7, #24]
 8001422:	6a3c      	ldr	r4, [r7, #32]
 8001424:	ea6f 0c02 	mvn.w	ip, r2
 8001428:	ea6f 0e03 	mvn.w	lr, r3
 800142c:	42ac      	cmp	r4, r5
 800142e:	465b      	mov	r3, fp
 8001430:	4649      	mov	r1, r9
 8001432:	4640      	mov	r0, r8
 8001434:	f04f 0201 	mov.w	r2, #1
 8001438:	f8cb c000 	str.w	ip, [fp]
 800143c:	f8ca e000 	str.w	lr, [sl]
 8001440:	d042      	beq.n	80014c8 <secadd_constant+0x1d4>
 8001442:	9602      	str	r6, [sp, #8]
 8001444:	697d      	ldr	r5, [r7, #20]
 8001446:	e9cd 6500 	strd	r6, r5, [sp]
 800144a:	f004 fbb9 	bl	8005bc0 <my_masked_and_asm>
 800144e:	6dfb      	ldr	r3, [r7, #92]	; 0x5c
 8001450:	9302      	str	r3, [sp, #8]
 8001452:	6a7b      	ldr	r3, [r7, #36]	; 0x24
 8001454:	2201      	movs	r2, #1
 8001456:	e9cd 6300 	strd	r6, r3, [sp]
 800145a:	4649      	mov	r1, r9
 800145c:	464b      	mov	r3, r9
 800145e:	4640      	mov	r0, r8
 8001460:	f004 fc49 	bl	8005cf6 <my_masked_xor_asm>
 8001464:	68fb      	ldr	r3, [r7, #12]
 8001466:	6a79      	ldr	r1, [r7, #36]	; 0x24
 8001468:	6a3a      	ldr	r2, [r7, #32]
 800146a:	4419      	add	r1, r3
 800146c:	693b      	ldr	r3, [r7, #16]
 800146e:	6279      	str	r1, [r7, #36]	; 0x24
 8001470:	449a      	add	sl, r3
 8001472:	69fb      	ldr	r3, [r7, #28]
 8001474:	3201      	adds	r2, #1
 8001476:	4293      	cmp	r3, r2
 8001478:	623a      	str	r2, [r7, #32]
 800147a:	d04b      	beq.n	8001514 <secadd_constant+0x220>
 800147c:	6e7d      	ldr	r5, [r7, #100]	; 0x64
 800147e:	6a3c      	ldr	r4, [r7, #32]
 8001480:	6a7b      	ldr	r3, [r7, #36]	; 0x24
 8001482:	fa25 fc04 	lsr.w	ip, r5, r4
 8001486:	f01c 0f01 	tst.w	ip, #1
 800148a:	4659      	mov	r1, fp
 800148c:	4640      	mov	r0, r8
 800148e:	f04f 0201 	mov.w	r2, #1
 8001492:	d1aa      	bne.n	80013ea <secadd_constant+0xf6>
 8001494:	9602      	str	r6, [sp, #8]
 8001496:	6a7b      	ldr	r3, [r7, #36]	; 0x24
 8001498:	e9cd 6300 	strd	r6, r3, [sp]
 800149c:	4651      	mov	r1, sl
 800149e:	6d3a      	ldr	r2, [r7, #80]	; 0x50
 80014a0:	464b      	mov	r3, r9
 80014a2:	f004 fc28 	bl	8005cf6 <my_masked_xor_asm>
 80014a6:	69bb      	ldr	r3, [r7, #24]
 80014a8:	6a3a      	ldr	r2, [r7, #32]
 80014aa:	429a      	cmp	r2, r3
 80014ac:	4649      	mov	r1, r9
 80014ae:	464b      	mov	r3, r9
 80014b0:	f04f 0201 	mov.w	r2, #1
 80014b4:	4640      	mov	r0, r8
 80014b6:	d033      	beq.n	8001520 <secadd_constant+0x22c>
 80014b8:	6dfd      	ldr	r5, [r7, #92]	; 0x5c
 80014ba:	9502      	str	r5, [sp, #8]
 80014bc:	6a7c      	ldr	r4, [r7, #36]	; 0x24
 80014be:	e9cd 6400 	strd	r6, r4, [sp]
 80014c2:	f004 fb7d 	bl	8005bc0 <my_masked_and_asm>
 80014c6:	e7cd      	b.n	8001464 <secadd_constant+0x170>
 80014c8:	69fa      	ldr	r2, [r7, #28]
 80014ca:	68b9      	ldr	r1, [r7, #8]
 80014cc:	6a7c      	ldr	r4, [r7, #36]	; 0x24
 80014ce:	428a      	cmp	r2, r1
 80014d0:	d020      	beq.n	8001514 <secadd_constant+0x220>
 80014d2:	9602      	str	r6, [sp, #8]
 80014d4:	697b      	ldr	r3, [r7, #20]
 80014d6:	e9cd 6300 	strd	r6, r3, [sp]
 80014da:	693d      	ldr	r5, [r7, #16]
 80014dc:	61fa      	str	r2, [r7, #28]
 80014de:	fb05 f502 	mul.w	r5, r5, r2
 80014e2:	465b      	mov	r3, fp
 80014e4:	2201      	movs	r2, #1
 80014e6:	4649      	mov	r1, r9
 80014e8:	f004 fb6a 	bl	8005bc0 <my_masked_and_asm>
 80014ec:	6dfb      	ldr	r3, [r7, #92]	; 0x5c
 80014ee:	9600      	str	r6, [sp, #0]
 80014f0:	e9cd 4301 	strd	r4, r3, [sp, #4]
 80014f4:	687c      	ldr	r4, [r7, #4]
 80014f6:	6d3a      	ldr	r2, [r7, #80]	; 0x50
 80014f8:	464b      	mov	r3, r9
 80014fa:	4640      	mov	r0, r8
 80014fc:	1961      	adds	r1, r4, r5
 80014fe:	f004 fbfa 	bl	8005cf6 <my_masked_xor_asm>
 8001502:	6e7b      	ldr	r3, [r7, #100]	; 0x64
 8001504:	69fa      	ldr	r2, [r7, #28]
 8001506:	fa23 f202 	lsr.w	r2, r3, r2
 800150a:	5963      	ldr	r3, [r4, r5]
 800150c:	f342 0200 	sbfx	r2, r2, #0, #1
 8001510:	4053      	eors	r3, r2
 8001512:	5163      	str	r3, [r4, r5]
 8001514:	f8d7 d000 	ldr.w	sp, [r7]
 8001518:	372c      	adds	r7, #44	; 0x2c
 800151a:	46bd      	mov	sp, r7
 800151c:	e8bd 8ff0 	ldmia.w	sp!, {r4, r5, r6, r7, r8, r9, sl, fp, pc}
 8001520:	69fb      	ldr	r3, [r7, #28]
 8001522:	68b9      	ldr	r1, [r7, #8]
 8001524:	6a7c      	ldr	r4, [r7, #36]	; 0x24
 8001526:	428b      	cmp	r3, r1
 8001528:	d0f4      	beq.n	8001514 <secadd_constant+0x220>
 800152a:	6dfa      	ldr	r2, [r7, #92]	; 0x5c
 800152c:	693d      	ldr	r5, [r7, #16]
 800152e:	9600      	str	r6, [sp, #0]
 8001530:	e9cd 4201 	strd	r4, r2, [sp, #4]
 8001534:	687c      	ldr	r4, [r7, #4]
 8001536:	6d3a      	ldr	r2, [r7, #80]	; 0x50
 8001538:	fb05 f503 	mul.w	r5, r5, r3
 800153c:	1961      	adds	r1, r4, r5
 800153e:	464b      	mov	r3, r9
 8001540:	f004 fb3e 	bl	8005bc0 <my_masked_and_asm>
 8001544:	6e7a      	ldr	r2, [r7, #100]	; 0x64
 8001546:	69fb      	ldr	r3, [r7, #28]
 8001548:	fa22 f303 	lsr.w	r3, r2, r3
 800154c:	5962      	ldr	r2, [r4, r5]
 800154e:	f343 0300 	sbfx	r3, r3, #0, #1
 8001552:	4053      	eors	r3, r2
 8001554:	5163      	str	r3, [r4, r5]
 8001556:	f8d7 d000 	ldr.w	sp, [r7]
 800155a:	372c      	adds	r7, #44	; 0x2c
 800155c:	46bd      	mov	sp, r7
 800155e:	e8bd 8ff0 	ldmia.w	sp!, {r4, r5, r6, r7, r8, r9, sl, fp, pc}
 8001562:	f1b8 0f00 	cmp.w	r8, #0
 8001566:	d020      	beq.n	80015aa <secadd_constant+0x2b6>
 8001568:	6dfb      	ldr	r3, [r7, #92]	; 0x5c
 800156a:	2b01      	cmp	r3, #1
 800156c:	d12a      	bne.n	80015c4 <secadd_constant+0x2d0>
 800156e:	ea49 030a 	orr.w	r3, r9, sl
 8001572:	075b      	lsls	r3, r3, #29
 8001574:	d133      	bne.n	80015de <secadd_constant+0x2ea>
 8001576:	f108 33ff 	add.w	r3, r8, #4294967295	; 0xffffffff
 800157a:	2b0a      	cmp	r3, #10
 800157c:	d92f      	bls.n	80015de <secadd_constant+0x2ea>
 800157e:	ea4f 0458 	mov.w	r4, r8, lsr #1
 8001582:	eb09 04c4 	add.w	r4, r9, r4, lsl #3
 8001586:	f1aa 0208 	sub.w	r2, sl, #8
 800158a:	464b      	mov	r3, r9
 800158c:	e9f2 0102 	ldrd	r0, r1, [r2, #8]!
 8001590:	e8e3 0102 	strd	r0, r1, [r3], #8
 8001594:	42a3      	cmp	r3, r4
 8001596:	d1f9      	bne.n	800158c <secadd_constant+0x298>
 8001598:	f018 0f01 	tst.w	r8, #1
 800159c:	f028 0301 	bic.w	r3, r8, #1
 80015a0:	d003      	beq.n	80015aa <secadd_constant+0x2b6>
 80015a2:	f85a 2023 	ldr.w	r2, [sl, r3, lsl #2]
 80015a6:	f849 2023 	str.w	r2, [r9, r3, lsl #2]
 80015aa:	6dfb      	ldr	r3, [r7, #92]	; 0x5c
 80015ac:	9300      	str	r3, [sp, #0]
 80015ae:	687c      	ldr	r4, [r7, #4]
 80015b0:	6d3a      	ldr	r2, [r7, #80]	; 0x50
 80015b2:	4653      	mov	r3, sl
 80015b4:	4621      	mov	r1, r4
 80015b6:	4640      	mov	r0, r8
 80015b8:	f004 fbc7 	bl	8005d4a <copy_sharing_asm>
 80015bc:	6823      	ldr	r3, [r4, #0]
 80015be:	43db      	mvns	r3, r3
 80015c0:	6023      	str	r3, [r4, #0]
 80015c2:	e6fa      	b.n	80013ba <secadd_constant+0xc6>
 80015c4:	009c      	lsls	r4, r3, #2
 80015c6:	4652      	mov	r2, sl
 80015c8:	f1a9 0104 	sub.w	r1, r9, #4
 80015cc:	2300      	movs	r3, #0
 80015ce:	3301      	adds	r3, #1
 80015d0:	6810      	ldr	r0, [r2, #0]
 80015d2:	f841 0f04 	str.w	r0, [r1, #4]!
 80015d6:	4598      	cmp	r8, r3
 80015d8:	4422      	add	r2, r4
 80015da:	d1f8      	bne.n	80015ce <secadd_constant+0x2da>
 80015dc:	e7e5      	b.n	80015aa <secadd_constant+0x2b6>
 80015de:	f1aa 0304 	sub.w	r3, sl, #4
 80015e2:	441c      	add	r4, r3
 80015e4:	f1a9 0204 	sub.w	r2, r9, #4
 80015e8:	f853 1f04 	ldr.w	r1, [r3, #4]!
 80015ec:	f842 1f04 	str.w	r1, [r2, #4]!
 80015f0:	42a3      	cmp	r3, r4
 80015f2:	d1f9      	bne.n	80015e8 <secadd_constant+0x2f4>
 80015f4:	e7d9      	b.n	80015aa <secadd_constant+0x2b6>
 80015f6:	bf00      	nop

080015f8 <secadd>:
 80015f8:	e92d 4ff0 	stmdb	sp!, {r4, r5, r6, r7, r8, r9, sl, fp, lr}
 80015fc:	ea4f 0c80 	mov.w	ip, r0, lsl #2
 8001600:	f10c 0c07 	add.w	ip, ip, #7
 8001604:	f02c 0c07 	bic.w	ip, ip, #7
 8001608:	b091      	sub	sp, #68	; 0x44
 800160a:	af04      	add	r7, sp, #16
 800160c:	ebad 0d0c 	sub.w	sp, sp, ip
 8001610:	f10d 0810 	add.w	r8, sp, #16
 8001614:	ebad 0d0c 	sub.w	sp, sp, ip
 8001618:	6efc      	ldr	r4, [r7, #108]	; 0x6c
 800161a:	6e3e      	ldr	r6, [r7, #96]	; 0x60
 800161c:	6278      	str	r0, [r7, #36]	; 0x24
 800161e:	f10d 0a10 	add.w	sl, sp, #16
 8001622:	ebad 0d0c 	sub.w	sp, sp, ip
 8001626:	4694      	mov	ip, r2
 8001628:	6f3a      	ldr	r2, [r7, #112]	; 0x70
 800162a:	f8c7 c008 	str.w	ip, [r7, #8]
 800162e:	e9cd 4201 	strd	r4, r2, [sp, #4]
 8001632:	6e7a      	ldr	r2, [r7, #100]	; 0x64
 8001634:	9200      	str	r2, [sp, #0]
 8001636:	468e      	mov	lr, r1
 8001638:	461d      	mov	r5, r3
 800163a:	4641      	mov	r1, r8
 800163c:	4633      	mov	r3, r6
 800163e:	2201      	movs	r2, #1
 8001640:	46f3      	mov	fp, lr
 8001642:	f8c7 e01c 	str.w	lr, [r7, #28]
 8001646:	f8d7 905c 	ldr.w	r9, [r7, #92]	; 0x5c
 800164a:	f004 fab9 	bl	8005bc0 <my_masked_and_asm>
 800164e:	6f3a      	ldr	r2, [r7, #112]	; 0x70
 8001650:	607d      	str	r5, [r7, #4]
 8001652:	e9cd 4201 	strd	r4, r2, [sp, #4]
 8001656:	6e7a      	ldr	r2, [r7, #100]	; 0x64
 8001658:	9200      	str	r2, [sp, #0]
 800165a:	4629      	mov	r1, r5
 800165c:	4633      	mov	r3, r6
 800165e:	6a78      	ldr	r0, [r7, #36]	; 0x24
 8001660:	6dba      	ldr	r2, [r7, #88]	; 0x58
 8001662:	ad04      	add	r5, sp, #16
 8001664:	623d      	str	r5, [r7, #32]
 8001666:	f004 fb46 	bl	8005cf6 <my_masked_xor_asm>
 800166a:	465b      	mov	r3, fp
 800166c:	2b01      	cmp	r3, #1
 800166e:	d97b      	bls.n	8001768 <secadd+0x170>
 8001670:	6eba      	ldr	r2, [r7, #104]	; 0x68
 8001672:	eb06 0682 	add.w	r6, r6, r2, lsl #2
 8001676:	0092      	lsls	r2, r2, #2
 8001678:	60fa      	str	r2, [r7, #12]
 800167a:	6f7a      	ldr	r2, [r7, #116]	; 0x74
 800167c:	62fe      	str	r6, [r7, #44]	; 0x2c
 800167e:	eb04 0282 	add.w	r2, r4, r2, lsl #2
 8001682:	3b01      	subs	r3, #1
 8001684:	62ba      	str	r2, [r7, #40]	; 0x28
 8001686:	613b      	str	r3, [r7, #16]
 8001688:	6f7a      	ldr	r2, [r7, #116]	; 0x74
 800168a:	ea4f 0389 	mov.w	r3, r9, lsl #2
 800168e:	61bb      	str	r3, [r7, #24]
 8001690:	687b      	ldr	r3, [r7, #4]
 8001692:	f04f 0b01 	mov.w	fp, #1
 8001696:	0092      	lsls	r2, r2, #2
 8001698:	617a      	str	r2, [r7, #20]
 800169a:	465c      	mov	r4, fp
 800169c:	eb03 0989 	add.w	r9, r3, r9, lsl #2
 80016a0:	e016      	b.n	80016d0 <secadd+0xd8>
 80016a2:	6a3d      	ldr	r5, [r7, #32]
 80016a4:	9402      	str	r4, [sp, #8]
 80016a6:	e9cd 4500 	strd	r4, r5, [sp]
 80016aa:	f004 fa89 	bl	8005bc0 <my_masked_and_asm>
 80016ae:	6afe      	ldr	r6, [r7, #44]	; 0x2c
 80016b0:	68fd      	ldr	r5, [r7, #12]
 80016b2:	6e7b      	ldr	r3, [r7, #100]	; 0x64
 80016b4:	9302      	str	r3, [sp, #8]
 80016b6:	e9cd 4600 	strd	r4, r6, [sp]
 80016ba:	4643      	mov	r3, r8
 80016bc:	6a78      	ldr	r0, [r7, #36]	; 0x24
 80016be:	2201      	movs	r2, #1
 80016c0:	4641      	mov	r1, r8
 80016c2:	442e      	add	r6, r5
 80016c4:	62fe      	str	r6, [r7, #44]	; 0x2c
 80016c6:	f004 fb16 	bl	8005cf6 <my_masked_xor_asm>
 80016ca:	69fb      	ldr	r3, [r7, #28]
 80016cc:	455b      	cmp	r3, fp
 80016ce:	d04b      	beq.n	8001768 <secadd+0x170>
 80016d0:	6a7d      	ldr	r5, [r7, #36]	; 0x24
 80016d2:	6afe      	ldr	r6, [r7, #44]	; 0x2c
 80016d4:	6f3b      	ldr	r3, [r7, #112]	; 0x70
 80016d6:	6e7a      	ldr	r2, [r7, #100]	; 0x64
 80016d8:	9302      	str	r3, [sp, #8]
 80016da:	6abb      	ldr	r3, [r7, #40]	; 0x28
 80016dc:	9301      	str	r3, [sp, #4]
 80016de:	4628      	mov	r0, r5
 80016e0:	4633      	mov	r3, r6
 80016e2:	9200      	str	r2, [sp, #0]
 80016e4:	4651      	mov	r1, sl
 80016e6:	2201      	movs	r2, #1
 80016e8:	f004 fb05 	bl	8005cf6 <my_masked_xor_asm>
 80016ec:	6e7a      	ldr	r2, [r7, #100]	; 0x64
 80016ee:	6a39      	ldr	r1, [r7, #32]
 80016f0:	9200      	str	r2, [sp, #0]
 80016f2:	4633      	mov	r3, r6
 80016f4:	4628      	mov	r0, r5
 80016f6:	2201      	movs	r2, #1
 80016f8:	e9cd 8401 	strd	r8, r4, [sp, #4]
 80016fc:	f004 fafb 	bl	8005cf6 <my_masked_xor_asm>
 8001700:	4649      	mov	r1, r9
 8001702:	4628      	mov	r0, r5
 8001704:	6dba      	ldr	r2, [r7, #88]	; 0x58
 8001706:	9400      	str	r4, [sp, #0]
 8001708:	4653      	mov	r3, sl
 800170a:	e9cd 8401 	strd	r8, r4, [sp, #4]
 800170e:	f004 faf2 	bl	8005cf6 <my_masked_xor_asm>
 8001712:	693e      	ldr	r6, [r7, #16]
 8001714:	4628      	mov	r0, r5
 8001716:	45b3      	cmp	fp, r6
 8001718:	697d      	ldr	r5, [r7, #20]
 800171a:	6abe      	ldr	r6, [r7, #40]	; 0x28
 800171c:	442e      	add	r6, r5
 800171e:	69bd      	ldr	r5, [r7, #24]
 8001720:	62be      	str	r6, [r7, #40]	; 0x28
 8001722:	f04f 0201 	mov.w	r2, #1
 8001726:	4653      	mov	r3, sl
 8001728:	4641      	mov	r1, r8
 800172a:	4493      	add	fp, r2
 800172c:	44a9      	add	r9, r5
 800172e:	d1b8      	bne.n	80016a2 <secadd+0xaa>
 8001730:	69fd      	ldr	r5, [r7, #28]
 8001732:	68ba      	ldr	r2, [r7, #8]
 8001734:	6afe      	ldr	r6, [r7, #44]	; 0x2c
 8001736:	4295      	cmp	r5, r2
 8001738:	d016      	beq.n	8001768 <secadd+0x170>
 800173a:	6a3a      	ldr	r2, [r7, #32]
 800173c:	f8d7 9024 	ldr.w	r9, [r7, #36]	; 0x24
 8001740:	9402      	str	r4, [sp, #8]
 8001742:	e9cd 4200 	strd	r4, r2, [sp]
 8001746:	4648      	mov	r0, r9
 8001748:	2201      	movs	r2, #1
 800174a:	f004 fa39 	bl	8005bc0 <my_masked_and_asm>
 800174e:	6e7a      	ldr	r2, [r7, #100]	; 0x64
 8001750:	69b8      	ldr	r0, [r7, #24]
 8001752:	9400      	str	r4, [sp, #0]
 8001754:	687c      	ldr	r4, [r7, #4]
 8001756:	e9cd 6201 	strd	r6, r2, [sp, #4]
 800175a:	fb05 4100 	mla	r1, r5, r0, r4
 800175e:	6dba      	ldr	r2, [r7, #88]	; 0x58
 8001760:	4643      	mov	r3, r8
 8001762:	4648      	mov	r0, r9
 8001764:	f004 fac7 	bl	8005cf6 <my_masked_xor_asm>
 8001768:	3734      	adds	r7, #52	; 0x34
 800176a:	46bd      	mov	sp, r7
 800176c:	e8bd 8ff0 	ldmia.w	sp!, {r4, r5, r6, r7, r8, r9, sl, fp, pc}

08001770 <secadd_constant_bmsk>:
 8001770:	e92d 4ff0 	stmdb	sp!, {r4, r5, r6, r7, r8, r9, sl, fp, lr}
 8001774:	0084      	lsls	r4, r0, #2
 8001776:	b08f      	sub	sp, #60	; 0x3c
 8001778:	3407      	adds	r4, #7
 800177a:	af04      	add	r7, sp, #16
 800177c:	f024 0407 	bic.w	r4, r4, #7
 8001780:	f8c7 d000 	str.w	sp, [r7]
 8001784:	ebad 0d04 	sub.w	sp, sp, r4
 8001788:	f10d 0b10 	add.w	fp, sp, #16
 800178c:	ebad 0d04 	sub.w	sp, sp, r4
 8001790:	f10d 0a10 	add.w	sl, sp, #16
 8001794:	ebad 0d04 	sub.w	sp, sp, r4
 8001798:	e9c7 3201 	strd	r3, r2, [r7, #4]
 800179c:	ab04      	add	r3, sp, #16
 800179e:	617b      	str	r3, [r7, #20]
 80017a0:	6e7b      	ldr	r3, [r7, #100]	; 0x64
 80017a2:	f8d7 9058 	ldr.w	r9, [r7, #88]	; 0x58
 80017a6:	61f9      	str	r1, [r7, #28]
 80017a8:	f013 0301 	ands.w	r3, r3, #1
 80017ac:	4680      	mov	r8, r0
 80017ae:	f040 80fb 	bne.w	80019a8 <secadd_constant_bmsk+0x238>
 80017b2:	b3a8      	cbz	r0, 8001820 <secadd_constant_bmsk+0xb0>
 80017b4:	1e42      	subs	r2, r0, #1
 80017b6:	2a05      	cmp	r2, #5
 80017b8:	f3cb 0680 	ubfx	r6, fp, #2, #1
 80017bc:	d914      	bls.n	80017e8 <secadd_constant_bmsk+0x78>
 80017be:	b10e      	cbz	r6, 80017c4 <secadd_constant_bmsk+0x54>
 80017c0:	f8cb 3000 	str.w	r3, [fp]
 80017c4:	eba8 0506 	sub.w	r5, r8, r6
 80017c8:	086c      	lsrs	r4, r5, #1
 80017ca:	eb0b 0286 	add.w	r2, fp, r6, lsl #2
 80017ce:	2000      	movs	r0, #0
 80017d0:	2100      	movs	r1, #0
 80017d2:	3301      	adds	r3, #1
 80017d4:	429c      	cmp	r4, r3
 80017d6:	e8e2 0102 	strd	r0, r1, [r2], #8
 80017da:	d1fa      	bne.n	80017d2 <secadd_constant_bmsk+0x62>
 80017dc:	f025 0201 	bic.w	r2, r5, #1
 80017e0:	4295      	cmp	r5, r2
 80017e2:	eb06 0302 	add.w	r3, r6, r2
 80017e6:	d01b      	beq.n	8001820 <secadd_constant_bmsk+0xb0>
 80017e8:	1c59      	adds	r1, r3, #1
 80017ea:	2200      	movs	r2, #0
 80017ec:	4588      	cmp	r8, r1
 80017ee:	f84b 2023 	str.w	r2, [fp, r3, lsl #2]
 80017f2:	d915      	bls.n	8001820 <secadd_constant_bmsk+0xb0>
 80017f4:	1c98      	adds	r0, r3, #2
 80017f6:	4580      	cmp	r8, r0
 80017f8:	f84b 2021 	str.w	r2, [fp, r1, lsl #2]
 80017fc:	d910      	bls.n	8001820 <secadd_constant_bmsk+0xb0>
 80017fe:	1cd9      	adds	r1, r3, #3
 8001800:	4588      	cmp	r8, r1
 8001802:	f84b 2020 	str.w	r2, [fp, r0, lsl #2]
 8001806:	d90b      	bls.n	8001820 <secadd_constant_bmsk+0xb0>
 8001808:	1d18      	adds	r0, r3, #4
 800180a:	4580      	cmp	r8, r0
 800180c:	f84b 2021 	str.w	r2, [fp, r1, lsl #2]
 8001810:	d906      	bls.n	8001820 <secadd_constant_bmsk+0xb0>
 8001812:	3305      	adds	r3, #5
 8001814:	4598      	cmp	r8, r3
 8001816:	f84b 2020 	str.w	r2, [fp, r0, lsl #2]
 800181a:	d901      	bls.n	8001820 <secadd_constant_bmsk+0xb0>
 800181c:	f84b 2023 	str.w	r2, [fp, r3, lsl #2]
 8001820:	6dfb      	ldr	r3, [r7, #92]	; 0x5c
 8001822:	9300      	str	r3, [sp, #0]
 8001824:	6d3a      	ldr	r2, [r7, #80]	; 0x50
 8001826:	6879      	ldr	r1, [r7, #4]
 8001828:	464b      	mov	r3, r9
 800182a:	4640      	mov	r0, r8
 800182c:	f004 fa8d 	bl	8005d4a <copy_sharing_asm>
 8001830:	69fb      	ldr	r3, [r7, #28]
 8001832:	2b01      	cmp	r3, #1
 8001834:	f240 809a 	bls.w	800196c <secadd_constant_bmsk+0x1fc>
 8001838:	6e3b      	ldr	r3, [r7, #96]	; 0x60
 800183a:	6d7a      	ldr	r2, [r7, #84]	; 0x54
 800183c:	eb09 0483 	add.w	r4, r9, r3, lsl #2
 8001840:	009b      	lsls	r3, r3, #2
 8001842:	60fb      	str	r3, [r7, #12]
 8001844:	69fb      	ldr	r3, [r7, #28]
 8001846:	3b01      	subs	r3, #1
 8001848:	61bb      	str	r3, [r7, #24]
 800184a:	6d7b      	ldr	r3, [r7, #84]	; 0x54
 800184c:	009b      	lsls	r3, r3, #2
 800184e:	613b      	str	r3, [r7, #16]
 8001850:	687b      	ldr	r3, [r7, #4]
 8001852:	2501      	movs	r5, #1
 8001854:	eb03 0982 	add.w	r9, r3, r2, lsl #2
 8001858:	4643      	mov	r3, r8
 800185a:	e9c7 5408 	strd	r5, r4, [r7, #32]
 800185e:	46d0      	mov	r8, sl
 8001860:	462e      	mov	r6, r5
 8001862:	469a      	mov	sl, r3
 8001864:	e040      	b.n	80018e8 <secadd_constant_bmsk+0x178>
 8001866:	6efd      	ldr	r5, [r7, #108]	; 0x6c
 8001868:	9502      	str	r5, [sp, #8]
 800186a:	6ebd      	ldr	r5, [r7, #104]	; 0x68
 800186c:	9501      	str	r5, [sp, #4]
 800186e:	6dfd      	ldr	r5, [r7, #92]	; 0x5c
 8001870:	9500      	str	r5, [sp, #0]
 8001872:	f004 fa40 	bl	8005cf6 <my_masked_xor_asm>
 8001876:	e9cd b601 	strd	fp, r6, [sp, #4]
 800187a:	6dfb      	ldr	r3, [r7, #92]	; 0x5c
 800187c:	9300      	str	r3, [sp, #0]
 800187e:	6a7b      	ldr	r3, [r7, #36]	; 0x24
 8001880:	6979      	ldr	r1, [r7, #20]
 8001882:	2201      	movs	r2, #1
 8001884:	4650      	mov	r0, sl
 8001886:	f004 fa36 	bl	8005cf6 <my_masked_xor_asm>
 800188a:	e9cd b601 	strd	fp, r6, [sp, #4]
 800188e:	9600      	str	r6, [sp, #0]
 8001890:	6d3a      	ldr	r2, [r7, #80]	; 0x50
 8001892:	4643      	mov	r3, r8
 8001894:	4649      	mov	r1, r9
 8001896:	4650      	mov	r0, sl
 8001898:	f004 fa2d 	bl	8005cf6 <my_masked_xor_asm>
 800189c:	69bd      	ldr	r5, [r7, #24]
 800189e:	6a3c      	ldr	r4, [r7, #32]
 80018a0:	42ac      	cmp	r4, r5
 80018a2:	4643      	mov	r3, r8
 80018a4:	4659      	mov	r1, fp
 80018a6:	4650      	mov	r0, sl
 80018a8:	f04f 0201 	mov.w	r2, #1
 80018ac:	d042      	beq.n	8001934 <secadd_constant_bmsk+0x1c4>
 80018ae:	9602      	str	r6, [sp, #8]
 80018b0:	697d      	ldr	r5, [r7, #20]
 80018b2:	e9cd 6500 	strd	r6, r5, [sp]
 80018b6:	f004 f983 	bl	8005bc0 <my_masked_and_asm>
 80018ba:	6dfb      	ldr	r3, [r7, #92]	; 0x5c
 80018bc:	9302      	str	r3, [sp, #8]
 80018be:	6a7b      	ldr	r3, [r7, #36]	; 0x24
 80018c0:	2201      	movs	r2, #1
 80018c2:	e9cd 6300 	strd	r6, r3, [sp]
 80018c6:	4659      	mov	r1, fp
 80018c8:	465b      	mov	r3, fp
 80018ca:	4650      	mov	r0, sl
 80018cc:	f004 fa13 	bl	8005cf6 <my_masked_xor_asm>
 80018d0:	68fb      	ldr	r3, [r7, #12]
 80018d2:	6a79      	ldr	r1, [r7, #36]	; 0x24
 80018d4:	6a3a      	ldr	r2, [r7, #32]
 80018d6:	4419      	add	r1, r3
 80018d8:	693b      	ldr	r3, [r7, #16]
 80018da:	6279      	str	r1, [r7, #36]	; 0x24
 80018dc:	4499      	add	r9, r3
 80018de:	69fb      	ldr	r3, [r7, #28]
 80018e0:	3201      	adds	r2, #1
 80018e2:	4293      	cmp	r3, r2
 80018e4:	623a      	str	r2, [r7, #32]
 80018e6:	d041      	beq.n	800196c <secadd_constant_bmsk+0x1fc>
 80018e8:	6e7d      	ldr	r5, [r7, #100]	; 0x64
 80018ea:	6a3c      	ldr	r4, [r7, #32]
 80018ec:	6a7b      	ldr	r3, [r7, #36]	; 0x24
 80018ee:	fa25 fc04 	lsr.w	ip, r5, r4
 80018f2:	f01c 0f01 	tst.w	ip, #1
 80018f6:	4641      	mov	r1, r8
 80018f8:	4650      	mov	r0, sl
 80018fa:	f04f 0201 	mov.w	r2, #1
 80018fe:	d1b2      	bne.n	8001866 <secadd_constant_bmsk+0xf6>
 8001900:	9602      	str	r6, [sp, #8]
 8001902:	6a7b      	ldr	r3, [r7, #36]	; 0x24
 8001904:	e9cd 6300 	strd	r6, r3, [sp]
 8001908:	4649      	mov	r1, r9
 800190a:	6d3a      	ldr	r2, [r7, #80]	; 0x50
 800190c:	465b      	mov	r3, fp
 800190e:	f004 f9f2 	bl	8005cf6 <my_masked_xor_asm>
 8001912:	69bb      	ldr	r3, [r7, #24]
 8001914:	6a3a      	ldr	r2, [r7, #32]
 8001916:	429a      	cmp	r2, r3
 8001918:	4659      	mov	r1, fp
 800191a:	465b      	mov	r3, fp
 800191c:	f04f 0201 	mov.w	r2, #1
 8001920:	4650      	mov	r0, sl
 8001922:	d029      	beq.n	8001978 <secadd_constant_bmsk+0x208>
 8001924:	6dfd      	ldr	r5, [r7, #92]	; 0x5c
 8001926:	9502      	str	r5, [sp, #8]
 8001928:	6a7c      	ldr	r4, [r7, #36]	; 0x24
 800192a:	e9cd 6400 	strd	r6, r4, [sp]
 800192e:	f004 f947 	bl	8005bc0 <my_masked_and_asm>
 8001932:	e7cd      	b.n	80018d0 <secadd_constant_bmsk+0x160>
 8001934:	69fd      	ldr	r5, [r7, #28]
 8001936:	68ba      	ldr	r2, [r7, #8]
 8001938:	6a7c      	ldr	r4, [r7, #36]	; 0x24
 800193a:	4295      	cmp	r5, r2
 800193c:	46c2      	mov	sl, r8
 800193e:	4680      	mov	r8, r0
 8001940:	d014      	beq.n	800196c <secadd_constant_bmsk+0x1fc>
 8001942:	9602      	str	r6, [sp, #8]
 8001944:	697b      	ldr	r3, [r7, #20]
 8001946:	2201      	movs	r2, #1
 8001948:	e9cd 6300 	strd	r6, r3, [sp]
 800194c:	4653      	mov	r3, sl
 800194e:	f004 f937 	bl	8005bc0 <my_masked_and_asm>
 8001952:	6dfb      	ldr	r3, [r7, #92]	; 0x5c
 8001954:	9600      	str	r6, [sp, #0]
 8001956:	e9cd 4301 	strd	r4, r3, [sp, #4]
 800195a:	6878      	ldr	r0, [r7, #4]
 800195c:	6939      	ldr	r1, [r7, #16]
 800195e:	6d3a      	ldr	r2, [r7, #80]	; 0x50
 8001960:	fb01 0105 	mla	r1, r1, r5, r0
 8001964:	465b      	mov	r3, fp
 8001966:	4640      	mov	r0, r8
 8001968:	f004 f9c5 	bl	8005cf6 <my_masked_xor_asm>
 800196c:	f8d7 d000 	ldr.w	sp, [r7]
 8001970:	372c      	adds	r7, #44	; 0x2c
 8001972:	46bd      	mov	sp, r7
 8001974:	e8bd 8ff0 	ldmia.w	sp!, {r4, r5, r6, r7, r8, r9, sl, fp, pc}
 8001978:	69f9      	ldr	r1, [r7, #28]
 800197a:	68ba      	ldr	r2, [r7, #8]
 800197c:	6a7c      	ldr	r4, [r7, #36]	; 0x24
 800197e:	4291      	cmp	r1, r2
 8001980:	d0f4      	beq.n	800196c <secadd_constant_bmsk+0x1fc>
 8001982:	6dfb      	ldr	r3, [r7, #92]	; 0x5c
 8001984:	9600      	str	r6, [sp, #0]
 8001986:	e9cd 4301 	strd	r4, r3, [sp, #4]
 800198a:	6938      	ldr	r0, [r7, #16]
 800198c:	687c      	ldr	r4, [r7, #4]
 800198e:	6d3a      	ldr	r2, [r7, #80]	; 0x50
 8001990:	fb00 4101 	mla	r1, r0, r1, r4
 8001994:	465b      	mov	r3, fp
 8001996:	4650      	mov	r0, sl
 8001998:	f004 f912 	bl	8005bc0 <my_masked_and_asm>
 800199c:	f8d7 d000 	ldr.w	sp, [r7]
 80019a0:	372c      	adds	r7, #44	; 0x2c
 80019a2:	46bd      	mov	sp, r7
 80019a4:	e8bd 8ff0 	ldmia.w	sp!, {r4, r5, r6, r7, r8, r9, sl, fp, pc}
 80019a8:	6efb      	ldr	r3, [r7, #108]	; 0x6c
 80019aa:	9302      	str	r3, [sp, #8]
 80019ac:	6ebb      	ldr	r3, [r7, #104]	; 0x68
 80019ae:	9301      	str	r3, [sp, #4]
 80019b0:	6dfb      	ldr	r3, [r7, #92]	; 0x5c
 80019b2:	9300      	str	r3, [sp, #0]
 80019b4:	4659      	mov	r1, fp
 80019b6:	464b      	mov	r3, r9
 80019b8:	2201      	movs	r2, #1
 80019ba:	f004 f901 	bl	8005bc0 <my_masked_and_asm>
 80019be:	6efb      	ldr	r3, [r7, #108]	; 0x6c
 80019c0:	9302      	str	r3, [sp, #8]
 80019c2:	6ebb      	ldr	r3, [r7, #104]	; 0x68
 80019c4:	9301      	str	r3, [sp, #4]
 80019c6:	6dfb      	ldr	r3, [r7, #92]	; 0x5c
 80019c8:	9300      	str	r3, [sp, #0]
 80019ca:	6d3a      	ldr	r2, [r7, #80]	; 0x50
 80019cc:	6879      	ldr	r1, [r7, #4]
 80019ce:	464b      	mov	r3, r9
 80019d0:	4640      	mov	r0, r8
 80019d2:	f004 f990 	bl	8005cf6 <my_masked_xor_asm>
 80019d6:	e72b      	b.n	8001830 <secadd_constant_bmsk+0xc0>

080019d8 <secadd_modp>:
 80019d8:	e92d 4ff0 	stmdb	sp!, {r4, r5, r6, r7, r8, r9, sl, fp, lr}
 80019dc:	fb01 0400 	mla	r4, r1, r0, r0
 80019e0:	00a4      	lsls	r4, r4, #2
 80019e2:	3407      	adds	r4, #7
 80019e4:	b08b      	sub	sp, #44	; 0x2c
 80019e6:	f024 0407 	bic.w	r4, r4, #7
 80019ea:	af08      	add	r7, sp, #32
 80019ec:	ebad 0d04 	sub.w	sp, sp, r4
 80019f0:	f10d 0b20 	add.w	fp, sp, #32
 80019f4:	ebad 0d04 	sub.w	sp, sp, r4
 80019f8:	461e      	mov	r6, r3
 80019fa:	6cfb      	ldr	r3, [r7, #76]	; 0x4c
 80019fc:	9307      	str	r3, [sp, #28]
 80019fe:	6cbb      	ldr	r3, [r7, #72]	; 0x48
 8001a00:	9306      	str	r3, [sp, #24]
 8001a02:	6c7b      	ldr	r3, [r7, #68]	; 0x44
 8001a04:	9305      	str	r3, [sp, #20]
 8001a06:	6c3b      	ldr	r3, [r7, #64]	; 0x40
 8001a08:	9304      	str	r3, [sp, #16]
 8001a0a:	6bfb      	ldr	r3, [r7, #60]	; 0x3c
 8001a0c:	9303      	str	r3, [sp, #12]
 8001a0e:	2401      	movs	r4, #1
 8001a10:	6bbb      	ldr	r3, [r7, #56]	; 0x38
 8001a12:	9001      	str	r0, [sp, #4]
 8001a14:	4615      	mov	r5, r2
 8001a16:	9302      	str	r3, [sp, #8]
 8001a18:	190a      	adds	r2, r1, r4
 8001a1a:	465b      	mov	r3, fp
 8001a1c:	9400      	str	r4, [sp, #0]
 8001a1e:	4680      	mov	r8, r0
 8001a20:	4689      	mov	r9, r1
 8001a22:	607a      	str	r2, [r7, #4]
 8001a24:	f7ff fde8 	bl	80015f8 <secadd>
 8001a28:	687a      	ldr	r2, [r7, #4]
 8001a2a:	f8cd 8000 	str.w	r8, [sp]
 8001a2e:	fa04 f102 	lsl.w	r1, r4, r2
 8001a32:	f10d 0a20 	add.w	sl, sp, #32
 8001a36:	1b49      	subs	r1, r1, r5
 8001a38:	9103      	str	r1, [sp, #12]
 8001a3a:	4653      	mov	r3, sl
 8001a3c:	4611      	mov	r1, r2
 8001a3e:	4640      	mov	r0, r8
 8001a40:	e9cd b801 	strd	fp, r8, [sp, #4]
 8001a44:	f003 fdb6 	bl	80055b4 <secadd_constant.constprop.0>
 8001a48:	6b7b      	ldr	r3, [r7, #52]	; 0x34
 8001a4a:	9301      	str	r3, [sp, #4]
 8001a4c:	fb09 f208 	mul.w	r2, r9, r8
 8001a50:	6b3b      	ldr	r3, [r7, #48]	; 0x30
 8001a52:	9300      	str	r3, [sp, #0]
 8001a54:	eb0a 0282 	add.w	r2, sl, r2, lsl #2
 8001a58:	9206      	str	r2, [sp, #24]
 8001a5a:	e9cd 8504 	strd	r8, r5, [sp, #16]
 8001a5e:	f8cd a008 	str.w	sl, [sp, #8]
 8001a62:	9407      	str	r4, [sp, #28]
 8001a64:	9403      	str	r4, [sp, #12]
 8001a66:	4633      	mov	r3, r6
 8001a68:	4640      	mov	r0, r8
 8001a6a:	464a      	mov	r2, r9
 8001a6c:	4649      	mov	r1, r9
 8001a6e:	f7ff fe7f 	bl	8001770 <secadd_constant_bmsk>
 8001a72:	370c      	adds	r7, #12
 8001a74:	46bd      	mov	sp, r7
 8001a76:	e8bd 8ff0 	ldmia.w	sp!, {r4, r5, r6, r7, r8, r9, sl, fp, pc}
 8001a7a:	bf00      	nop

08001a7c <seca2b_modp>:
 8001a7c:	e92d 4ff0 	stmdb	sp!, {r4, r5, r6, r7, r8, r9, sl, fp, lr}
 8001a80:	b09b      	sub	sp, #108	; 0x6c
 8001a82:	af08      	add	r7, sp, #32
 8001a84:	2801      	cmp	r0, #1
 8001a86:	e9c7 2306 	strd	r2, r3, [r7, #24]
 8001a8a:	4680      	mov	r8, r0
 8001a8c:	6379      	str	r1, [r7, #52]	; 0x34
 8001a8e:	f000 8174 	beq.w	8001d7a <seca2b_modp+0x2fe>
 8001a92:	4668      	mov	r0, sp
 8001a94:	6038      	str	r0, [r7, #0]
 8001a96:	6f78      	ldr	r0, [r7, #116]	; 0x74
 8001a98:	9001      	str	r0, [sp, #4]
 8001a9a:	6f38      	ldr	r0, [r7, #112]	; 0x70
 8001a9c:	9000      	str	r0, [sp, #0]
 8001a9e:	ea4f 0958 	mov.w	r9, r8, lsr #1
 8001aa2:	4648      	mov	r0, r9
 8001aa4:	f7ff ffea 	bl	8001a7c <seca2b_modp>
 8001aa8:	6b79      	ldr	r1, [r7, #52]	; 0x34
 8001aaa:	6f3b      	ldr	r3, [r7, #112]	; 0x70
 8001aac:	6f7e      	ldr	r6, [r7, #116]	; 0x74
 8001aae:	1c4c      	adds	r4, r1, #1
 8001ab0:	eba8 0258 	sub.w	r2, r8, r8, lsr #1
 8001ab4:	62fa      	str	r2, [r7, #44]	; 0x2c
 8001ab6:	60fc      	str	r4, [r7, #12]
 8001ab8:	fb03 f509 	mul.w	r5, r3, r9
 8001abc:	69fb      	ldr	r3, [r7, #28]
 8001abe:	9601      	str	r6, [sp, #4]
 8001ac0:	6f3e      	ldr	r6, [r7, #112]	; 0x70
 8001ac2:	9600      	str	r6, [sp, #0]
 8001ac4:	f8d7 a018 	ldr.w	sl, [r7, #24]
 8001ac8:	00a6      	lsls	r6, r4, #2
 8001aca:	eb03 0585 	add.w	r5, r3, r5, lsl #2
 8001ace:	4610      	mov	r0, r2
 8001ad0:	462b      	mov	r3, r5
 8001ad2:	4652      	mov	r2, sl
 8001ad4:	607e      	str	r6, [r7, #4]
 8001ad6:	468b      	mov	fp, r1
 8001ad8:	f7ff ffd0 	bl	8001a7c <seca2b_modp>
 8001adc:	fb06 f308 	mul.w	r3, r6, r8
 8001ae0:	3307      	adds	r3, #7
 8001ae2:	f023 0307 	bic.w	r3, r3, #7
 8001ae6:	ebad 0d03 	sub.w	sp, sp, r3
 8001aea:	ae08      	add	r6, sp, #32
 8001aec:	2101      	movs	r1, #1
 8001aee:	ebad 0d03 	sub.w	sp, sp, r3
 8001af2:	643e      	str	r6, [r7, #64]	; 0x40
 8001af4:	fa01 f204 	lsl.w	r2, r1, r4
 8001af8:	4650      	mov	r0, sl
 8001afa:	ae08      	add	r6, sp, #32
 8001afc:	ebad 0d03 	sub.w	sp, sp, r3
 8001b00:	1a12      	subs	r2, r2, r0
 8001b02:	6f78      	ldr	r0, [r7, #116]	; 0x74
 8001b04:	9004      	str	r0, [sp, #16]
 8001b06:	6f38      	ldr	r0, [r7, #112]	; 0x70
 8001b08:	9003      	str	r0, [sp, #12]
 8001b0a:	69f8      	ldr	r0, [r7, #28]
 8001b0c:	9100      	str	r1, [sp, #0]
 8001b0e:	e9cd 8001 	strd	r8, r0, [sp, #4]
 8001b12:	9205      	str	r2, [sp, #20]
 8001b14:	46a2      	mov	sl, r4
 8001b16:	4622      	mov	r2, r4
 8001b18:	ac08      	add	r4, sp, #32
 8001b1a:	60bc      	str	r4, [r7, #8]
 8001b1c:	6c3b      	ldr	r3, [r7, #64]	; 0x40
 8001b1e:	4648      	mov	r0, r9
 8001b20:	4659      	mov	r1, fp
 8001b22:	4654      	mov	r4, sl
 8001b24:	f7ff fbe6 	bl	80012f4 <secadd_constant>
 8001b28:	2c00      	cmp	r4, #0
 8001b2a:	f000 80fd 	beq.w	8001d28 <seca2b_modp+0x2ac>
 8001b2e:	6afa      	ldr	r2, [r7, #44]	; 0x2c
 8001b30:	f8c7 903c 	str.w	r9, [r7, #60]	; 0x3c
 8001b34:	f022 0101 	bic.w	r1, r2, #1
 8001b38:	6139      	str	r1, [r7, #16]
 8001b3a:	4449      	add	r1, r9
 8001b3c:	6339      	str	r1, [r7, #48]	; 0x30
 8001b3e:	6f79      	ldr	r1, [r7, #116]	; 0x74
 8001b40:	0089      	lsls	r1, r1, #2
 8001b42:	462b      	mov	r3, r5
 8001b44:	62b9      	str	r1, [r7, #40]	; 0x28
 8001b46:	f109 31ff 	add.w	r1, r9, #4294967295	; 0xffffffff
 8001b4a:	2400      	movs	r4, #0
 8001b4c:	6279      	str	r1, [r7, #36]	; 0x24
 8001b4e:	647b      	str	r3, [r7, #68]	; 0x44
 8001b50:	0851      	lsrs	r1, r2, #1
 8001b52:	6b7b      	ldr	r3, [r7, #52]	; 0x34
 8001b54:	63bc      	str	r4, [r7, #56]	; 0x38
 8001b56:	3a01      	subs	r2, #1
 8001b58:	623a      	str	r2, [r7, #32]
 8001b5a:	4622      	mov	r2, r4
 8001b5c:	4293      	cmp	r3, r2
 8001b5e:	4625      	mov	r5, r4
 8001b60:	6179      	str	r1, [r7, #20]
 8001b62:	f04f 0a00 	mov.w	sl, #0
 8001b66:	f04f 0b00 	mov.w	fp, #0
 8001b6a:	f200 80a7 	bhi.w	8001cbc <seca2b_modp+0x240>
 8001b6e:	f1b9 0f00 	cmp.w	r9, #0
 8001b72:	d03f      	beq.n	8001bf4 <seca2b_modp+0x178>
 8001b74:	6a7b      	ldr	r3, [r7, #36]	; 0x24
 8001b76:	eb06 0084 	add.w	r0, r6, r4, lsl #2
 8001b7a:	2b05      	cmp	r3, #5
 8001b7c:	f3c0 0080 	ubfx	r0, r0, #2, #1
 8001b80:	f240 8101 	bls.w	8001d86 <seca2b_modp+0x30a>
 8001b84:	b108      	cbz	r0, 8001b8a <seca2b_modp+0x10e>
 8001b86:	f846 5024 	str.w	r5, [r6, r4, lsl #2]
 8001b8a:	eba9 0e00 	sub.w	lr, r9, r0
 8001b8e:	1821      	adds	r1, r4, r0
 8001b90:	6c7b      	ldr	r3, [r7, #68]	; 0x44
 8001b92:	ea4f 0c5e 	mov.w	ip, lr, lsr #1
 8001b96:	eb06 0181 	add.w	r1, r6, r1, lsl #2
 8001b9a:	2200      	movs	r2, #0
 8001b9c:	3201      	adds	r2, #1
 8001b9e:	4562      	cmp	r2, ip
 8001ba0:	e8e1 ab02 	strd	sl, fp, [r1], #8
 8001ba4:	d1fa      	bne.n	8001b9c <seca2b_modp+0x120>
 8001ba6:	f02e 0201 	bic.w	r2, lr, #1
 8001baa:	4596      	cmp	lr, r2
 8001bac:	647b      	str	r3, [r7, #68]	; 0x44
 8001bae:	4410      	add	r0, r2
 8001bb0:	d020      	beq.n	8001bf4 <seca2b_modp+0x178>
 8001bb2:	1821      	adds	r1, r4, r0
 8001bb4:	1c42      	adds	r2, r0, #1
 8001bb6:	4591      	cmp	r9, r2
 8001bb8:	f846 5021 	str.w	r5, [r6, r1, lsl #2]
 8001bbc:	d91a      	bls.n	8001bf4 <seca2b_modp+0x178>
 8001bbe:	4422      	add	r2, r4
 8001bc0:	1c81      	adds	r1, r0, #2
 8001bc2:	4589      	cmp	r9, r1
 8001bc4:	f846 5022 	str.w	r5, [r6, r2, lsl #2]
 8001bc8:	d914      	bls.n	8001bf4 <seca2b_modp+0x178>
 8001bca:	4421      	add	r1, r4
 8001bcc:	1cc2      	adds	r2, r0, #3
 8001bce:	4591      	cmp	r9, r2
 8001bd0:	f846 5021 	str.w	r5, [r6, r1, lsl #2]
 8001bd4:	d90e      	bls.n	8001bf4 <seca2b_modp+0x178>
 8001bd6:	4422      	add	r2, r4
 8001bd8:	1d01      	adds	r1, r0, #4
 8001bda:	4589      	cmp	r9, r1
 8001bdc:	f846 5022 	str.w	r5, [r6, r2, lsl #2]
 8001be0:	d908      	bls.n	8001bf4 <seca2b_modp+0x178>
 8001be2:	4421      	add	r1, r4
 8001be4:	3005      	adds	r0, #5
 8001be6:	4581      	cmp	r9, r0
 8001be8:	f846 5021 	str.w	r5, [r6, r1, lsl #2]
 8001bec:	d902      	bls.n	8001bf4 <seca2b_modp+0x178>
 8001bee:	4420      	add	r0, r4
 8001bf0:	f846 5020 	str.w	r5, [r6, r0, lsl #2]
 8001bf4:	45c1      	cmp	r9, r8
 8001bf6:	d24f      	bcs.n	8001c98 <seca2b_modp+0x21c>
 8001bf8:	e9d7 320d 	ldrd	r3, r2, [r7, #52]	; 0x34
 8001bfc:	4293      	cmp	r3, r2
 8001bfe:	d968      	bls.n	8001cd2 <seca2b_modp+0x256>
 8001c00:	6c3b      	ldr	r3, [r7, #64]	; 0x40
 8001c02:	6bf9      	ldr	r1, [r7, #60]	; 0x3c
 8001c04:	6a38      	ldr	r0, [r7, #32]
 8001c06:	eb03 0281 	add.w	r2, r3, r1, lsl #2
 8001c0a:	2805      	cmp	r0, #5
 8001c0c:	f3c2 0280 	ubfx	r2, r2, #2, #1
 8001c10:	f240 80c6 	bls.w	8001da0 <seca2b_modp+0x324>
 8001c14:	2a00      	cmp	r2, #0
 8001c16:	f000 80b4 	beq.w	8001d82 <seca2b_modp+0x306>
 8001c1a:	f843 5021 	str.w	r5, [r3, r1, lsl #2]
 8001c1e:	f109 0001 	add.w	r0, r9, #1
 8001c22:	6afb      	ldr	r3, [r7, #44]	; 0x2c
 8001c24:	eba3 0e02 	sub.w	lr, r3, r2
 8001c28:	6bfb      	ldr	r3, [r7, #60]	; 0x3c
 8001c2a:	441a      	add	r2, r3
 8001c2c:	6c3b      	ldr	r3, [r7, #64]	; 0x40
 8001c2e:	eb03 0282 	add.w	r2, r3, r2, lsl #2
 8001c32:	6c7b      	ldr	r3, [r7, #68]	; 0x44
 8001c34:	ea4f 0c5e 	mov.w	ip, lr, lsr #1
 8001c38:	2100      	movs	r1, #0
 8001c3a:	3101      	adds	r1, #1
 8001c3c:	4561      	cmp	r1, ip
 8001c3e:	e8e2 ab02 	strd	sl, fp, [r2], #8
 8001c42:	d1fa      	bne.n	8001c3a <seca2b_modp+0x1be>
 8001c44:	f02e 0201 	bic.w	r2, lr, #1
 8001c48:	4596      	cmp	lr, r2
 8001c4a:	647b      	str	r3, [r7, #68]	; 0x44
 8001c4c:	eb00 0302 	add.w	r3, r0, r2
 8001c50:	d022      	beq.n	8001c98 <seca2b_modp+0x21c>
 8001c52:	6c38      	ldr	r0, [r7, #64]	; 0x40
 8001c54:	1919      	adds	r1, r3, r4
 8001c56:	1c5a      	adds	r2, r3, #1
 8001c58:	4590      	cmp	r8, r2
 8001c5a:	f840 5021 	str.w	r5, [r0, r1, lsl #2]
 8001c5e:	d91b      	bls.n	8001c98 <seca2b_modp+0x21c>
 8001c60:	4422      	add	r2, r4
 8001c62:	1c99      	adds	r1, r3, #2
 8001c64:	4588      	cmp	r8, r1
 8001c66:	f840 5022 	str.w	r5, [r0, r2, lsl #2]
 8001c6a:	d915      	bls.n	8001c98 <seca2b_modp+0x21c>
 8001c6c:	4421      	add	r1, r4
 8001c6e:	1cda      	adds	r2, r3, #3
 8001c70:	4590      	cmp	r8, r2
 8001c72:	f840 5021 	str.w	r5, [r0, r1, lsl #2]
 8001c76:	d90f      	bls.n	8001c98 <seca2b_modp+0x21c>
 8001c78:	4422      	add	r2, r4
 8001c7a:	1d19      	adds	r1, r3, #4
 8001c7c:	4588      	cmp	r8, r1
 8001c7e:	f840 5022 	str.w	r5, [r0, r2, lsl #2]
 8001c82:	d909      	bls.n	8001c98 <seca2b_modp+0x21c>
 8001c84:	4602      	mov	r2, r0
 8001c86:	4421      	add	r1, r4
 8001c88:	1d58      	adds	r0, r3, #5
 8001c8a:	4580      	cmp	r8, r0
 8001c8c:	f842 5021 	str.w	r5, [r2, r1, lsl #2]
 8001c90:	d902      	bls.n	8001c98 <seca2b_modp+0x21c>
 8001c92:	4420      	add	r0, r4
 8001c94:	f842 5020 	str.w	r5, [r2, r0, lsl #2]
 8001c98:	6bfb      	ldr	r3, [r7, #60]	; 0x3c
 8001c9a:	6c7a      	ldr	r2, [r7, #68]	; 0x44
 8001c9c:	6bb9      	ldr	r1, [r7, #56]	; 0x38
 8001c9e:	4443      	add	r3, r8
 8001ca0:	63fb      	str	r3, [r7, #60]	; 0x3c
 8001ca2:	6abb      	ldr	r3, [r7, #40]	; 0x28
 8001ca4:	441a      	add	r2, r3
 8001ca6:	6b7b      	ldr	r3, [r7, #52]	; 0x34
 8001ca8:	647a      	str	r2, [r7, #68]	; 0x44
 8001caa:	428b      	cmp	r3, r1
 8001cac:	4444      	add	r4, r8
 8001cae:	f101 0201 	add.w	r2, r1, #1
 8001cb2:	d039      	beq.n	8001d28 <seca2b_modp+0x2ac>
 8001cb4:	4293      	cmp	r3, r2
 8001cb6:	63ba      	str	r2, [r7, #56]	; 0x38
 8001cb8:	f67f af59 	bls.w	8001b6e <seca2b_modp+0xf2>
 8001cbc:	6f3b      	ldr	r3, [r7, #112]	; 0x70
 8001cbe:	9300      	str	r3, [sp, #0]
 8001cc0:	6bf9      	ldr	r1, [r7, #60]	; 0x3c
 8001cc2:	6c7b      	ldr	r3, [r7, #68]	; 0x44
 8001cc4:	6af8      	ldr	r0, [r7, #44]	; 0x2c
 8001cc6:	2201      	movs	r2, #1
 8001cc8:	eb06 0181 	add.w	r1, r6, r1, lsl #2
 8001ccc:	f004 f83d 	bl	8005d4a <copy_sharing_asm>
 8001cd0:	e74d      	b.n	8001b6e <seca2b_modp+0xf2>
 8001cd2:	6bfb      	ldr	r3, [r7, #60]	; 0x3c
 8001cd4:	6c3a      	ldr	r2, [r7, #64]	; 0x40
 8001cd6:	eb06 0183 	add.w	r1, r6, r3, lsl #2
 8001cda:	eb02 0283 	add.w	r2, r2, r3, lsl #2
 8001cde:	ea41 0c02 	orr.w	ip, r1, r2
 8001ce2:	f01c 0f07 	tst.w	ip, #7
 8001ce6:	4610      	mov	r0, r2
 8001ce8:	ea4f 0e83 	mov.w	lr, r3, lsl #2
 8001cec:	d14d      	bne.n	8001d8a <seca2b_modp+0x30e>
 8001cee:	6a3b      	ldr	r3, [r7, #32]
 8001cf0:	2b0c      	cmp	r3, #12
 8001cf2:	d94a      	bls.n	8001d8a <seca2b_modp+0x30e>
 8001cf4:	f1a6 0108 	sub.w	r1, r6, #8
 8001cf8:	6c7b      	ldr	r3, [r7, #68]	; 0x44
 8001cfa:	6978      	ldr	r0, [r7, #20]
 8001cfc:	448e      	add	lr, r1
 8001cfe:	2100      	movs	r1, #0
 8001d00:	3101      	adds	r1, #1
 8001d02:	4281      	cmp	r1, r0
 8001d04:	e9ee ab02 	strd	sl, fp, [lr, #8]!
 8001d08:	e8e2 ab02 	strd	sl, fp, [r2], #8
 8001d0c:	d1f8      	bne.n	8001d00 <seca2b_modp+0x284>
 8001d0e:	693a      	ldr	r2, [r7, #16]
 8001d10:	647b      	str	r3, [r7, #68]	; 0x44
 8001d12:	6afb      	ldr	r3, [r7, #44]	; 0x2c
 8001d14:	4293      	cmp	r3, r2
 8001d16:	d0bf      	beq.n	8001c98 <seca2b_modp+0x21c>
 8001d18:	6b3a      	ldr	r2, [r7, #48]	; 0x30
 8001d1a:	6c39      	ldr	r1, [r7, #64]	; 0x40
 8001d1c:	4422      	add	r2, r4
 8001d1e:	f846 5022 	str.w	r5, [r6, r2, lsl #2]
 8001d22:	f841 5022 	str.w	r5, [r1, r2, lsl #2]
 8001d26:	e7b7      	b.n	8001c98 <seca2b_modp+0x21c>
 8001d28:	f8cd 801c 	str.w	r8, [sp, #28]
 8001d2c:	6c3b      	ldr	r3, [r7, #64]	; 0x40
 8001d2e:	e9cd 8601 	strd	r8, r6, [sp, #4]
 8001d32:	e9cd 8304 	strd	r8, r3, [sp, #16]
 8001d36:	2401      	movs	r4, #1
 8001d38:	9406      	str	r4, [sp, #24]
 8001d3a:	9403      	str	r4, [sp, #12]
 8001d3c:	9400      	str	r4, [sp, #0]
 8001d3e:	68bd      	ldr	r5, [r7, #8]
 8001d40:	68fa      	ldr	r2, [r7, #12]
 8001d42:	462b      	mov	r3, r5
 8001d44:	4611      	mov	r1, r2
 8001d46:	4640      	mov	r0, r8
 8001d48:	f7ff fc56 	bl	80015f8 <secadd>
 8001d4c:	6879      	ldr	r1, [r7, #4]
 8001d4e:	9403      	str	r4, [sp, #12]
 8001d50:	1f0b      	subs	r3, r1, #4
 8001d52:	fb08 5303 	mla	r3, r8, r3, r5
 8001d56:	e9cd 3406 	strd	r3, r4, [sp, #24]
 8001d5a:	69bb      	ldr	r3, [r7, #24]
 8001d5c:	9502      	str	r5, [sp, #8]
 8001d5e:	e9cd 8304 	strd	r8, r3, [sp, #16]
 8001d62:	6f7b      	ldr	r3, [r7, #116]	; 0x74
 8001d64:	9301      	str	r3, [sp, #4]
 8001d66:	6f3b      	ldr	r3, [r7, #112]	; 0x70
 8001d68:	9300      	str	r3, [sp, #0]
 8001d6a:	6b7a      	ldr	r2, [r7, #52]	; 0x34
 8001d6c:	69fb      	ldr	r3, [r7, #28]
 8001d6e:	4640      	mov	r0, r8
 8001d70:	4611      	mov	r1, r2
 8001d72:	f7ff fcfd 	bl	8001770 <secadd_constant_bmsk>
 8001d76:	f8d7 d000 	ldr.w	sp, [r7]
 8001d7a:	374c      	adds	r7, #76	; 0x4c
 8001d7c:	46bd      	mov	sp, r7
 8001d7e:	e8bd 8ff0 	ldmia.w	sp!, {r4, r5, r6, r7, r8, r9, sl, fp, pc}
 8001d82:	4648      	mov	r0, r9
 8001d84:	e74d      	b.n	8001c22 <seca2b_modp+0x1a6>
 8001d86:	2000      	movs	r0, #0
 8001d88:	e713      	b.n	8001bb2 <seca2b_modp+0x136>
 8001d8a:	6c7b      	ldr	r3, [r7, #68]	; 0x44
 8001d8c:	464a      	mov	r2, r9
 8001d8e:	3201      	adds	r2, #1
 8001d90:	4590      	cmp	r8, r2
 8001d92:	f841 5b04 	str.w	r5, [r1], #4
 8001d96:	f840 5b04 	str.w	r5, [r0], #4
 8001d9a:	d1f8      	bne.n	8001d8e <seca2b_modp+0x312>
 8001d9c:	647b      	str	r3, [r7, #68]	; 0x44
 8001d9e:	e77b      	b.n	8001c98 <seca2b_modp+0x21c>
 8001da0:	464b      	mov	r3, r9
 8001da2:	e756      	b.n	8001c52 <seca2b_modp+0x1d6>

08001da4 <RefreshIOS_rec>:
 8001da4:	2901      	cmp	r1, #1
 8001da6:	d013      	beq.n	8001dd0 <RefreshIOS_rec+0x2c>
 8001da8:	2902      	cmp	r1, #2
 8001daa:	b570      	push	{r4, r5, r6, lr}
 8001dac:	d003      	beq.n	8001db6 <RefreshIOS_rec+0x12>
 8001dae:	e8bd 4070 	ldmia.w	sp!, {r4, r5, r6, lr}
 8001db2:	f002 bfb5 	b.w	8004d20 <RefreshIOS_rec.part.0>
 8001db6:	4616      	mov	r6, r2
 8001db8:	461d      	mov	r5, r3
 8001dba:	f7fe f921 	bl	8000000 <get_random>
 8001dbe:	6833      	ldr	r3, [r6, #0]
 8001dc0:	4043      	eors	r3, r0
 8001dc2:	6033      	str	r3, [r6, #0]
 8001dc4:	f856 3025 	ldr.w	r3, [r6, r5, lsl #2]
 8001dc8:	4058      	eors	r0, r3
 8001dca:	f846 0025 	str.w	r0, [r6, r5, lsl #2]
 8001dce:	bd70      	pop	{r4, r5, r6, pc}
 8001dd0:	4770      	bx	lr
 8001dd2:	bf00      	nop

08001dd4 <cipher>:
 8001dd4:	e92d 4ff0 	stmdb	sp!, {r4, r5, r6, r7, r8, r9, sl, fp, lr}
 8001dd8:	b0dd      	sub	sp, #372	; 0x174
 8001dda:	af06      	add	r7, sp, #24
 8001ddc:	466d      	mov	r5, sp
 8001dde:	4604      	mov	r4, r0
 8001de0:	f8c7 012c 	str.w	r0, [r7, #300]	; 0x12c
 8001de4:	eba5 10c0 	sub.w	r0, r5, r0, lsl #7
 8001de8:	4685      	mov	sp, r0
 8001dea:	466e      	mov	r6, sp
 8001dec:	eb04 0044 	add.w	r0, r4, r4, lsl #1
 8001df0:	eba6 15c4 	sub.w	r5, r6, r4, lsl #7
 8001df4:	f10d 0918 	add.w	r9, sp, #24
 8001df8:	46ad      	mov	sp, r5
 8001dfa:	eba5 1540 	sub.w	r5, r5, r0, lsl #5
 8001dfe:	f10d 0818 	add.w	r8, sp, #24
 8001e02:	46ad      	mov	sp, r5
 8001e04:	ad06      	add	r5, sp, #24
 8001e06:	f8c7 5134 	str.w	r5, [r7, #308]	; 0x134
 8001e0a:	466d      	mov	r5, sp
 8001e0c:	eba5 1040 	sub.w	r0, r5, r0, lsl #5
 8001e10:	4685      	mov	sp, r0
 8001e12:	f8c7 3128 	str.w	r3, [r7, #296]	; 0x128
 8001e16:	ab06      	add	r3, sp, #24
 8001e18:	e9c7 1248 	strd	r1, r2, [r7, #288]	; 0x120
 8001e1c:	f8c7 3144 	str.w	r3, [r7, #324]	; 0x144
 8001e20:	1e62      	subs	r2, r4, #1
 8001e22:	ea4f 0344 	mov.w	r3, r4, lsl #1
 8001e26:	f8c7 3130 	str.w	r3, [r7, #304]	; 0x130
 8001e2a:	f8c7 2138 	str.w	r2, [r7, #312]	; 0x138
 8001e2e:	f001 85ea 	beq.w	8003a06 <cipher+0x1c32>
 8001e32:	f8c7 313c 	str.w	r3, [r7, #316]	; 0x13c
 8001e36:	00a3      	lsls	r3, r4, #2
 8001e38:	eb08 1b84 	add.w	fp, r8, r4, lsl #6
 8001e3c:	f8c7 3148 	str.w	r3, [r7, #328]	; 0x148
 8001e40:	2200      	movs	r2, #0
 8001e42:	eb09 1384 	add.w	r3, r9, r4, lsl #6
 8001e46:	465e      	mov	r6, fp
 8001e48:	fa1f fa81 	uxth.w	sl, r1
 8001e4c:	f8c7 2140 	str.w	r2, [r7, #320]	; 0x140
 8001e50:	469b      	mov	fp, r3
 8001e52:	f8d7 3140 	ldr.w	r3, [r7, #320]	; 0x140
 8001e56:	f8d7 413c 	ldr.w	r4, [r7, #316]	; 0x13c
 8001e5a:	2210      	movs	r2, #16
 8001e5c:	4631      	mov	r1, r6
 8001e5e:	005d      	lsls	r5, r3, #1
 8001e60:	465e      	mov	r6, fp
 8001e62:	4693      	mov	fp, r2
 8001e64:	f507 70aa 	add.w	r0, r7, #340	; 0x154
 8001e68:	f8c7 114c 	str.w	r1, [r7, #332]	; 0x14c
 8001e6c:	f7fe f8da 	bl	8000024 <rand_q>
 8001e70:	f9b7 3154 	ldrsh.w	r3, [r7, #340]	; 0x154
 8001e74:	f9b7 0156 	ldrsh.w	r0, [r7, #342]	; 0x156
 8001e78:	f829 3005 	strh.w	r3, [r9, r5]
 8001e7c:	ebaa 0303 	sub.w	r3, sl, r3
 8001e80:	f828 3005 	strh.w	r3, [r8, r5]
 8001e84:	ebaa 0300 	sub.w	r3, sl, r0
 8001e88:	f829 0004 	strh.w	r0, [r9, r4]
 8001e8c:	f828 3004 	strh.w	r3, [r8, r4]
 8001e90:	f507 70aa 	add.w	r0, r7, #340	; 0x154
 8001e94:	f7fe f8c6 	bl	8000024 <rand_q>
 8001e98:	f9b7 3154 	ldrsh.w	r3, [r7, #340]	; 0x154
 8001e9c:	f9b7 0156 	ldrsh.w	r0, [r7, #342]	; 0x156
 8001ea0:	f8d7 114c 	ldr.w	r1, [r7, #332]	; 0x14c
 8001ea4:	f8d7 2148 	ldr.w	r2, [r7, #328]	; 0x148
 8001ea8:	5373      	strh	r3, [r6, r5]
 8001eaa:	ebaa 0c00 	sub.w	ip, sl, r0
 8001eae:	ebaa 0303 	sub.w	r3, sl, r3
 8001eb2:	f1bb 0b01 	subs.w	fp, fp, #1
 8001eb6:	534b      	strh	r3, [r1, r5]
 8001eb8:	5330      	strh	r0, [r6, r4]
 8001eba:	f821 c004 	strh.w	ip, [r1, r4]
 8001ebe:	4415      	add	r5, r2
 8001ec0:	4414      	add	r4, r2
 8001ec2:	d1cf      	bne.n	8001e64 <cipher+0x90>
 8001ec4:	465a      	mov	r2, fp
 8001ec6:	46b3      	mov	fp, r6
 8001ec8:	460e      	mov	r6, r1
 8001eca:	f8d7 113c 	ldr.w	r1, [r7, #316]	; 0x13c
 8001ece:	f8d7 3140 	ldr.w	r3, [r7, #320]	; 0x140
 8001ed2:	3102      	adds	r1, #2
 8001ed4:	f8c7 113c 	str.w	r1, [r7, #316]	; 0x13c
 8001ed8:	f8d7 1138 	ldr.w	r1, [r7, #312]	; 0x138
 8001edc:	3301      	adds	r3, #1
 8001ede:	428b      	cmp	r3, r1
 8001ee0:	f8c7 3140 	str.w	r3, [r7, #320]	; 0x140
 8001ee4:	d1b5      	bne.n	8001e52 <cipher+0x7e>
 8001ee6:	f8d7 412c 	ldr.w	r4, [r7, #300]	; 0x12c
 8001eea:	e9cd 8400 	strd	r8, r4, [sp]
 8001eee:	4616      	mov	r6, r2
 8001ef0:	e9d7 104d 	ldrd	r1, r0, [r7, #308]	; 0x134
 8001ef4:	4623      	mov	r3, r4
 8001ef6:	2201      	movs	r2, #1
 8001ef8:	f003 fcce 	bl	8005898 <masked_dense2bitslice_opt.constprop.0>
 8001efc:	f8d7 2130 	ldr.w	r2, [r7, #304]	; 0x130
 8001f00:	f8d7 5148 	ldr.w	r5, [r7, #328]	; 0x148
 8001f04:	4422      	add	r2, r4
 8001f06:	f8c7 214c 	str.w	r2, [r7, #332]	; 0x14c
 8001f0a:	192b      	adds	r3, r5, r4
 8001f0c:	eb04 0343 	add.w	r3, r4, r3, lsl #1
 8001f10:	eb04 0582 	add.w	r5, r4, r2, lsl #2
 8001f14:	f8d7 214c 	ldr.w	r2, [r7, #332]	; 0x14c
 8001f18:	f8c7 5110 	str.w	r5, [r7, #272]	; 0x110
 8001f1c:	eba5 0a03 	sub.w	sl, r5, r3
 8001f20:	eb0a 0882 	add.w	r8, sl, r2, lsl #2
 8001f24:	f8d7 214c 	ldr.w	r2, [r7, #332]	; 0x14c
 8001f28:	eba8 0e03 	sub.w	lr, r8, r3
 8001f2c:	eb0e 0c82 	add.w	ip, lr, r2, lsl #2
 8001f30:	f8d7 214c 	ldr.w	r2, [r7, #332]	; 0x14c
 8001f34:	ebac 0503 	sub.w	r5, ip, r3
 8001f38:	eb05 0482 	add.w	r4, r5, r2, lsl #2
 8001f3c:	1ae0      	subs	r0, r4, r3
 8001f3e:	eb00 0282 	add.w	r2, r0, r2, lsl #2
 8001f42:	f8c7 213c 	str.w	r2, [r7, #316]	; 0x13c
 8001f46:	f8d7 113c 	ldr.w	r1, [r7, #316]	; 0x13c
 8001f4a:	461a      	mov	r2, r3
 8001f4c:	1acb      	subs	r3, r1, r3
 8001f4e:	f8d7 114c 	ldr.w	r1, [r7, #332]	; 0x14c
 8001f52:	f8c7 3114 	str.w	r3, [r7, #276]	; 0x114
 8001f56:	eb03 0b81 	add.w	fp, r3, r1, lsl #2
 8001f5a:	465b      	mov	r3, fp
 8001f5c:	1a9b      	subs	r3, r3, r2
 8001f5e:	f8c7 b118 	str.w	fp, [r7, #280]	; 0x118
 8001f62:	f8c7 311c 	str.w	r3, [r7, #284]	; 0x11c
 8001f66:	eb03 0b81 	add.w	fp, r3, r1, lsl #2
 8001f6a:	f8d7 3110 	ldr.w	r3, [r7, #272]	; 0x110
 8001f6e:	f8c7 2140 	str.w	r2, [r7, #320]	; 0x140
 8001f72:	3b01      	subs	r3, #1
 8001f74:	461a      	mov	r2, r3
 8001f76:	f8d7 313c 	ldr.w	r3, [r7, #316]	; 0x13c
 8001f7a:	1e59      	subs	r1, r3, #1
 8001f7c:	f8d7 3114 	ldr.w	r3, [r7, #276]	; 0x114
 8001f80:	f8c7 113c 	str.w	r1, [r7, #316]	; 0x13c
 8001f84:	3801      	subs	r0, #1
 8001f86:	f8c7 0110 	str.w	r0, [r7, #272]	; 0x110
 8001f8a:	1e58      	subs	r0, r3, #1
 8001f8c:	f8d7 3118 	ldr.w	r3, [r7, #280]	; 0x118
 8001f90:	f8c7 0114 	str.w	r0, [r7, #276]	; 0x114
 8001f94:	1e59      	subs	r1, r3, #1
 8001f96:	f8d7 311c 	ldr.w	r3, [r7, #284]	; 0x11c
 8001f9a:	f8c7 1118 	str.w	r1, [r7, #280]	; 0x118
 8001f9e:	3b01      	subs	r3, #1
 8001fa0:	f8c7 311c 	str.w	r3, [r7, #284]	; 0x11c
 8001fa4:	f8d7 3140 	ldr.w	r3, [r7, #320]	; 0x140
 8001fa8:	ebab 0103 	sub.w	r1, fp, r3
 8001fac:	e9d7 034d 	ldrd	r0, r3, [r7, #308]	; 0x134
 8001fb0:	f10a 3aff 	add.w	sl, sl, #4294967295	; 0xffffffff
 8001fb4:	f840 6023 	str.w	r6, [r0, r3, lsl #2]
 8001fb8:	f108 38ff 	add.w	r8, r8, #4294967295	; 0xffffffff
 8001fbc:	f840 6022 	str.w	r6, [r0, r2, lsl #2]
 8001fc0:	f8d7 314c 	ldr.w	r3, [r7, #332]	; 0x14c
 8001fc4:	f840 602a 	str.w	r6, [r0, sl, lsl #2]
 8001fc8:	4602      	mov	r2, r0
 8001fca:	f10e 3eff 	add.w	lr, lr, #4294967295	; 0xffffffff
 8001fce:	f840 6028 	str.w	r6, [r0, r8, lsl #2]
 8001fd2:	f842 602e 	str.w	r6, [r2, lr, lsl #2]
 8001fd6:	eb01 0083 	add.w	r0, r1, r3, lsl #2
 8001fda:	f8d7 3140 	ldr.w	r3, [r7, #320]	; 0x140
 8001fde:	f10c 3cff 	add.w	ip, ip, #4294967295	; 0xffffffff
 8001fe2:	3d01      	subs	r5, #1
 8001fe4:	3c01      	subs	r4, #1
 8001fe6:	f101 38ff 	add.w	r8, r1, #4294967295	; 0xffffffff
 8001fea:	1ac1      	subs	r1, r0, r3
 8001fec:	f8d7 314c 	ldr.w	r3, [r7, #332]	; 0x14c
 8001ff0:	f842 602c 	str.w	r6, [r2, ip, lsl #2]
 8001ff4:	f101 3eff 	add.w	lr, r1, #4294967295	; 0xffffffff
 8001ff8:	f842 6025 	str.w	r6, [r2, r5, lsl #2]
 8001ffc:	f842 6024 	str.w	r6, [r2, r4, lsl #2]
 8002000:	eb01 0483 	add.w	r4, r1, r3, lsl #2
 8002004:	f8d7 1110 	ldr.w	r1, [r7, #272]	; 0x110
 8002008:	f8d7 3140 	ldr.w	r3, [r7, #320]	; 0x140
 800200c:	f842 6021 	str.w	r6, [r2, r1, lsl #2]
 8002010:	f8d7 113c 	ldr.w	r1, [r7, #316]	; 0x13c
 8002014:	f8d7 5118 	ldr.w	r5, [r7, #280]	; 0x118
 8002018:	f842 6021 	str.w	r6, [r2, r1, lsl #2]
 800201c:	1ae1      	subs	r1, r4, r3
 800201e:	f8d7 3114 	ldr.w	r3, [r7, #276]	; 0x114
 8002022:	f842 6023 	str.w	r6, [r2, r3, lsl #2]
 8002026:	f8d7 314c 	ldr.w	r3, [r7, #332]	; 0x14c
 800202a:	f842 6025 	str.w	r6, [r2, r5, lsl #2]
 800202e:	eb01 0583 	add.w	r5, r1, r3, lsl #2
 8002032:	f8d7 3140 	ldr.w	r3, [r7, #320]	; 0x140
 8002036:	f101 3aff 	add.w	sl, r1, #4294967295	; 0xffffffff
 800203a:	eba5 0c03 	sub.w	ip, r5, r3
 800203e:	f8d7 111c 	ldr.w	r1, [r7, #284]	; 0x11c
 8002042:	f8d7 314c 	ldr.w	r3, [r7, #332]	; 0x14c
 8002046:	f842 6021 	str.w	r6, [r2, r1, lsl #2]
 800204a:	3801      	subs	r0, #1
 800204c:	f10b 3bff 	add.w	fp, fp, #4294967295	; 0xffffffff
 8002050:	4611      	mov	r1, r2
 8002052:	f842 602b 	str.w	r6, [r2, fp, lsl #2]
 8002056:	f842 6028 	str.w	r6, [r2, r8, lsl #2]
 800205a:	f842 6020 	str.w	r6, [r2, r0, lsl #2]
 800205e:	eb0c 0083 	add.w	r0, ip, r3, lsl #2
 8002062:	f8d7 3140 	ldr.w	r3, [r7, #320]	; 0x140
 8002066:	f8d7 214c 	ldr.w	r2, [r7, #332]	; 0x14c
 800206a:	f841 602e 	str.w	r6, [r1, lr, lsl #2]
 800206e:	1ac3      	subs	r3, r0, r3
 8002070:	3c01      	subs	r4, #1
 8002072:	3d01      	subs	r5, #1
 8002074:	eb03 0282 	add.w	r2, r3, r2, lsl #2
 8002078:	3a01      	subs	r2, #1
 800207a:	3b01      	subs	r3, #1
 800207c:	3801      	subs	r0, #1
 800207e:	f10c 3cff 	add.w	ip, ip, #4294967295	; 0xffffffff
 8002082:	f841 6024 	str.w	r6, [r1, r4, lsl #2]
 8002086:	f841 602a 	str.w	r6, [r1, sl, lsl #2]
 800208a:	f8d7 4138 	ldr.w	r4, [r7, #312]	; 0x138
 800208e:	f841 6025 	str.w	r6, [r1, r5, lsl #2]
 8002092:	f8d7 5128 	ldr.w	r5, [r7, #296]	; 0x128
 8002096:	f841 602c 	str.w	r6, [r1, ip, lsl #2]
 800209a:	f841 6020 	str.w	r6, [r1, r0, lsl #2]
 800209e:	f841 6023 	str.w	r6, [r1, r3, lsl #2]
 80020a2:	f841 6022 	str.w	r6, [r1, r2, lsl #2]
 80020a6:	fb04 fa05 	mul.w	sl, r4, r5
 80020aa:	f8d7 512c 	ldr.w	r5, [r7, #300]	; 0x12c
 80020ae:	f8d7 8134 	ldr.w	r8, [r7, #308]	; 0x134
 80020b2:	f8d7 6120 	ldr.w	r6, [r7, #288]	; 0x120
 80020b6:	462b      	mov	r3, r5
 80020b8:	4642      	mov	r2, r8
 80020ba:	4631      	mov	r1, r6
 80020bc:	4628      	mov	r0, r5
 80020be:	f002 fe89 	bl	8004dd4 <seca2b_modp.constprop.0>
 80020c2:	f8d7 4130 	ldr.w	r4, [r7, #304]	; 0x130
 80020c6:	f8c7 8134 	str.w	r8, [r7, #308]	; 0x134
 80020ca:	442c      	add	r4, r5
 80020cc:	462b      	mov	r3, r5
 80020ce:	4628      	mov	r0, r5
 80020d0:	eb08 1504 	add.w	r5, r8, r4, lsl #4
 80020d4:	469b      	mov	fp, r3
 80020d6:	46b0      	mov	r8, r6
 80020d8:	462a      	mov	r2, r5
 80020da:	4631      	mov	r1, r6
 80020dc:	00a6      	lsls	r6, r4, #2
 80020de:	0124      	lsls	r4, r4, #4
 80020e0:	f8c7 6114 	str.w	r6, [r7, #276]	; 0x114
 80020e4:	f8c7 414c 	str.w	r4, [r7, #332]	; 0x14c
 80020e8:	f002 fe74 	bl	8004dd4 <seca2b_modp.constprop.0>
 80020ec:	f8cd b010 	str.w	fp, [sp, #16]
 80020f0:	f8d7 2134 	ldr.w	r2, [r7, #308]	; 0x134
 80020f4:	9203      	str	r2, [sp, #12]
 80020f6:	f8d7 3180 	ldr.w	r3, [r7, #384]	; 0x180
 80020fa:	9302      	str	r3, [sp, #8]
 80020fc:	f8d7 4128 	ldr.w	r4, [r7, #296]	; 0x128
 8002100:	9401      	str	r4, [sp, #4]
 8002102:	f8d7 3124 	ldr.w	r3, [r7, #292]	; 0x124
 8002106:	9300      	str	r3, [sp, #0]
 8002108:	f8d7 6144 	ldr.w	r6, [r7, #324]	; 0x144
 800210c:	4658      	mov	r0, fp
 800210e:	465b      	mov	r3, fp
 8002110:	4632      	mov	r2, r6
 8002112:	4641      	mov	r1, r8
 8002114:	f003 f85c 	bl	80051d0 <secadd_modp.constprop.0>
 8002118:	f8d7 214c 	ldr.w	r2, [r7, #332]	; 0x14c
 800211c:	f8d7 3124 	ldr.w	r3, [r7, #292]	; 0x124
 8002120:	f8c7 6144 	str.w	r6, [r7, #324]	; 0x144
 8002124:	9503      	str	r5, [sp, #12]
 8002126:	f8cd b010 	str.w	fp, [sp, #16]
 800212a:	465d      	mov	r5, fp
 800212c:	4416      	add	r6, r2
 800212e:	4413      	add	r3, r2
 8002130:	f8d7 2180 	ldr.w	r2, [r7, #384]	; 0x180
 8002134:	9202      	str	r2, [sp, #8]
 8002136:	f8c7 4128 	str.w	r4, [r7, #296]	; 0x128
 800213a:	9401      	str	r4, [sp, #4]
 800213c:	086c      	lsrs	r4, r5, #1
 800213e:	9300      	str	r3, [sp, #0]
 8002140:	f8c7 4130 	str.w	r4, [r7, #304]	; 0x130
 8002144:	08ec      	lsrs	r4, r5, #3
 8002146:	4641      	mov	r1, r8
 8002148:	4632      	mov	r2, r6
 800214a:	465b      	mov	r3, fp
 800214c:	4658      	mov	r0, fp
 800214e:	f8c7 410c 	str.w	r4, [r7, #268]	; 0x10c
 8002152:	f003 f83d 	bl	80051d0 <secadd_modp.constprop.0>
 8002156:	f8d7 4130 	ldr.w	r4, [r7, #304]	; 0x130
 800215a:	eba4 019b 	sub.w	r1, r4, fp, lsr #2
 800215e:	f8c7 1120 	str.w	r1, [r7, #288]	; 0x120
 8002162:	e9cd 9b00 	strd	r9, fp, [sp]
 8002166:	f8c7 4130 	str.w	r4, [r7, #304]	; 0x130
 800216a:	1b2c      	subs	r4, r5, r4
 800216c:	f8d7 2128 	ldr.w	r2, [r7, #296]	; 0x128
 8002170:	f8c7 4128 	str.w	r4, [r7, #296]	; 0x128
 8002174:	f8d7 410c 	ldr.w	r4, [r7, #268]	; 0x10c
 8002178:	f8d7 b124 	ldr.w	fp, [r7, #292]	; 0x124
 800217c:	f8d7 0138 	ldr.w	r0, [r7, #312]	; 0x138
 8002180:	f8d7 3180 	ldr.w	r3, [r7, #384]	; 0x180
 8002184:	eba4 1c15 	sub.w	ip, r4, r5, lsr #4
 8002188:	f8d7 410c 	ldr.w	r4, [r7, #268]	; 0x10c
 800218c:	f8c7 c0cc 	str.w	ip, [r7, #204]	; 0xcc
 8002190:	ebc4 0c95 	rsb	ip, r4, r5, lsr #2
 8002194:	092c      	lsrs	r4, r5, #4
 8002196:	4659      	mov	r1, fp
 8002198:	f8c7 c0f8 	str.w	ip, [r7, #248]	; 0xf8
 800219c:	f8c7 40dc 	str.w	r4, [r7, #220]	; 0xdc
 80021a0:	f003 fb7a 	bl	8005898 <masked_dense2bitslice_opt.constprop.0>
 80021a4:	f8d7 4128 	ldr.w	r4, [r7, #296]	; 0x128
 80021a8:	f8d7 3120 	ldr.w	r3, [r7, #288]	; 0x120
 80021ac:	08e2      	lsrs	r2, r4, #3
 80021ae:	f8c7 20bc 	str.w	r2, [r7, #188]	; 0xbc
 80021b2:	f8d7 20cc 	ldr.w	r2, [r7, #204]	; 0xcc
 80021b6:	0858      	lsrs	r0, r3, #1
 80021b8:	f8c7 00fc 	str.w	r0, [r7, #252]	; 0xfc
 80021bc:	08d9      	lsrs	r1, r3, #3
 80021be:	0898      	lsrs	r0, r3, #2
 80021c0:	0853      	lsrs	r3, r2, #1
 80021c2:	f8d7 20f8 	ldr.w	r2, [r7, #248]	; 0xf8
 80021c6:	f8c7 00f0 	str.w	r0, [r7, #240]	; 0xf0
 80021ca:	0850      	lsrs	r0, r2, #1
 80021cc:	f8c7 00c4 	str.w	r0, [r7, #196]	; 0xc4
 80021d0:	0890      	lsrs	r0, r2, #2
 80021d2:	67f9      	str	r1, [r7, #124]	; 0x7c
 80021d4:	f8c7 308c 	str.w	r3, [r7, #140]	; 0x8c
 80021d8:	0861      	lsrs	r1, r4, #1
 80021da:	f025 0303 	bic.w	r3, r5, #3
 80021de:	f8c7 00b8 	str.w	r0, [r7, #184]	; 0xb8
 80021e2:	4628      	mov	r0, r5
 80021e4:	096d      	lsrs	r5, r5, #5
 80021e6:	f8c7 1124 	str.w	r1, [r7, #292]	; 0x124
 80021ea:	f8c7 50e4 	str.w	r5, [r7, #228]	; 0xe4
 80021ee:	08a1      	lsrs	r1, r4, #2
 80021f0:	f8d7 50dc 	ldr.w	r5, [r7, #220]	; 0xdc
 80021f4:	f8c7 1104 	str.w	r1, [r7, #260]	; 0x104
 80021f8:	0921      	lsrs	r1, r4, #4
 80021fa:	f8c7 10c0 	str.w	r1, [r7, #192]	; 0xc0
 80021fe:	00a9      	lsls	r1, r5, #2
 8002200:	f8d7 50fc 	ldr.w	r5, [r7, #252]	; 0xfc
 8002204:	f8d7 210c 	ldr.w	r2, [r7, #268]	; 0x10c
 8002208:	00ad      	lsls	r5, r5, #2
 800220a:	f8c7 50a4 	str.w	r5, [r7, #164]	; 0xa4
 800220e:	f8d7 50f0 	ldr.w	r5, [r7, #240]	; 0xf0
 8002212:	0092      	lsls	r2, r2, #2
 8002214:	f8c7 213c 	str.w	r2, [r7, #316]	; 0x13c
 8002218:	00aa      	lsls	r2, r5, #2
 800221a:	6ffd      	ldr	r5, [r7, #124]	; 0x7c
 800221c:	f8c7 2088 	str.w	r2, [r7, #136]	; 0x88
 8002220:	00ad      	lsls	r5, r5, #2
 8002222:	66fd      	str	r5, [r7, #108]	; 0x6c
 8002224:	f8d7 5124 	ldr.w	r5, [r7, #292]	; 0x124
 8002228:	00ad      	lsls	r5, r5, #2
 800222a:	f8c7 50d4 	str.w	r5, [r7, #212]	; 0xd4
 800222e:	f8d7 5104 	ldr.w	r5, [r7, #260]	; 0x104
 8002232:	00aa      	lsls	r2, r5, #2
 8002234:	f8d7 50bc 	ldr.w	r5, [r7, #188]	; 0xbc
 8002238:	f8c7 20b4 	str.w	r2, [r7, #180]	; 0xb4
 800223c:	00ad      	lsls	r5, r5, #2
 800223e:	f8c7 5084 	str.w	r5, [r7, #132]	; 0x84
 8002242:	f8d7 50c0 	ldr.w	r5, [r7, #192]	; 0xc0
 8002246:	00aa      	lsls	r2, r5, #2
 8002248:	f8c7 2080 	str.w	r2, [r7, #128]	; 0x80
 800224c:	f8d7 508c 	ldr.w	r5, [r7, #140]	; 0x8c
 8002250:	f8c7 3138 	str.w	r3, [r7, #312]	; 0x138
 8002254:	00ad      	lsls	r5, r5, #2
 8002256:	67bd      	str	r5, [r7, #120]	; 0x78
 8002258:	f8d7 50c4 	ldr.w	r5, [r7, #196]	; 0xc4
 800225c:	f8c7 012c 	str.w	r0, [r7, #300]	; 0x12c
 8002260:	00ad      	lsls	r5, r5, #2
 8002262:	f8c7 50a8 	str.w	r5, [r7, #168]	; 0xa8
 8002266:	f8d7 50b8 	ldr.w	r5, [r7, #184]	; 0xb8
 800226a:	00aa      	lsls	r2, r5, #2
 800226c:	f8d7 5114 	ldr.w	r5, [r7, #276]	; 0x114
 8002270:	673a      	str	r2, [r7, #112]	; 0x70
 8002272:	eb05 090a 	add.w	r9, r5, sl
 8002276:	f8d7 5130 	ldr.w	r5, [r7, #304]	; 0x130
 800227a:	f8d7 20e4 	ldr.w	r2, [r7, #228]	; 0xe4
 800227e:	46ac      	mov	ip, r5
 8002280:	f8d7 514c 	ldr.w	r5, [r7, #332]	; 0x14c
 8002284:	eb05 0c8c 	add.w	ip, r5, ip, lsl #2
 8002288:	f8c7 c140 	str.w	ip, [r7, #320]	; 0x140
 800228c:	469c      	mov	ip, r3
 800228e:	eb0c 0805 	add.w	r8, ip, r5
 8002292:	eba4 0c54 	sub.w	ip, r4, r4, lsr #1
 8002296:	f8d7 4114 	ldr.w	r4, [r7, #276]	; 0x114
 800229a:	f8c7 c110 	str.w	ip, [r7, #272]	; 0x110
 800229e:	46a4      	mov	ip, r4
 80022a0:	eb05 0e82 	add.w	lr, r5, r2, lsl #2
 80022a4:	4494      	add	ip, r2
 80022a6:	f8d7 20dc 	ldr.w	r2, [r7, #220]	; 0xdc
 80022aa:	f8d7 314c 	ldr.w	r3, [r7, #332]	; 0x14c
 80022ae:	f8c7 614c 	str.w	r6, [r7, #332]	; 0x14c
 80022b2:	18a2      	adds	r2, r4, r2
 80022b4:	f8c7 2108 	str.w	r2, [r7, #264]	; 0x108
 80022b8:	f8d7 213c 	ldr.w	r2, [r7, #316]	; 0x13c
 80022bc:	f8d7 60a4 	ldr.w	r6, [r7, #164]	; 0xa4
 80022c0:	18cd      	adds	r5, r1, r3
 80022c2:	4413      	add	r3, r2
 80022c4:	f8c7 30f4 	str.w	r3, [r7, #244]	; 0xf4
 80022c8:	f8d7 210c 	ldr.w	r2, [r7, #268]	; 0x10c
 80022cc:	eb04 0390 	add.w	r3, r4, r0, lsr #2
 80022d0:	f8d7 0130 	ldr.w	r0, [r7, #304]	; 0x130
 80022d4:	f8c7 30e0 	str.w	r3, [r7, #224]	; 0xe0
 80022d8:	18a2      	adds	r2, r4, r2
 80022da:	4404      	add	r4, r0
 80022dc:	1f33      	subs	r3, r6, #4
 80022de:	f8c7 40d0 	str.w	r4, [r7, #208]	; 0xd0
 80022e2:	f8d7 6088 	ldr.w	r6, [r7, #136]	; 0x88
 80022e6:	f8c7 3098 	str.w	r3, [r7, #152]	; 0x98
 80022ea:	0084      	lsls	r4, r0, #2
 80022ec:	f8d7 0180 	ldr.w	r0, [r7, #384]	; 0x180
 80022f0:	f8c7 20e8 	str.w	r2, [r7, #232]	; 0xe8
 80022f4:	1f33      	subs	r3, r6, #4
 80022f6:	0080      	lsls	r0, r0, #2
 80022f8:	f8c7 011c 	str.w	r0, [r7, #284]	; 0x11c
 80022fc:	64bb      	str	r3, [r7, #72]	; 0x48
 80022fe:	6efe      	ldr	r6, [r7, #108]	; 0x6c
 8002300:	f8d7 20f8 	ldr.w	r2, [r7, #248]	; 0xf8
 8002304:	f8d7 0120 	ldr.w	r0, [r7, #288]	; 0x120
 8002308:	1f33      	subs	r3, r6, #4
 800230a:	f8d7 60d4 	ldr.w	r6, [r7, #212]	; 0xd4
 800230e:	613b      	str	r3, [r7, #16]
 8002310:	1f33      	subs	r3, r6, #4
 8002312:	f8d7 60b4 	ldr.w	r6, [r7, #180]	; 0xb4
 8002316:	f8c7 30d8 	str.w	r3, [r7, #216]	; 0xd8
 800231a:	1f33      	subs	r3, r6, #4
 800231c:	f8d7 6084 	ldr.w	r6, [r7, #132]	; 0x84
 8002320:	f8c7 3094 	str.w	r3, [r7, #148]	; 0x94
 8002324:	1f33      	subs	r3, r6, #4
 8002326:	f8d7 6080 	ldr.w	r6, [r7, #128]	; 0x80
 800232a:	643b      	str	r3, [r7, #64]	; 0x40
 800232c:	1f33      	subs	r3, r6, #4
 800232e:	6fbe      	ldr	r6, [r7, #120]	; 0x78
 8002330:	62fb      	str	r3, [r7, #44]	; 0x2c
 8002332:	1f33      	subs	r3, r6, #4
 8002334:	f8d7 60a8 	ldr.w	r6, [r7, #168]	; 0xa8
 8002338:	61fb      	str	r3, [r7, #28]
 800233a:	1f33      	subs	r3, r6, #4
 800233c:	6f3e      	ldr	r6, [r7, #112]	; 0x70
 800233e:	657b      	str	r3, [r7, #84]	; 0x54
 8002340:	1f33      	subs	r3, r6, #4
 8002342:	f8d7 60b8 	ldr.w	r6, [r7, #184]	; 0xb8
 8002346:	61bb      	str	r3, [r7, #24]
 8002348:	ebc6 0352 	rsb	r3, r6, r2, lsr #1
 800234c:	f8d7 60f0 	ldr.w	r6, [r7, #240]	; 0xf0
 8002350:	64fb      	str	r3, [r7, #76]	; 0x4c
 8002352:	ebc6 0350 	rsb	r3, r6, r0, lsr #1
 8002356:	f8d7 00c0 	ldr.w	r0, [r7, #192]	; 0xc0
 800235a:	f8c7 309c 	str.w	r3, [r7, #156]	; 0x9c
 800235e:	4603      	mov	r3, r0
 8002360:	f8d7 0128 	ldr.w	r0, [r7, #296]	; 0x128
 8002364:	f8d7 6104 	ldr.w	r6, [r7, #260]	; 0x104
 8002368:	ebc3 03d0 	rsb	r3, r3, r0, lsr #3
 800236c:	667b      	str	r3, [r7, #100]	; 0x64
 800236e:	eba6 03d0 	sub.w	r3, r6, r0, lsr #3
 8002372:	f8d7 6104 	ldr.w	r6, [r7, #260]	; 0x104
 8002376:	f8c7 30b0 	str.w	r3, [r7, #176]	; 0xb0
 800237a:	ebc6 0350 	rsb	r3, r6, r0, lsr #1
 800237e:	f8d7 60f0 	ldr.w	r6, [r7, #240]	; 0xf0
 8002382:	f8d7 0120 	ldr.w	r0, [r7, #288]	; 0x120
 8002386:	f8c7 30ec 	str.w	r3, [r7, #236]	; 0xec
 800238a:	eba6 03d0 	sub.w	r3, r6, r0, lsr #3
 800238e:	465e      	mov	r6, fp
 8002390:	647b      	str	r3, [r7, #68]	; 0x44
 8002392:	eb06 0a8a 	add.w	sl, r6, sl, lsl #2
 8002396:	e9d7 0650 	ldrd	r0, r6, [r7, #320]	; 0x140
 800239a:	1830      	adds	r0, r6, r0
 800239c:	f8c7 0140 	str.w	r0, [r7, #320]	; 0x140
 80023a0:	4633      	mov	r3, r6
 80023a2:	f8d7 0110 	ldr.w	r0, [r7, #272]	; 0x110
 80023a6:	4443      	add	r3, r8
 80023a8:	f8c7 3134 	str.w	r3, [r7, #308]	; 0x134
 80023ac:	0843      	lsrs	r3, r0, #1
 80023ae:	f8c7 3100 	str.w	r3, [r7, #256]	; 0x100
 80023b2:	f06f 4340 	mvn.w	r3, #3221225472	; 0xc0000000
 80023b6:	eb03 0350 	add.w	r3, r3, r0, lsr #1
 80023ba:	f8c7 3090 	str.w	r3, [r7, #144]	; 0x90
 80023be:	eb0e 0306 	add.w	r3, lr, r6
 80023c2:	f8d7 0108 	ldr.w	r0, [r7, #264]	; 0x108
 80023c6:	627b      	str	r3, [r7, #36]	; 0x24
 80023c8:	eb06 038c 	add.w	r3, r6, ip, lsl #2
 80023cc:	60fb      	str	r3, [r7, #12]
 80023ce:	19ab      	adds	r3, r5, r6
 80023d0:	f8d7 50f4 	ldr.w	r5, [r7, #244]	; 0xf4
 80023d4:	623b      	str	r3, [r7, #32]
 80023d6:	eb06 0380 	add.w	r3, r6, r0, lsl #2
 80023da:	62bb      	str	r3, [r7, #40]	; 0x28
 80023dc:	19ab      	adds	r3, r5, r6
 80023de:	f8d7 50e8 	ldr.w	r5, [r7, #232]	; 0xe8
 80023e2:	65bb      	str	r3, [r7, #88]	; 0x58
 80023e4:	eb06 0385 	add.w	r3, r6, r5, lsl #2
 80023e8:	f8d7 50e0 	ldr.w	r5, [r7, #224]	; 0xe0
 80023ec:	65fb      	str	r3, [r7, #92]	; 0x5c
 80023ee:	eb06 0385 	add.w	r3, r6, r5, lsl #2
 80023f2:	f8d7 50d0 	ldr.w	r5, [r7, #208]	; 0xd0
 80023f6:	f8c7 30ac 	str.w	r3, [r7, #172]	; 0xac
 80023fa:	4630      	mov	r0, r6
 80023fc:	eb06 0385 	add.w	r3, r6, r5, lsl #2
 8002400:	f8d7 60cc 	ldr.w	r6, [r7, #204]	; 0xcc
 8002404:	f8c7 30e8 	str.w	r3, [r7, #232]	; 0xe8
 8002408:	eba6 0356 	sub.w	r3, r6, r6, lsr #1
 800240c:	653b      	str	r3, [r7, #80]	; 0x50
 800240e:	1f0b      	subs	r3, r1, #4
 8002410:	617b      	str	r3, [r7, #20]
 8002412:	180b      	adds	r3, r1, r0
 8002414:	f8d7 113c 	ldr.w	r1, [r7, #316]	; 0x13c
 8002418:	63fb      	str	r3, [r7, #60]	; 0x3c
 800241a:	eba2 0352 	sub.w	r3, r2, r2, lsr #1
 800241e:	f8d7 2120 	ldr.w	r2, [r7, #288]	; 0x120
 8002422:	f8c7 30a0 	str.w	r3, [r7, #160]	; 0xa0
 8002426:	1f0b      	subs	r3, r1, #4
 8002428:	63bb      	str	r3, [r7, #56]	; 0x38
 800242a:	eba2 0352 	sub.w	r3, r2, r2, lsr #1
 800242e:	f8c7 30e0 	str.w	r3, [r7, #224]	; 0xe0
 8002432:	1f23      	subs	r3, r4, #4
 8002434:	4401      	add	r1, r0
 8002436:	f8c7 30c8 	str.w	r3, [r7, #200]	; 0xc8
 800243a:	1823      	adds	r3, r4, r0
 800243c:	6779      	str	r1, [r7, #116]	; 0x74
 800243e:	f8c7 30f4 	str.w	r3, [r7, #244]	; 0xf4
 8002442:	f8d7 40e4 	ldr.w	r4, [r7, #228]	; 0xe4
 8002446:	f8d7 112c 	ldr.w	r1, [r7, #300]	; 0x12c
 800244a:	f8d7 2138 	ldr.w	r2, [r7, #312]	; 0x138
 800244e:	f8d7 5130 	ldr.w	r5, [r7, #304]	; 0x130
 8002452:	ebc4 1311 	rsb	r3, r4, r1, lsr #4
 8002456:	66bb      	str	r3, [r7, #104]	; 0x68
 8002458:	eb00 0384 	add.w	r3, r0, r4, lsl #2
 800245c:	637b      	str	r3, [r7, #52]	; 0x34
 800245e:	1f13      	subs	r3, r2, #4
 8002460:	663b      	str	r3, [r7, #96]	; 0x60
 8002462:	088b      	lsrs	r3, r1, #2
 8002464:	4402      	add	r2, r0
 8002466:	2600      	movs	r6, #0
 8002468:	f8c7 3118 	str.w	r3, [r7, #280]	; 0x118
 800246c:	230c      	movs	r3, #12
 800246e:	eb0b 0b89 	add.w	fp, fp, r9, lsl #2
 8002472:	f8c7 20d0 	str.w	r2, [r7, #208]	; 0xd0
 8002476:	f8c7 613c 	str.w	r6, [r7, #316]	; 0x13c
 800247a:	f8c7 3138 	str.w	r3, [r7, #312]	; 0x138
 800247e:	460c      	mov	r4, r1
 8002480:	2c01      	cmp	r4, #1
 8002482:	f000 8379 	beq.w	8002b78 <cipher+0xda4>
 8002486:	f8d7 3144 	ldr.w	r3, [r7, #324]	; 0x144
 800248a:	2c02      	cmp	r4, #2
 800248c:	eb03 0206 	add.w	r2, r3, r6
 8002490:	f000 83cb 	beq.w	8002c2a <cipher+0xe56>
 8002494:	2d01      	cmp	r5, #1
 8002496:	f000 83ea 	beq.w	8002c6e <cipher+0xe9a>
 800249a:	2d02      	cmp	r5, #2
 800249c:	f001 82a1 	beq.w	80039e2 <cipher+0x1c0e>
 80024a0:	f8d7 3118 	ldr.w	r3, [r7, #280]	; 0x118
 80024a4:	2b01      	cmp	r3, #1
 80024a6:	f001 80dd 	beq.w	8003664 <cipher+0x1890>
 80024aa:	2b02      	cmp	r3, #2
 80024ac:	f001 80cf 	beq.w	800364e <cipher+0x187a>
 80024b0:	f8d7 310c 	ldr.w	r3, [r7, #268]	; 0x10c
 80024b4:	2b01      	cmp	r3, #1
 80024b6:	f001 8318 	beq.w	8003aea <cipher+0x1d16>
 80024ba:	2b02      	cmp	r3, #2
 80024bc:	f001 8309 	beq.w	8003ad2 <cipher+0x1cfe>
 80024c0:	f8d7 30dc 	ldr.w	r3, [r7, #220]	; 0xdc
 80024c4:	2b01      	cmp	r3, #1
 80024c6:	f001 87ff 	beq.w	80044c8 <cipher+0x26f4>
 80024ca:	2b02      	cmp	r3, #2
 80024cc:	f001 87f0 	beq.w	80044b0 <cipher+0x26dc>
 80024d0:	f8d7 30e4 	ldr.w	r3, [r7, #228]	; 0xe4
 80024d4:	2b01      	cmp	r3, #1
 80024d6:	f002 8264 	beq.w	80049a2 <cipher+0x2bce>
 80024da:	2b02      	cmp	r3, #2
 80024dc:	f002 8255 	beq.w	800498a <cipher+0x2bb6>
 80024e0:	4619      	mov	r1, r3
 80024e2:	4620      	mov	r0, r4
 80024e4:	2301      	movs	r3, #1
 80024e6:	f002 fc1b 	bl	8004d20 <RefreshIOS_rec.part.0>
 80024ea:	6ebb      	ldr	r3, [r7, #104]	; 0x68
 80024ec:	2b01      	cmp	r3, #1
 80024ee:	d00c      	beq.n	800250a <cipher+0x736>
 80024f0:	6b7b      	ldr	r3, [r7, #52]	; 0x34
 80024f2:	eb03 0806 	add.w	r8, r3, r6
 80024f6:	6ebb      	ldr	r3, [r7, #104]	; 0x68
 80024f8:	2b02      	cmp	r3, #2
 80024fa:	f002 8402 	beq.w	8004d02 <cipher+0x2f2e>
 80024fe:	4619      	mov	r1, r3
 8002500:	4642      	mov	r2, r8
 8002502:	2301      	movs	r3, #1
 8002504:	4620      	mov	r0, r4
 8002506:	f002 fc0b 	bl	8004d20 <RefreshIOS_rec.part.0>
 800250a:	f8d7 30e4 	ldr.w	r3, [r7, #228]	; 0xe4
 800250e:	b323      	cbz	r3, 800255a <cipher+0x786>
 8002510:	f8d7 3144 	ldr.w	r3, [r7, #324]	; 0x144
 8002514:	6b7a      	ldr	r2, [r7, #52]	; 0x34
 8002516:	f8c7 5130 	str.w	r5, [r7, #304]	; 0x130
 800251a:	f04f 0800 	mov.w	r8, #0
 800251e:	3b04      	subs	r3, #4
 8002520:	f1a2 0904 	sub.w	r9, r2, #4
 8002524:	4433      	add	r3, r6
 8002526:	44b1      	add	r9, r6
 8002528:	4645      	mov	r5, r8
 800252a:	46a0      	mov	r8, r4
 800252c:	f8d7 40e4 	ldr.w	r4, [r7, #228]	; 0xe4
 8002530:	f8c7 612c 	str.w	r6, [r7, #300]	; 0x12c
 8002534:	464e      	mov	r6, r9
 8002536:	4699      	mov	r9, r3
 8002538:	f7fd fd62 	bl	8000000 <get_random>
 800253c:	f859 1f04 	ldr.w	r1, [r9, #4]!
 8002540:	4041      	eors	r1, r0
 8002542:	f8c9 1000 	str.w	r1, [r9]
 8002546:	f856 1f04 	ldr.w	r1, [r6, #4]!
 800254a:	3501      	adds	r5, #1
 800254c:	4048      	eors	r0, r1
 800254e:	42ac      	cmp	r4, r5
 8002550:	6030      	str	r0, [r6, #0]
 8002552:	d8f1      	bhi.n	8002538 <cipher+0x764>
 8002554:	e9d7 654b 	ldrd	r6, r5, [r7, #300]	; 0x12c
 8002558:	4644      	mov	r4, r8
 800255a:	f8d7 30cc 	ldr.w	r3, [r7, #204]	; 0xcc
 800255e:	2b01      	cmp	r3, #1
 8002560:	f041 87b7 	bne.w	80044d2 <cipher+0x26fe>
 8002564:	f8d7 30dc 	ldr.w	r3, [r7, #220]	; 0xdc
 8002568:	b313      	cbz	r3, 80025b0 <cipher+0x7dc>
 800256a:	6bfa      	ldr	r2, [r7, #60]	; 0x3c
 800256c:	f8d7 3144 	ldr.w	r3, [r7, #324]	; 0x144
 8002570:	f8c7 5130 	str.w	r5, [r7, #304]	; 0x130
 8002574:	f1a2 0904 	sub.w	r9, r2, #4
 8002578:	44b1      	add	r9, r6
 800257a:	f04f 0800 	mov.w	r8, #0
 800257e:	3b04      	subs	r3, #4
 8002580:	4433      	add	r3, r6
 8002582:	464d      	mov	r5, r9
 8002584:	46c1      	mov	r9, r8
 8002586:	f8d7 80dc 	ldr.w	r8, [r7, #220]	; 0xdc
 800258a:	f8c7 412c 	str.w	r4, [r7, #300]	; 0x12c
 800258e:	461c      	mov	r4, r3
 8002590:	f7fd fd36 	bl	8000000 <get_random>
 8002594:	f854 1f04 	ldr.w	r1, [r4, #4]!
 8002598:	4041      	eors	r1, r0
 800259a:	6021      	str	r1, [r4, #0]
 800259c:	f855 1f04 	ldr.w	r1, [r5, #4]!
 80025a0:	f109 0901 	add.w	r9, r9, #1
 80025a4:	4048      	eors	r0, r1
 80025a6:	45c8      	cmp	r8, r9
 80025a8:	6028      	str	r0, [r5, #0]
 80025aa:	d8f1      	bhi.n	8002590 <cipher+0x7bc>
 80025ac:	e9d7 454b 	ldrd	r4, r5, [r7, #300]	; 0x12c
 80025b0:	f8d7 30f8 	ldr.w	r3, [r7, #248]	; 0xf8
 80025b4:	2b01      	cmp	r3, #1
 80025b6:	f001 8392 	beq.w	8003cde <cipher+0x1f0a>
 80025ba:	6f7b      	ldr	r3, [r7, #116]	; 0x74
 80025bc:	4433      	add	r3, r6
 80025be:	f8c7 3130 	str.w	r3, [r7, #304]	; 0x130
 80025c2:	f8d7 30f8 	ldr.w	r3, [r7, #248]	; 0xf8
 80025c6:	2b02      	cmp	r3, #2
 80025c8:	f001 837c 	beq.w	8003cc4 <cipher+0x1ef0>
 80025cc:	f8d7 30c4 	ldr.w	r3, [r7, #196]	; 0xc4
 80025d0:	2b01      	cmp	r3, #1
 80025d2:	f002 8106 	beq.w	80047e2 <cipher+0x2a0e>
 80025d6:	2b02      	cmp	r3, #2
 80025d8:	f002 8096 	beq.w	8004708 <cipher+0x2934>
 80025dc:	f8d7 30b8 	ldr.w	r3, [r7, #184]	; 0xb8
 80025e0:	2b01      	cmp	r3, #1
 80025e2:	f002 8124 	beq.w	800482e <cipher+0x2a5a>
 80025e6:	2b02      	cmp	r3, #2
 80025e8:	f002 8114 	beq.w	8004814 <cipher+0x2a40>
 80025ec:	f8d7 8130 	ldr.w	r8, [r7, #304]	; 0x130
 80025f0:	4619      	mov	r1, r3
 80025f2:	4642      	mov	r2, r8
 80025f4:	2301      	movs	r3, #1
 80025f6:	4620      	mov	r0, r4
 80025f8:	f002 fb92 	bl	8004d20 <RefreshIOS_rec.part.0>
 80025fc:	6cfb      	ldr	r3, [r7, #76]	; 0x4c
 80025fe:	2b01      	cmp	r3, #1
 8002600:	d00b      	beq.n	800261a <cipher+0x846>
 8002602:	6f3a      	ldr	r2, [r7, #112]	; 0x70
 8002604:	4490      	add	r8, r2
 8002606:	6cfb      	ldr	r3, [r7, #76]	; 0x4c
 8002608:	2b02      	cmp	r3, #2
 800260a:	f002 8270 	beq.w	8004aee <cipher+0x2d1a>
 800260e:	4619      	mov	r1, r3
 8002610:	4642      	mov	r2, r8
 8002612:	2301      	movs	r3, #1
 8002614:	4620      	mov	r0, r4
 8002616:	f002 fb83 	bl	8004d20 <RefreshIOS_rec.part.0>
 800261a:	f8d7 30b8 	ldr.w	r3, [r7, #184]	; 0xb8
 800261e:	b343      	cbz	r3, 8002672 <cipher+0x89e>
 8002620:	f8d7 3144 	ldr.w	r3, [r7, #324]	; 0x144
 8002624:	6bba      	ldr	r2, [r7, #56]	; 0x38
 8002626:	f8c7 512c 	str.w	r5, [r7, #300]	; 0x12c
 800262a:	eb03 0802 	add.w	r8, r3, r2
 800262e:	f8d7 3130 	ldr.w	r3, [r7, #304]	; 0x130
 8002632:	69ba      	ldr	r2, [r7, #24]
 8002634:	f8c7 6108 	str.w	r6, [r7, #264]	; 0x108
 8002638:	44b0      	add	r8, r6
 800263a:	f04f 0900 	mov.w	r9, #0
 800263e:	4413      	add	r3, r2
 8002640:	464d      	mov	r5, r9
 8002642:	46c1      	mov	r9, r8
 8002644:	46a0      	mov	r8, r4
 8002646:	f8d7 40b8 	ldr.w	r4, [r7, #184]	; 0xb8
 800264a:	461e      	mov	r6, r3
 800264c:	f7fd fcd8 	bl	8000000 <get_random>
 8002650:	f859 1f04 	ldr.w	r1, [r9, #4]!
 8002654:	4041      	eors	r1, r0
 8002656:	f8c9 1000 	str.w	r1, [r9]
 800265a:	f856 1f04 	ldr.w	r1, [r6, #4]!
 800265e:	3501      	adds	r5, #1
 8002660:	4048      	eors	r0, r1
 8002662:	42ac      	cmp	r4, r5
 8002664:	6030      	str	r0, [r6, #0]
 8002666:	d8f1      	bhi.n	800264c <cipher+0x878>
 8002668:	f8d7 512c 	ldr.w	r5, [r7, #300]	; 0x12c
 800266c:	f8d7 6108 	ldr.w	r6, [r7, #264]	; 0x108
 8002670:	4644      	mov	r4, r8
 8002672:	f8d7 30a0 	ldr.w	r3, [r7, #160]	; 0xa0
 8002676:	2b01      	cmp	r3, #1
 8002678:	d04f      	beq.n	800271a <cipher+0x946>
 800267a:	f8d7 3130 	ldr.w	r3, [r7, #304]	; 0x130
 800267e:	f8d7 20a8 	ldr.w	r2, [r7, #168]	; 0xa8
 8002682:	eb03 0802 	add.w	r8, r3, r2
 8002686:	f8d7 30a0 	ldr.w	r3, [r7, #160]	; 0xa0
 800268a:	2b02      	cmp	r3, #2
 800268c:	f002 81e8 	beq.w	8004a60 <cipher+0x2c8c>
 8002690:	085b      	lsrs	r3, r3, #1
 8002692:	2b01      	cmp	r3, #1
 8002694:	4699      	mov	r9, r3
 8002696:	f002 8252 	beq.w	8004b3e <cipher+0x2d6a>
 800269a:	2b02      	cmp	r3, #2
 800269c:	f002 8217 	beq.w	8004ace <cipher+0x2cfa>
 80026a0:	2301      	movs	r3, #1
 80026a2:	4642      	mov	r2, r8
 80026a4:	4649      	mov	r1, r9
 80026a6:	4620      	mov	r0, r4
 80026a8:	f002 fb3a 	bl	8004d20 <RefreshIOS_rec.part.0>
 80026ac:	f8d7 20a0 	ldr.w	r2, [r7, #160]	; 0xa0
 80026b0:	464b      	mov	r3, r9
 80026b2:	1ad1      	subs	r1, r2, r3
 80026b4:	2901      	cmp	r1, #1
 80026b6:	d008      	beq.n	80026ca <cipher+0x8f6>
 80026b8:	eb08 0289 	add.w	r2, r8, r9, lsl #2
 80026bc:	2902      	cmp	r1, #2
 80026be:	f002 8240 	beq.w	8004b42 <cipher+0x2d6e>
 80026c2:	2301      	movs	r3, #1
 80026c4:	4620      	mov	r0, r4
 80026c6:	f002 fb2b 	bl	8004d20 <RefreshIOS_rec.part.0>
 80026ca:	464b      	mov	r3, r9
 80026cc:	b32b      	cbz	r3, 800271a <cipher+0x946>
 80026ce:	f109 4380 	add.w	r3, r9, #1073741824	; 0x40000000
 80026d2:	3b01      	subs	r3, #1
 80026d4:	464a      	mov	r2, r9
 80026d6:	eb08 0383 	add.w	r3, r8, r3, lsl #2
 80026da:	f1a8 0904 	sub.w	r9, r8, #4
 80026de:	f04f 0800 	mov.w	r8, #0
 80026e2:	f8c7 512c 	str.w	r5, [r7, #300]	; 0x12c
 80026e6:	f8c7 6108 	str.w	r6, [r7, #264]	; 0x108
 80026ea:	464d      	mov	r5, r9
 80026ec:	4646      	mov	r6, r8
 80026ee:	4699      	mov	r9, r3
 80026f0:	46a0      	mov	r8, r4
 80026f2:	4614      	mov	r4, r2
 80026f4:	f7fd fc84 	bl	8000000 <get_random>
 80026f8:	f855 1f04 	ldr.w	r1, [r5, #4]!
 80026fc:	4041      	eors	r1, r0
 80026fe:	6029      	str	r1, [r5, #0]
 8002700:	f859 1f04 	ldr.w	r1, [r9, #4]!
 8002704:	3601      	adds	r6, #1
 8002706:	4048      	eors	r0, r1
 8002708:	42b4      	cmp	r4, r6
 800270a:	f8c9 0000 	str.w	r0, [r9]
 800270e:	d8f1      	bhi.n	80026f4 <cipher+0x920>
 8002710:	f8d7 512c 	ldr.w	r5, [r7, #300]	; 0x12c
 8002714:	f8d7 6108 	ldr.w	r6, [r7, #264]	; 0x108
 8002718:	4644      	mov	r4, r8
 800271a:	f8d7 30c4 	ldr.w	r3, [r7, #196]	; 0xc4
 800271e:	2b00      	cmp	r3, #0
 8002720:	f001 82dd 	beq.w	8003cde <cipher+0x1f0a>
 8002724:	f8d7 3144 	ldr.w	r3, [r7, #324]	; 0x144
 8002728:	6bba      	ldr	r2, [r7, #56]	; 0x38
 800272a:	f8c7 412c 	str.w	r4, [r7, #300]	; 0x12c
 800272e:	eb03 0802 	add.w	r8, r3, r2
 8002732:	f8d7 3130 	ldr.w	r3, [r7, #304]	; 0x130
 8002736:	6d7a      	ldr	r2, [r7, #84]	; 0x54
 8002738:	f8c7 5130 	str.w	r5, [r7, #304]	; 0x130
 800273c:	44b0      	add	r8, r6
 800273e:	4413      	add	r3, r2
 8002740:	4645      	mov	r5, r8
 8002742:	f8d7 80c4 	ldr.w	r8, [r7, #196]	; 0xc4
 8002746:	f04f 0900 	mov.w	r9, #0
 800274a:	461c      	mov	r4, r3
 800274c:	f7fd fc58 	bl	8000000 <get_random>
 8002750:	f855 1f04 	ldr.w	r1, [r5, #4]!
 8002754:	4041      	eors	r1, r0
 8002756:	6029      	str	r1, [r5, #0]
 8002758:	f854 1f04 	ldr.w	r1, [r4, #4]!
 800275c:	f109 0901 	add.w	r9, r9, #1
 8002760:	4048      	eors	r0, r1
 8002762:	45c8      	cmp	r8, r9
 8002764:	6020      	str	r0, [r4, #0]
 8002766:	d8f1      	bhi.n	800274c <cipher+0x978>
 8002768:	f8d7 310c 	ldr.w	r3, [r7, #268]	; 0x10c
 800276c:	e9d7 454b 	ldrd	r4, r5, [r7, #300]	; 0x12c
 8002770:	b313      	cbz	r3, 80027b8 <cipher+0x9e4>
 8002772:	f8d7 3144 	ldr.w	r3, [r7, #324]	; 0x144
 8002776:	6f7a      	ldr	r2, [r7, #116]	; 0x74
 8002778:	f8c7 412c 	str.w	r4, [r7, #300]	; 0x12c
 800277c:	f04f 0800 	mov.w	r8, #0
 8002780:	3b04      	subs	r3, #4
 8002782:	f1a2 0904 	sub.w	r9, r2, #4
 8002786:	44b1      	add	r9, r6
 8002788:	4433      	add	r3, r6
 800278a:	4644      	mov	r4, r8
 800278c:	f8d7 810c 	ldr.w	r8, [r7, #268]	; 0x10c
 8002790:	f8c7 5130 	str.w	r5, [r7, #304]	; 0x130
 8002794:	464d      	mov	r5, r9
 8002796:	4699      	mov	r9, r3
 8002798:	f7fd fc32 	bl	8000000 <get_random>
 800279c:	f859 1f04 	ldr.w	r1, [r9, #4]!
 80027a0:	4041      	eors	r1, r0
 80027a2:	f8c9 1000 	str.w	r1, [r9]
 80027a6:	f855 1f04 	ldr.w	r1, [r5, #4]!
 80027aa:	3401      	adds	r4, #1
 80027ac:	4048      	eors	r0, r1
 80027ae:	45a0      	cmp	r8, r4
 80027b0:	6028      	str	r0, [r5, #0]
 80027b2:	d8f1      	bhi.n	8002798 <cipher+0x9c4>
 80027b4:	e9d7 454b 	ldrd	r4, r5, [r7, #300]	; 0x12c
 80027b8:	f8d7 3120 	ldr.w	r3, [r7, #288]	; 0x120
 80027bc:	2b01      	cmp	r3, #1
 80027be:	f040 8756 	bne.w	800366e <cipher+0x189a>
 80027c2:	f8d7 3118 	ldr.w	r3, [r7, #280]	; 0x118
 80027c6:	b31b      	cbz	r3, 8002810 <cipher+0xa3c>
 80027c8:	f8d7 20d0 	ldr.w	r2, [r7, #208]	; 0xd0
 80027cc:	f8d7 3144 	ldr.w	r3, [r7, #324]	; 0x144
 80027d0:	f8c7 412c 	str.w	r4, [r7, #300]	; 0x12c
 80027d4:	f1a2 0904 	sub.w	r9, r2, #4
 80027d8:	44b1      	add	r9, r6
 80027da:	f04f 0800 	mov.w	r8, #0
 80027de:	3b04      	subs	r3, #4
 80027e0:	4433      	add	r3, r6
 80027e2:	464c      	mov	r4, r9
 80027e4:	46c1      	mov	r9, r8
 80027e6:	f8d7 8118 	ldr.w	r8, [r7, #280]	; 0x118
 80027ea:	f8c7 5130 	str.w	r5, [r7, #304]	; 0x130
 80027ee:	461d      	mov	r5, r3
 80027f0:	f7fd fc06 	bl	8000000 <get_random>
 80027f4:	f855 1f04 	ldr.w	r1, [r5, #4]!
 80027f8:	4041      	eors	r1, r0
 80027fa:	6029      	str	r1, [r5, #0]
 80027fc:	f854 1f04 	ldr.w	r1, [r4, #4]!
 8002800:	f109 0901 	add.w	r9, r9, #1
 8002804:	4048      	eors	r0, r1
 8002806:	45c8      	cmp	r8, r9
 8002808:	6020      	str	r0, [r4, #0]
 800280a:	d8f1      	bhi.n	80027f0 <cipher+0xa1c>
 800280c:	e9d7 454b 	ldrd	r4, r5, [r7, #300]	; 0x12c
 8002810:	f8d7 3128 	ldr.w	r3, [r7, #296]	; 0x128
 8002814:	2b01      	cmp	r3, #1
 8002816:	d013      	beq.n	8002840 <cipher+0xa6c>
 8002818:	f8d7 30f4 	ldr.w	r3, [r7, #244]	; 0xf4
 800281c:	4433      	add	r3, r6
 800281e:	f8c7 3130 	str.w	r3, [r7, #304]	; 0x130
 8002822:	f8d7 3128 	ldr.w	r3, [r7, #296]	; 0x128
 8002826:	2b02      	cmp	r3, #2
 8002828:	f040 8231 	bne.w	8002c8e <cipher+0xeba>
 800282c:	f7fd fbe8 	bl	8000000 <get_random>
 8002830:	f8d7 1130 	ldr.w	r1, [r7, #304]	; 0x130
 8002834:	e9d1 2300 	ldrd	r2, r3, [r1]
 8002838:	4042      	eors	r2, r0
 800283a:	4043      	eors	r3, r0
 800283c:	600a      	str	r2, [r1, #0]
 800283e:	604b      	str	r3, [r1, #4]
 8002840:	2d00      	cmp	r5, #0
 8002842:	f000 87ba 	beq.w	80037ba <cipher+0x19e6>
 8002846:	f8d7 3144 	ldr.w	r3, [r7, #324]	; 0x144
 800284a:	f8d7 20f4 	ldr.w	r2, [r7, #244]	; 0xf4
 800284e:	f8c7 412c 	str.w	r4, [r7, #300]	; 0x12c
 8002852:	3b04      	subs	r3, #4
 8002854:	f1a2 0904 	sub.w	r9, r2, #4
 8002858:	199a      	adds	r2, r3, r6
 800285a:	f8c7 3130 	str.w	r3, [r7, #304]	; 0x130
 800285e:	44b1      	add	r9, r6
 8002860:	f04f 0800 	mov.w	r8, #0
 8002864:	4614      	mov	r4, r2
 8002866:	f7fd fbcb 	bl	8000000 <get_random>
 800286a:	f854 3f04 	ldr.w	r3, [r4, #4]!
 800286e:	4043      	eors	r3, r0
 8002870:	6023      	str	r3, [r4, #0]
 8002872:	f859 3f04 	ldr.w	r3, [r9, #4]!
 8002876:	f108 0801 	add.w	r8, r8, #1
 800287a:	4058      	eors	r0, r3
 800287c:	4545      	cmp	r5, r8
 800287e:	f8c9 0000 	str.w	r0, [r9]
 8002882:	d8f0      	bhi.n	8002866 <cipher+0xa92>
 8002884:	f8d7 3114 	ldr.w	r3, [r7, #276]	; 0x114
 8002888:	f8d7 213c 	ldr.w	r2, [r7, #316]	; 0x13c
 800288c:	f8d7 412c 	ldr.w	r4, [r7, #300]	; 0x12c
 8002890:	4413      	add	r3, r2
 8002892:	2d01      	cmp	r5, #1
 8002894:	f8c7 312c 	str.w	r3, [r7, #300]	; 0x12c
 8002898:	f000 84bc 	beq.w	8003214 <cipher+0x1440>
 800289c:	2d02      	cmp	r5, #2
 800289e:	f001 8079 	beq.w	8003994 <cipher+0x1bc0>
 80028a2:	f8d7 3118 	ldr.w	r3, [r7, #280]	; 0x118
 80028a6:	2b01      	cmp	r3, #1
 80028a8:	f000 8793 	beq.w	80037d2 <cipher+0x19fe>
 80028ac:	2b02      	cmp	r3, #2
 80028ae:	f001 81aa 	beq.w	8003c06 <cipher+0x1e32>
 80028b2:	f8d7 310c 	ldr.w	r3, [r7, #268]	; 0x10c
 80028b6:	2b01      	cmp	r3, #1
 80028b8:	f001 812b 	beq.w	8003b12 <cipher+0x1d3e>
 80028bc:	2b02      	cmp	r3, #2
 80028be:	f001 811b 	beq.w	8003af8 <cipher+0x1d24>
 80028c2:	f8d7 30dc 	ldr.w	r3, [r7, #220]	; 0xdc
 80028c6:	2b01      	cmp	r3, #1
 80028c8:	f001 8503 	beq.w	80042d2 <cipher+0x24fe>
 80028cc:	2b02      	cmp	r3, #2
 80028ce:	f001 84f3 	beq.w	80042b8 <cipher+0x24e4>
 80028d2:	f8d7 30e4 	ldr.w	r3, [r7, #228]	; 0xe4
 80028d6:	2b01      	cmp	r3, #1
 80028d8:	f001 87da 	beq.w	8004890 <cipher+0x2abc>
 80028dc:	2b02      	cmp	r3, #2
 80028de:	f001 87ca 	beq.w	8004876 <cipher+0x2aa2>
 80028e2:	4619      	mov	r1, r3
 80028e4:	f8d7 214c 	ldr.w	r2, [r7, #332]	; 0x14c
 80028e8:	2301      	movs	r3, #1
 80028ea:	4620      	mov	r0, r4
 80028ec:	f002 fa18 	bl	8004d20 <RefreshIOS_rec.part.0>
 80028f0:	6ebb      	ldr	r3, [r7, #104]	; 0x68
 80028f2:	2b01      	cmp	r3, #1
 80028f4:	d00c      	beq.n	8002910 <cipher+0xb3c>
 80028f6:	6a7b      	ldr	r3, [r7, #36]	; 0x24
 80028f8:	eb06 0803 	add.w	r8, r6, r3
 80028fc:	6ebb      	ldr	r3, [r7, #104]	; 0x68
 80028fe:	2b02      	cmp	r3, #2
 8002900:	f002 8175 	beq.w	8004bee <cipher+0x2e1a>
 8002904:	4619      	mov	r1, r3
 8002906:	4642      	mov	r2, r8
 8002908:	2301      	movs	r3, #1
 800290a:	4620      	mov	r0, r4
 800290c:	f002 fa08 	bl	8004d20 <RefreshIOS_rec.part.0>
 8002910:	f8d7 30e4 	ldr.w	r3, [r7, #228]	; 0xe4
 8002914:	b323      	cbz	r3, 8002960 <cipher+0xb8c>
 8002916:	68fb      	ldr	r3, [r7, #12]
 8002918:	f8c7 5130 	str.w	r5, [r7, #304]	; 0x130
 800291c:	f1a3 0804 	sub.w	r8, r3, #4
 8002920:	f8d7 314c 	ldr.w	r3, [r7, #332]	; 0x14c
 8002924:	f8c7 6108 	str.w	r6, [r7, #264]	; 0x108
 8002928:	44b0      	add	r8, r6
 800292a:	3b04      	subs	r3, #4
 800292c:	4645      	mov	r5, r8
 800292e:	46a0      	mov	r8, r4
 8002930:	f8d7 40e4 	ldr.w	r4, [r7, #228]	; 0xe4
 8002934:	f04f 0900 	mov.w	r9, #0
 8002938:	461e      	mov	r6, r3
 800293a:	f7fd fb61 	bl	8000000 <get_random>
 800293e:	f856 1f04 	ldr.w	r1, [r6, #4]!
 8002942:	4041      	eors	r1, r0
 8002944:	6031      	str	r1, [r6, #0]
 8002946:	f855 1f04 	ldr.w	r1, [r5, #4]!
 800294a:	f109 0901 	add.w	r9, r9, #1
 800294e:	4048      	eors	r0, r1
 8002950:	454c      	cmp	r4, r9
 8002952:	6028      	str	r0, [r5, #0]
 8002954:	d8f1      	bhi.n	800293a <cipher+0xb66>
 8002956:	f8d7 5130 	ldr.w	r5, [r7, #304]	; 0x130
 800295a:	f8d7 6108 	ldr.w	r6, [r7, #264]	; 0x108
 800295e:	4644      	mov	r4, r8
 8002960:	f8d7 30cc 	ldr.w	r3, [r7, #204]	; 0xcc
 8002964:	2b01      	cmp	r3, #1
 8002966:	d00d      	beq.n	8002984 <cipher+0xbb0>
 8002968:	6a3b      	ldr	r3, [r7, #32]
 800296a:	eb06 0803 	add.w	r8, r6, r3
 800296e:	f8d7 30cc 	ldr.w	r3, [r7, #204]	; 0xcc
 8002972:	2b02      	cmp	r3, #2
 8002974:	f001 863c 	beq.w	80045f0 <cipher+0x281c>
 8002978:	4619      	mov	r1, r3
 800297a:	4642      	mov	r2, r8
 800297c:	2301      	movs	r3, #1
 800297e:	4620      	mov	r0, r4
 8002980:	f002 f9ce 	bl	8004d20 <RefreshIOS_rec.part.0>
 8002984:	f8d7 30dc 	ldr.w	r3, [r7, #220]	; 0xdc
 8002988:	b313      	cbz	r3, 80029d0 <cipher+0xbfc>
 800298a:	6abb      	ldr	r3, [r7, #40]	; 0x28
 800298c:	f8c7 4108 	str.w	r4, [r7, #264]	; 0x108
 8002990:	f1a3 0804 	sub.w	r8, r3, #4
 8002994:	f8d7 314c 	ldr.w	r3, [r7, #332]	; 0x14c
 8002998:	f8c7 5130 	str.w	r5, [r7, #304]	; 0x130
 800299c:	44b0      	add	r8, r6
 800299e:	3b04      	subs	r3, #4
 80029a0:	4644      	mov	r4, r8
 80029a2:	f8d7 80dc 	ldr.w	r8, [r7, #220]	; 0xdc
 80029a6:	f04f 0900 	mov.w	r9, #0
 80029aa:	461d      	mov	r5, r3
 80029ac:	f7fd fb28 	bl	8000000 <get_random>
 80029b0:	f855 1f04 	ldr.w	r1, [r5, #4]!
 80029b4:	4041      	eors	r1, r0
 80029b6:	6029      	str	r1, [r5, #0]
 80029b8:	f854 1f04 	ldr.w	r1, [r4, #4]!
 80029bc:	f109 0901 	add.w	r9, r9, #1
 80029c0:	4048      	eors	r0, r1
 80029c2:	45c8      	cmp	r8, r9
 80029c4:	6020      	str	r0, [r4, #0]
 80029c6:	d8f1      	bhi.n	80029ac <cipher+0xbd8>
 80029c8:	f8d7 5130 	ldr.w	r5, [r7, #304]	; 0x130
 80029cc:	f8d7 4108 	ldr.w	r4, [r7, #264]	; 0x108
 80029d0:	f8d7 30f8 	ldr.w	r3, [r7, #248]	; 0xf8
 80029d4:	2b01      	cmp	r3, #1
 80029d6:	f001 816e 	beq.w	8003cb6 <cipher+0x1ee2>
 80029da:	6dbb      	ldr	r3, [r7, #88]	; 0x58
 80029dc:	eb06 0803 	add.w	r8, r6, r3
 80029e0:	f8d7 30f8 	ldr.w	r3, [r7, #248]	; 0xf8
 80029e4:	2b02      	cmp	r3, #2
 80029e6:	f001 815d 	beq.w	8003ca4 <cipher+0x1ed0>
 80029ea:	f8d7 30c4 	ldr.w	r3, [r7, #196]	; 0xc4
 80029ee:	2b01      	cmp	r3, #1
 80029f0:	f001 86f0 	beq.w	80047d4 <cipher+0x2a00>
 80029f4:	2b02      	cmp	r3, #2
 80029f6:	f001 85ec 	beq.w	80045d2 <cipher+0x27fe>
 80029fa:	4619      	mov	r1, r3
 80029fc:	4642      	mov	r2, r8
 80029fe:	2301      	movs	r3, #1
 8002a00:	4620      	mov	r0, r4
 8002a02:	f002 f98d 	bl	8004d20 <RefreshIOS_rec.part.0>
 8002a06:	f8d7 30a0 	ldr.w	r3, [r7, #160]	; 0xa0
 8002a0a:	2b01      	cmp	r3, #1
 8002a0c:	d00e      	beq.n	8002a2c <cipher+0xc58>
 8002a0e:	f8d7 30a8 	ldr.w	r3, [r7, #168]	; 0xa8
 8002a12:	eb08 0903 	add.w	r9, r8, r3
 8002a16:	f8d7 30a0 	ldr.w	r3, [r7, #160]	; 0xa0
 8002a1a:	2b02      	cmp	r3, #2
 8002a1c:	f002 8015 	beq.w	8004a4a <cipher+0x2c76>
 8002a20:	4619      	mov	r1, r3
 8002a22:	464a      	mov	r2, r9
 8002a24:	2301      	movs	r3, #1
 8002a26:	4620      	mov	r0, r4
 8002a28:	f002 f97a 	bl	8004d20 <RefreshIOS_rec.part.0>
 8002a2c:	f8d7 30c4 	ldr.w	r3, [r7, #196]	; 0xc4
 8002a30:	2b00      	cmp	r3, #0
 8002a32:	f001 8140 	beq.w	8003cb6 <cipher+0x1ee2>
 8002a36:	6dbb      	ldr	r3, [r7, #88]	; 0x58
 8002a38:	f8c7 5130 	str.w	r5, [r7, #304]	; 0x130
 8002a3c:	f1a3 0904 	sub.w	r9, r3, #4
 8002a40:	6d7b      	ldr	r3, [r7, #84]	; 0x54
 8002a42:	f8c7 4108 	str.w	r4, [r7, #264]	; 0x108
 8002a46:	4443      	add	r3, r8
 8002a48:	44b1      	add	r9, r6
 8002a4a:	f04f 0800 	mov.w	r8, #0
 8002a4e:	464d      	mov	r5, r9
 8002a50:	46c1      	mov	r9, r8
 8002a52:	f8d7 80c4 	ldr.w	r8, [r7, #196]	; 0xc4
 8002a56:	461c      	mov	r4, r3
 8002a58:	f7fd fad2 	bl	8000000 <get_random>
 8002a5c:	f855 1f04 	ldr.w	r1, [r5, #4]!
 8002a60:	4041      	eors	r1, r0
 8002a62:	6029      	str	r1, [r5, #0]
 8002a64:	f854 1f04 	ldr.w	r1, [r4, #4]!
 8002a68:	f109 0901 	add.w	r9, r9, #1
 8002a6c:	4048      	eors	r0, r1
 8002a6e:	45c8      	cmp	r8, r9
 8002a70:	6020      	str	r0, [r4, #0]
 8002a72:	d8f1      	bhi.n	8002a58 <cipher+0xc84>
 8002a74:	f8d7 310c 	ldr.w	r3, [r7, #268]	; 0x10c
 8002a78:	f8d7 5130 	ldr.w	r5, [r7, #304]	; 0x130
 8002a7c:	f8d7 4108 	ldr.w	r4, [r7, #264]	; 0x108
 8002a80:	b313      	cbz	r3, 8002ac8 <cipher+0xcf4>
 8002a82:	6dfb      	ldr	r3, [r7, #92]	; 0x5c
 8002a84:	f8c7 4108 	str.w	r4, [r7, #264]	; 0x108
 8002a88:	f1a3 0804 	sub.w	r8, r3, #4
 8002a8c:	f8d7 314c 	ldr.w	r3, [r7, #332]	; 0x14c
 8002a90:	f8c7 5130 	str.w	r5, [r7, #304]	; 0x130
 8002a94:	44b0      	add	r8, r6
 8002a96:	3b04      	subs	r3, #4
 8002a98:	4644      	mov	r4, r8
 8002a9a:	f8d7 810c 	ldr.w	r8, [r7, #268]	; 0x10c
 8002a9e:	f04f 0900 	mov.w	r9, #0
 8002aa2:	461d      	mov	r5, r3
 8002aa4:	f7fd faac 	bl	8000000 <get_random>
 8002aa8:	f855 1f04 	ldr.w	r1, [r5, #4]!
 8002aac:	4041      	eors	r1, r0
 8002aae:	6029      	str	r1, [r5, #0]
 8002ab0:	f854 1f04 	ldr.w	r1, [r4, #4]!
 8002ab4:	f109 0901 	add.w	r9, r9, #1
 8002ab8:	4048      	eors	r0, r1
 8002aba:	45c8      	cmp	r8, r9
 8002abc:	6020      	str	r0, [r4, #0]
 8002abe:	d8f1      	bhi.n	8002aa4 <cipher+0xcd0>
 8002ac0:	f8d7 5130 	ldr.w	r5, [r7, #304]	; 0x130
 8002ac4:	f8d7 4108 	ldr.w	r4, [r7, #264]	; 0x108
 8002ac8:	f8d7 3120 	ldr.w	r3, [r7, #288]	; 0x120
 8002acc:	2b01      	cmp	r3, #1
 8002ace:	f040 8685 	bne.w	80037dc <cipher+0x1a08>
 8002ad2:	f8d7 3118 	ldr.w	r3, [r7, #280]	; 0x118
 8002ad6:	b31b      	cbz	r3, 8002b20 <cipher+0xd4c>
 8002ad8:	f8d7 30ac 	ldr.w	r3, [r7, #172]	; 0xac
 8002adc:	f8c7 4108 	str.w	r4, [r7, #264]	; 0x108
 8002ae0:	f1a3 0804 	sub.w	r8, r3, #4
 8002ae4:	f8d7 314c 	ldr.w	r3, [r7, #332]	; 0x14c
 8002ae8:	f8c7 5130 	str.w	r5, [r7, #304]	; 0x130
 8002aec:	44b0      	add	r8, r6
 8002aee:	3b04      	subs	r3, #4
 8002af0:	4644      	mov	r4, r8
 8002af2:	f8d7 8118 	ldr.w	r8, [r7, #280]	; 0x118
 8002af6:	f04f 0900 	mov.w	r9, #0
 8002afa:	461d      	mov	r5, r3
 8002afc:	f7fd fa80 	bl	8000000 <get_random>
 8002b00:	f855 1f04 	ldr.w	r1, [r5, #4]!
 8002b04:	4041      	eors	r1, r0
 8002b06:	6029      	str	r1, [r5, #0]
 8002b08:	f854 1f04 	ldr.w	r1, [r4, #4]!
 8002b0c:	f109 0901 	add.w	r9, r9, #1
 8002b10:	4048      	eors	r0, r1
 8002b12:	45c8      	cmp	r8, r9
 8002b14:	6020      	str	r0, [r4, #0]
 8002b16:	d8f1      	bhi.n	8002afc <cipher+0xd28>
 8002b18:	f8d7 5130 	ldr.w	r5, [r7, #304]	; 0x130
 8002b1c:	f8d7 4108 	ldr.w	r4, [r7, #264]	; 0x108
 8002b20:	f8d7 3128 	ldr.w	r3, [r7, #296]	; 0x128
 8002b24:	2b01      	cmp	r3, #1
 8002b26:	f040 837a 	bne.w	800321e <cipher+0x144a>
 8002b2a:	2d00      	cmp	r5, #0
 8002b2c:	f000 8722 	beq.w	8003974 <cipher+0x1ba0>
 8002b30:	f8d7 3144 	ldr.w	r3, [r7, #324]	; 0x144
 8002b34:	3b04      	subs	r3, #4
 8002b36:	f8c7 3130 	str.w	r3, [r7, #304]	; 0x130
 8002b3a:	f8d7 30e8 	ldr.w	r3, [r7, #232]	; 0xe8
 8002b3e:	f8c7 4108 	str.w	r4, [r7, #264]	; 0x108
 8002b42:	f1a3 0904 	sub.w	r9, r3, #4
 8002b46:	f8d7 314c 	ldr.w	r3, [r7, #332]	; 0x14c
 8002b4a:	1f1a      	subs	r2, r3, #4
 8002b4c:	44b1      	add	r9, r6
 8002b4e:	f04f 0800 	mov.w	r8, #0
 8002b52:	4614      	mov	r4, r2
 8002b54:	f7fd fa54 	bl	8000000 <get_random>
 8002b58:	f854 3f04 	ldr.w	r3, [r4, #4]!
 8002b5c:	4043      	eors	r3, r0
 8002b5e:	6023      	str	r3, [r4, #0]
 8002b60:	f859 3f04 	ldr.w	r3, [r9, #4]!
 8002b64:	f108 0801 	add.w	r8, r8, #1
 8002b68:	4058      	eors	r0, r3
 8002b6a:	4545      	cmp	r5, r8
 8002b6c:	f8c9 0000 	str.w	r0, [r9]
 8002b70:	d8f0      	bhi.n	8002b54 <cipher+0xd80>
 8002b72:	f8d7 4108 	ldr.w	r4, [r7, #264]	; 0x108
 8002b76:	e00a      	b.n	8002b8e <cipher+0xdba>
 8002b78:	f8d7 3138 	ldr.w	r3, [r7, #312]	; 0x138
 8002b7c:	f1c3 0318 	rsb	r3, r3, #24
 8002b80:	f8c7 312c 	str.w	r3, [r7, #300]	; 0x12c
 8002b84:	f8d7 3144 	ldr.w	r3, [r7, #324]	; 0x144
 8002b88:	3b04      	subs	r3, #4
 8002b8a:	f8c7 3130 	str.w	r3, [r7, #304]	; 0x130
 8002b8e:	2300      	movs	r3, #0
 8002b90:	f8ca 3000 	str.w	r3, [sl]
 8002b94:	f8cb 3000 	str.w	r3, [fp]
 8002b98:	f8d7 3144 	ldr.w	r3, [r7, #324]	; 0x144
 8002b9c:	f8d7 212c 	ldr.w	r2, [r7, #300]	; 0x12c
 8002ba0:	eb03 0082 	add.w	r0, r3, r2, lsl #2
 8002ba4:	f8d7 3130 	ldr.w	r3, [r7, #304]	; 0x130
 8002ba8:	4433      	add	r3, r6
 8002baa:	3804      	subs	r0, #4
 8002bac:	4698      	mov	r8, r3
 8002bae:	2100      	movs	r1, #0
 8002bb0:	46a4      	mov	ip, r4
 8002bb2:	f8da 2000 	ldr.w	r2, [sl]
 8002bb6:	f858 3f04 	ldr.w	r3, [r8, #4]!
 8002bba:	f850 4f04 	ldr.w	r4, [r0, #4]!
 8002bbe:	405a      	eors	r2, r3
 8002bc0:	f8ca 2000 	str.w	r2, [sl]
 8002bc4:	f8db 3000 	ldr.w	r3, [fp]
 8002bc8:	3101      	adds	r1, #1
 8002bca:	4063      	eors	r3, r4
 8002bcc:	458c      	cmp	ip, r1
 8002bce:	f8cb 3000 	str.w	r3, [fp]
 8002bd2:	d8ee      	bhi.n	8002bb2 <cipher+0xdde>
 8002bd4:	4664      	mov	r4, ip
 8002bd6:	f8d7 311c 	ldr.w	r3, [r7, #284]	; 0x11c
 8002bda:	f8d7 214c 	ldr.w	r2, [r7, #332]	; 0x14c
 8002bde:	449a      	add	sl, r3
 8002be0:	449b      	add	fp, r3
 8002be2:	f8d7 313c 	ldr.w	r3, [r7, #316]	; 0x13c
 8002be6:	4423      	add	r3, r4
 8002be8:	f8c7 313c 	str.w	r3, [r7, #316]	; 0x13c
 8002bec:	f8d7 3148 	ldr.w	r3, [r7, #328]	; 0x148
 8002bf0:	4611      	mov	r1, r2
 8002bf2:	f8d7 2140 	ldr.w	r2, [r7, #320]	; 0x140
 8002bf6:	4419      	add	r1, r3
 8002bf8:	f8c7 114c 	str.w	r1, [r7, #332]	; 0x14c
 8002bfc:	4611      	mov	r1, r2
 8002bfe:	f8d7 2134 	ldr.w	r2, [r7, #308]	; 0x134
 8002c02:	4419      	add	r1, r3
 8002c04:	f8c7 1140 	str.w	r1, [r7, #320]	; 0x140
 8002c08:	4611      	mov	r1, r2
 8002c0a:	4419      	add	r1, r3
 8002c0c:	441e      	add	r6, r3
 8002c0e:	f8d7 3138 	ldr.w	r3, [r7, #312]	; 0x138
 8002c12:	f8c7 1134 	str.w	r1, [r7, #308]	; 0x134
 8002c16:	3b01      	subs	r3, #1
 8002c18:	f8c7 3138 	str.w	r3, [r7, #312]	; 0x138
 8002c1c:	f47f ac30 	bne.w	8002480 <cipher+0x6ac>
 8002c20:	f507 77ae 	add.w	r7, r7, #348	; 0x15c
 8002c24:	46bd      	mov	sp, r7
 8002c26:	e8bd 8ff0 	ldmia.w	sp!, {r4, r5, r6, r7, r8, r9, sl, fp, pc}
 8002c2a:	f7fd f9e9 	bl	8000000 <get_random>
 8002c2e:	f8d7 2144 	ldr.w	r2, [r7, #324]	; 0x144
 8002c32:	f8d7 113c 	ldr.w	r1, [r7, #316]	; 0x13c
 8002c36:	5993      	ldr	r3, [r2, r6]
 8002c38:	4043      	eors	r3, r0
 8002c3a:	5193      	str	r3, [r2, r6]
 8002c3c:	f8d7 3114 	ldr.w	r3, [r7, #276]	; 0x114
 8002c40:	3204      	adds	r2, #4
 8002c42:	440b      	add	r3, r1
 8002c44:	f8c7 312c 	str.w	r3, [r7, #300]	; 0x12c
 8002c48:	5993      	ldr	r3, [r2, r6]
 8002c4a:	4058      	eors	r0, r3
 8002c4c:	5190      	str	r0, [r2, r6]
 8002c4e:	f7fd f9d7 	bl	8000000 <get_random>
 8002c52:	f8d7 114c 	ldr.w	r1, [r7, #332]	; 0x14c
 8002c56:	e9d1 2300 	ldrd	r2, r3, [r1]
 8002c5a:	4042      	eors	r2, r0
 8002c5c:	600a      	str	r2, [r1, #0]
 8002c5e:	f8d7 2144 	ldr.w	r2, [r7, #324]	; 0x144
 8002c62:	4058      	eors	r0, r3
 8002c64:	1f13      	subs	r3, r2, #4
 8002c66:	6048      	str	r0, [r1, #4]
 8002c68:	f8c7 3130 	str.w	r3, [r7, #304]	; 0x130
 8002c6c:	e78f      	b.n	8002b8e <cipher+0xdba>
 8002c6e:	f8d7 3128 	ldr.w	r3, [r7, #296]	; 0x128
 8002c72:	2b01      	cmp	r3, #1
 8002c74:	f43f ade7 	beq.w	8002846 <cipher+0xa72>
 8002c78:	f8d7 3144 	ldr.w	r3, [r7, #324]	; 0x144
 8002c7c:	3304      	adds	r3, #4
 8002c7e:	4433      	add	r3, r6
 8002c80:	f8c7 3130 	str.w	r3, [r7, #304]	; 0x130
 8002c84:	f8d7 3128 	ldr.w	r3, [r7, #296]	; 0x128
 8002c88:	2b02      	cmp	r3, #2
 8002c8a:	f43f adcf 	beq.w	800282c <cipher+0xa58>
 8002c8e:	f8d7 3124 	ldr.w	r3, [r7, #292]	; 0x124
 8002c92:	2b01      	cmp	r3, #1
 8002c94:	f000 86eb 	beq.w	8003a6e <cipher+0x1c9a>
 8002c98:	2b02      	cmp	r3, #2
 8002c9a:	f000 878f 	beq.w	8003bbc <cipher+0x1de8>
 8002c9e:	f8d7 3104 	ldr.w	r3, [r7, #260]	; 0x104
 8002ca2:	2b01      	cmp	r3, #1
 8002ca4:	f000 8773 	beq.w	8003b8e <cipher+0x1dba>
 8002ca8:	2b02      	cmp	r3, #2
 8002caa:	f000 8763 	beq.w	8003b74 <cipher+0x1da0>
 8002cae:	f8d7 30bc 	ldr.w	r3, [r7, #188]	; 0xbc
 8002cb2:	2b01      	cmp	r3, #1
 8002cb4:	f001 8241 	beq.w	800413a <cipher+0x2366>
 8002cb8:	2b02      	cmp	r3, #2
 8002cba:	f001 8231 	beq.w	8004120 <cipher+0x234c>
 8002cbe:	f8d7 30c0 	ldr.w	r3, [r7, #192]	; 0xc0
 8002cc2:	2b01      	cmp	r3, #1
 8002cc4:	f001 8621 	beq.w	800490a <cipher+0x2b36>
 8002cc8:	2b02      	cmp	r3, #2
 8002cca:	f001 8611 	beq.w	80048f0 <cipher+0x2b1c>
 8002cce:	f8d7 8130 	ldr.w	r8, [r7, #304]	; 0x130
 8002cd2:	4619      	mov	r1, r3
 8002cd4:	4642      	mov	r2, r8
 8002cd6:	2301      	movs	r3, #1
 8002cd8:	4620      	mov	r0, r4
 8002cda:	f002 f821 	bl	8004d20 <RefreshIOS_rec.part.0>
 8002cde:	6e7b      	ldr	r3, [r7, #100]	; 0x64
 8002ce0:	2b01      	cmp	r3, #1
 8002ce2:	d00c      	beq.n	8002cfe <cipher+0xf2a>
 8002ce4:	f8d7 2080 	ldr.w	r2, [r7, #128]	; 0x80
 8002ce8:	4490      	add	r8, r2
 8002cea:	6e7b      	ldr	r3, [r7, #100]	; 0x64
 8002cec:	2b02      	cmp	r3, #2
 8002cee:	f001 8773 	beq.w	8004bd8 <cipher+0x2e04>
 8002cf2:	4619      	mov	r1, r3
 8002cf4:	4642      	mov	r2, r8
 8002cf6:	2301      	movs	r3, #1
 8002cf8:	4620      	mov	r0, r4
 8002cfa:	f002 f811 	bl	8004d20 <RefreshIOS_rec.part.0>
 8002cfe:	f8d7 30c0 	ldr.w	r3, [r7, #192]	; 0xc0
 8002d02:	b343      	cbz	r3, 8002d56 <cipher+0xf82>
 8002d04:	f8d7 3144 	ldr.w	r3, [r7, #324]	; 0x144
 8002d08:	f8d7 20c8 	ldr.w	r2, [r7, #200]	; 0xc8
 8002d0c:	f8c7 512c 	str.w	r5, [r7, #300]	; 0x12c
 8002d10:	eb03 0802 	add.w	r8, r3, r2
 8002d14:	f8d7 3130 	ldr.w	r3, [r7, #304]	; 0x130
 8002d18:	6afa      	ldr	r2, [r7, #44]	; 0x2c
 8002d1a:	f8c7 6108 	str.w	r6, [r7, #264]	; 0x108
 8002d1e:	44b0      	add	r8, r6
 8002d20:	4413      	add	r3, r2
 8002d22:	4645      	mov	r5, r8
 8002d24:	46a0      	mov	r8, r4
 8002d26:	f8d7 40c0 	ldr.w	r4, [r7, #192]	; 0xc0
 8002d2a:	f04f 0900 	mov.w	r9, #0
 8002d2e:	461e      	mov	r6, r3
 8002d30:	f7fd f966 	bl	8000000 <get_random>
 8002d34:	f855 1f04 	ldr.w	r1, [r5, #4]!
 8002d38:	4041      	eors	r1, r0
 8002d3a:	6029      	str	r1, [r5, #0]
 8002d3c:	f856 1f04 	ldr.w	r1, [r6, #4]!
 8002d40:	f109 0901 	add.w	r9, r9, #1
 8002d44:	4048      	eors	r0, r1
 8002d46:	454c      	cmp	r4, r9
 8002d48:	6030      	str	r0, [r6, #0]
 8002d4a:	d8f1      	bhi.n	8002d30 <cipher+0xf5c>
 8002d4c:	f8d7 512c 	ldr.w	r5, [r7, #300]	; 0x12c
 8002d50:	f8d7 6108 	ldr.w	r6, [r7, #264]	; 0x108
 8002d54:	4644      	mov	r4, r8
 8002d56:	f8d7 30b0 	ldr.w	r3, [r7, #176]	; 0xb0
 8002d5a:	2b01      	cmp	r3, #1
 8002d5c:	f041 81f2 	bne.w	8004144 <cipher+0x2370>
 8002d60:	f8d7 30bc 	ldr.w	r3, [r7, #188]	; 0xbc
 8002d64:	b333      	cbz	r3, 8002db4 <cipher+0xfe0>
 8002d66:	f8d7 3144 	ldr.w	r3, [r7, #324]	; 0x144
 8002d6a:	f8d7 20c8 	ldr.w	r2, [r7, #200]	; 0xc8
 8002d6e:	f8c7 512c 	str.w	r5, [r7, #300]	; 0x12c
 8002d72:	eb03 0802 	add.w	r8, r3, r2
 8002d76:	f8d7 3130 	ldr.w	r3, [r7, #304]	; 0x130
 8002d7a:	6c3a      	ldr	r2, [r7, #64]	; 0x40
 8002d7c:	f8c7 4108 	str.w	r4, [r7, #264]	; 0x108
 8002d80:	44b0      	add	r8, r6
 8002d82:	4413      	add	r3, r2
 8002d84:	4645      	mov	r5, r8
 8002d86:	f8d7 80bc 	ldr.w	r8, [r7, #188]	; 0xbc
 8002d8a:	f04f 0900 	mov.w	r9, #0
 8002d8e:	461c      	mov	r4, r3
 8002d90:	f7fd f936 	bl	8000000 <get_random>
 8002d94:	f855 1f04 	ldr.w	r1, [r5, #4]!
 8002d98:	4041      	eors	r1, r0
 8002d9a:	6029      	str	r1, [r5, #0]
 8002d9c:	f854 1f04 	ldr.w	r1, [r4, #4]!
 8002da0:	f109 0901 	add.w	r9, r9, #1
 8002da4:	4048      	eors	r0, r1
 8002da6:	45c8      	cmp	r8, r9
 8002da8:	6020      	str	r0, [r4, #0]
 8002daa:	d8f1      	bhi.n	8002d90 <cipher+0xfbc>
 8002dac:	f8d7 512c 	ldr.w	r5, [r7, #300]	; 0x12c
 8002db0:	f8d7 4108 	ldr.w	r4, [r7, #264]	; 0x108
 8002db4:	f8d7 30ec 	ldr.w	r3, [r7, #236]	; 0xec
 8002db8:	2b01      	cmp	r3, #1
 8002dba:	f000 875c 	beq.w	8003c76 <cipher+0x1ea2>
 8002dbe:	f8d7 3130 	ldr.w	r3, [r7, #304]	; 0x130
 8002dc2:	f8d7 20b4 	ldr.w	r2, [r7, #180]	; 0xb4
 8002dc6:	4413      	add	r3, r2
 8002dc8:	f8c7 312c 	str.w	r3, [r7, #300]	; 0x12c
 8002dcc:	f8d7 30ec 	ldr.w	r3, [r7, #236]	; 0xec
 8002dd0:	2b02      	cmp	r3, #2
 8002dd2:	f000 8743 	beq.w	8003c5c <cipher+0x1e88>
 8002dd6:	085b      	lsrs	r3, r3, #1
 8002dd8:	2b01      	cmp	r3, #1
 8002dda:	f8c7 3108 	str.w	r3, [r7, #264]	; 0x108
 8002dde:	f001 8625 	beq.w	8004a2c <cipher+0x2c58>
 8002de2:	2b02      	cmp	r3, #2
 8002de4:	f001 84b3 	beq.w	800474e <cipher+0x297a>
 8002de8:	f8d7 30ec 	ldr.w	r3, [r7, #236]	; 0xec
 8002dec:	089b      	lsrs	r3, r3, #2
 8002dee:	2b01      	cmp	r3, #1
 8002df0:	4698      	mov	r8, r3
 8002df2:	f001 85a3 	beq.w	800493c <cipher+0x2b68>
 8002df6:	2b02      	cmp	r3, #2
 8002df8:	f001 8593 	beq.w	8004922 <cipher+0x2b4e>
 8002dfc:	f8d7 912c 	ldr.w	r9, [r7, #300]	; 0x12c
 8002e00:	2301      	movs	r3, #1
 8002e02:	4641      	mov	r1, r8
 8002e04:	4620      	mov	r0, r4
 8002e06:	464a      	mov	r2, r9
 8002e08:	f001 ff8a 	bl	8004d20 <RefreshIOS_rec.part.0>
 8002e0c:	f8d7 0108 	ldr.w	r0, [r7, #264]	; 0x108
 8002e10:	4643      	mov	r3, r8
 8002e12:	1ac1      	subs	r1, r0, r3
 8002e14:	2901      	cmp	r1, #1
 8002e16:	d008      	beq.n	8002e2a <cipher+0x1056>
 8002e18:	eb09 0288 	add.w	r2, r9, r8, lsl #2
 8002e1c:	2902      	cmp	r1, #2
 8002e1e:	f001 8734 	beq.w	8004c8a <cipher+0x2eb6>
 8002e22:	2301      	movs	r3, #1
 8002e24:	4620      	mov	r0, r4
 8002e26:	f001 ff7b 	bl	8004d20 <RefreshIOS_rec.part.0>
 8002e2a:	4643      	mov	r3, r8
 8002e2c:	b313      	cbz	r3, 8002e74 <cipher+0x10a0>
 8002e2e:	f8d7 112c 	ldr.w	r1, [r7, #300]	; 0x12c
 8002e32:	633d      	str	r5, [r7, #48]	; 0x30
 8002e34:	f108 4380 	add.w	r3, r8, #1073741824	; 0x40000000
 8002e38:	3b01      	subs	r3, #1
 8002e3a:	4642      	mov	r2, r8
 8002e3c:	eb01 0383 	add.w	r3, r1, r3, lsl #2
 8002e40:	f1a1 0804 	sub.w	r8, r1, #4
 8002e44:	60be      	str	r6, [r7, #8]
 8002e46:	f04f 0900 	mov.w	r9, #0
 8002e4a:	4646      	mov	r6, r8
 8002e4c:	461d      	mov	r5, r3
 8002e4e:	46a0      	mov	r8, r4
 8002e50:	4614      	mov	r4, r2
 8002e52:	f7fd f8d5 	bl	8000000 <get_random>
 8002e56:	f856 1f04 	ldr.w	r1, [r6, #4]!
 8002e5a:	4041      	eors	r1, r0
 8002e5c:	6031      	str	r1, [r6, #0]
 8002e5e:	f855 1f04 	ldr.w	r1, [r5, #4]!
 8002e62:	f109 0901 	add.w	r9, r9, #1
 8002e66:	4048      	eors	r0, r1
 8002e68:	454c      	cmp	r4, r9
 8002e6a:	6028      	str	r0, [r5, #0]
 8002e6c:	d8f1      	bhi.n	8002e52 <cipher+0x107e>
 8002e6e:	6b3d      	ldr	r5, [r7, #48]	; 0x30
 8002e70:	68be      	ldr	r6, [r7, #8]
 8002e72:	4644      	mov	r4, r8
 8002e74:	f8d7 30ec 	ldr.w	r3, [r7, #236]	; 0xec
 8002e78:	f8d7 2108 	ldr.w	r2, [r7, #264]	; 0x108
 8002e7c:	eba3 0902 	sub.w	r9, r3, r2
 8002e80:	f1b9 0f01 	cmp.w	r9, #1
 8002e84:	d048      	beq.n	8002f18 <cipher+0x1144>
 8002e86:	f8d7 312c 	ldr.w	r3, [r7, #300]	; 0x12c
 8002e8a:	f1b9 0f02 	cmp.w	r9, #2
 8002e8e:	eb03 0882 	add.w	r8, r3, r2, lsl #2
 8002e92:	f001 85cf 	beq.w	8004a34 <cipher+0x2c60>
 8002e96:	ea4f 0359 	mov.w	r3, r9, lsr #1
 8002e9a:	2b01      	cmp	r3, #1
 8002e9c:	633b      	str	r3, [r7, #48]	; 0x30
 8002e9e:	f001 846e 	beq.w	800477e <cipher+0x29aa>
 8002ea2:	2b02      	cmp	r3, #2
 8002ea4:	f001 85ec 	beq.w	8004a80 <cipher+0x2cac>
 8002ea8:	4619      	mov	r1, r3
 8002eaa:	4642      	mov	r2, r8
 8002eac:	2301      	movs	r3, #1
 8002eae:	4620      	mov	r0, r4
 8002eb0:	f001 ff36 	bl	8004d20 <RefreshIOS_rec.part.0>
 8002eb4:	6b3b      	ldr	r3, [r7, #48]	; 0x30
 8002eb6:	eba9 0103 	sub.w	r1, r9, r3
 8002eba:	2901      	cmp	r1, #1
 8002ebc:	d008      	beq.n	8002ed0 <cipher+0x10fc>
 8002ebe:	eb08 0283 	add.w	r2, r8, r3, lsl #2
 8002ec2:	2902      	cmp	r1, #2
 8002ec4:	f001 845d 	beq.w	8004782 <cipher+0x29ae>
 8002ec8:	2301      	movs	r3, #1
 8002eca:	4620      	mov	r0, r4
 8002ecc:	f001 ff28 	bl	8004d20 <RefreshIOS_rec.part.0>
 8002ed0:	6b3b      	ldr	r3, [r7, #48]	; 0x30
 8002ed2:	b30b      	cbz	r3, 8002f18 <cipher+0x1144>
 8002ed4:	461a      	mov	r2, r3
 8002ed6:	f103 4380 	add.w	r3, r3, #1073741824	; 0x40000000
 8002eda:	3b01      	subs	r3, #1
 8002edc:	f1a8 0904 	sub.w	r9, r8, #4
 8002ee0:	eb08 0383 	add.w	r3, r8, r3, lsl #2
 8002ee4:	f04f 0800 	mov.w	r8, #0
 8002ee8:	633d      	str	r5, [r7, #48]	; 0x30
 8002eea:	60be      	str	r6, [r7, #8]
 8002eec:	464d      	mov	r5, r9
 8002eee:	461e      	mov	r6, r3
 8002ef0:	46c1      	mov	r9, r8
 8002ef2:	46a0      	mov	r8, r4
 8002ef4:	4614      	mov	r4, r2
 8002ef6:	f7fd f883 	bl	8000000 <get_random>
 8002efa:	f855 1f04 	ldr.w	r1, [r5, #4]!
 8002efe:	4041      	eors	r1, r0
 8002f00:	6029      	str	r1, [r5, #0]
 8002f02:	f856 1f04 	ldr.w	r1, [r6, #4]!
 8002f06:	f109 0901 	add.w	r9, r9, #1
 8002f0a:	4048      	eors	r0, r1
 8002f0c:	45a1      	cmp	r9, r4
 8002f0e:	6030      	str	r0, [r6, #0]
 8002f10:	d3f1      	bcc.n	8002ef6 <cipher+0x1122>
 8002f12:	6b3d      	ldr	r5, [r7, #48]	; 0x30
 8002f14:	68be      	ldr	r6, [r7, #8]
 8002f16:	4644      	mov	r4, r8
 8002f18:	f8d7 3108 	ldr.w	r3, [r7, #264]	; 0x108
 8002f1c:	2b00      	cmp	r3, #0
 8002f1e:	f000 86aa 	beq.w	8003c76 <cipher+0x1ea2>
 8002f22:	f8d7 212c 	ldr.w	r2, [r7, #300]	; 0x12c
 8002f26:	f8c7 4108 	str.w	r4, [r7, #264]	; 0x108
 8002f2a:	f103 4880 	add.w	r8, r3, #1073741824	; 0x40000000
 8002f2e:	f108 38ff 	add.w	r8, r8, #4294967295	; 0xffffffff
 8002f32:	eb02 0888 	add.w	r8, r2, r8, lsl #2
 8002f36:	3a04      	subs	r2, #4
 8002f38:	f8c7 512c 	str.w	r5, [r7, #300]	; 0x12c
 8002f3c:	4644      	mov	r4, r8
 8002f3e:	f04f 0900 	mov.w	r9, #0
 8002f42:	4615      	mov	r5, r2
 8002f44:	4698      	mov	r8, r3
 8002f46:	f7fd f85b 	bl	8000000 <get_random>
 8002f4a:	f855 1f04 	ldr.w	r1, [r5, #4]!
 8002f4e:	4041      	eors	r1, r0
 8002f50:	6029      	str	r1, [r5, #0]
 8002f52:	f854 1f04 	ldr.w	r1, [r4, #4]!
 8002f56:	f109 0901 	add.w	r9, r9, #1
 8002f5a:	4048      	eors	r0, r1
 8002f5c:	45c8      	cmp	r8, r9
 8002f5e:	6020      	str	r0, [r4, #0]
 8002f60:	d8f1      	bhi.n	8002f46 <cipher+0x1172>
 8002f62:	f8d7 3104 	ldr.w	r3, [r7, #260]	; 0x104
 8002f66:	f8d7 512c 	ldr.w	r5, [r7, #300]	; 0x12c
 8002f6a:	f8d7 4108 	ldr.w	r4, [r7, #264]	; 0x108
 8002f6e:	b33b      	cbz	r3, 8002fc0 <cipher+0x11ec>
 8002f70:	f8d7 3144 	ldr.w	r3, [r7, #324]	; 0x144
 8002f74:	f8d7 20c8 	ldr.w	r2, [r7, #200]	; 0xc8
 8002f78:	f8c7 4108 	str.w	r4, [r7, #264]	; 0x108
 8002f7c:	eb03 0802 	add.w	r8, r3, r2
 8002f80:	f8d7 3130 	ldr.w	r3, [r7, #304]	; 0x130
 8002f84:	f8d7 2094 	ldr.w	r2, [r7, #148]	; 0x94
 8002f88:	f8c7 512c 	str.w	r5, [r7, #300]	; 0x12c
 8002f8c:	44b0      	add	r8, r6
 8002f8e:	4413      	add	r3, r2
 8002f90:	4644      	mov	r4, r8
 8002f92:	f8d7 8104 	ldr.w	r8, [r7, #260]	; 0x104
 8002f96:	f04f 0900 	mov.w	r9, #0
 8002f9a:	461d      	mov	r5, r3
 8002f9c:	f7fd f830 	bl	8000000 <get_random>
 8002fa0:	f854 1f04 	ldr.w	r1, [r4, #4]!
 8002fa4:	4041      	eors	r1, r0
 8002fa6:	6021      	str	r1, [r4, #0]
 8002fa8:	f855 1f04 	ldr.w	r1, [r5, #4]!
 8002fac:	f109 0901 	add.w	r9, r9, #1
 8002fb0:	4048      	eors	r0, r1
 8002fb2:	45c8      	cmp	r8, r9
 8002fb4:	6028      	str	r0, [r5, #0]
 8002fb6:	d8f1      	bhi.n	8002f9c <cipher+0x11c8>
 8002fb8:	f8d7 512c 	ldr.w	r5, [r7, #300]	; 0x12c
 8002fbc:	f8d7 4108 	ldr.w	r4, [r7, #264]	; 0x108
 8002fc0:	f8d7 3110 	ldr.w	r3, [r7, #272]	; 0x110
 8002fc4:	2b01      	cmp	r3, #1
 8002fc6:	f000 80f6 	beq.w	80031b6 <cipher+0x13e2>
 8002fca:	f8d7 3130 	ldr.w	r3, [r7, #304]	; 0x130
 8002fce:	f8d7 20d4 	ldr.w	r2, [r7, #212]	; 0xd4
 8002fd2:	4413      	add	r3, r2
 8002fd4:	f8c7 312c 	str.w	r3, [r7, #300]	; 0x12c
 8002fd8:	f8d7 3110 	ldr.w	r3, [r7, #272]	; 0x110
 8002fdc:	2b02      	cmp	r3, #2
 8002fde:	f000 8601 	beq.w	8003be4 <cipher+0x1e10>
 8002fe2:	f8d7 3100 	ldr.w	r3, [r7, #256]	; 0x100
 8002fe6:	2b01      	cmp	r3, #1
 8002fe8:	f001 803f 	beq.w	800406a <cipher+0x2296>
 8002fec:	2b02      	cmp	r3, #2
 8002fee:	f000 86ca 	beq.w	8003d86 <cipher+0x1fb2>
 8002ff2:	f8d7 3110 	ldr.w	r3, [r7, #272]	; 0x110
 8002ff6:	089b      	lsrs	r3, r3, #2
 8002ff8:	2b01      	cmp	r3, #1
 8002ffa:	f8c7 3108 	str.w	r3, [r7, #264]	; 0x108
 8002ffe:	f001 819d 	beq.w	800433c <cipher+0x2568>
 8003002:	2b02      	cmp	r3, #2
 8003004:	f001 818d 	beq.w	8004322 <cipher+0x254e>
 8003008:	f8d7 3110 	ldr.w	r3, [r7, #272]	; 0x110
 800300c:	08db      	lsrs	r3, r3, #3
 800300e:	2b01      	cmp	r3, #1
 8003010:	4698      	mov	r8, r3
 8003012:	f001 84ad 	beq.w	8004970 <cipher+0x2b9c>
 8003016:	2b02      	cmp	r3, #2
 8003018:	f001 849d 	beq.w	8004956 <cipher+0x2b82>
 800301c:	f8d7 912c 	ldr.w	r9, [r7, #300]	; 0x12c
 8003020:	2301      	movs	r3, #1
 8003022:	4641      	mov	r1, r8
 8003024:	4620      	mov	r0, r4
 8003026:	464a      	mov	r2, r9
 8003028:	f001 fe7a 	bl	8004d20 <RefreshIOS_rec.part.0>
 800302c:	f8d7 0108 	ldr.w	r0, [r7, #264]	; 0x108
 8003030:	4643      	mov	r3, r8
 8003032:	1ac1      	subs	r1, r0, r3
 8003034:	2901      	cmp	r1, #1
 8003036:	d008      	beq.n	800304a <cipher+0x1276>
 8003038:	eb09 0288 	add.w	r2, r9, r8, lsl #2
 800303c:	2902      	cmp	r1, #2
 800303e:	f001 852e 	beq.w	8004a9e <cipher+0x2cca>
 8003042:	2301      	movs	r3, #1
 8003044:	4620      	mov	r0, r4
 8003046:	f001 fe6b 	bl	8004d20 <RefreshIOS_rec.part.0>
 800304a:	4643      	mov	r3, r8
 800304c:	b313      	cbz	r3, 8003094 <cipher+0x12c0>
 800304e:	f8d7 112c 	ldr.w	r1, [r7, #300]	; 0x12c
 8003052:	633d      	str	r5, [r7, #48]	; 0x30
 8003054:	f108 4380 	add.w	r3, r8, #1073741824	; 0x40000000
 8003058:	3b01      	subs	r3, #1
 800305a:	4642      	mov	r2, r8
 800305c:	eb01 0383 	add.w	r3, r1, r3, lsl #2
 8003060:	f04f 0800 	mov.w	r8, #0
 8003064:	4645      	mov	r5, r8
 8003066:	60be      	str	r6, [r7, #8]
 8003068:	46a0      	mov	r8, r4
 800306a:	f1a1 0904 	sub.w	r9, r1, #4
 800306e:	461e      	mov	r6, r3
 8003070:	4614      	mov	r4, r2
 8003072:	f7fc ffc5 	bl	8000000 <get_random>
 8003076:	f859 1f04 	ldr.w	r1, [r9, #4]!
 800307a:	4041      	eors	r1, r0
 800307c:	f8c9 1000 	str.w	r1, [r9]
 8003080:	f856 1f04 	ldr.w	r1, [r6, #4]!
 8003084:	3501      	adds	r5, #1
 8003086:	4048      	eors	r0, r1
 8003088:	42ac      	cmp	r4, r5
 800308a:	6030      	str	r0, [r6, #0]
 800308c:	d8f1      	bhi.n	8003072 <cipher+0x129e>
 800308e:	6b3d      	ldr	r5, [r7, #48]	; 0x30
 8003090:	68be      	ldr	r6, [r7, #8]
 8003092:	4644      	mov	r4, r8
 8003094:	f8d7 3100 	ldr.w	r3, [r7, #256]	; 0x100
 8003098:	f8d7 2108 	ldr.w	r2, [r7, #264]	; 0x108
 800309c:	1a9b      	subs	r3, r3, r2
 800309e:	2b01      	cmp	r3, #1
 80030a0:	633b      	str	r3, [r7, #48]	; 0x30
 80030a2:	f041 8154 	bne.w	800434e <cipher+0x257a>
 80030a6:	f8d7 3108 	ldr.w	r3, [r7, #264]	; 0x108
 80030aa:	b323      	cbz	r3, 80030f6 <cipher+0x1322>
 80030ac:	f8d7 3108 	ldr.w	r3, [r7, #264]	; 0x108
 80030b0:	f8d7 212c 	ldr.w	r2, [r7, #300]	; 0x12c
 80030b4:	f8c7 5108 	str.w	r5, [r7, #264]	; 0x108
 80030b8:	f103 4980 	add.w	r9, r3, #1073741824	; 0x40000000
 80030bc:	f109 39ff 	add.w	r9, r9, #4294967295	; 0xffffffff
 80030c0:	eb02 0989 	add.w	r9, r2, r9, lsl #2
 80030c4:	f04f 0800 	mov.w	r8, #0
 80030c8:	3a04      	subs	r2, #4
 80030ca:	633c      	str	r4, [r7, #48]	; 0x30
 80030cc:	4615      	mov	r5, r2
 80030ce:	464c      	mov	r4, r9
 80030d0:	46c1      	mov	r9, r8
 80030d2:	4698      	mov	r8, r3
 80030d4:	f7fc ff94 	bl	8000000 <get_random>
 80030d8:	f855 1f04 	ldr.w	r1, [r5, #4]!
 80030dc:	4041      	eors	r1, r0
 80030de:	6029      	str	r1, [r5, #0]
 80030e0:	f854 1f04 	ldr.w	r1, [r4, #4]!
 80030e4:	f109 0901 	add.w	r9, r9, #1
 80030e8:	4048      	eors	r0, r1
 80030ea:	45c8      	cmp	r8, r9
 80030ec:	6020      	str	r0, [r4, #0]
 80030ee:	d8f1      	bhi.n	80030d4 <cipher+0x1300>
 80030f0:	f8d7 5108 	ldr.w	r5, [r7, #264]	; 0x108
 80030f4:	6b3c      	ldr	r4, [r7, #48]	; 0x30
 80030f6:	f8d7 3110 	ldr.w	r3, [r7, #272]	; 0x110
 80030fa:	f8d7 2100 	ldr.w	r2, [r7, #256]	; 0x100
 80030fe:	eba3 0902 	sub.w	r9, r3, r2
 8003102:	f1b9 0f01 	cmp.w	r9, #1
 8003106:	f000 87c2 	beq.w	800408e <cipher+0x22ba>
 800310a:	f8d7 312c 	ldr.w	r3, [r7, #300]	; 0x12c
 800310e:	f1b9 0f02 	cmp.w	r9, #2
 8003112:	eb03 0382 	add.w	r3, r3, r2, lsl #2
 8003116:	f8c7 3108 	str.w	r3, [r7, #264]	; 0x108
 800311a:	f000 87ab 	beq.w	8004074 <cipher+0x22a0>
 800311e:	ea4f 0359 	mov.w	r3, r9, lsr #1
 8003122:	2b01      	cmp	r3, #1
 8003124:	4698      	mov	r8, r3
 8003126:	f000 8648 	beq.w	8003dba <cipher+0x1fe6>
 800312a:	2b02      	cmp	r3, #2
 800312c:	f001 82cd 	beq.w	80046ca <cipher+0x28f6>
 8003130:	4641      	mov	r1, r8
 8003132:	f8d7 2108 	ldr.w	r2, [r7, #264]	; 0x108
 8003136:	2301      	movs	r3, #1
 8003138:	4620      	mov	r0, r4
 800313a:	f001 fdf1 	bl	8004d20 <RefreshIOS_rec.part.0>
 800313e:	eba9 0108 	sub.w	r1, r9, r8
 8003142:	2901      	cmp	r1, #1
 8003144:	d00b      	beq.n	800315e <cipher+0x138a>
 8003146:	f8d7 2108 	ldr.w	r2, [r7, #264]	; 0x108
 800314a:	eb02 0988 	add.w	r9, r2, r8, lsl #2
 800314e:	2902      	cmp	r1, #2
 8003150:	f000 8637 	beq.w	8003dc2 <cipher+0x1fee>
 8003154:	464a      	mov	r2, r9
 8003156:	2301      	movs	r3, #1
 8003158:	4620      	mov	r0, r4
 800315a:	f001 fde1 	bl	8004d20 <RefreshIOS_rec.part.0>
 800315e:	4643      	mov	r3, r8
 8003160:	2b00      	cmp	r3, #0
 8003162:	f000 8794 	beq.w	800408e <cipher+0x22ba>
 8003166:	f8d7 2108 	ldr.w	r2, [r7, #264]	; 0x108
 800316a:	633c      	str	r4, [r7, #48]	; 0x30
 800316c:	f108 4980 	add.w	r9, r8, #1073741824	; 0x40000000
 8003170:	f109 39ff 	add.w	r9, r9, #4294967295	; 0xffffffff
 8003174:	eb02 0989 	add.w	r9, r2, r9, lsl #2
 8003178:	f04f 0800 	mov.w	r8, #0
 800317c:	3a04      	subs	r2, #4
 800317e:	f8c7 5108 	str.w	r5, [r7, #264]	; 0x108
 8003182:	464c      	mov	r4, r9
 8003184:	4615      	mov	r5, r2
 8003186:	46c1      	mov	r9, r8
 8003188:	4698      	mov	r8, r3
 800318a:	f7fc ff39 	bl	8000000 <get_random>
 800318e:	f855 1f04 	ldr.w	r1, [r5, #4]!
 8003192:	4041      	eors	r1, r0
 8003194:	6029      	str	r1, [r5, #0]
 8003196:	f854 1f04 	ldr.w	r1, [r4, #4]!
 800319a:	f109 0901 	add.w	r9, r9, #1
 800319e:	4048      	eors	r0, r1
 80031a0:	45c1      	cmp	r9, r8
 80031a2:	6020      	str	r0, [r4, #0]
 80031a4:	d3f1      	bcc.n	800318a <cipher+0x13b6>
 80031a6:	f8d7 3100 	ldr.w	r3, [r7, #256]	; 0x100
 80031aa:	f8d7 5108 	ldr.w	r5, [r7, #264]	; 0x108
 80031ae:	6b3c      	ldr	r4, [r7, #48]	; 0x30
 80031b0:	2b00      	cmp	r3, #0
 80031b2:	f040 8771 	bne.w	8004098 <cipher+0x22c4>
 80031b6:	f8d7 3124 	ldr.w	r3, [r7, #292]	; 0x124
 80031ba:	2b00      	cmp	r3, #0
 80031bc:	f43f ab40 	beq.w	8002840 <cipher+0xa6c>
 80031c0:	f8d7 3144 	ldr.w	r3, [r7, #324]	; 0x144
 80031c4:	f8d7 20c8 	ldr.w	r2, [r7, #200]	; 0xc8
 80031c8:	f8c7 412c 	str.w	r4, [r7, #300]	; 0x12c
 80031cc:	eb03 0802 	add.w	r8, r3, r2
 80031d0:	f8d7 3130 	ldr.w	r3, [r7, #304]	; 0x130
 80031d4:	f8d7 20d8 	ldr.w	r2, [r7, #216]	; 0xd8
 80031d8:	f8c7 5130 	str.w	r5, [r7, #304]	; 0x130
 80031dc:	44b0      	add	r8, r6
 80031de:	4413      	add	r3, r2
 80031e0:	4645      	mov	r5, r8
 80031e2:	f8d7 8124 	ldr.w	r8, [r7, #292]	; 0x124
 80031e6:	f04f 0900 	mov.w	r9, #0
 80031ea:	461c      	mov	r4, r3
 80031ec:	f7fc ff08 	bl	8000000 <get_random>
 80031f0:	f855 1f04 	ldr.w	r1, [r5, #4]!
 80031f4:	4041      	eors	r1, r0
 80031f6:	6029      	str	r1, [r5, #0]
 80031f8:	f854 1f04 	ldr.w	r1, [r4, #4]!
 80031fc:	f109 0901 	add.w	r9, r9, #1
 8003200:	4048      	eors	r0, r1
 8003202:	45c8      	cmp	r8, r9
 8003204:	6020      	str	r0, [r4, #0]
 8003206:	d8f1      	bhi.n	80031ec <cipher+0x1418>
 8003208:	e9d7 454b 	ldrd	r4, r5, [r7, #300]	; 0x12c
 800320c:	2d00      	cmp	r5, #0
 800320e:	f47f ab1a 	bne.w	8002846 <cipher+0xa72>
 8003212:	e2d2      	b.n	80037ba <cipher+0x19e6>
 8003214:	f8d7 3128 	ldr.w	r3, [r7, #296]	; 0x128
 8003218:	2b01      	cmp	r3, #1
 800321a:	f43f ac8e 	beq.w	8002b3a <cipher+0xd66>
 800321e:	f8d7 3128 	ldr.w	r3, [r7, #296]	; 0x128
 8003222:	2b02      	cmp	r3, #2
 8003224:	f000 83c5 	beq.w	80039b2 <cipher+0x1bde>
 8003228:	f8d7 3124 	ldr.w	r3, [r7, #292]	; 0x124
 800322c:	2b01      	cmp	r3, #1
 800322e:	f000 8425 	beq.w	8003a7c <cipher+0x1ca8>
 8003232:	2b02      	cmp	r3, #2
 8003234:	f000 84b2 	beq.w	8003b9c <cipher+0x1dc8>
 8003238:	f8d7 3104 	ldr.w	r3, [r7, #260]	; 0x104
 800323c:	2b01      	cmp	r3, #1
 800323e:	f000 8483 	beq.w	8003b48 <cipher+0x1d74>
 8003242:	2b02      	cmp	r3, #2
 8003244:	f000 8473 	beq.w	8003b2e <cipher+0x1d5a>
 8003248:	f8d7 30bc 	ldr.w	r3, [r7, #188]	; 0xbc
 800324c:	2b01      	cmp	r3, #1
 800324e:	f001 80d6 	beq.w	80043fe <cipher+0x262a>
 8003252:	2b02      	cmp	r3, #2
 8003254:	f001 80c6 	beq.w	80043e4 <cipher+0x2610>
 8003258:	f8d7 30c0 	ldr.w	r3, [r7, #192]	; 0xc0
 800325c:	2b01      	cmp	r3, #1
 800325e:	f001 82fe 	beq.w	800485e <cipher+0x2a8a>
 8003262:	2b02      	cmp	r3, #2
 8003264:	f001 82ee 	beq.w	8004844 <cipher+0x2a70>
 8003268:	f8d7 8140 	ldr.w	r8, [r7, #320]	; 0x140
 800326c:	4619      	mov	r1, r3
 800326e:	4642      	mov	r2, r8
 8003270:	2301      	movs	r3, #1
 8003272:	4620      	mov	r0, r4
 8003274:	f001 fd54 	bl	8004d20 <RefreshIOS_rec.part.0>
 8003278:	6e7b      	ldr	r3, [r7, #100]	; 0x64
 800327a:	2b01      	cmp	r3, #1
 800327c:	d00c      	beq.n	8003298 <cipher+0x14c4>
 800327e:	f8d7 2080 	ldr.w	r2, [r7, #128]	; 0x80
 8003282:	4490      	add	r8, r2
 8003284:	6e7b      	ldr	r3, [r7, #100]	; 0x64
 8003286:	2b02      	cmp	r3, #2
 8003288:	f001 8416 	beq.w	8004ab8 <cipher+0x2ce4>
 800328c:	4619      	mov	r1, r3
 800328e:	4642      	mov	r2, r8
 8003290:	2301      	movs	r3, #1
 8003292:	4620      	mov	r0, r4
 8003294:	f001 fd44 	bl	8004d20 <RefreshIOS_rec.part.0>
 8003298:	f8d7 30c0 	ldr.w	r3, [r7, #192]	; 0xc0
 800329c:	b323      	cbz	r3, 80032e8 <cipher+0x1514>
 800329e:	f8d7 2140 	ldr.w	r2, [r7, #320]	; 0x140
 80032a2:	6af9      	ldr	r1, [r7, #44]	; 0x2c
 80032a4:	f8c7 5130 	str.w	r5, [r7, #304]	; 0x130
 80032a8:	eb02 0901 	add.w	r9, r2, r1
 80032ac:	f04f 0800 	mov.w	r8, #0
 80032b0:	1f13      	subs	r3, r2, #4
 80032b2:	464d      	mov	r5, r9
 80032b4:	46c1      	mov	r9, r8
 80032b6:	46a0      	mov	r8, r4
 80032b8:	f8d7 40c0 	ldr.w	r4, [r7, #192]	; 0xc0
 80032bc:	f8c7 6108 	str.w	r6, [r7, #264]	; 0x108
 80032c0:	461e      	mov	r6, r3
 80032c2:	f7fc fe9d 	bl	8000000 <get_random>
 80032c6:	f856 1f04 	ldr.w	r1, [r6, #4]!
 80032ca:	4041      	eors	r1, r0
 80032cc:	6031      	str	r1, [r6, #0]
 80032ce:	f855 1f04 	ldr.w	r1, [r5, #4]!
 80032d2:	f109 0901 	add.w	r9, r9, #1
 80032d6:	4048      	eors	r0, r1
 80032d8:	454c      	cmp	r4, r9
 80032da:	6028      	str	r0, [r5, #0]
 80032dc:	d8f1      	bhi.n	80032c2 <cipher+0x14ee>
 80032de:	f8d7 5130 	ldr.w	r5, [r7, #304]	; 0x130
 80032e2:	f8d7 6108 	ldr.w	r6, [r7, #264]	; 0x108
 80032e6:	4644      	mov	r4, r8
 80032e8:	f8d7 30b0 	ldr.w	r3, [r7, #176]	; 0xb0
 80032ec:	2b01      	cmp	r3, #1
 80032ee:	f041 808b 	bne.w	8004408 <cipher+0x2634>
 80032f2:	f8d7 30bc 	ldr.w	r3, [r7, #188]	; 0xbc
 80032f6:	b313      	cbz	r3, 800333e <cipher+0x156a>
 80032f8:	f8d7 2140 	ldr.w	r2, [r7, #320]	; 0x140
 80032fc:	6c39      	ldr	r1, [r7, #64]	; 0x40
 80032fe:	f8c7 4108 	str.w	r4, [r7, #264]	; 0x108
 8003302:	f04f 0800 	mov.w	r8, #0
 8003306:	eb02 0901 	add.w	r9, r2, r1
 800330a:	1f13      	subs	r3, r2, #4
 800330c:	4644      	mov	r4, r8
 800330e:	f8d7 80bc 	ldr.w	r8, [r7, #188]	; 0xbc
 8003312:	f8c7 5130 	str.w	r5, [r7, #304]	; 0x130
 8003316:	464d      	mov	r5, r9
 8003318:	4699      	mov	r9, r3
 800331a:	f7fc fe71 	bl	8000000 <get_random>
 800331e:	f859 1f04 	ldr.w	r1, [r9, #4]!
 8003322:	4041      	eors	r1, r0
 8003324:	f8c9 1000 	str.w	r1, [r9]
 8003328:	f855 1f04 	ldr.w	r1, [r5, #4]!
 800332c:	3401      	adds	r4, #1
 800332e:	4048      	eors	r0, r1
 8003330:	45a0      	cmp	r8, r4
 8003332:	6028      	str	r0, [r5, #0]
 8003334:	d8f1      	bhi.n	800331a <cipher+0x1546>
 8003336:	f8d7 5130 	ldr.w	r5, [r7, #304]	; 0x130
 800333a:	f8d7 4108 	ldr.w	r4, [r7, #264]	; 0x108
 800333e:	f8d7 30ec 	ldr.w	r3, [r7, #236]	; 0xec
 8003342:	2b01      	cmp	r3, #1
 8003344:	f000 84a7 	beq.w	8003c96 <cipher+0x1ec2>
 8003348:	f8d7 3140 	ldr.w	r3, [r7, #320]	; 0x140
 800334c:	f8d7 20b4 	ldr.w	r2, [r7, #180]	; 0xb4
 8003350:	eb03 0802 	add.w	r8, r3, r2
 8003354:	f8d7 30ec 	ldr.w	r3, [r7, #236]	; 0xec
 8003358:	2b02      	cmp	r3, #2
 800335a:	f000 8493 	beq.w	8003c84 <cipher+0x1eb0>
 800335e:	085b      	lsrs	r3, r3, #1
 8003360:	2b01      	cmp	r3, #1
 8003362:	4699      	mov	r9, r3
 8003364:	f001 8351 	beq.w	8004a0a <cipher+0x2c36>
 8003368:	2b02      	cmp	r3, #2
 800336a:	f001 81e0 	beq.w	800472e <cipher+0x295a>
 800336e:	2301      	movs	r3, #1
 8003370:	4642      	mov	r2, r8
 8003372:	4649      	mov	r1, r9
 8003374:	4620      	mov	r0, r4
 8003376:	f001 fcd3 	bl	8004d20 <RefreshIOS_rec.part.0>
 800337a:	f8d7 20ec 	ldr.w	r2, [r7, #236]	; 0xec
 800337e:	464b      	mov	r3, r9
 8003380:	1ad1      	subs	r1, r2, r3
 8003382:	2901      	cmp	r1, #1
 8003384:	d008      	beq.n	8003398 <cipher+0x15c4>
 8003386:	eb08 0289 	add.w	r2, r8, r9, lsl #2
 800338a:	2902      	cmp	r1, #2
 800338c:	f001 833f 	beq.w	8004a0e <cipher+0x2c3a>
 8003390:	2301      	movs	r3, #1
 8003392:	4620      	mov	r0, r4
 8003394:	f001 fcc4 	bl	8004d20 <RefreshIOS_rec.part.0>
 8003398:	464b      	mov	r3, r9
 800339a:	2b00      	cmp	r3, #0
 800339c:	f000 847b 	beq.w	8003c96 <cipher+0x1ec2>
 80033a0:	f109 4380 	add.w	r3, r9, #1073741824	; 0x40000000
 80033a4:	3b01      	subs	r3, #1
 80033a6:	464a      	mov	r2, r9
 80033a8:	eb08 0383 	add.w	r3, r8, r3, lsl #2
 80033ac:	f1a8 0904 	sub.w	r9, r8, #4
 80033b0:	f04f 0800 	mov.w	r8, #0
 80033b4:	f8c7 5130 	str.w	r5, [r7, #304]	; 0x130
 80033b8:	f8c7 4108 	str.w	r4, [r7, #264]	; 0x108
 80033bc:	4645      	mov	r5, r8
 80033be:	464c      	mov	r4, r9
 80033c0:	4690      	mov	r8, r2
 80033c2:	4699      	mov	r9, r3
 80033c4:	f7fc fe1c 	bl	8000000 <get_random>
 80033c8:	f854 1f04 	ldr.w	r1, [r4, #4]!
 80033cc:	4041      	eors	r1, r0
 80033ce:	6021      	str	r1, [r4, #0]
 80033d0:	f859 1f04 	ldr.w	r1, [r9, #4]!
 80033d4:	3501      	adds	r5, #1
 80033d6:	4048      	eors	r0, r1
 80033d8:	45a8      	cmp	r8, r5
 80033da:	f8c9 0000 	str.w	r0, [r9]
 80033de:	d8f1      	bhi.n	80033c4 <cipher+0x15f0>
 80033e0:	f8d7 3104 	ldr.w	r3, [r7, #260]	; 0x104
 80033e4:	f8d7 5130 	ldr.w	r5, [r7, #304]	; 0x130
 80033e8:	f8d7 4108 	ldr.w	r4, [r7, #264]	; 0x108
 80033ec:	b313      	cbz	r3, 8003434 <cipher+0x1660>
 80033ee:	f8d7 2140 	ldr.w	r2, [r7, #320]	; 0x140
 80033f2:	f8d7 1094 	ldr.w	r1, [r7, #148]	; 0x94
 80033f6:	f8c7 5130 	str.w	r5, [r7, #304]	; 0x130
 80033fa:	f04f 0800 	mov.w	r8, #0
 80033fe:	1f13      	subs	r3, r2, #4
 8003400:	4645      	mov	r5, r8
 8003402:	f8d7 8104 	ldr.w	r8, [r7, #260]	; 0x104
 8003406:	f8c7 4108 	str.w	r4, [r7, #264]	; 0x108
 800340a:	eb02 0901 	add.w	r9, r2, r1
 800340e:	461c      	mov	r4, r3
 8003410:	f7fc fdf6 	bl	8000000 <get_random>
 8003414:	f854 1f04 	ldr.w	r1, [r4, #4]!
 8003418:	4041      	eors	r1, r0
 800341a:	6021      	str	r1, [r4, #0]
 800341c:	f859 1f04 	ldr.w	r1, [r9, #4]!
 8003420:	3501      	adds	r5, #1
 8003422:	4048      	eors	r0, r1
 8003424:	45a8      	cmp	r8, r5
 8003426:	f8c9 0000 	str.w	r0, [r9]
 800342a:	d8f1      	bhi.n	8003410 <cipher+0x163c>
 800342c:	f8d7 5130 	ldr.w	r5, [r7, #304]	; 0x130
 8003430:	f8d7 4108 	ldr.w	r4, [r7, #264]	; 0x108
 8003434:	f8d7 3110 	ldr.w	r3, [r7, #272]	; 0x110
 8003438:	2b01      	cmp	r3, #1
 800343a:	f000 8395 	beq.w	8003b68 <cipher+0x1d94>
 800343e:	f8d7 3140 	ldr.w	r3, [r7, #320]	; 0x140
 8003442:	f8d7 20d4 	ldr.w	r2, [r7, #212]	; 0xd4
 8003446:	4413      	add	r3, r2
 8003448:	f8c7 3130 	str.w	r3, [r7, #304]	; 0x130
 800344c:	f8d7 3110 	ldr.w	r3, [r7, #272]	; 0x110
 8003450:	2b02      	cmp	r3, #2
 8003452:	f000 837f 	beq.w	8003b54 <cipher+0x1d80>
 8003456:	f8d7 3100 	ldr.w	r3, [r7, #256]	; 0x100
 800345a:	2b01      	cmp	r3, #1
 800345c:	f000 85c8 	beq.w	8003ff0 <cipher+0x221c>
 8003460:	2b02      	cmp	r3, #2
 8003462:	f000 8443 	beq.w	8003cec <cipher+0x1f18>
 8003466:	f8d7 3110 	ldr.w	r3, [r7, #272]	; 0x110
 800346a:	089b      	lsrs	r3, r3, #2
 800346c:	2b01      	cmp	r3, #1
 800346e:	4698      	mov	r8, r3
 8003470:	f000 874a 	beq.w	8004308 <cipher+0x2534>
 8003474:	2b02      	cmp	r3, #2
 8003476:	f000 873a 	beq.w	80042ee <cipher+0x251a>
 800347a:	f8d7 9130 	ldr.w	r9, [r7, #304]	; 0x130
 800347e:	2301      	movs	r3, #1
 8003480:	4641      	mov	r1, r8
 8003482:	4620      	mov	r0, r4
 8003484:	464a      	mov	r2, r9
 8003486:	f001 fc4b 	bl	8004d20 <RefreshIOS_rec.part.0>
 800348a:	f8d7 0100 	ldr.w	r0, [r7, #256]	; 0x100
 800348e:	4643      	mov	r3, r8
 8003490:	1ac1      	subs	r1, r0, r3
 8003492:	2901      	cmp	r1, #1
 8003494:	d009      	beq.n	80034aa <cipher+0x16d6>
 8003496:	eb09 0988 	add.w	r9, r9, r8, lsl #2
 800349a:	2902      	cmp	r1, #2
 800349c:	f001 8287 	beq.w	80049ae <cipher+0x2bda>
 80034a0:	464a      	mov	r2, r9
 80034a2:	2301      	movs	r3, #1
 80034a4:	4620      	mov	r0, r4
 80034a6:	f001 fc3b 	bl	8004d20 <RefreshIOS_rec.part.0>
 80034aa:	4643      	mov	r3, r8
 80034ac:	b313      	cbz	r3, 80034f4 <cipher+0x1720>
 80034ae:	f8d7 2130 	ldr.w	r2, [r7, #304]	; 0x130
 80034b2:	f8c7 5108 	str.w	r5, [r7, #264]	; 0x108
 80034b6:	f108 4980 	add.w	r9, r8, #1073741824	; 0x40000000
 80034ba:	f109 39ff 	add.w	r9, r9, #4294967295	; 0xffffffff
 80034be:	4643      	mov	r3, r8
 80034c0:	eb02 0989 	add.w	r9, r2, r9, lsl #2
 80034c4:	f04f 0800 	mov.w	r8, #0
 80034c8:	3a04      	subs	r2, #4
 80034ca:	4645      	mov	r5, r8
 80034cc:	633c      	str	r4, [r7, #48]	; 0x30
 80034ce:	4698      	mov	r8, r3
 80034d0:	4614      	mov	r4, r2
 80034d2:	f7fc fd95 	bl	8000000 <get_random>
 80034d6:	f854 1f04 	ldr.w	r1, [r4, #4]!
 80034da:	4041      	eors	r1, r0
 80034dc:	6021      	str	r1, [r4, #0]
 80034de:	f859 1f04 	ldr.w	r1, [r9, #4]!
 80034e2:	3501      	adds	r5, #1
 80034e4:	4048      	eors	r0, r1
 80034e6:	45a8      	cmp	r8, r5
 80034e8:	f8c9 0000 	str.w	r0, [r9]
 80034ec:	d8f1      	bhi.n	80034d2 <cipher+0x16fe>
 80034ee:	f8d7 5108 	ldr.w	r5, [r7, #264]	; 0x108
 80034f2:	6b3c      	ldr	r4, [r7, #48]	; 0x30
 80034f4:	f8d7 3110 	ldr.w	r3, [r7, #272]	; 0x110
 80034f8:	f8d7 2100 	ldr.w	r2, [r7, #256]	; 0x100
 80034fc:	1a9b      	subs	r3, r3, r2
 80034fe:	2b01      	cmp	r3, #1
 8003500:	633b      	str	r3, [r7, #48]	; 0x30
 8003502:	f000 8582 	beq.w	800400a <cipher+0x2236>
 8003506:	f8d7 3130 	ldr.w	r3, [r7, #304]	; 0x130
 800350a:	eb03 0982 	add.w	r9, r3, r2, lsl #2
 800350e:	6b3b      	ldr	r3, [r7, #48]	; 0x30
 8003510:	2b02      	cmp	r3, #2
 8003512:	f000 8571 	beq.w	8003ff8 <cipher+0x2224>
 8003516:	085b      	lsrs	r3, r3, #1
 8003518:	2b01      	cmp	r3, #1
 800351a:	f8c7 3108 	str.w	r3, [r7, #264]	; 0x108
 800351e:	f000 83fe 	beq.w	8003d1e <cipher+0x1f4a>
 8003522:	2b02      	cmp	r3, #2
 8003524:	f001 807a 	beq.w	800461c <cipher+0x2848>
 8003528:	6b3b      	ldr	r3, [r7, #48]	; 0x30
 800352a:	089b      	lsrs	r3, r3, #2
 800352c:	2b01      	cmp	r3, #1
 800352e:	4698      	mov	r8, r3
 8003530:	f001 81d5 	beq.w	80048de <cipher+0x2b0a>
 8003534:	2b02      	cmp	r3, #2
 8003536:	f001 81c9 	beq.w	80048cc <cipher+0x2af8>
 800353a:	2301      	movs	r3, #1
 800353c:	464a      	mov	r2, r9
 800353e:	4641      	mov	r1, r8
 8003540:	4620      	mov	r0, r4
 8003542:	f001 fbed 	bl	8004d20 <RefreshIOS_rec.part.0>
 8003546:	f8d7 2108 	ldr.w	r2, [r7, #264]	; 0x108
 800354a:	4643      	mov	r3, r8
 800354c:	1ad1      	subs	r1, r2, r3
 800354e:	2901      	cmp	r1, #1
 8003550:	d008      	beq.n	8003564 <cipher+0x1790>
 8003552:	2902      	cmp	r1, #2
 8003554:	eb09 0283 	add.w	r2, r9, r3, lsl #2
 8003558:	f001 837f 	beq.w	8004c5a <cipher+0x2e86>
 800355c:	2301      	movs	r3, #1
 800355e:	4620      	mov	r0, r4
 8003560:	f001 fbde 	bl	8004d20 <RefreshIOS_rec.part.0>
 8003564:	4643      	mov	r3, r8
 8003566:	b30b      	cbz	r3, 80035ac <cipher+0x17d8>
 8003568:	f108 4380 	add.w	r3, r8, #1073741824	; 0x40000000
 800356c:	3b01      	subs	r3, #1
 800356e:	4642      	mov	r2, r8
 8003570:	eb09 0383 	add.w	r3, r9, r3, lsl #2
 8003574:	f04f 0800 	mov.w	r8, #0
 8003578:	f1a9 0104 	sub.w	r1, r9, #4
 800357c:	e9c7 6501 	strd	r6, r5, [r7, #4]
 8003580:	603c      	str	r4, [r7, #0]
 8003582:	4645      	mov	r5, r8
 8003584:	460e      	mov	r6, r1
 8003586:	4698      	mov	r8, r3
 8003588:	4614      	mov	r4, r2
 800358a:	f7fc fd39 	bl	8000000 <get_random>
 800358e:	f856 3f04 	ldr.w	r3, [r6, #4]!
 8003592:	4043      	eors	r3, r0
 8003594:	6033      	str	r3, [r6, #0]
 8003596:	f858 3f04 	ldr.w	r3, [r8, #4]!
 800359a:	3501      	adds	r5, #1
 800359c:	4058      	eors	r0, r3
 800359e:	42ac      	cmp	r4, r5
 80035a0:	f8c8 0000 	str.w	r0, [r8]
 80035a4:	d8f1      	bhi.n	800358a <cipher+0x17b6>
 80035a6:	e9d7 6501 	ldrd	r6, r5, [r7, #4]
 80035aa:	683c      	ldr	r4, [r7, #0]
 80035ac:	6b3b      	ldr	r3, [r7, #48]	; 0x30
 80035ae:	f8d7 2108 	ldr.w	r2, [r7, #264]	; 0x108
 80035b2:	1a9b      	subs	r3, r3, r2
 80035b4:	2b01      	cmp	r3, #1
 80035b6:	60bb      	str	r3, [r7, #8]
 80035b8:	f000 83bc 	beq.w	8003d34 <cipher+0x1f60>
 80035bc:	68bb      	ldr	r3, [r7, #8]
 80035be:	2b02      	cmp	r3, #2
 80035c0:	eb09 0882 	add.w	r8, r9, r2, lsl #2
 80035c4:	f000 83ad 	beq.w	8003d22 <cipher+0x1f4e>
 80035c8:	085b      	lsrs	r3, r3, #1
 80035ca:	2b01      	cmp	r3, #1
 80035cc:	633b      	str	r3, [r7, #48]	; 0x30
 80035ce:	f001 8034 	beq.w	800463a <cipher+0x2866>
 80035d2:	2b02      	cmp	r3, #2
 80035d4:	f001 8296 	beq.w	8004b04 <cipher+0x2d30>
 80035d8:	4619      	mov	r1, r3
 80035da:	4642      	mov	r2, r8
 80035dc:	2301      	movs	r3, #1
 80035de:	4620      	mov	r0, r4
 80035e0:	f001 fb9e 	bl	8004d20 <RefreshIOS_rec.part.0>
 80035e4:	68ba      	ldr	r2, [r7, #8]
 80035e6:	6b3b      	ldr	r3, [r7, #48]	; 0x30
 80035e8:	1ad1      	subs	r1, r2, r3
 80035ea:	2901      	cmp	r1, #1
 80035ec:	d008      	beq.n	8003600 <cipher+0x182c>
 80035ee:	eb08 0283 	add.w	r2, r8, r3, lsl #2
 80035f2:	2902      	cmp	r1, #2
 80035f4:	f001 8025 	beq.w	8004642 <cipher+0x286e>
 80035f8:	2301      	movs	r3, #1
 80035fa:	4620      	mov	r0, r4
 80035fc:	f001 fb90 	bl	8004d20 <RefreshIOS_rec.part.0>
 8003600:	6b3b      	ldr	r3, [r7, #48]	; 0x30
 8003602:	2b00      	cmp	r3, #0
 8003604:	f000 8396 	beq.w	8003d34 <cipher+0x1f60>
 8003608:	4619      	mov	r1, r3
 800360a:	f103 4380 	add.w	r3, r3, #1073741824	; 0x40000000
 800360e:	3b01      	subs	r3, #1
 8003610:	eb08 0383 	add.w	r3, r8, r3, lsl #2
 8003614:	f1a8 0204 	sub.w	r2, r8, #4
 8003618:	f04f 0800 	mov.w	r8, #0
 800361c:	633d      	str	r5, [r7, #48]	; 0x30
 800361e:	60be      	str	r6, [r7, #8]
 8003620:	4645      	mov	r5, r8
 8003622:	607c      	str	r4, [r7, #4]
 8003624:	4616      	mov	r6, r2
 8003626:	4698      	mov	r8, r3
 8003628:	460c      	mov	r4, r1
 800362a:	f7fc fce9 	bl	8000000 <get_random>
 800362e:	f856 3f04 	ldr.w	r3, [r6, #4]!
 8003632:	4043      	eors	r3, r0
 8003634:	6033      	str	r3, [r6, #0]
 8003636:	f858 3f04 	ldr.w	r3, [r8, #4]!
 800363a:	3501      	adds	r5, #1
 800363c:	4058      	eors	r0, r3
 800363e:	42ac      	cmp	r4, r5
 8003640:	f8c8 0000 	str.w	r0, [r8]
 8003644:	d8f1      	bhi.n	800362a <cipher+0x1856>
 8003646:	e9d7 4601 	ldrd	r4, r6, [r7, #4]
 800364a:	6b3d      	ldr	r5, [r7, #48]	; 0x30
 800364c:	e372      	b.n	8003d34 <cipher+0x1f60>
 800364e:	f7fc fcd7 	bl	8000000 <get_random>
 8003652:	f8d7 2144 	ldr.w	r2, [r7, #324]	; 0x144
 8003656:	5993      	ldr	r3, [r2, r6]
 8003658:	4043      	eors	r3, r0
 800365a:	5193      	str	r3, [r2, r6]
 800365c:	3204      	adds	r2, #4
 800365e:	5993      	ldr	r3, [r2, r6]
 8003660:	4043      	eors	r3, r0
 8003662:	5193      	str	r3, [r2, r6]
 8003664:	f8d7 3120 	ldr.w	r3, [r7, #288]	; 0x120
 8003668:	2b01      	cmp	r3, #1
 800366a:	f43f a8ad 	beq.w	80027c8 <cipher+0x9f4>
 800366e:	f8d7 30d0 	ldr.w	r3, [r7, #208]	; 0xd0
 8003672:	eb03 0806 	add.w	r8, r3, r6
 8003676:	f8d7 3120 	ldr.w	r3, [r7, #288]	; 0x120
 800367a:	2b02      	cmp	r3, #2
 800367c:	f000 82df 	beq.w	8003c3e <cipher+0x1e6a>
 8003680:	f8d7 30fc 	ldr.w	r3, [r7, #252]	; 0xfc
 8003684:	2b01      	cmp	r3, #1
 8003686:	f000 853f 	beq.w	8004108 <cipher+0x2334>
 800368a:	2b02      	cmp	r3, #2
 800368c:	f000 844c 	beq.w	8003f28 <cipher+0x2154>
 8003690:	f8d7 30f0 	ldr.w	r3, [r7, #240]	; 0xf0
 8003694:	2b01      	cmp	r3, #1
 8003696:	f000 8777 	beq.w	8004588 <cipher+0x27b4>
 800369a:	2b02      	cmp	r3, #2
 800369c:	f000 876b 	beq.w	8004576 <cipher+0x27a2>
 80036a0:	4619      	mov	r1, r3
 80036a2:	4642      	mov	r2, r8
 80036a4:	2301      	movs	r3, #1
 80036a6:	4620      	mov	r0, r4
 80036a8:	f001 fb3a 	bl	8004d20 <RefreshIOS_rec.part.0>
 80036ac:	f8d7 309c 	ldr.w	r3, [r7, #156]	; 0x9c
 80036b0:	2b01      	cmp	r3, #1
 80036b2:	d00e      	beq.n	80036d2 <cipher+0x18fe>
 80036b4:	f8d7 3088 	ldr.w	r3, [r7, #136]	; 0x88
 80036b8:	eb08 0903 	add.w	r9, r8, r3
 80036bc:	f8d7 309c 	ldr.w	r3, [r7, #156]	; 0x9c
 80036c0:	2b02      	cmp	r3, #2
 80036c2:	f000 87f7 	beq.w	80046b4 <cipher+0x28e0>
 80036c6:	4619      	mov	r1, r3
 80036c8:	464a      	mov	r2, r9
 80036ca:	2301      	movs	r3, #1
 80036cc:	4620      	mov	r0, r4
 80036ce:	f001 fb27 	bl	8004d20 <RefreshIOS_rec.part.0>
 80036d2:	f8d7 30f0 	ldr.w	r3, [r7, #240]	; 0xf0
 80036d6:	b32b      	cbz	r3, 8003724 <cipher+0x1950>
 80036d8:	f8d7 3144 	ldr.w	r3, [r7, #324]	; 0x144
 80036dc:	6e3a      	ldr	r2, [r7, #96]	; 0x60
 80036de:	f8c7 612c 	str.w	r6, [r7, #300]	; 0x12c
 80036e2:	eb03 0902 	add.w	r9, r3, r2
 80036e6:	6cbb      	ldr	r3, [r7, #72]	; 0x48
 80036e8:	f8c7 5130 	str.w	r5, [r7, #304]	; 0x130
 80036ec:	44b1      	add	r9, r6
 80036ee:	eb08 0203 	add.w	r2, r8, r3
 80036f2:	464e      	mov	r6, r9
 80036f4:	2300      	movs	r3, #0
 80036f6:	f8d7 90f0 	ldr.w	r9, [r7, #240]	; 0xf0
 80036fa:	f8c7 4108 	str.w	r4, [r7, #264]	; 0x108
 80036fe:	4615      	mov	r5, r2
 8003700:	461c      	mov	r4, r3
 8003702:	f7fc fc7d 	bl	8000000 <get_random>
 8003706:	f856 3f04 	ldr.w	r3, [r6, #4]!
 800370a:	4043      	eors	r3, r0
 800370c:	6033      	str	r3, [r6, #0]
 800370e:	f855 3f04 	ldr.w	r3, [r5, #4]!
 8003712:	3401      	adds	r4, #1
 8003714:	4058      	eors	r0, r3
 8003716:	45a1      	cmp	r9, r4
 8003718:	6028      	str	r0, [r5, #0]
 800371a:	d8f2      	bhi.n	8003702 <cipher+0x192e>
 800371c:	e9d7 654b 	ldrd	r6, r5, [r7, #300]	; 0x12c
 8003720:	f8d7 4108 	ldr.w	r4, [r7, #264]	; 0x108
 8003724:	f8d7 30e0 	ldr.w	r3, [r7, #224]	; 0xe0
 8003728:	2b01      	cmp	r3, #1
 800372a:	d016      	beq.n	800375a <cipher+0x1986>
 800372c:	f8d7 30a4 	ldr.w	r3, [r7, #164]	; 0xa4
 8003730:	4443      	add	r3, r8
 8003732:	f8c7 3130 	str.w	r3, [r7, #304]	; 0x130
 8003736:	f8d7 30e0 	ldr.w	r3, [r7, #224]	; 0xe0
 800373a:	2b02      	cmp	r3, #2
 800373c:	f040 8407 	bne.w	8003f4e <cipher+0x217a>
 8003740:	f7fc fc5e 	bl	8000000 <get_random>
 8003744:	f8d7 3130 	ldr.w	r3, [r7, #304]	; 0x130
 8003748:	e9d3 1200 	ldrd	r1, r2, [r3]
 800374c:	4603      	mov	r3, r0
 800374e:	4053      	eors	r3, r2
 8003750:	f8d7 2130 	ldr.w	r2, [r7, #304]	; 0x130
 8003754:	4041      	eors	r1, r0
 8003756:	e9c2 1300 	strd	r1, r3, [r2]
 800375a:	f8d7 30fc 	ldr.w	r3, [r7, #252]	; 0xfc
 800375e:	2b00      	cmp	r3, #0
 8003760:	f43f a82f 	beq.w	80027c2 <cipher+0x9ee>
 8003764:	f8d7 3144 	ldr.w	r3, [r7, #324]	; 0x144
 8003768:	6e3a      	ldr	r2, [r7, #96]	; 0x60
 800376a:	f8c7 412c 	str.w	r4, [r7, #300]	; 0x12c
 800376e:	eb03 0902 	add.w	r9, r3, r2
 8003772:	f8d7 3098 	ldr.w	r3, [r7, #152]	; 0x98
 8003776:	f8c7 5130 	str.w	r5, [r7, #304]	; 0x130
 800377a:	4443      	add	r3, r8
 800377c:	44b1      	add	r9, r6
 800377e:	f04f 0800 	mov.w	r8, #0
 8003782:	464c      	mov	r4, r9
 8003784:	46c1      	mov	r9, r8
 8003786:	f8d7 80fc 	ldr.w	r8, [r7, #252]	; 0xfc
 800378a:	461d      	mov	r5, r3
 800378c:	f7fc fc38 	bl	8000000 <get_random>
 8003790:	f854 1f04 	ldr.w	r1, [r4, #4]!
 8003794:	4041      	eors	r1, r0
 8003796:	6021      	str	r1, [r4, #0]
 8003798:	f855 1f04 	ldr.w	r1, [r5, #4]!
 800379c:	f109 0901 	add.w	r9, r9, #1
 80037a0:	4048      	eors	r0, r1
 80037a2:	45c8      	cmp	r8, r9
 80037a4:	6028      	str	r0, [r5, #0]
 80037a6:	d8f1      	bhi.n	800378c <cipher+0x19b8>
 80037a8:	f8d7 3118 	ldr.w	r3, [r7, #280]	; 0x118
 80037ac:	e9d7 454b 	ldrd	r4, r5, [r7, #300]	; 0x12c
 80037b0:	2b00      	cmp	r3, #0
 80037b2:	f47f a809 	bne.w	80027c8 <cipher+0x9f4>
 80037b6:	f7ff b82b 	b.w	8002810 <cipher+0xa3c>
 80037ba:	f8d7 3114 	ldr.w	r3, [r7, #276]	; 0x114
 80037be:	f8d7 213c 	ldr.w	r2, [r7, #316]	; 0x13c
 80037c2:	4413      	add	r3, r2
 80037c4:	f8c7 312c 	str.w	r3, [r7, #300]	; 0x12c
 80037c8:	f8d7 3118 	ldr.w	r3, [r7, #280]	; 0x118
 80037cc:	2b01      	cmp	r3, #1
 80037ce:	f47f a86d 	bne.w	80028ac <cipher+0xad8>
 80037d2:	f8d7 3120 	ldr.w	r3, [r7, #288]	; 0x120
 80037d6:	2b01      	cmp	r3, #1
 80037d8:	f43f a97e 	beq.w	8002ad8 <cipher+0xd04>
 80037dc:	f8d7 3120 	ldr.w	r3, [r7, #288]	; 0x120
 80037e0:	2b02      	cmp	r3, #2
 80037e2:	f000 821b 	beq.w	8003c1c <cipher+0x1e48>
 80037e6:	f8d7 30fc 	ldr.w	r3, [r7, #252]	; 0xfc
 80037ea:	2b01      	cmp	r3, #1
 80037ec:	f000 847f 	beq.w	80040ee <cipher+0x231a>
 80037f0:	2b02      	cmp	r3, #2
 80037f2:	f000 82f1 	beq.w	8003dd8 <cipher+0x2004>
 80037f6:	f8d7 30f0 	ldr.w	r3, [r7, #240]	; 0xf0
 80037fa:	2b01      	cmp	r3, #1
 80037fc:	f000 8503 	beq.w	8004206 <cipher+0x2432>
 8003800:	2b02      	cmp	r3, #2
 8003802:	f000 84f3 	beq.w	80041ec <cipher+0x2418>
 8003806:	6ffb      	ldr	r3, [r7, #124]	; 0x7c
 8003808:	2b01      	cmp	r3, #1
 800380a:	f001 8054 	beq.w	80048b6 <cipher+0x2ae2>
 800380e:	2b02      	cmp	r3, #2
 8003810:	f001 8044 	beq.w	800489c <cipher+0x2ac8>
 8003814:	f8d7 8134 	ldr.w	r8, [r7, #308]	; 0x134
 8003818:	4619      	mov	r1, r3
 800381a:	4642      	mov	r2, r8
 800381c:	2301      	movs	r3, #1
 800381e:	4620      	mov	r0, r4
 8003820:	f001 fa7e 	bl	8004d20 <RefreshIOS_rec.part.0>
 8003824:	6c7b      	ldr	r3, [r7, #68]	; 0x44
 8003826:	2b01      	cmp	r3, #1
 8003828:	d00b      	beq.n	8003842 <cipher+0x1a6e>
 800382a:	6efa      	ldr	r2, [r7, #108]	; 0x6c
 800382c:	4490      	add	r8, r2
 800382e:	6c7b      	ldr	r3, [r7, #68]	; 0x44
 8003830:	2b02      	cmp	r3, #2
 8003832:	f001 821f 	beq.w	8004c74 <cipher+0x2ea0>
 8003836:	4619      	mov	r1, r3
 8003838:	4642      	mov	r2, r8
 800383a:	2301      	movs	r3, #1
 800383c:	4620      	mov	r0, r4
 800383e:	f001 fa6f 	bl	8004d20 <RefreshIOS_rec.part.0>
 8003842:	6ffb      	ldr	r3, [r7, #124]	; 0x7c
 8003844:	b31b      	cbz	r3, 800388e <cipher+0x1aba>
 8003846:	f8d7 2134 	ldr.w	r2, [r7, #308]	; 0x134
 800384a:	6939      	ldr	r1, [r7, #16]
 800384c:	f8c7 5130 	str.w	r5, [r7, #304]	; 0x130
 8003850:	eb02 0901 	add.w	r9, r2, r1
 8003854:	f04f 0800 	mov.w	r8, #0
 8003858:	1f13      	subs	r3, r2, #4
 800385a:	464d      	mov	r5, r9
 800385c:	46c1      	mov	r9, r8
 800385e:	46a0      	mov	r8, r4
 8003860:	6ffc      	ldr	r4, [r7, #124]	; 0x7c
 8003862:	f8c7 6108 	str.w	r6, [r7, #264]	; 0x108
 8003866:	461e      	mov	r6, r3
 8003868:	f7fc fbca 	bl	8000000 <get_random>
 800386c:	f856 1f04 	ldr.w	r1, [r6, #4]!
 8003870:	4041      	eors	r1, r0
 8003872:	6031      	str	r1, [r6, #0]
 8003874:	f855 1f04 	ldr.w	r1, [r5, #4]!
 8003878:	f109 0901 	add.w	r9, r9, #1
 800387c:	4048      	eors	r0, r1
 800387e:	454c      	cmp	r4, r9
 8003880:	6028      	str	r0, [r5, #0]
 8003882:	d8f1      	bhi.n	8003868 <cipher+0x1a94>
 8003884:	f8d7 5130 	ldr.w	r5, [r7, #304]	; 0x130
 8003888:	f8d7 6108 	ldr.w	r6, [r7, #264]	; 0x108
 800388c:	4644      	mov	r4, r8
 800388e:	f8d7 309c 	ldr.w	r3, [r7, #156]	; 0x9c
 8003892:	2b01      	cmp	r3, #1
 8003894:	f040 84bc 	bne.w	8004210 <cipher+0x243c>
 8003898:	f8d7 30f0 	ldr.w	r3, [r7, #240]	; 0xf0
 800389c:	b313      	cbz	r3, 80038e4 <cipher+0x1b10>
 800389e:	f8d7 2134 	ldr.w	r2, [r7, #308]	; 0x134
 80038a2:	6cb9      	ldr	r1, [r7, #72]	; 0x48
 80038a4:	f8c7 4108 	str.w	r4, [r7, #264]	; 0x108
 80038a8:	eb02 0901 	add.w	r9, r2, r1
 80038ac:	f04f 0800 	mov.w	r8, #0
 80038b0:	1f13      	subs	r3, r2, #4
 80038b2:	464c      	mov	r4, r9
 80038b4:	46c1      	mov	r9, r8
 80038b6:	f8d7 80f0 	ldr.w	r8, [r7, #240]	; 0xf0
 80038ba:	f8c7 5130 	str.w	r5, [r7, #304]	; 0x130
 80038be:	461d      	mov	r5, r3
 80038c0:	f7fc fb9e 	bl	8000000 <get_random>
 80038c4:	f855 1f04 	ldr.w	r1, [r5, #4]!
 80038c8:	4041      	eors	r1, r0
 80038ca:	6029      	str	r1, [r5, #0]
 80038cc:	f854 1f04 	ldr.w	r1, [r4, #4]!
 80038d0:	f109 0901 	add.w	r9, r9, #1
 80038d4:	4048      	eors	r0, r1
 80038d6:	45c8      	cmp	r8, r9
 80038d8:	6020      	str	r0, [r4, #0]
 80038da:	d8f1      	bhi.n	80038c0 <cipher+0x1aec>
 80038dc:	f8d7 5130 	ldr.w	r5, [r7, #304]	; 0x130
 80038e0:	f8d7 4108 	ldr.w	r4, [r7, #264]	; 0x108
 80038e4:	f8d7 30e0 	ldr.w	r3, [r7, #224]	; 0xe0
 80038e8:	2b01      	cmp	r3, #1
 80038ea:	d013      	beq.n	8003914 <cipher+0x1b40>
 80038ec:	f8d7 3134 	ldr.w	r3, [r7, #308]	; 0x134
 80038f0:	f8d7 20a4 	ldr.w	r2, [r7, #164]	; 0xa4
 80038f4:	eb03 0802 	add.w	r8, r3, r2
 80038f8:	f8d7 30e0 	ldr.w	r3, [r7, #224]	; 0xe0
 80038fc:	2b02      	cmp	r3, #2
 80038fe:	f040 8281 	bne.w	8003e04 <cipher+0x2030>
 8003902:	f7fc fb7d 	bl	8000000 <get_random>
 8003906:	e9d8 1200 	ldrd	r1, r2, [r8]
 800390a:	4603      	mov	r3, r0
 800390c:	4041      	eors	r1, r0
 800390e:	4053      	eors	r3, r2
 8003910:	e9c8 1300 	strd	r1, r3, [r8]
 8003914:	f8d7 30fc 	ldr.w	r3, [r7, #252]	; 0xfc
 8003918:	2b00      	cmp	r3, #0
 800391a:	f43f a8da 	beq.w	8002ad2 <cipher+0xcfe>
 800391e:	f8d7 2134 	ldr.w	r2, [r7, #308]	; 0x134
 8003922:	f8d7 1098 	ldr.w	r1, [r7, #152]	; 0x98
 8003926:	f8c7 4108 	str.w	r4, [r7, #264]	; 0x108
 800392a:	eb02 0901 	add.w	r9, r2, r1
 800392e:	f04f 0800 	mov.w	r8, #0
 8003932:	1f13      	subs	r3, r2, #4
 8003934:	464c      	mov	r4, r9
 8003936:	46c1      	mov	r9, r8
 8003938:	f8d7 80fc 	ldr.w	r8, [r7, #252]	; 0xfc
 800393c:	f8c7 5130 	str.w	r5, [r7, #304]	; 0x130
 8003940:	461d      	mov	r5, r3
 8003942:	f7fc fb5d 	bl	8000000 <get_random>
 8003946:	f855 1f04 	ldr.w	r1, [r5, #4]!
 800394a:	4041      	eors	r1, r0
 800394c:	6029      	str	r1, [r5, #0]
 800394e:	f854 1f04 	ldr.w	r1, [r4, #4]!
 8003952:	f109 0901 	add.w	r9, r9, #1
 8003956:	4048      	eors	r0, r1
 8003958:	45c8      	cmp	r8, r9
 800395a:	6020      	str	r0, [r4, #0]
 800395c:	d8f1      	bhi.n	8003942 <cipher+0x1b6e>
 800395e:	f8d7 3118 	ldr.w	r3, [r7, #280]	; 0x118
 8003962:	f8d7 5130 	ldr.w	r5, [r7, #304]	; 0x130
 8003966:	f8d7 4108 	ldr.w	r4, [r7, #264]	; 0x108
 800396a:	2b00      	cmp	r3, #0
 800396c:	f47f a8b4 	bne.w	8002ad8 <cipher+0xd04>
 8003970:	f7ff b8d6 	b.w	8002b20 <cipher+0xd4c>
 8003974:	f8d7 3128 	ldr.w	r3, [r7, #296]	; 0x128
 8003978:	f8ca 5000 	str.w	r5, [sl]
 800397c:	f8cb 5000 	str.w	r5, [fp]
 8003980:	2b00      	cmp	r3, #0
 8003982:	f43f a928 	beq.w	8002bd6 <cipher+0xe02>
 8003986:	f8d7 3144 	ldr.w	r3, [r7, #324]	; 0x144
 800398a:	3b04      	subs	r3, #4
 800398c:	f8c7 3130 	str.w	r3, [r7, #304]	; 0x130
 8003990:	f7ff b902 	b.w	8002b98 <cipher+0xdc4>
 8003994:	f7fc fb34 	bl	8000000 <get_random>
 8003998:	f8d7 114c 	ldr.w	r1, [r7, #332]	; 0x14c
 800399c:	e9d1 2300 	ldrd	r2, r3, [r1]
 80039a0:	4043      	eors	r3, r0
 80039a2:	604b      	str	r3, [r1, #4]
 80039a4:	f8d7 3128 	ldr.w	r3, [r7, #296]	; 0x128
 80039a8:	4042      	eors	r2, r0
 80039aa:	2b02      	cmp	r3, #2
 80039ac:	600a      	str	r2, [r1, #0]
 80039ae:	f47f ac3b 	bne.w	8003228 <cipher+0x1454>
 80039b2:	f7fc fb25 	bl	8000000 <get_random>
 80039b6:	f8d7 1140 	ldr.w	r1, [r7, #320]	; 0x140
 80039ba:	e9d1 2300 	ldrd	r2, r3, [r1]
 80039be:	4042      	eors	r2, r0
 80039c0:	4043      	eors	r3, r0
 80039c2:	600a      	str	r2, [r1, #0]
 80039c4:	604b      	str	r3, [r1, #4]
 80039c6:	2d00      	cmp	r5, #0
 80039c8:	f47f a8b2 	bne.w	8002b30 <cipher+0xd5c>
 80039cc:	f8d7 3144 	ldr.w	r3, [r7, #324]	; 0x144
 80039d0:	f8ca 5000 	str.w	r5, [sl]
 80039d4:	3b04      	subs	r3, #4
 80039d6:	f8c7 3130 	str.w	r3, [r7, #304]	; 0x130
 80039da:	f8cb 5000 	str.w	r5, [fp]
 80039de:	f7ff b8db 	b.w	8002b98 <cipher+0xdc4>
 80039e2:	f7fc fb0d 	bl	8000000 <get_random>
 80039e6:	f8d7 2144 	ldr.w	r2, [r7, #324]	; 0x144
 80039ea:	5993      	ldr	r3, [r2, r6]
 80039ec:	4043      	eors	r3, r0
 80039ee:	5193      	str	r3, [r2, r6]
 80039f0:	1d11      	adds	r1, r2, #4
 80039f2:	f102 0308 	add.w	r3, r2, #8
 80039f6:	598a      	ldr	r2, [r1, r6]
 80039f8:	4433      	add	r3, r6
 80039fa:	4042      	eors	r2, r0
 80039fc:	518a      	str	r2, [r1, r6]
 80039fe:	f8c7 3130 	str.w	r3, [r7, #304]	; 0x130
 8003a02:	f7ff b93f 	b.w	8002c84 <cipher+0xeb0>
 8003a06:	2301      	movs	r3, #1
 8003a08:	e9cd 8300 	strd	r8, r3, [sp]
 8003a0c:	f8d7 4134 	ldr.w	r4, [r7, #308]	; 0x134
 8003a10:	f8d7 0138 	ldr.w	r0, [r7, #312]	; 0x138
 8003a14:	461a      	mov	r2, r3
 8003a16:	4621      	mov	r1, r4
 8003a18:	f001 ff3e 	bl	8005898 <masked_dense2bitslice_opt.constprop.0>
 8003a1c:	4623      	mov	r3, r4
 8003a1e:	075b      	lsls	r3, r3, #29
 8003a20:	f040 86bc 	bne.w	800479c <cipher+0x29c8>
 8003a24:	f8d7 1134 	ldr.w	r1, [r7, #308]	; 0x134
 8003a28:	2200      	movs	r2, #0
 8003a2a:	2300      	movs	r3, #0
 8003a2c:	e9c1 2300 	strd	r2, r3, [r1]
 8003a30:	e9c1 230c 	strd	r2, r3, [r1, #48]	; 0x30
 8003a34:	e9c1 2302 	strd	r2, r3, [r1, #8]
 8003a38:	e9c1 230e 	strd	r2, r3, [r1, #56]	; 0x38
 8003a3c:	e9c1 2304 	strd	r2, r3, [r1, #16]
 8003a40:	e9c1 2310 	strd	r2, r3, [r1, #64]	; 0x40
 8003a44:	e9c1 2306 	strd	r2, r3, [r1, #24]
 8003a48:	e9c1 2312 	strd	r2, r3, [r1, #72]	; 0x48
 8003a4c:	e9c1 2308 	strd	r2, r3, [r1, #32]
 8003a50:	e9c1 2314 	strd	r2, r3, [r1, #80]	; 0x50
 8003a54:	e9c1 230a 	strd	r2, r3, [r1, #40]	; 0x28
 8003a58:	e9c1 2316 	strd	r2, r3, [r1, #88]	; 0x58
 8003a5c:	f8d7 312c 	ldr.w	r3, [r7, #300]	; 0x12c
 8003a60:	009b      	lsls	r3, r3, #2
 8003a62:	f04f 0a00 	mov.w	sl, #0
 8003a66:	f8c7 3148 	str.w	r3, [r7, #328]	; 0x148
 8003a6a:	f7fe bb1e 	b.w	80020aa <cipher+0x2d6>
 8003a6e:	f8d7 3110 	ldr.w	r3, [r7, #272]	; 0x110
 8003a72:	2b01      	cmp	r3, #1
 8003a74:	f47f aaa9 	bne.w	8002fca <cipher+0x11f6>
 8003a78:	f7ff bba2 	b.w	80031c0 <cipher+0x13ec>
 8003a7c:	f8d7 3110 	ldr.w	r3, [r7, #272]	; 0x110
 8003a80:	2b01      	cmp	r3, #1
 8003a82:	f47f acdc 	bne.w	800343e <cipher+0x166a>
 8003a86:	f8d7 2140 	ldr.w	r2, [r7, #320]	; 0x140
 8003a8a:	f8d7 10d8 	ldr.w	r1, [r7, #216]	; 0xd8
 8003a8e:	f8c7 4108 	str.w	r4, [r7, #264]	; 0x108
 8003a92:	eb02 0901 	add.w	r9, r2, r1
 8003a96:	f04f 0800 	mov.w	r8, #0
 8003a9a:	1f13      	subs	r3, r2, #4
 8003a9c:	464c      	mov	r4, r9
 8003a9e:	46c1      	mov	r9, r8
 8003aa0:	f8d7 8124 	ldr.w	r8, [r7, #292]	; 0x124
 8003aa4:	f8c7 5130 	str.w	r5, [r7, #304]	; 0x130
 8003aa8:	461d      	mov	r5, r3
 8003aaa:	f7fc faa9 	bl	8000000 <get_random>
 8003aae:	f855 1f04 	ldr.w	r1, [r5, #4]!
 8003ab2:	4041      	eors	r1, r0
 8003ab4:	6029      	str	r1, [r5, #0]
 8003ab6:	f854 1f04 	ldr.w	r1, [r4, #4]!
 8003aba:	f109 0901 	add.w	r9, r9, #1
 8003abe:	4048      	eors	r0, r1
 8003ac0:	45c8      	cmp	r8, r9
 8003ac2:	6020      	str	r0, [r4, #0]
 8003ac4:	d8f1      	bhi.n	8003aaa <cipher+0x1cd6>
 8003ac6:	f8d7 5130 	ldr.w	r5, [r7, #304]	; 0x130
 8003aca:	f8d7 4108 	ldr.w	r4, [r7, #264]	; 0x108
 8003ace:	f7ff b82c 	b.w	8002b2a <cipher+0xd56>
 8003ad2:	f7fc fa95 	bl	8000000 <get_random>
 8003ad6:	f8d7 1144 	ldr.w	r1, [r7, #324]	; 0x144
 8003ada:	598a      	ldr	r2, [r1, r6]
 8003adc:	4042      	eors	r2, r0
 8003ade:	518a      	str	r2, [r1, r6]
 8003ae0:	3104      	adds	r1, #4
 8003ae2:	4603      	mov	r3, r0
 8003ae4:	598a      	ldr	r2, [r1, r6]
 8003ae6:	4053      	eors	r3, r2
 8003ae8:	518b      	str	r3, [r1, r6]
 8003aea:	f8d7 30f8 	ldr.w	r3, [r7, #248]	; 0xf8
 8003aee:	2b01      	cmp	r3, #1
 8003af0:	f47e ad63 	bne.w	80025ba <cipher+0x7e6>
 8003af4:	f7fe be3d 	b.w	8002772 <cipher+0x99e>
 8003af8:	f7fc fa82 	bl	8000000 <get_random>
 8003afc:	f8d7 314c 	ldr.w	r3, [r7, #332]	; 0x14c
 8003b00:	e9d3 1200 	ldrd	r1, r2, [r3]
 8003b04:	4603      	mov	r3, r0
 8003b06:	4053      	eors	r3, r2
 8003b08:	f8d7 214c 	ldr.w	r2, [r7, #332]	; 0x14c
 8003b0c:	4041      	eors	r1, r0
 8003b0e:	e9c2 1300 	strd	r1, r3, [r2]
 8003b12:	f8d7 30f8 	ldr.w	r3, [r7, #248]	; 0xf8
 8003b16:	2b01      	cmp	r3, #1
 8003b18:	f43e afb3 	beq.w	8002a82 <cipher+0xcae>
 8003b1c:	6dbb      	ldr	r3, [r7, #88]	; 0x58
 8003b1e:	eb06 0803 	add.w	r8, r6, r3
 8003b22:	f8d7 30f8 	ldr.w	r3, [r7, #248]	; 0xf8
 8003b26:	2b02      	cmp	r3, #2
 8003b28:	f47e af5f 	bne.w	80029ea <cipher+0xc16>
 8003b2c:	e0ba      	b.n	8003ca4 <cipher+0x1ed0>
 8003b2e:	f7fc fa67 	bl	8000000 <get_random>
 8003b32:	f8d7 3140 	ldr.w	r3, [r7, #320]	; 0x140
 8003b36:	e9d3 1200 	ldrd	r1, r2, [r3]
 8003b3a:	4603      	mov	r3, r0
 8003b3c:	4053      	eors	r3, r2
 8003b3e:	f8d7 2140 	ldr.w	r2, [r7, #320]	; 0x140
 8003b42:	4041      	eors	r1, r0
 8003b44:	e9c2 1300 	strd	r1, r3, [r2]
 8003b48:	f8d7 30ec 	ldr.w	r3, [r7, #236]	; 0xec
 8003b4c:	2b01      	cmp	r3, #1
 8003b4e:	f47f abfb 	bne.w	8003348 <cipher+0x1574>
 8003b52:	e44c      	b.n	80033ee <cipher+0x161a>
 8003b54:	f7fc fa54 	bl	8000000 <get_random>
 8003b58:	f8d7 1130 	ldr.w	r1, [r7, #304]	; 0x130
 8003b5c:	e9d1 2300 	ldrd	r2, r3, [r1]
 8003b60:	4042      	eors	r2, r0
 8003b62:	4043      	eors	r3, r0
 8003b64:	600a      	str	r2, [r1, #0]
 8003b66:	604b      	str	r3, [r1, #4]
 8003b68:	f8d7 3124 	ldr.w	r3, [r7, #292]	; 0x124
 8003b6c:	2b00      	cmp	r3, #0
 8003b6e:	d18a      	bne.n	8003a86 <cipher+0x1cb2>
 8003b70:	f7fe bfdb 	b.w	8002b2a <cipher+0xd56>
 8003b74:	f7fc fa44 	bl	8000000 <get_random>
 8003b78:	f8d7 3130 	ldr.w	r3, [r7, #304]	; 0x130
 8003b7c:	e9d3 1200 	ldrd	r1, r2, [r3]
 8003b80:	4603      	mov	r3, r0
 8003b82:	4053      	eors	r3, r2
 8003b84:	f8d7 2130 	ldr.w	r2, [r7, #304]	; 0x130
 8003b88:	4041      	eors	r1, r0
 8003b8a:	e9c2 1300 	strd	r1, r3, [r2]
 8003b8e:	f8d7 30ec 	ldr.w	r3, [r7, #236]	; 0xec
 8003b92:	2b01      	cmp	r3, #1
 8003b94:	f47f a913 	bne.w	8002dbe <cipher+0xfea>
 8003b98:	f7ff b9ea 	b.w	8002f70 <cipher+0x119c>
 8003b9c:	f7fc fa30 	bl	8000000 <get_random>
 8003ba0:	f8d7 1140 	ldr.w	r1, [r7, #320]	; 0x140
 8003ba4:	e9d1 2300 	ldrd	r2, r3, [r1]
 8003ba8:	4043      	eors	r3, r0
 8003baa:	604b      	str	r3, [r1, #4]
 8003bac:	f8d7 30d4 	ldr.w	r3, [r7, #212]	; 0xd4
 8003bb0:	4042      	eors	r2, r0
 8003bb2:	18cb      	adds	r3, r1, r3
 8003bb4:	600a      	str	r2, [r1, #0]
 8003bb6:	f8c7 3130 	str.w	r3, [r7, #304]	; 0x130
 8003bba:	e447      	b.n	800344c <cipher+0x1678>
 8003bbc:	f7fc fa20 	bl	8000000 <get_random>
 8003bc0:	f8d7 1130 	ldr.w	r1, [r7, #304]	; 0x130
 8003bc4:	e9d1 2300 	ldrd	r2, r3, [r1]
 8003bc8:	4043      	eors	r3, r0
 8003bca:	604b      	str	r3, [r1, #4]
 8003bcc:	f8d7 30d4 	ldr.w	r3, [r7, #212]	; 0xd4
 8003bd0:	18cb      	adds	r3, r1, r3
 8003bd2:	f8c7 312c 	str.w	r3, [r7, #300]	; 0x12c
 8003bd6:	f8d7 3110 	ldr.w	r3, [r7, #272]	; 0x110
 8003bda:	4042      	eors	r2, r0
 8003bdc:	2b02      	cmp	r3, #2
 8003bde:	600a      	str	r2, [r1, #0]
 8003be0:	f47f a9ff 	bne.w	8002fe2 <cipher+0x120e>
 8003be4:	f7fc fa0c 	bl	8000000 <get_random>
 8003be8:	f8d7 112c 	ldr.w	r1, [r7, #300]	; 0x12c
 8003bec:	e9d1 2300 	ldrd	r2, r3, [r1]
 8003bf0:	4043      	eors	r3, r0
 8003bf2:	604b      	str	r3, [r1, #4]
 8003bf4:	f8d7 3124 	ldr.w	r3, [r7, #292]	; 0x124
 8003bf8:	4042      	eors	r2, r0
 8003bfa:	600a      	str	r2, [r1, #0]
 8003bfc:	2b00      	cmp	r3, #0
 8003bfe:	f47f aadf 	bne.w	80031c0 <cipher+0x13ec>
 8003c02:	f7fe be1d 	b.w	8002840 <cipher+0xa6c>
 8003c06:	f7fc f9fb 	bl	8000000 <get_random>
 8003c0a:	f8d7 114c 	ldr.w	r1, [r7, #332]	; 0x14c
 8003c0e:	e9d1 2300 	ldrd	r2, r3, [r1]
 8003c12:	4042      	eors	r2, r0
 8003c14:	4043      	eors	r3, r0
 8003c16:	600a      	str	r2, [r1, #0]
 8003c18:	604b      	str	r3, [r1, #4]
 8003c1a:	e5da      	b.n	80037d2 <cipher+0x19fe>
 8003c1c:	f7fc f9f0 	bl	8000000 <get_random>
 8003c20:	f8d7 1134 	ldr.w	r1, [r7, #308]	; 0x134
 8003c24:	e9d1 2300 	ldrd	r2, r3, [r1]
 8003c28:	4043      	eors	r3, r0
 8003c2a:	604b      	str	r3, [r1, #4]
 8003c2c:	f8d7 3118 	ldr.w	r3, [r7, #280]	; 0x118
 8003c30:	4042      	eors	r2, r0
 8003c32:	600a      	str	r2, [r1, #0]
 8003c34:	2b00      	cmp	r3, #0
 8003c36:	f47e af4f 	bne.w	8002ad8 <cipher+0xd04>
 8003c3a:	f7fe bf71 	b.w	8002b20 <cipher+0xd4c>
 8003c3e:	f7fc f9df 	bl	8000000 <get_random>
 8003c42:	e9d8 2300 	ldrd	r2, r3, [r8]
 8003c46:	4043      	eors	r3, r0
 8003c48:	4042      	eors	r2, r0
 8003c4a:	e9c8 2300 	strd	r2, r3, [r8]
 8003c4e:	f8d7 3118 	ldr.w	r3, [r7, #280]	; 0x118
 8003c52:	2b00      	cmp	r3, #0
 8003c54:	f47e adb8 	bne.w	80027c8 <cipher+0x9f4>
 8003c58:	f7fe bdda 	b.w	8002810 <cipher+0xa3c>
 8003c5c:	f7fc f9d0 	bl	8000000 <get_random>
 8003c60:	f8d7 312c 	ldr.w	r3, [r7, #300]	; 0x12c
 8003c64:	e9d3 1200 	ldrd	r1, r2, [r3]
 8003c68:	4603      	mov	r3, r0
 8003c6a:	4053      	eors	r3, r2
 8003c6c:	f8d7 212c 	ldr.w	r2, [r7, #300]	; 0x12c
 8003c70:	4041      	eors	r1, r0
 8003c72:	e9c2 1300 	strd	r1, r3, [r2]
 8003c76:	f8d7 3104 	ldr.w	r3, [r7, #260]	; 0x104
 8003c7a:	2b00      	cmp	r3, #0
 8003c7c:	f47f a978 	bne.w	8002f70 <cipher+0x119c>
 8003c80:	f7ff b99e 	b.w	8002fc0 <cipher+0x11ec>
 8003c84:	f7fc f9bc 	bl	8000000 <get_random>
 8003c88:	e9d8 1200 	ldrd	r1, r2, [r8]
 8003c8c:	4603      	mov	r3, r0
 8003c8e:	4041      	eors	r1, r0
 8003c90:	4053      	eors	r3, r2
 8003c92:	e9c8 1300 	strd	r1, r3, [r8]
 8003c96:	f8d7 3104 	ldr.w	r3, [r7, #260]	; 0x104
 8003c9a:	2b00      	cmp	r3, #0
 8003c9c:	f47f aba7 	bne.w	80033ee <cipher+0x161a>
 8003ca0:	f7ff bbc8 	b.w	8003434 <cipher+0x1660>
 8003ca4:	f7fc f9ac 	bl	8000000 <get_random>
 8003ca8:	e9d8 1200 	ldrd	r1, r2, [r8]
 8003cac:	4603      	mov	r3, r0
 8003cae:	4041      	eors	r1, r0
 8003cb0:	4053      	eors	r3, r2
 8003cb2:	e9c8 1300 	strd	r1, r3, [r8]
 8003cb6:	f8d7 310c 	ldr.w	r3, [r7, #268]	; 0x10c
 8003cba:	2b00      	cmp	r3, #0
 8003cbc:	f47e aee1 	bne.w	8002a82 <cipher+0xcae>
 8003cc0:	f7fe bf02 	b.w	8002ac8 <cipher+0xcf4>
 8003cc4:	f7fc f99c 	bl	8000000 <get_random>
 8003cc8:	f8d7 3130 	ldr.w	r3, [r7, #304]	; 0x130
 8003ccc:	e9d3 1200 	ldrd	r1, r2, [r3]
 8003cd0:	4603      	mov	r3, r0
 8003cd2:	4053      	eors	r3, r2
 8003cd4:	f8d7 2130 	ldr.w	r2, [r7, #304]	; 0x130
 8003cd8:	4041      	eors	r1, r0
 8003cda:	e9c2 1300 	strd	r1, r3, [r2]
 8003cde:	f8d7 310c 	ldr.w	r3, [r7, #268]	; 0x10c
 8003ce2:	2b00      	cmp	r3, #0
 8003ce4:	f47e ad45 	bne.w	8002772 <cipher+0x99e>
 8003ce8:	f7fe bd66 	b.w	80027b8 <cipher+0x9e4>
 8003cec:	f7fc f988 	bl	8000000 <get_random>
 8003cf0:	f8d7 3130 	ldr.w	r3, [r7, #304]	; 0x130
 8003cf4:	685a      	ldr	r2, [r3, #4]
 8003cf6:	6819      	ldr	r1, [r3, #0]
 8003cf8:	4603      	mov	r3, r0
 8003cfa:	4053      	eors	r3, r2
 8003cfc:	f8d7 2130 	ldr.w	r2, [r7, #304]	; 0x130
 8003d00:	4041      	eors	r1, r0
 8003d02:	e9c2 1300 	strd	r1, r3, [r2]
 8003d06:	f8d7 1110 	ldr.w	r1, [r7, #272]	; 0x110
 8003d0a:	2904      	cmp	r1, #4
 8003d0c:	f1a1 0302 	sub.w	r3, r1, #2
 8003d10:	f102 0908 	add.w	r9, r2, #8
 8003d14:	f000 8170 	beq.w	8003ff8 <cipher+0x2224>
 8003d18:	085b      	lsrs	r3, r3, #1
 8003d1a:	f8c7 3108 	str.w	r3, [r7, #264]	; 0x108
 8003d1e:	f109 0804 	add.w	r8, r9, #4
 8003d22:	f7fc f96d 	bl	8000000 <get_random>
 8003d26:	e9d8 1200 	ldrd	r1, r2, [r8]
 8003d2a:	4603      	mov	r3, r0
 8003d2c:	4041      	eors	r1, r0
 8003d2e:	4053      	eors	r3, r2
 8003d30:	e9c8 1300 	strd	r1, r3, [r8]
 8003d34:	f8d7 3108 	ldr.w	r3, [r7, #264]	; 0x108
 8003d38:	2b00      	cmp	r3, #0
 8003d3a:	f000 8166 	beq.w	800400a <cipher+0x2236>
 8003d3e:	f103 4880 	add.w	r8, r3, #1073741824	; 0x40000000
 8003d42:	f108 38ff 	add.w	r8, r8, #4294967295	; 0xffffffff
 8003d46:	eb09 0888 	add.w	r8, r9, r8, lsl #2
 8003d4a:	461a      	mov	r2, r3
 8003d4c:	f1a9 0304 	sub.w	r3, r9, #4
 8003d50:	f04f 0900 	mov.w	r9, #0
 8003d54:	f8c7 5108 	str.w	r5, [r7, #264]	; 0x108
 8003d58:	633c      	str	r4, [r7, #48]	; 0x30
 8003d5a:	461d      	mov	r5, r3
 8003d5c:	464c      	mov	r4, r9
 8003d5e:	46c1      	mov	r9, r8
 8003d60:	4690      	mov	r8, r2
 8003d62:	f7fc f94d 	bl	8000000 <get_random>
 8003d66:	f855 1f04 	ldr.w	r1, [r5, #4]!
 8003d6a:	4041      	eors	r1, r0
 8003d6c:	6029      	str	r1, [r5, #0]
 8003d6e:	f859 1f04 	ldr.w	r1, [r9, #4]!
 8003d72:	3401      	adds	r4, #1
 8003d74:	4048      	eors	r0, r1
 8003d76:	4544      	cmp	r4, r8
 8003d78:	f8c9 0000 	str.w	r0, [r9]
 8003d7c:	d3f1      	bcc.n	8003d62 <cipher+0x1f8e>
 8003d7e:	f8d7 5108 	ldr.w	r5, [r7, #264]	; 0x108
 8003d82:	6b3c      	ldr	r4, [r7, #48]	; 0x30
 8003d84:	e141      	b.n	800400a <cipher+0x2236>
 8003d86:	f7fc f93b 	bl	8000000 <get_random>
 8003d8a:	f8d7 312c 	ldr.w	r3, [r7, #300]	; 0x12c
 8003d8e:	685a      	ldr	r2, [r3, #4]
 8003d90:	6819      	ldr	r1, [r3, #0]
 8003d92:	4603      	mov	r3, r0
 8003d94:	4053      	eors	r3, r2
 8003d96:	f8d7 212c 	ldr.w	r2, [r7, #300]	; 0x12c
 8003d9a:	4041      	eors	r1, r0
 8003d9c:	e9c2 1300 	strd	r1, r3, [r2]
 8003da0:	f8d7 3110 	ldr.w	r3, [r7, #272]	; 0x110
 8003da4:	3208      	adds	r2, #8
 8003da6:	2b04      	cmp	r3, #4
 8003da8:	f1a3 0802 	sub.w	r8, r3, #2
 8003dac:	f8c7 2108 	str.w	r2, [r7, #264]	; 0x108
 8003db0:	f000 8160 	beq.w	8004074 <cipher+0x22a0>
 8003db4:	ea4f 0358 	mov.w	r3, r8, lsr #1
 8003db8:	4698      	mov	r8, r3
 8003dba:	f8d7 3108 	ldr.w	r3, [r7, #264]	; 0x108
 8003dbe:	f103 0904 	add.w	r9, r3, #4
 8003dc2:	f7fc f91d 	bl	8000000 <get_random>
 8003dc6:	e9d9 1200 	ldrd	r1, r2, [r9]
 8003dca:	4603      	mov	r3, r0
 8003dcc:	4041      	eors	r1, r0
 8003dce:	4053      	eors	r3, r2
 8003dd0:	e9c9 1300 	strd	r1, r3, [r9]
 8003dd4:	f7ff b9c3 	b.w	800315e <cipher+0x138a>
 8003dd8:	f7fc f912 	bl	8000000 <get_random>
 8003ddc:	f8d7 3134 	ldr.w	r3, [r7, #308]	; 0x134
 8003de0:	e9d3 1200 	ldrd	r1, r2, [r3]
 8003de4:	4603      	mov	r3, r0
 8003de6:	4053      	eors	r3, r2
 8003de8:	f8d7 2134 	ldr.w	r2, [r7, #308]	; 0x134
 8003dec:	4041      	eors	r1, r0
 8003dee:	e9c2 1300 	strd	r1, r3, [r2]
 8003df2:	f8d7 30e0 	ldr.w	r3, [r7, #224]	; 0xe0
 8003df6:	f8d7 10a4 	ldr.w	r1, [r7, #164]	; 0xa4
 8003dfa:	2b02      	cmp	r3, #2
 8003dfc:	eb02 0801 	add.w	r8, r2, r1
 8003e00:	f43f ad7f 	beq.w	8003902 <cipher+0x1b2e>
 8003e04:	085b      	lsrs	r3, r3, #1
 8003e06:	2b01      	cmp	r3, #1
 8003e08:	f8c7 3130 	str.w	r3, [r7, #304]	; 0x130
 8003e0c:	f000 85da 	beq.w	80049c4 <cipher+0x2bf0>
 8003e10:	2b02      	cmp	r3, #2
 8003e12:	f000 8423 	beq.w	800465c <cipher+0x2888>
 8003e16:	f8d7 30e0 	ldr.w	r3, [r7, #224]	; 0xe0
 8003e1a:	089b      	lsrs	r3, r3, #2
 8003e1c:	2b01      	cmp	r3, #1
 8003e1e:	4699      	mov	r9, r3
 8003e20:	f000 84ef 	beq.w	8004802 <cipher+0x2a2e>
 8003e24:	2b02      	cmp	r3, #2
 8003e26:	f000 84e3 	beq.w	80047f0 <cipher+0x2a1c>
 8003e2a:	2301      	movs	r3, #1
 8003e2c:	4642      	mov	r2, r8
 8003e2e:	4649      	mov	r1, r9
 8003e30:	4620      	mov	r0, r4
 8003e32:	f000 ff75 	bl	8004d20 <RefreshIOS_rec.part.0>
 8003e36:	f8d7 2130 	ldr.w	r2, [r7, #304]	; 0x130
 8003e3a:	464b      	mov	r3, r9
 8003e3c:	1ad1      	subs	r1, r2, r3
 8003e3e:	2901      	cmp	r1, #1
 8003e40:	d008      	beq.n	8003e54 <cipher+0x2080>
 8003e42:	2902      	cmp	r1, #2
 8003e44:	eb08 0283 	add.w	r2, r8, r3, lsl #2
 8003e48:	f000 86f8 	beq.w	8004c3c <cipher+0x2e68>
 8003e4c:	2301      	movs	r3, #1
 8003e4e:	4620      	mov	r0, r4
 8003e50:	f000 ff66 	bl	8004d20 <RefreshIOS_rec.part.0>
 8003e54:	464b      	mov	r3, r9
 8003e56:	b33b      	cbz	r3, 8003ea8 <cipher+0x20d4>
 8003e58:	f109 4380 	add.w	r3, r9, #1073741824	; 0x40000000
 8003e5c:	3b01      	subs	r3, #1
 8003e5e:	464a      	mov	r2, r9
 8003e60:	eb08 0383 	add.w	r3, r8, r3, lsl #2
 8003e64:	f04f 0900 	mov.w	r9, #0
 8003e68:	f1a8 0104 	sub.w	r1, r8, #4
 8003e6c:	f8c7 5108 	str.w	r5, [r7, #264]	; 0x108
 8003e70:	f8c7 8030 	str.w	r8, [r7, #48]	; 0x30
 8003e74:	464d      	mov	r5, r9
 8003e76:	60be      	str	r6, [r7, #8]
 8003e78:	46a1      	mov	r9, r4
 8003e7a:	461e      	mov	r6, r3
 8003e7c:	4688      	mov	r8, r1
 8003e7e:	4614      	mov	r4, r2
 8003e80:	f7fc f8be 	bl	8000000 <get_random>
 8003e84:	f858 3f04 	ldr.w	r3, [r8, #4]!
 8003e88:	4043      	eors	r3, r0
 8003e8a:	f8c8 3000 	str.w	r3, [r8]
 8003e8e:	f856 3f04 	ldr.w	r3, [r6, #4]!
 8003e92:	3501      	adds	r5, #1
 8003e94:	4058      	eors	r0, r3
 8003e96:	42ac      	cmp	r4, r5
 8003e98:	6030      	str	r0, [r6, #0]
 8003e9a:	d8f1      	bhi.n	8003e80 <cipher+0x20ac>
 8003e9c:	f8d7 5108 	ldr.w	r5, [r7, #264]	; 0x108
 8003ea0:	f8d7 8030 	ldr.w	r8, [r7, #48]	; 0x30
 8003ea4:	68be      	ldr	r6, [r7, #8]
 8003ea6:	464c      	mov	r4, r9
 8003ea8:	f8d7 30e0 	ldr.w	r3, [r7, #224]	; 0xe0
 8003eac:	f8d7 2130 	ldr.w	r2, [r7, #304]	; 0x130
 8003eb0:	1a99      	subs	r1, r3, r2
 8003eb2:	2901      	cmp	r1, #1
 8003eb4:	d008      	beq.n	8003ec8 <cipher+0x20f4>
 8003eb6:	eb08 0282 	add.w	r2, r8, r2, lsl #2
 8003eba:	2902      	cmp	r1, #2
 8003ebc:	f000 8584 	beq.w	80049c8 <cipher+0x2bf4>
 8003ec0:	2301      	movs	r3, #1
 8003ec2:	4620      	mov	r0, r4
 8003ec4:	f000 ff2c 	bl	8004d20 <RefreshIOS_rec.part.0>
 8003ec8:	f8d7 3130 	ldr.w	r3, [r7, #304]	; 0x130
 8003ecc:	2b00      	cmp	r3, #0
 8003ece:	f43f ad21 	beq.w	8003914 <cipher+0x1b40>
 8003ed2:	461a      	mov	r2, r3
 8003ed4:	f103 4380 	add.w	r3, r3, #1073741824	; 0x40000000
 8003ed8:	3b01      	subs	r3, #1
 8003eda:	f1a8 0904 	sub.w	r9, r8, #4
 8003ede:	eb08 0383 	add.w	r3, r8, r3, lsl #2
 8003ee2:	f04f 0800 	mov.w	r8, #0
 8003ee6:	f8c7 5130 	str.w	r5, [r7, #304]	; 0x130
 8003eea:	f8c7 4108 	str.w	r4, [r7, #264]	; 0x108
 8003eee:	464d      	mov	r5, r9
 8003ef0:	461c      	mov	r4, r3
 8003ef2:	46c1      	mov	r9, r8
 8003ef4:	4690      	mov	r8, r2
 8003ef6:	f7fc f883 	bl	8000000 <get_random>
 8003efa:	f855 1f04 	ldr.w	r1, [r5, #4]!
 8003efe:	4041      	eors	r1, r0
 8003f00:	6029      	str	r1, [r5, #0]
 8003f02:	f854 1f04 	ldr.w	r1, [r4, #4]!
 8003f06:	f109 0901 	add.w	r9, r9, #1
 8003f0a:	4048      	eors	r0, r1
 8003f0c:	45c8      	cmp	r8, r9
 8003f0e:	6020      	str	r0, [r4, #0]
 8003f10:	d8f1      	bhi.n	8003ef6 <cipher+0x2122>
 8003f12:	f8d7 30fc 	ldr.w	r3, [r7, #252]	; 0xfc
 8003f16:	f8d7 5130 	ldr.w	r5, [r7, #304]	; 0x130
 8003f1a:	f8d7 4108 	ldr.w	r4, [r7, #264]	; 0x108
 8003f1e:	2b00      	cmp	r3, #0
 8003f20:	f47f acfd 	bne.w	800391e <cipher+0x1b4a>
 8003f24:	f7fe bdd5 	b.w	8002ad2 <cipher+0xcfe>
 8003f28:	f7fc f86a 	bl	8000000 <get_random>
 8003f2c:	e9d8 1200 	ldrd	r1, r2, [r8]
 8003f30:	4603      	mov	r3, r0
 8003f32:	4053      	eors	r3, r2
 8003f34:	4041      	eors	r1, r0
 8003f36:	e9c8 1300 	strd	r1, r3, [r8]
 8003f3a:	f8d7 30a4 	ldr.w	r3, [r7, #164]	; 0xa4
 8003f3e:	4443      	add	r3, r8
 8003f40:	f8c7 3130 	str.w	r3, [r7, #304]	; 0x130
 8003f44:	f8d7 30e0 	ldr.w	r3, [r7, #224]	; 0xe0
 8003f48:	2b02      	cmp	r3, #2
 8003f4a:	f43f abf9 	beq.w	8003740 <cipher+0x196c>
 8003f4e:	085b      	lsrs	r3, r3, #1
 8003f50:	2b01      	cmp	r3, #1
 8003f52:	4699      	mov	r9, r3
 8003f54:	f000 8547 	beq.w	80049e6 <cipher+0x2c12>
 8003f58:	2b02      	cmp	r3, #2
 8003f5a:	f000 838e 	beq.w	800467a <cipher+0x28a6>
 8003f5e:	2301      	movs	r3, #1
 8003f60:	4649      	mov	r1, r9
 8003f62:	4620      	mov	r0, r4
 8003f64:	f8d7 2130 	ldr.w	r2, [r7, #304]	; 0x130
 8003f68:	f000 feda 	bl	8004d20 <RefreshIOS_rec.part.0>
 8003f6c:	f8d7 00e0 	ldr.w	r0, [r7, #224]	; 0xe0
 8003f70:	464b      	mov	r3, r9
 8003f72:	1ac1      	subs	r1, r0, r3
 8003f74:	2901      	cmp	r1, #1
 8003f76:	d00a      	beq.n	8003f8e <cipher+0x21ba>
 8003f78:	f8d7 2130 	ldr.w	r2, [r7, #304]	; 0x130
 8003f7c:	eb02 0289 	add.w	r2, r2, r9, lsl #2
 8003f80:	2902      	cmp	r1, #2
 8003f82:	f000 8533 	beq.w	80049ec <cipher+0x2c18>
 8003f86:	2301      	movs	r3, #1
 8003f88:	4620      	mov	r0, r4
 8003f8a:	f000 fec9 	bl	8004d20 <RefreshIOS_rec.part.0>
 8003f8e:	464b      	mov	r3, r9
 8003f90:	2b00      	cmp	r3, #0
 8003f92:	f43f abe2 	beq.w	800375a <cipher+0x1986>
 8003f96:	f8d7 1130 	ldr.w	r1, [r7, #304]	; 0x130
 8003f9a:	f8c7 612c 	str.w	r6, [r7, #300]	; 0x12c
 8003f9e:	f109 4380 	add.w	r3, r9, #1073741824	; 0x40000000
 8003fa2:	3b01      	subs	r3, #1
 8003fa4:	464a      	mov	r2, r9
 8003fa6:	eb01 0383 	add.w	r3, r1, r3, lsl #2
 8003faa:	f04f 0900 	mov.w	r9, #0
 8003fae:	3904      	subs	r1, #4
 8003fb0:	f8c7 5130 	str.w	r5, [r7, #304]	; 0x130
 8003fb4:	f8c7 4108 	str.w	r4, [r7, #264]	; 0x108
 8003fb8:	461d      	mov	r5, r3
 8003fba:	464c      	mov	r4, r9
 8003fbc:	460e      	mov	r6, r1
 8003fbe:	4691      	mov	r9, r2
 8003fc0:	f7fc f81e 	bl	8000000 <get_random>
 8003fc4:	f856 3f04 	ldr.w	r3, [r6, #4]!
 8003fc8:	4043      	eors	r3, r0
 8003fca:	6033      	str	r3, [r6, #0]
 8003fcc:	f855 3f04 	ldr.w	r3, [r5, #4]!
 8003fd0:	3401      	adds	r4, #1
 8003fd2:	4058      	eors	r0, r3
 8003fd4:	45a1      	cmp	r9, r4
 8003fd6:	6028      	str	r0, [r5, #0]
 8003fd8:	d8f2      	bhi.n	8003fc0 <cipher+0x21ec>
 8003fda:	f8d7 30fc 	ldr.w	r3, [r7, #252]	; 0xfc
 8003fde:	f8d7 4108 	ldr.w	r4, [r7, #264]	; 0x108
 8003fe2:	e9d7 654b 	ldrd	r6, r5, [r7, #300]	; 0x12c
 8003fe6:	2b00      	cmp	r3, #0
 8003fe8:	f47f abbc 	bne.w	8003764 <cipher+0x1990>
 8003fec:	f7fe bbe9 	b.w	80027c2 <cipher+0x9ee>
 8003ff0:	f8d7 3130 	ldr.w	r3, [r7, #304]	; 0x130
 8003ff4:	f103 0904 	add.w	r9, r3, #4
 8003ff8:	f7fc f802 	bl	8000000 <get_random>
 8003ffc:	e9d9 1200 	ldrd	r1, r2, [r9]
 8004000:	4603      	mov	r3, r0
 8004002:	4041      	eors	r1, r0
 8004004:	4053      	eors	r3, r2
 8004006:	e9c9 1300 	strd	r1, r3, [r9]
 800400a:	f8d7 3100 	ldr.w	r3, [r7, #256]	; 0x100
 800400e:	2b00      	cmp	r3, #0
 8004010:	f43f adaa 	beq.w	8003b68 <cipher+0x1d94>
 8004014:	f8d7 2130 	ldr.w	r2, [r7, #304]	; 0x130
 8004018:	f8d7 1090 	ldr.w	r1, [r7, #144]	; 0x90
 800401c:	f8c7 5130 	str.w	r5, [r7, #304]	; 0x130
 8004020:	eb02 0981 	add.w	r9, r2, r1, lsl #2
 8004024:	f04f 0800 	mov.w	r8, #0
 8004028:	1f13      	subs	r3, r2, #4
 800402a:	464d      	mov	r5, r9
 800402c:	46c1      	mov	r9, r8
 800402e:	f8d7 8100 	ldr.w	r8, [r7, #256]	; 0x100
 8004032:	f8c7 4108 	str.w	r4, [r7, #264]	; 0x108
 8004036:	461c      	mov	r4, r3
 8004038:	f7fb ffe2 	bl	8000000 <get_random>
 800403c:	f854 1f04 	ldr.w	r1, [r4, #4]!
 8004040:	4041      	eors	r1, r0
 8004042:	6021      	str	r1, [r4, #0]
 8004044:	f855 1f04 	ldr.w	r1, [r5, #4]!
 8004048:	f109 0901 	add.w	r9, r9, #1
 800404c:	4048      	eors	r0, r1
 800404e:	45c8      	cmp	r8, r9
 8004050:	6028      	str	r0, [r5, #0]
 8004052:	d8f1      	bhi.n	8004038 <cipher+0x2264>
 8004054:	f8d7 3124 	ldr.w	r3, [r7, #292]	; 0x124
 8004058:	f8d7 5130 	ldr.w	r5, [r7, #304]	; 0x130
 800405c:	f8d7 4108 	ldr.w	r4, [r7, #264]	; 0x108
 8004060:	2b00      	cmp	r3, #0
 8004062:	f47f ad10 	bne.w	8003a86 <cipher+0x1cb2>
 8004066:	f7fe bd60 	b.w	8002b2a <cipher+0xd56>
 800406a:	f8d7 312c 	ldr.w	r3, [r7, #300]	; 0x12c
 800406e:	3304      	adds	r3, #4
 8004070:	f8c7 3108 	str.w	r3, [r7, #264]	; 0x108
 8004074:	f7fb ffc4 	bl	8000000 <get_random>
 8004078:	f8d7 3108 	ldr.w	r3, [r7, #264]	; 0x108
 800407c:	e9d3 1200 	ldrd	r1, r2, [r3]
 8004080:	4603      	mov	r3, r0
 8004082:	4053      	eors	r3, r2
 8004084:	f8d7 2108 	ldr.w	r2, [r7, #264]	; 0x108
 8004088:	4041      	eors	r1, r0
 800408a:	e9c2 1300 	strd	r1, r3, [r2]
 800408e:	f8d7 3100 	ldr.w	r3, [r7, #256]	; 0x100
 8004092:	2b00      	cmp	r3, #0
 8004094:	f43f a88f 	beq.w	80031b6 <cipher+0x13e2>
 8004098:	f8d7 212c 	ldr.w	r2, [r7, #300]	; 0x12c
 800409c:	f8d7 1090 	ldr.w	r1, [r7, #144]	; 0x90
 80040a0:	f8c7 4108 	str.w	r4, [r7, #264]	; 0x108
 80040a4:	eb02 0981 	add.w	r9, r2, r1, lsl #2
 80040a8:	f04f 0800 	mov.w	r8, #0
 80040ac:	1f13      	subs	r3, r2, #4
 80040ae:	464c      	mov	r4, r9
 80040b0:	46c1      	mov	r9, r8
 80040b2:	f8d7 8100 	ldr.w	r8, [r7, #256]	; 0x100
 80040b6:	f8c7 512c 	str.w	r5, [r7, #300]	; 0x12c
 80040ba:	461d      	mov	r5, r3
 80040bc:	f7fb ffa0 	bl	8000000 <get_random>
 80040c0:	f855 1f04 	ldr.w	r1, [r5, #4]!
 80040c4:	4041      	eors	r1, r0
 80040c6:	6029      	str	r1, [r5, #0]
 80040c8:	f854 1f04 	ldr.w	r1, [r4, #4]!
 80040cc:	f109 0901 	add.w	r9, r9, #1
 80040d0:	4048      	eors	r0, r1
 80040d2:	45c8      	cmp	r8, r9
 80040d4:	6020      	str	r0, [r4, #0]
 80040d6:	d8f1      	bhi.n	80040bc <cipher+0x22e8>
 80040d8:	f8d7 3124 	ldr.w	r3, [r7, #292]	; 0x124
 80040dc:	f8d7 512c 	ldr.w	r5, [r7, #300]	; 0x12c
 80040e0:	f8d7 4108 	ldr.w	r4, [r7, #264]	; 0x108
 80040e4:	2b00      	cmp	r3, #0
 80040e6:	f47f a86b 	bne.w	80031c0 <cipher+0x13ec>
 80040ea:	f7fe bba9 	b.w	8002840 <cipher+0xa6c>
 80040ee:	f8d7 30e0 	ldr.w	r3, [r7, #224]	; 0xe0
 80040f2:	2b01      	cmp	r3, #1
 80040f4:	f43f ac13 	beq.w	800391e <cipher+0x1b4a>
 80040f8:	f8d7 3134 	ldr.w	r3, [r7, #308]	; 0x134
 80040fc:	f8d7 20a4 	ldr.w	r2, [r7, #164]	; 0xa4
 8004100:	eb03 0802 	add.w	r8, r3, r2
 8004104:	f7ff bbf8 	b.w	80038f8 <cipher+0x1b24>
 8004108:	f8d7 30e0 	ldr.w	r3, [r7, #224]	; 0xe0
 800410c:	2b01      	cmp	r3, #1
 800410e:	f43f ab29 	beq.w	8003764 <cipher+0x1990>
 8004112:	f8d7 30a4 	ldr.w	r3, [r7, #164]	; 0xa4
 8004116:	4443      	add	r3, r8
 8004118:	f8c7 3130 	str.w	r3, [r7, #304]	; 0x130
 800411c:	f7ff bb0b 	b.w	8003736 <cipher+0x1962>
 8004120:	f7fb ff6e 	bl	8000000 <get_random>
 8004124:	f8d7 3130 	ldr.w	r3, [r7, #304]	; 0x130
 8004128:	e9d3 1200 	ldrd	r1, r2, [r3]
 800412c:	4603      	mov	r3, r0
 800412e:	4053      	eors	r3, r2
 8004130:	f8d7 2130 	ldr.w	r2, [r7, #304]	; 0x130
 8004134:	4041      	eors	r1, r0
 8004136:	e9c2 1300 	strd	r1, r3, [r2]
 800413a:	f8d7 30b0 	ldr.w	r3, [r7, #176]	; 0xb0
 800413e:	2b01      	cmp	r3, #1
 8004140:	f43e ae11 	beq.w	8002d66 <cipher+0xf92>
 8004144:	f8d7 3130 	ldr.w	r3, [r7, #304]	; 0x130
 8004148:	f8d7 2084 	ldr.w	r2, [r7, #132]	; 0x84
 800414c:	eb03 0802 	add.w	r8, r3, r2
 8004150:	f8d7 30b0 	ldr.w	r3, [r7, #176]	; 0xb0
 8004154:	2b02      	cmp	r3, #2
 8004156:	f000 8256 	beq.w	8004606 <cipher+0x2832>
 800415a:	085b      	lsrs	r3, r3, #1
 800415c:	2b01      	cmp	r3, #1
 800415e:	4699      	mov	r9, r3
 8004160:	f000 851f 	beq.w	8004ba2 <cipher+0x2dce>
 8004164:	2b02      	cmp	r3, #2
 8004166:	f000 859d 	beq.w	8004ca4 <cipher+0x2ed0>
 800416a:	2301      	movs	r3, #1
 800416c:	4642      	mov	r2, r8
 800416e:	4649      	mov	r1, r9
 8004170:	4620      	mov	r0, r4
 8004172:	f000 fdd5 	bl	8004d20 <RefreshIOS_rec.part.0>
 8004176:	f8d7 20b0 	ldr.w	r2, [r7, #176]	; 0xb0
 800417a:	464b      	mov	r3, r9
 800417c:	1ad1      	subs	r1, r2, r3
 800417e:	2901      	cmp	r1, #1
 8004180:	d008      	beq.n	8004194 <cipher+0x23c0>
 8004182:	eb08 0289 	add.w	r2, r8, r9, lsl #2
 8004186:	2902      	cmp	r1, #2
 8004188:	f000 850d 	beq.w	8004ba6 <cipher+0x2dd2>
 800418c:	2301      	movs	r3, #1
 800418e:	4620      	mov	r0, r4
 8004190:	f000 fdc6 	bl	8004d20 <RefreshIOS_rec.part.0>
 8004194:	464b      	mov	r3, r9
 8004196:	2b00      	cmp	r3, #0
 8004198:	f43e ade2 	beq.w	8002d60 <cipher+0xf8c>
 800419c:	f109 4380 	add.w	r3, r9, #1073741824	; 0x40000000
 80041a0:	3b01      	subs	r3, #1
 80041a2:	464a      	mov	r2, r9
 80041a4:	eb08 0383 	add.w	r3, r8, r3, lsl #2
 80041a8:	f1a8 0904 	sub.w	r9, r8, #4
 80041ac:	f04f 0800 	mov.w	r8, #0
 80041b0:	f8c7 512c 	str.w	r5, [r7, #300]	; 0x12c
 80041b4:	f8c7 6108 	str.w	r6, [r7, #264]	; 0x108
 80041b8:	461d      	mov	r5, r3
 80041ba:	464e      	mov	r6, r9
 80041bc:	46c1      	mov	r9, r8
 80041be:	46a0      	mov	r8, r4
 80041c0:	4614      	mov	r4, r2
 80041c2:	f7fb ff1d 	bl	8000000 <get_random>
 80041c6:	f856 1f04 	ldr.w	r1, [r6, #4]!
 80041ca:	4041      	eors	r1, r0
 80041cc:	6031      	str	r1, [r6, #0]
 80041ce:	f855 1f04 	ldr.w	r1, [r5, #4]!
 80041d2:	f109 0901 	add.w	r9, r9, #1
 80041d6:	4048      	eors	r0, r1
 80041d8:	454c      	cmp	r4, r9
 80041da:	6028      	str	r0, [r5, #0]
 80041dc:	d8f1      	bhi.n	80041c2 <cipher+0x23ee>
 80041de:	f8d7 512c 	ldr.w	r5, [r7, #300]	; 0x12c
 80041e2:	f8d7 6108 	ldr.w	r6, [r7, #264]	; 0x108
 80041e6:	4644      	mov	r4, r8
 80041e8:	f7fe bdba 	b.w	8002d60 <cipher+0xf8c>
 80041ec:	f7fb ff08 	bl	8000000 <get_random>
 80041f0:	f8d7 3134 	ldr.w	r3, [r7, #308]	; 0x134
 80041f4:	e9d3 1200 	ldrd	r1, r2, [r3]
 80041f8:	4603      	mov	r3, r0
 80041fa:	4053      	eors	r3, r2
 80041fc:	f8d7 2134 	ldr.w	r2, [r7, #308]	; 0x134
 8004200:	4041      	eors	r1, r0
 8004202:	e9c2 1300 	strd	r1, r3, [r2]
 8004206:	f8d7 309c 	ldr.w	r3, [r7, #156]	; 0x9c
 800420a:	2b01      	cmp	r3, #1
 800420c:	f43f ab47 	beq.w	800389e <cipher+0x1aca>
 8004210:	f8d7 3134 	ldr.w	r3, [r7, #308]	; 0x134
 8004214:	f8d7 2088 	ldr.w	r2, [r7, #136]	; 0x88
 8004218:	eb03 0802 	add.w	r8, r3, r2
 800421c:	f8d7 309c 	ldr.w	r3, [r7, #156]	; 0x9c
 8004220:	2b02      	cmp	r3, #2
 8004222:	f000 81c0 	beq.w	80045a6 <cipher+0x27d2>
 8004226:	085b      	lsrs	r3, r3, #1
 8004228:	2b01      	cmp	r3, #1
 800422a:	4699      	mov	r9, r3
 800422c:	f000 8498 	beq.w	8004b60 <cipher+0x2d8c>
 8004230:	2b02      	cmp	r3, #2
 8004232:	f000 8547 	beq.w	8004cc4 <cipher+0x2ef0>
 8004236:	2301      	movs	r3, #1
 8004238:	4642      	mov	r2, r8
 800423a:	4649      	mov	r1, r9
 800423c:	4620      	mov	r0, r4
 800423e:	f000 fd6f 	bl	8004d20 <RefreshIOS_rec.part.0>
 8004242:	f8d7 209c 	ldr.w	r2, [r7, #156]	; 0x9c
 8004246:	464b      	mov	r3, r9
 8004248:	1ad1      	subs	r1, r2, r3
 800424a:	2901      	cmp	r1, #1
 800424c:	d008      	beq.n	8004260 <cipher+0x248c>
 800424e:	eb08 0289 	add.w	r2, r8, r9, lsl #2
 8004252:	2902      	cmp	r1, #2
 8004254:	f000 8486 	beq.w	8004b64 <cipher+0x2d90>
 8004258:	2301      	movs	r3, #1
 800425a:	4620      	mov	r0, r4
 800425c:	f000 fd60 	bl	8004d20 <RefreshIOS_rec.part.0>
 8004260:	464b      	mov	r3, r9
 8004262:	2b00      	cmp	r3, #0
 8004264:	f43f ab18 	beq.w	8003898 <cipher+0x1ac4>
 8004268:	f109 4380 	add.w	r3, r9, #1073741824	; 0x40000000
 800426c:	3b01      	subs	r3, #1
 800426e:	464a      	mov	r2, r9
 8004270:	eb08 0383 	add.w	r3, r8, r3, lsl #2
 8004274:	f1a8 0904 	sub.w	r9, r8, #4
 8004278:	f04f 0800 	mov.w	r8, #0
 800427c:	f8c7 5130 	str.w	r5, [r7, #304]	; 0x130
 8004280:	f8c7 6108 	str.w	r6, [r7, #264]	; 0x108
 8004284:	461d      	mov	r5, r3
 8004286:	464e      	mov	r6, r9
 8004288:	46c1      	mov	r9, r8
 800428a:	46a0      	mov	r8, r4
 800428c:	4614      	mov	r4, r2
 800428e:	f7fb feb7 	bl	8000000 <get_random>
 8004292:	f856 1f04 	ldr.w	r1, [r6, #4]!
 8004296:	4041      	eors	r1, r0
 8004298:	6031      	str	r1, [r6, #0]
 800429a:	f855 1f04 	ldr.w	r1, [r5, #4]!
 800429e:	f109 0901 	add.w	r9, r9, #1
 80042a2:	4048      	eors	r0, r1
 80042a4:	454c      	cmp	r4, r9
 80042a6:	6028      	str	r0, [r5, #0]
 80042a8:	d8f1      	bhi.n	800428e <cipher+0x24ba>
 80042aa:	f8d7 5130 	ldr.w	r5, [r7, #304]	; 0x130
 80042ae:	f8d7 6108 	ldr.w	r6, [r7, #264]	; 0x108
 80042b2:	4644      	mov	r4, r8
 80042b4:	f7ff baf0 	b.w	8003898 <cipher+0x1ac4>
 80042b8:	f7fb fea2 	bl	8000000 <get_random>
 80042bc:	f8d7 314c 	ldr.w	r3, [r7, #332]	; 0x14c
 80042c0:	e9d3 1200 	ldrd	r1, r2, [r3]
 80042c4:	4603      	mov	r3, r0
 80042c6:	4053      	eors	r3, r2
 80042c8:	f8d7 214c 	ldr.w	r2, [r7, #332]	; 0x14c
 80042cc:	4041      	eors	r1, r0
 80042ce:	e9c2 1300 	strd	r1, r3, [r2]
 80042d2:	f8d7 30cc 	ldr.w	r3, [r7, #204]	; 0xcc
 80042d6:	2b01      	cmp	r3, #1
 80042d8:	f43e ab57 	beq.w	800298a <cipher+0xbb6>
 80042dc:	6a3b      	ldr	r3, [r7, #32]
 80042de:	eb06 0803 	add.w	r8, r6, r3
 80042e2:	f8d7 30cc 	ldr.w	r3, [r7, #204]	; 0xcc
 80042e6:	2b02      	cmp	r3, #2
 80042e8:	f47e ab46 	bne.w	8002978 <cipher+0xba4>
 80042ec:	e180      	b.n	80045f0 <cipher+0x281c>
 80042ee:	f7fb fe87 	bl	8000000 <get_random>
 80042f2:	f8d7 3130 	ldr.w	r3, [r7, #304]	; 0x130
 80042f6:	e9d3 1200 	ldrd	r1, r2, [r3]
 80042fa:	4603      	mov	r3, r0
 80042fc:	4053      	eors	r3, r2
 80042fe:	f8d7 2130 	ldr.w	r2, [r7, #304]	; 0x130
 8004302:	4041      	eors	r1, r0
 8004304:	e9c2 1300 	strd	r1, r3, [r2]
 8004308:	f8d7 2100 	ldr.w	r2, [r7, #256]	; 0x100
 800430c:	4643      	mov	r3, r8
 800430e:	1ad1      	subs	r1, r2, r3
 8004310:	2901      	cmp	r1, #1
 8004312:	f43f a8cc 	beq.w	80034ae <cipher+0x16da>
 8004316:	f8d7 2130 	ldr.w	r2, [r7, #304]	; 0x130
 800431a:	eb02 0988 	add.w	r9, r2, r8, lsl #2
 800431e:	f7ff b8bc 	b.w	800349a <cipher+0x16c6>
 8004322:	f7fb fe6d 	bl	8000000 <get_random>
 8004326:	f8d7 312c 	ldr.w	r3, [r7, #300]	; 0x12c
 800432a:	e9d3 1200 	ldrd	r1, r2, [r3]
 800432e:	4603      	mov	r3, r0
 8004330:	4053      	eors	r3, r2
 8004332:	f8d7 212c 	ldr.w	r2, [r7, #300]	; 0x12c
 8004336:	4041      	eors	r1, r0
 8004338:	e9c2 1300 	strd	r1, r3, [r2]
 800433c:	f8d7 3100 	ldr.w	r3, [r7, #256]	; 0x100
 8004340:	f8d7 2108 	ldr.w	r2, [r7, #264]	; 0x108
 8004344:	1a9b      	subs	r3, r3, r2
 8004346:	2b01      	cmp	r3, #1
 8004348:	633b      	str	r3, [r7, #48]	; 0x30
 800434a:	f43e aeaf 	beq.w	80030ac <cipher+0x12d8>
 800434e:	f8d7 312c 	ldr.w	r3, [r7, #300]	; 0x12c
 8004352:	eb03 0982 	add.w	r9, r3, r2, lsl #2
 8004356:	6b3b      	ldr	r3, [r7, #48]	; 0x30
 8004358:	2b02      	cmp	r3, #2
 800435a:	f000 812f 	beq.w	80045bc <cipher+0x27e8>
 800435e:	085b      	lsrs	r3, r3, #1
 8004360:	2b01      	cmp	r3, #1
 8004362:	4698      	mov	r8, r3
 8004364:	f000 83dd 	beq.w	8004b22 <cipher+0x2d4e>
 8004368:	2b02      	cmp	r3, #2
 800436a:	f000 84bb 	beq.w	8004ce4 <cipher+0x2f10>
 800436e:	2301      	movs	r3, #1
 8004370:	464a      	mov	r2, r9
 8004372:	4641      	mov	r1, r8
 8004374:	4620      	mov	r0, r4
 8004376:	f000 fcd3 	bl	8004d20 <RefreshIOS_rec.part.0>
 800437a:	6b3a      	ldr	r2, [r7, #48]	; 0x30
 800437c:	4643      	mov	r3, r8
 800437e:	1ad1      	subs	r1, r2, r3
 8004380:	2901      	cmp	r1, #1
 8004382:	d008      	beq.n	8004396 <cipher+0x25c2>
 8004384:	eb09 0288 	add.w	r2, r9, r8, lsl #2
 8004388:	2902      	cmp	r1, #2
 800438a:	f000 83cc 	beq.w	8004b26 <cipher+0x2d52>
 800438e:	2301      	movs	r3, #1
 8004390:	4620      	mov	r0, r4
 8004392:	f000 fcc5 	bl	8004d20 <RefreshIOS_rec.part.0>
 8004396:	4643      	mov	r3, r8
 8004398:	2b00      	cmp	r3, #0
 800439a:	f43e ae84 	beq.w	80030a6 <cipher+0x12d2>
 800439e:	f108 4380 	add.w	r3, r8, #1073741824	; 0x40000000
 80043a2:	3b01      	subs	r3, #1
 80043a4:	4642      	mov	r2, r8
 80043a6:	eb09 0383 	add.w	r3, r9, r3, lsl #2
 80043aa:	f1a9 0804 	sub.w	r8, r9, #4
 80043ae:	633d      	str	r5, [r7, #48]	; 0x30
 80043b0:	60be      	str	r6, [r7, #8]
 80043b2:	f04f 0900 	mov.w	r9, #0
 80043b6:	4646      	mov	r6, r8
 80043b8:	461d      	mov	r5, r3
 80043ba:	46a0      	mov	r8, r4
 80043bc:	4614      	mov	r4, r2
 80043be:	f7fb fe1f 	bl	8000000 <get_random>
 80043c2:	f856 1f04 	ldr.w	r1, [r6, #4]!
 80043c6:	4041      	eors	r1, r0
 80043c8:	6031      	str	r1, [r6, #0]
 80043ca:	f855 1f04 	ldr.w	r1, [r5, #4]!
 80043ce:	f109 0901 	add.w	r9, r9, #1
 80043d2:	4048      	eors	r0, r1
 80043d4:	454c      	cmp	r4, r9
 80043d6:	6028      	str	r0, [r5, #0]
 80043d8:	d8f1      	bhi.n	80043be <cipher+0x25ea>
 80043da:	6b3d      	ldr	r5, [r7, #48]	; 0x30
 80043dc:	68be      	ldr	r6, [r7, #8]
 80043de:	4644      	mov	r4, r8
 80043e0:	f7fe be61 	b.w	80030a6 <cipher+0x12d2>
 80043e4:	f7fb fe0c 	bl	8000000 <get_random>
 80043e8:	f8d7 3140 	ldr.w	r3, [r7, #320]	; 0x140
 80043ec:	e9d3 1200 	ldrd	r1, r2, [r3]
 80043f0:	4603      	mov	r3, r0
 80043f2:	4053      	eors	r3, r2
 80043f4:	f8d7 2140 	ldr.w	r2, [r7, #320]	; 0x140
 80043f8:	4041      	eors	r1, r0
 80043fa:	e9c2 1300 	strd	r1, r3, [r2]
 80043fe:	f8d7 30b0 	ldr.w	r3, [r7, #176]	; 0xb0
 8004402:	2b01      	cmp	r3, #1
 8004404:	f43e af78 	beq.w	80032f8 <cipher+0x1524>
 8004408:	f8d7 3140 	ldr.w	r3, [r7, #320]	; 0x140
 800440c:	f8d7 2084 	ldr.w	r2, [r7, #132]	; 0x84
 8004410:	eb03 0802 	add.w	r8, r3, r2
 8004414:	f8d7 30b0 	ldr.w	r3, [r7, #176]	; 0xb0
 8004418:	2b02      	cmp	r3, #2
 800441a:	f000 8140 	beq.w	800469e <cipher+0x28ca>
 800441e:	085b      	lsrs	r3, r3, #1
 8004420:	2b01      	cmp	r3, #1
 8004422:	4699      	mov	r9, r3
 8004424:	f000 83ad 	beq.w	8004b82 <cipher+0x2dae>
 8004428:	2b02      	cmp	r3, #2
 800442a:	f000 83eb 	beq.w	8004c04 <cipher+0x2e30>
 800442e:	2301      	movs	r3, #1
 8004430:	4642      	mov	r2, r8
 8004432:	4649      	mov	r1, r9
 8004434:	4620      	mov	r0, r4
 8004436:	f000 fc73 	bl	8004d20 <RefreshIOS_rec.part.0>
 800443a:	f8d7 20b0 	ldr.w	r2, [r7, #176]	; 0xb0
 800443e:	464b      	mov	r3, r9
 8004440:	1ad1      	subs	r1, r2, r3
 8004442:	2901      	cmp	r1, #1
 8004444:	d008      	beq.n	8004458 <cipher+0x2684>
 8004446:	eb08 0289 	add.w	r2, r8, r9, lsl #2
 800444a:	2902      	cmp	r1, #2
 800444c:	f000 839b 	beq.w	8004b86 <cipher+0x2db2>
 8004450:	2301      	movs	r3, #1
 8004452:	4620      	mov	r0, r4
 8004454:	f000 fc64 	bl	8004d20 <RefreshIOS_rec.part.0>
 8004458:	464b      	mov	r3, r9
 800445a:	2b00      	cmp	r3, #0
 800445c:	f43e af49 	beq.w	80032f2 <cipher+0x151e>
 8004460:	f109 4380 	add.w	r3, r9, #1073741824	; 0x40000000
 8004464:	3b01      	subs	r3, #1
 8004466:	464a      	mov	r2, r9
 8004468:	eb08 0383 	add.w	r3, r8, r3, lsl #2
 800446c:	f1a8 0904 	sub.w	r9, r8, #4
 8004470:	f04f 0800 	mov.w	r8, #0
 8004474:	f8c7 5130 	str.w	r5, [r7, #304]	; 0x130
 8004478:	f8c7 6108 	str.w	r6, [r7, #264]	; 0x108
 800447c:	461d      	mov	r5, r3
 800447e:	464e      	mov	r6, r9
 8004480:	46c1      	mov	r9, r8
 8004482:	46a0      	mov	r8, r4
 8004484:	4614      	mov	r4, r2
 8004486:	f7fb fdbb 	bl	8000000 <get_random>
 800448a:	f856 1f04 	ldr.w	r1, [r6, #4]!
 800448e:	4041      	eors	r1, r0
 8004490:	6031      	str	r1, [r6, #0]
 8004492:	f855 1f04 	ldr.w	r1, [r5, #4]!
 8004496:	f109 0901 	add.w	r9, r9, #1
 800449a:	4048      	eors	r0, r1
 800449c:	454c      	cmp	r4, r9
 800449e:	6028      	str	r0, [r5, #0]
 80044a0:	d8f1      	bhi.n	8004486 <cipher+0x26b2>
 80044a2:	f8d7 5130 	ldr.w	r5, [r7, #304]	; 0x130
 80044a6:	f8d7 6108 	ldr.w	r6, [r7, #264]	; 0x108
 80044aa:	4644      	mov	r4, r8
 80044ac:	f7fe bf21 	b.w	80032f2 <cipher+0x151e>
 80044b0:	f7fb fda6 	bl	8000000 <get_random>
 80044b4:	f8d7 1144 	ldr.w	r1, [r7, #324]	; 0x144
 80044b8:	598a      	ldr	r2, [r1, r6]
 80044ba:	4042      	eors	r2, r0
 80044bc:	518a      	str	r2, [r1, r6]
 80044be:	3104      	adds	r1, #4
 80044c0:	4603      	mov	r3, r0
 80044c2:	598a      	ldr	r2, [r1, r6]
 80044c4:	4053      	eors	r3, r2
 80044c6:	518b      	str	r3, [r1, r6]
 80044c8:	f8d7 30cc 	ldr.w	r3, [r7, #204]	; 0xcc
 80044cc:	2b01      	cmp	r3, #1
 80044ce:	f43e a84c 	beq.w	800256a <cipher+0x796>
 80044d2:	6bfb      	ldr	r3, [r7, #60]	; 0x3c
 80044d4:	eb03 0806 	add.w	r8, r3, r6
 80044d8:	f8d7 30cc 	ldr.w	r3, [r7, #204]	; 0xcc
 80044dc:	2b02      	cmp	r3, #2
 80044de:	f000 8108 	beq.w	80046f2 <cipher+0x291e>
 80044e2:	f8d7 308c 	ldr.w	r3, [r7, #140]	; 0x8c
 80044e6:	2b01      	cmp	r3, #1
 80044e8:	f000 82c5 	beq.w	8004a76 <cipher+0x2ca2>
 80044ec:	2b02      	cmp	r3, #2
 80044ee:	f000 8398 	beq.w	8004c22 <cipher+0x2e4e>
 80044f2:	4619      	mov	r1, r3
 80044f4:	4642      	mov	r2, r8
 80044f6:	2301      	movs	r3, #1
 80044f8:	4620      	mov	r0, r4
 80044fa:	f000 fc11 	bl	8004d20 <RefreshIOS_rec.part.0>
 80044fe:	6d3b      	ldr	r3, [r7, #80]	; 0x50
 8004500:	2b01      	cmp	r3, #1
 8004502:	d00c      	beq.n	800451e <cipher+0x274a>
 8004504:	6fbb      	ldr	r3, [r7, #120]	; 0x78
 8004506:	eb08 0903 	add.w	r9, r8, r3
 800450a:	6d3b      	ldr	r3, [r7, #80]	; 0x50
 800450c:	2b02      	cmp	r3, #2
 800450e:	f000 8359 	beq.w	8004bc4 <cipher+0x2df0>
 8004512:	4619      	mov	r1, r3
 8004514:	464a      	mov	r2, r9
 8004516:	2301      	movs	r3, #1
 8004518:	4620      	mov	r0, r4
 800451a:	f000 fc01 	bl	8004d20 <RefreshIOS_rec.part.0>
 800451e:	f8d7 308c 	ldr.w	r3, [r7, #140]	; 0x8c
 8004522:	2b00      	cmp	r3, #0
 8004524:	f43e a81e 	beq.w	8002564 <cipher+0x790>
 8004528:	f8d7 3144 	ldr.w	r3, [r7, #324]	; 0x144
 800452c:	697a      	ldr	r2, [r7, #20]
 800452e:	f8c7 612c 	str.w	r6, [r7, #300]	; 0x12c
 8004532:	eb03 0902 	add.w	r9, r3, r2
 8004536:	69fb      	ldr	r3, [r7, #28]
 8004538:	f8c7 5130 	str.w	r5, [r7, #304]	; 0x130
 800453c:	4443      	add	r3, r8
 800453e:	44b1      	add	r9, r6
 8004540:	f04f 0800 	mov.w	r8, #0
 8004544:	464e      	mov	r6, r9
 8004546:	46c1      	mov	r9, r8
 8004548:	46a0      	mov	r8, r4
 800454a:	f8d7 408c 	ldr.w	r4, [r7, #140]	; 0x8c
 800454e:	461d      	mov	r5, r3
 8004550:	f7fb fd56 	bl	8000000 <get_random>
 8004554:	f856 1f04 	ldr.w	r1, [r6, #4]!
 8004558:	4041      	eors	r1, r0
 800455a:	6031      	str	r1, [r6, #0]
 800455c:	f855 1f04 	ldr.w	r1, [r5, #4]!
 8004560:	f109 0901 	add.w	r9, r9, #1
 8004564:	4048      	eors	r0, r1
 8004566:	454c      	cmp	r4, r9
 8004568:	6028      	str	r0, [r5, #0]
 800456a:	d8f1      	bhi.n	8004550 <cipher+0x277c>
 800456c:	e9d7 654b 	ldrd	r6, r5, [r7, #300]	; 0x12c
 8004570:	4644      	mov	r4, r8
 8004572:	f7fd bff7 	b.w	8002564 <cipher+0x790>
 8004576:	f7fb fd43 	bl	8000000 <get_random>
 800457a:	e9d8 1200 	ldrd	r1, r2, [r8]
 800457e:	4603      	mov	r3, r0
 8004580:	4041      	eors	r1, r0
 8004582:	4053      	eors	r3, r2
 8004584:	e9c8 1300 	strd	r1, r3, [r8]
 8004588:	f8d7 309c 	ldr.w	r3, [r7, #156]	; 0x9c
 800458c:	2b01      	cmp	r3, #1
 800458e:	f43f a8a3 	beq.w	80036d8 <cipher+0x1904>
 8004592:	f8d7 3088 	ldr.w	r3, [r7, #136]	; 0x88
 8004596:	eb08 0903 	add.w	r9, r8, r3
 800459a:	f8d7 309c 	ldr.w	r3, [r7, #156]	; 0x9c
 800459e:	2b02      	cmp	r3, #2
 80045a0:	f47f a891 	bne.w	80036c6 <cipher+0x18f2>
 80045a4:	e086      	b.n	80046b4 <cipher+0x28e0>
 80045a6:	f7fb fd2b 	bl	8000000 <get_random>
 80045aa:	e9d8 1200 	ldrd	r1, r2, [r8]
 80045ae:	4603      	mov	r3, r0
 80045b0:	4041      	eors	r1, r0
 80045b2:	4053      	eors	r3, r2
 80045b4:	e9c8 1300 	strd	r1, r3, [r8]
 80045b8:	f7ff b96e 	b.w	8003898 <cipher+0x1ac4>
 80045bc:	f7fb fd20 	bl	8000000 <get_random>
 80045c0:	e9d9 1200 	ldrd	r1, r2, [r9]
 80045c4:	4603      	mov	r3, r0
 80045c6:	4041      	eors	r1, r0
 80045c8:	4053      	eors	r3, r2
 80045ca:	e9c9 1300 	strd	r1, r3, [r9]
 80045ce:	f7fe bd6a 	b.w	80030a6 <cipher+0x12d2>
 80045d2:	f7fb fd15 	bl	8000000 <get_random>
 80045d6:	e9d8 1200 	ldrd	r1, r2, [r8]
 80045da:	4603      	mov	r3, r0
 80045dc:	4053      	eors	r3, r2
 80045de:	4041      	eors	r1, r0
 80045e0:	e9c8 1300 	strd	r1, r3, [r8]
 80045e4:	f8d7 30a8 	ldr.w	r3, [r7, #168]	; 0xa8
 80045e8:	eb08 0903 	add.w	r9, r8, r3
 80045ec:	f7fe ba13 	b.w	8002a16 <cipher+0xc42>
 80045f0:	f7fb fd06 	bl	8000000 <get_random>
 80045f4:	e9d8 1200 	ldrd	r1, r2, [r8]
 80045f8:	4603      	mov	r3, r0
 80045fa:	4041      	eors	r1, r0
 80045fc:	4053      	eors	r3, r2
 80045fe:	e9c8 1300 	strd	r1, r3, [r8]
 8004602:	f7fe b9bf 	b.w	8002984 <cipher+0xbb0>
 8004606:	f7fb fcfb 	bl	8000000 <get_random>
 800460a:	e9d8 1200 	ldrd	r1, r2, [r8]
 800460e:	4603      	mov	r3, r0
 8004610:	4041      	eors	r1, r0
 8004612:	4053      	eors	r3, r2
 8004614:	e9c8 1300 	strd	r1, r3, [r8]
 8004618:	f7fe bba2 	b.w	8002d60 <cipher+0xf8c>
 800461c:	f7fb fcf0 	bl	8000000 <get_random>
 8004620:	e9d9 1200 	ldrd	r1, r2, [r9]
 8004624:	4603      	mov	r3, r0
 8004626:	4053      	eors	r3, r2
 8004628:	4041      	eors	r1, r0
 800462a:	e9c9 1300 	strd	r1, r3, [r9]
 800462e:	6b3b      	ldr	r3, [r7, #48]	; 0x30
 8004630:	2b04      	cmp	r3, #4
 8004632:	f109 0808 	add.w	r8, r9, #8
 8004636:	f43f ab74 	beq.w	8003d22 <cipher+0x1f4e>
 800463a:	2301      	movs	r3, #1
 800463c:	f108 0204 	add.w	r2, r8, #4
 8004640:	633b      	str	r3, [r7, #48]	; 0x30
 8004642:	60ba      	str	r2, [r7, #8]
 8004644:	f7fb fcdc 	bl	8000000 <get_random>
 8004648:	68ba      	ldr	r2, [r7, #8]
 800464a:	4603      	mov	r3, r0
 800464c:	6851      	ldr	r1, [r2, #4]
 800464e:	6810      	ldr	r0, [r2, #0]
 8004650:	4058      	eors	r0, r3
 8004652:	404b      	eors	r3, r1
 8004654:	e9c2 0300 	strd	r0, r3, [r2]
 8004658:	f7fe bfd2 	b.w	8003600 <cipher+0x182c>
 800465c:	f7fb fcd0 	bl	8000000 <get_random>
 8004660:	e9d8 1200 	ldrd	r1, r2, [r8]
 8004664:	4603      	mov	r3, r0
 8004666:	4053      	eors	r3, r2
 8004668:	4041      	eors	r1, r0
 800466a:	e9c8 1300 	strd	r1, r3, [r8]
 800466e:	f8d7 30e0 	ldr.w	r3, [r7, #224]	; 0xe0
 8004672:	f108 0208 	add.w	r2, r8, #8
 8004676:	1e99      	subs	r1, r3, #2
 8004678:	e41f      	b.n	8003eba <cipher+0x20e6>
 800467a:	f7fb fcc1 	bl	8000000 <get_random>
 800467e:	f8d7 3130 	ldr.w	r3, [r7, #304]	; 0x130
 8004682:	685a      	ldr	r2, [r3, #4]
 8004684:	6819      	ldr	r1, [r3, #0]
 8004686:	4603      	mov	r3, r0
 8004688:	4053      	eors	r3, r2
 800468a:	f8d7 2130 	ldr.w	r2, [r7, #304]	; 0x130
 800468e:	4041      	eors	r1, r0
 8004690:	e9c2 1300 	strd	r1, r3, [r2]
 8004694:	f8d7 30e0 	ldr.w	r3, [r7, #224]	; 0xe0
 8004698:	3208      	adds	r2, #8
 800469a:	1e99      	subs	r1, r3, #2
 800469c:	e470      	b.n	8003f80 <cipher+0x21ac>
 800469e:	f7fb fcaf 	bl	8000000 <get_random>
 80046a2:	e9d8 1200 	ldrd	r1, r2, [r8]
 80046a6:	4603      	mov	r3, r0
 80046a8:	4041      	eors	r1, r0
 80046aa:	4053      	eors	r3, r2
 80046ac:	e9c8 1300 	strd	r1, r3, [r8]
 80046b0:	f7fe be1f 	b.w	80032f2 <cipher+0x151e>
 80046b4:	f7fb fca4 	bl	8000000 <get_random>
 80046b8:	e9d9 1200 	ldrd	r1, r2, [r9]
 80046bc:	4603      	mov	r3, r0
 80046be:	4041      	eors	r1, r0
 80046c0:	4053      	eors	r3, r2
 80046c2:	e9c9 1300 	strd	r1, r3, [r9]
 80046c6:	f7ff b804 	b.w	80036d2 <cipher+0x18fe>
 80046ca:	f7fb fc99 	bl	8000000 <get_random>
 80046ce:	f8d7 3108 	ldr.w	r3, [r7, #264]	; 0x108
 80046d2:	e9d3 1200 	ldrd	r1, r2, [r3]
 80046d6:	4603      	mov	r3, r0
 80046d8:	ea83 0c02 	eor.w	ip, r3, r2
 80046dc:	f8d7 2108 	ldr.w	r2, [r7, #264]	; 0x108
 80046e0:	4048      	eors	r0, r1
 80046e2:	e9c2 0c00 	strd	r0, ip, [r2]
 80046e6:	f1a9 0102 	sub.w	r1, r9, #2
 80046ea:	f102 0908 	add.w	r9, r2, #8
 80046ee:	f7fe bd2e 	b.w	800314e <cipher+0x137a>
 80046f2:	f7fb fc85 	bl	8000000 <get_random>
 80046f6:	e9d8 1200 	ldrd	r1, r2, [r8]
 80046fa:	4603      	mov	r3, r0
 80046fc:	4041      	eors	r1, r0
 80046fe:	4053      	eors	r3, r2
 8004700:	e9c8 1300 	strd	r1, r3, [r8]
 8004704:	f7fd bf2e 	b.w	8002564 <cipher+0x790>
 8004708:	f7fb fc7a 	bl	8000000 <get_random>
 800470c:	f8d7 3130 	ldr.w	r3, [r7, #304]	; 0x130
 8004710:	e9d3 1200 	ldrd	r1, r2, [r3]
 8004714:	4603      	mov	r3, r0
 8004716:	4053      	eors	r3, r2
 8004718:	f8d7 2130 	ldr.w	r2, [r7, #304]	; 0x130
 800471c:	4041      	eors	r1, r0
 800471e:	e9c2 1300 	strd	r1, r3, [r2]
 8004722:	f8d7 10a8 	ldr.w	r1, [r7, #168]	; 0xa8
 8004726:	eb02 0801 	add.w	r8, r2, r1
 800472a:	f7fd bfac 	b.w	8002686 <cipher+0x8b2>
 800472e:	f7fb fc67 	bl	8000000 <get_random>
 8004732:	e9d8 1200 	ldrd	r1, r2, [r8]
 8004736:	4603      	mov	r3, r0
 8004738:	4053      	eors	r3, r2
 800473a:	4041      	eors	r1, r0
 800473c:	e9c8 1300 	strd	r1, r3, [r8]
 8004740:	f8d7 30ec 	ldr.w	r3, [r7, #236]	; 0xec
 8004744:	f108 0208 	add.w	r2, r8, #8
 8004748:	1e99      	subs	r1, r3, #2
 800474a:	f7fe be1e 	b.w	800338a <cipher+0x15b6>
 800474e:	f7fb fc57 	bl	8000000 <get_random>
 8004752:	f8d7 312c 	ldr.w	r3, [r7, #300]	; 0x12c
 8004756:	685a      	ldr	r2, [r3, #4]
 8004758:	6819      	ldr	r1, [r3, #0]
 800475a:	4603      	mov	r3, r0
 800475c:	4053      	eors	r3, r2
 800475e:	f8d7 212c 	ldr.w	r2, [r7, #300]	; 0x12c
 8004762:	4041      	eors	r1, r0
 8004764:	e9c2 1300 	strd	r1, r3, [r2]
 8004768:	f8d7 10ec 	ldr.w	r1, [r7, #236]	; 0xec
 800476c:	2904      	cmp	r1, #4
 800476e:	f1a1 0302 	sub.w	r3, r1, #2
 8004772:	f102 0808 	add.w	r8, r2, #8
 8004776:	f000 815d 	beq.w	8004a34 <cipher+0x2c60>
 800477a:	085b      	lsrs	r3, r3, #1
 800477c:	633b      	str	r3, [r7, #48]	; 0x30
 800477e:	f108 0204 	add.w	r2, r8, #4
 8004782:	60ba      	str	r2, [r7, #8]
 8004784:	f7fb fc3c 	bl	8000000 <get_random>
 8004788:	68ba      	ldr	r2, [r7, #8]
 800478a:	4603      	mov	r3, r0
 800478c:	6851      	ldr	r1, [r2, #4]
 800478e:	6810      	ldr	r0, [r2, #0]
 8004790:	4058      	eors	r0, r3
 8004792:	404b      	eors	r3, r1
 8004794:	e9c2 0300 	strd	r0, r3, [r2]
 8004798:	f7fe bb9a 	b.w	8002ed0 <cipher+0x10fc>
 800479c:	e9d7 234d 	ldrd	r2, r3, [r7, #308]	; 0x134
 80047a0:	6013      	str	r3, [r2, #0]
 80047a2:	6313      	str	r3, [r2, #48]	; 0x30
 80047a4:	6053      	str	r3, [r2, #4]
 80047a6:	6353      	str	r3, [r2, #52]	; 0x34
 80047a8:	6093      	str	r3, [r2, #8]
 80047aa:	6393      	str	r3, [r2, #56]	; 0x38
 80047ac:	60d3      	str	r3, [r2, #12]
 80047ae:	63d3      	str	r3, [r2, #60]	; 0x3c
 80047b0:	6113      	str	r3, [r2, #16]
 80047b2:	6413      	str	r3, [r2, #64]	; 0x40
 80047b4:	6153      	str	r3, [r2, #20]
 80047b6:	6453      	str	r3, [r2, #68]	; 0x44
 80047b8:	6193      	str	r3, [r2, #24]
 80047ba:	6493      	str	r3, [r2, #72]	; 0x48
 80047bc:	61d3      	str	r3, [r2, #28]
 80047be:	64d3      	str	r3, [r2, #76]	; 0x4c
 80047c0:	6213      	str	r3, [r2, #32]
 80047c2:	6513      	str	r3, [r2, #80]	; 0x50
 80047c4:	6253      	str	r3, [r2, #36]	; 0x24
 80047c6:	6553      	str	r3, [r2, #84]	; 0x54
 80047c8:	6293      	str	r3, [r2, #40]	; 0x28
 80047ca:	6593      	str	r3, [r2, #88]	; 0x58
 80047cc:	62d3      	str	r3, [r2, #44]	; 0x2c
 80047ce:	65d3      	str	r3, [r2, #92]	; 0x5c
 80047d0:	f7ff b944 	b.w	8003a5c <cipher+0x1c88>
 80047d4:	f8d7 30a0 	ldr.w	r3, [r7, #160]	; 0xa0
 80047d8:	2b01      	cmp	r3, #1
 80047da:	f47e a918 	bne.w	8002a0e <cipher+0xc3a>
 80047de:	f7fe b92a 	b.w	8002a36 <cipher+0xc62>
 80047e2:	f8d7 30a0 	ldr.w	r3, [r7, #160]	; 0xa0
 80047e6:	2b01      	cmp	r3, #1
 80047e8:	f47d af47 	bne.w	800267a <cipher+0x8a6>
 80047ec:	f7fd bf9a 	b.w	8002724 <cipher+0x950>
 80047f0:	f7fb fc06 	bl	8000000 <get_random>
 80047f4:	e9d8 1200 	ldrd	r1, r2, [r8]
 80047f8:	4603      	mov	r3, r0
 80047fa:	4041      	eors	r1, r0
 80047fc:	4053      	eors	r3, r2
 80047fe:	e9c8 1300 	strd	r1, r3, [r8]
 8004802:	f8d7 2130 	ldr.w	r2, [r7, #304]	; 0x130
 8004806:	464b      	mov	r3, r9
 8004808:	1ad1      	subs	r1, r2, r3
 800480a:	2901      	cmp	r1, #1
 800480c:	f47f ab19 	bne.w	8003e42 <cipher+0x206e>
 8004810:	f7ff bb22 	b.w	8003e58 <cipher+0x2084>
 8004814:	f7fb fbf4 	bl	8000000 <get_random>
 8004818:	f8d7 3130 	ldr.w	r3, [r7, #304]	; 0x130
 800481c:	e9d3 1200 	ldrd	r1, r2, [r3]
 8004820:	4603      	mov	r3, r0
 8004822:	4053      	eors	r3, r2
 8004824:	f8d7 2130 	ldr.w	r2, [r7, #304]	; 0x130
 8004828:	4041      	eors	r1, r0
 800482a:	e9c2 1300 	strd	r1, r3, [r2]
 800482e:	6cfb      	ldr	r3, [r7, #76]	; 0x4c
 8004830:	2b01      	cmp	r3, #1
 8004832:	f43d aef5 	beq.w	8002620 <cipher+0x84c>
 8004836:	f8d7 3130 	ldr.w	r3, [r7, #304]	; 0x130
 800483a:	6f3a      	ldr	r2, [r7, #112]	; 0x70
 800483c:	eb03 0802 	add.w	r8, r3, r2
 8004840:	f7fd bee1 	b.w	8002606 <cipher+0x832>
 8004844:	f7fb fbdc 	bl	8000000 <get_random>
 8004848:	f8d7 3140 	ldr.w	r3, [r7, #320]	; 0x140
 800484c:	e9d3 1200 	ldrd	r1, r2, [r3]
 8004850:	4603      	mov	r3, r0
 8004852:	4053      	eors	r3, r2
 8004854:	f8d7 2140 	ldr.w	r2, [r7, #320]	; 0x140
 8004858:	4041      	eors	r1, r0
 800485a:	e9c2 1300 	strd	r1, r3, [r2]
 800485e:	6e7b      	ldr	r3, [r7, #100]	; 0x64
 8004860:	2b01      	cmp	r3, #1
 8004862:	f43e ad1c 	beq.w	800329e <cipher+0x14ca>
 8004866:	f8d7 3140 	ldr.w	r3, [r7, #320]	; 0x140
 800486a:	f8d7 2080 	ldr.w	r2, [r7, #128]	; 0x80
 800486e:	eb03 0802 	add.w	r8, r3, r2
 8004872:	f7fe bd07 	b.w	8003284 <cipher+0x14b0>
 8004876:	f7fb fbc3 	bl	8000000 <get_random>
 800487a:	f8d7 314c 	ldr.w	r3, [r7, #332]	; 0x14c
 800487e:	e9d3 1200 	ldrd	r1, r2, [r3]
 8004882:	4603      	mov	r3, r0
 8004884:	4053      	eors	r3, r2
 8004886:	f8d7 214c 	ldr.w	r2, [r7, #332]	; 0x14c
 800488a:	4041      	eors	r1, r0
 800488c:	e9c2 1300 	strd	r1, r3, [r2]
 8004890:	6ebb      	ldr	r3, [r7, #104]	; 0x68
 8004892:	2b01      	cmp	r3, #1
 8004894:	f47e a82f 	bne.w	80028f6 <cipher+0xb22>
 8004898:	f7fe b83d 	b.w	8002916 <cipher+0xb42>
 800489c:	f7fb fbb0 	bl	8000000 <get_random>
 80048a0:	f8d7 3134 	ldr.w	r3, [r7, #308]	; 0x134
 80048a4:	e9d3 1200 	ldrd	r1, r2, [r3]
 80048a8:	4603      	mov	r3, r0
 80048aa:	4053      	eors	r3, r2
 80048ac:	f8d7 2134 	ldr.w	r2, [r7, #308]	; 0x134
 80048b0:	4041      	eors	r1, r0
 80048b2:	e9c2 1300 	strd	r1, r3, [r2]
 80048b6:	6c7b      	ldr	r3, [r7, #68]	; 0x44
 80048b8:	2b01      	cmp	r3, #1
 80048ba:	f43e afc4 	beq.w	8003846 <cipher+0x1a72>
 80048be:	f8d7 3134 	ldr.w	r3, [r7, #308]	; 0x134
 80048c2:	6efa      	ldr	r2, [r7, #108]	; 0x6c
 80048c4:	eb03 0802 	add.w	r8, r3, r2
 80048c8:	f7fe bfb1 	b.w	800382e <cipher+0x1a5a>
 80048cc:	f7fb fb98 	bl	8000000 <get_random>
 80048d0:	e9d9 1200 	ldrd	r1, r2, [r9]
 80048d4:	4603      	mov	r3, r0
 80048d6:	4041      	eors	r1, r0
 80048d8:	4053      	eors	r3, r2
 80048da:	e9c9 1300 	strd	r1, r3, [r9]
 80048de:	f8d7 2108 	ldr.w	r2, [r7, #264]	; 0x108
 80048e2:	4643      	mov	r3, r8
 80048e4:	1ad1      	subs	r1, r2, r3
 80048e6:	2901      	cmp	r1, #1
 80048e8:	f47e ae33 	bne.w	8003552 <cipher+0x177e>
 80048ec:	f7fe be3c 	b.w	8003568 <cipher+0x1794>
 80048f0:	f7fb fb86 	bl	8000000 <get_random>
 80048f4:	f8d7 3130 	ldr.w	r3, [r7, #304]	; 0x130
 80048f8:	e9d3 1200 	ldrd	r1, r2, [r3]
 80048fc:	4603      	mov	r3, r0
 80048fe:	4053      	eors	r3, r2
 8004900:	f8d7 2130 	ldr.w	r2, [r7, #304]	; 0x130
 8004904:	4041      	eors	r1, r0
 8004906:	e9c2 1300 	strd	r1, r3, [r2]
 800490a:	6e7b      	ldr	r3, [r7, #100]	; 0x64
 800490c:	2b01      	cmp	r3, #1
 800490e:	f43e a9f9 	beq.w	8002d04 <cipher+0xf30>
 8004912:	f8d7 3130 	ldr.w	r3, [r7, #304]	; 0x130
 8004916:	f8d7 2080 	ldr.w	r2, [r7, #128]	; 0x80
 800491a:	eb03 0802 	add.w	r8, r3, r2
 800491e:	f7fe b9e4 	b.w	8002cea <cipher+0xf16>
 8004922:	f7fb fb6d 	bl	8000000 <get_random>
 8004926:	f8d7 312c 	ldr.w	r3, [r7, #300]	; 0x12c
 800492a:	e9d3 1200 	ldrd	r1, r2, [r3]
 800492e:	4603      	mov	r3, r0
 8004930:	4053      	eors	r3, r2
 8004932:	f8d7 212c 	ldr.w	r2, [r7, #300]	; 0x12c
 8004936:	4041      	eors	r1, r0
 8004938:	e9c2 1300 	strd	r1, r3, [r2]
 800493c:	f8d7 2108 	ldr.w	r2, [r7, #264]	; 0x108
 8004940:	4643      	mov	r3, r8
 8004942:	1ad1      	subs	r1, r2, r3
 8004944:	2901      	cmp	r1, #1
 8004946:	f43e aa72 	beq.w	8002e2e <cipher+0x105a>
 800494a:	f8d7 212c 	ldr.w	r2, [r7, #300]	; 0x12c
 800494e:	eb02 0288 	add.w	r2, r2, r8, lsl #2
 8004952:	f7fe ba63 	b.w	8002e1c <cipher+0x1048>
 8004956:	f7fb fb53 	bl	8000000 <get_random>
 800495a:	f8d7 312c 	ldr.w	r3, [r7, #300]	; 0x12c
 800495e:	e9d3 1200 	ldrd	r1, r2, [r3]
 8004962:	4603      	mov	r3, r0
 8004964:	4053      	eors	r3, r2
 8004966:	f8d7 212c 	ldr.w	r2, [r7, #300]	; 0x12c
 800496a:	4041      	eors	r1, r0
 800496c:	e9c2 1300 	strd	r1, r3, [r2]
 8004970:	f8d7 2108 	ldr.w	r2, [r7, #264]	; 0x108
 8004974:	4643      	mov	r3, r8
 8004976:	1ad1      	subs	r1, r2, r3
 8004978:	2901      	cmp	r1, #1
 800497a:	f43e ab68 	beq.w	800304e <cipher+0x127a>
 800497e:	f8d7 212c 	ldr.w	r2, [r7, #300]	; 0x12c
 8004982:	eb02 0288 	add.w	r2, r2, r8, lsl #2
 8004986:	f7fe bb59 	b.w	800303c <cipher+0x1268>
 800498a:	f7fb fb39 	bl	8000000 <get_random>
 800498e:	f8d7 1144 	ldr.w	r1, [r7, #324]	; 0x144
 8004992:	598a      	ldr	r2, [r1, r6]
 8004994:	4042      	eors	r2, r0
 8004996:	518a      	str	r2, [r1, r6]
 8004998:	3104      	adds	r1, #4
 800499a:	4603      	mov	r3, r0
 800499c:	598a      	ldr	r2, [r1, r6]
 800499e:	4053      	eors	r3, r2
 80049a0:	518b      	str	r3, [r1, r6]
 80049a2:	6ebb      	ldr	r3, [r7, #104]	; 0x68
 80049a4:	2b01      	cmp	r3, #1
 80049a6:	f47d ada3 	bne.w	80024f0 <cipher+0x71c>
 80049aa:	f7fd bdb1 	b.w	8002510 <cipher+0x73c>
 80049ae:	f7fb fb27 	bl	8000000 <get_random>
 80049b2:	e9d9 1200 	ldrd	r1, r2, [r9]
 80049b6:	4603      	mov	r3, r0
 80049b8:	4041      	eors	r1, r0
 80049ba:	4053      	eors	r3, r2
 80049bc:	e9c9 1300 	strd	r1, r3, [r9]
 80049c0:	f7fe bd73 	b.w	80034aa <cipher+0x16d6>
 80049c4:	f108 0204 	add.w	r2, r8, #4
 80049c8:	f8c7 2108 	str.w	r2, [r7, #264]	; 0x108
 80049cc:	f7fb fb18 	bl	8000000 <get_random>
 80049d0:	f8d7 2108 	ldr.w	r2, [r7, #264]	; 0x108
 80049d4:	4603      	mov	r3, r0
 80049d6:	6851      	ldr	r1, [r2, #4]
 80049d8:	6810      	ldr	r0, [r2, #0]
 80049da:	4058      	eors	r0, r3
 80049dc:	404b      	eors	r3, r1
 80049de:	e9c2 0300 	strd	r0, r3, [r2]
 80049e2:	f7ff ba71 	b.w	8003ec8 <cipher+0x20f4>
 80049e6:	f8d7 3130 	ldr.w	r3, [r7, #304]	; 0x130
 80049ea:	1d1a      	adds	r2, r3, #4
 80049ec:	f8c7 212c 	str.w	r2, [r7, #300]	; 0x12c
 80049f0:	f7fb fb06 	bl	8000000 <get_random>
 80049f4:	f8d7 212c 	ldr.w	r2, [r7, #300]	; 0x12c
 80049f8:	4603      	mov	r3, r0
 80049fa:	6851      	ldr	r1, [r2, #4]
 80049fc:	6810      	ldr	r0, [r2, #0]
 80049fe:	4058      	eors	r0, r3
 8004a00:	404b      	eors	r3, r1
 8004a02:	e9c2 0300 	strd	r0, r3, [r2]
 8004a06:	f7ff bac2 	b.w	8003f8e <cipher+0x21ba>
 8004a0a:	f108 0204 	add.w	r2, r8, #4
 8004a0e:	f8c7 2130 	str.w	r2, [r7, #304]	; 0x130
 8004a12:	f7fb faf5 	bl	8000000 <get_random>
 8004a16:	f8d7 2130 	ldr.w	r2, [r7, #304]	; 0x130
 8004a1a:	4603      	mov	r3, r0
 8004a1c:	6851      	ldr	r1, [r2, #4]
 8004a1e:	6810      	ldr	r0, [r2, #0]
 8004a20:	4058      	eors	r0, r3
 8004a22:	404b      	eors	r3, r1
 8004a24:	e9c2 0300 	strd	r0, r3, [r2]
 8004a28:	f7fe bcb6 	b.w	8003398 <cipher+0x15c4>
 8004a2c:	f8d7 312c 	ldr.w	r3, [r7, #300]	; 0x12c
 8004a30:	f103 0804 	add.w	r8, r3, #4
 8004a34:	f7fb fae4 	bl	8000000 <get_random>
 8004a38:	e9d8 1200 	ldrd	r1, r2, [r8]
 8004a3c:	4603      	mov	r3, r0
 8004a3e:	4041      	eors	r1, r0
 8004a40:	4053      	eors	r3, r2
 8004a42:	e9c8 1300 	strd	r1, r3, [r8]
 8004a46:	f7fe ba67 	b.w	8002f18 <cipher+0x1144>
 8004a4a:	f7fb fad9 	bl	8000000 <get_random>
 8004a4e:	e9d9 1200 	ldrd	r1, r2, [r9]
 8004a52:	4603      	mov	r3, r0
 8004a54:	4041      	eors	r1, r0
 8004a56:	4053      	eors	r3, r2
 8004a58:	e9c9 1300 	strd	r1, r3, [r9]
 8004a5c:	f7fd bfe6 	b.w	8002a2c <cipher+0xc58>
 8004a60:	f7fb face 	bl	8000000 <get_random>
 8004a64:	e9d8 1200 	ldrd	r1, r2, [r8]
 8004a68:	4603      	mov	r3, r0
 8004a6a:	4041      	eors	r1, r0
 8004a6c:	4053      	eors	r3, r2
 8004a6e:	e9c8 1300 	strd	r1, r3, [r8]
 8004a72:	f7fd be52 	b.w	800271a <cipher+0x946>
 8004a76:	6d3b      	ldr	r3, [r7, #80]	; 0x50
 8004a78:	2b01      	cmp	r3, #1
 8004a7a:	f47f ad43 	bne.w	8004504 <cipher+0x2730>
 8004a7e:	e553      	b.n	8004528 <cipher+0x2754>
 8004a80:	f7fb fabe 	bl	8000000 <get_random>
 8004a84:	e9d8 1200 	ldrd	r1, r2, [r8]
 8004a88:	4603      	mov	r3, r0
 8004a8a:	4053      	eors	r3, r2
 8004a8c:	4048      	eors	r0, r1
 8004a8e:	e9c8 0300 	strd	r0, r3, [r8]
 8004a92:	f1a9 0102 	sub.w	r1, r9, #2
 8004a96:	f108 0208 	add.w	r2, r8, #8
 8004a9a:	f7fe ba12 	b.w	8002ec2 <cipher+0x10ee>
 8004a9e:	633a      	str	r2, [r7, #48]	; 0x30
 8004aa0:	f7fb faae 	bl	8000000 <get_random>
 8004aa4:	6b3a      	ldr	r2, [r7, #48]	; 0x30
 8004aa6:	4603      	mov	r3, r0
 8004aa8:	6851      	ldr	r1, [r2, #4]
 8004aaa:	6810      	ldr	r0, [r2, #0]
 8004aac:	4058      	eors	r0, r3
 8004aae:	404b      	eors	r3, r1
 8004ab0:	e9c2 0300 	strd	r0, r3, [r2]
 8004ab4:	f7fe bac9 	b.w	800304a <cipher+0x1276>
 8004ab8:	f7fb faa2 	bl	8000000 <get_random>
 8004abc:	e9d8 1200 	ldrd	r1, r2, [r8]
 8004ac0:	4603      	mov	r3, r0
 8004ac2:	4041      	eors	r1, r0
 8004ac4:	4053      	eors	r3, r2
 8004ac6:	e9c8 1300 	strd	r1, r3, [r8]
 8004aca:	f7fe bbe5 	b.w	8003298 <cipher+0x14c4>
 8004ace:	f7fb fa97 	bl	8000000 <get_random>
 8004ad2:	e9d8 1200 	ldrd	r1, r2, [r8]
 8004ad6:	4603      	mov	r3, r0
 8004ad8:	4053      	eors	r3, r2
 8004ada:	4041      	eors	r1, r0
 8004adc:	e9c8 1300 	strd	r1, r3, [r8]
 8004ae0:	f8d7 30a0 	ldr.w	r3, [r7, #160]	; 0xa0
 8004ae4:	f108 0208 	add.w	r2, r8, #8
 8004ae8:	1e99      	subs	r1, r3, #2
 8004aea:	f7fd bde7 	b.w	80026bc <cipher+0x8e8>
 8004aee:	f7fb fa87 	bl	8000000 <get_random>
 8004af2:	e9d8 1200 	ldrd	r1, r2, [r8]
 8004af6:	4603      	mov	r3, r0
 8004af8:	4041      	eors	r1, r0
 8004afa:	4053      	eors	r3, r2
 8004afc:	e9c8 1300 	strd	r1, r3, [r8]
 8004b00:	f7fd bd8b 	b.w	800261a <cipher+0x846>
 8004b04:	f7fb fa7c 	bl	8000000 <get_random>
 8004b08:	e9d8 1200 	ldrd	r1, r2, [r8]
 8004b0c:	4603      	mov	r3, r0
 8004b0e:	4053      	eors	r3, r2
 8004b10:	68ba      	ldr	r2, [r7, #8]
 8004b12:	4048      	eors	r0, r1
 8004b14:	e9c8 0300 	strd	r0, r3, [r8]
 8004b18:	1e91      	subs	r1, r2, #2
 8004b1a:	f108 0208 	add.w	r2, r8, #8
 8004b1e:	f7fe bd68 	b.w	80035f2 <cipher+0x181e>
 8004b22:	f109 0204 	add.w	r2, r9, #4
 8004b26:	633a      	str	r2, [r7, #48]	; 0x30
 8004b28:	f7fb fa6a 	bl	8000000 <get_random>
 8004b2c:	6b3a      	ldr	r2, [r7, #48]	; 0x30
 8004b2e:	4603      	mov	r3, r0
 8004b30:	6851      	ldr	r1, [r2, #4]
 8004b32:	6810      	ldr	r0, [r2, #0]
 8004b34:	4058      	eors	r0, r3
 8004b36:	404b      	eors	r3, r1
 8004b38:	e9c2 0300 	strd	r0, r3, [r2]
 8004b3c:	e42b      	b.n	8004396 <cipher+0x25c2>
 8004b3e:	f108 0204 	add.w	r2, r8, #4
 8004b42:	f8c7 212c 	str.w	r2, [r7, #300]	; 0x12c
 8004b46:	f7fb fa5b 	bl	8000000 <get_random>
 8004b4a:	f8d7 212c 	ldr.w	r2, [r7, #300]	; 0x12c
 8004b4e:	4603      	mov	r3, r0
 8004b50:	6851      	ldr	r1, [r2, #4]
 8004b52:	6810      	ldr	r0, [r2, #0]
 8004b54:	4058      	eors	r0, r3
 8004b56:	404b      	eors	r3, r1
 8004b58:	e9c2 0300 	strd	r0, r3, [r2]
 8004b5c:	f7fd bdb5 	b.w	80026ca <cipher+0x8f6>
 8004b60:	f108 0204 	add.w	r2, r8, #4
 8004b64:	f8c7 2130 	str.w	r2, [r7, #304]	; 0x130
 8004b68:	f7fb fa4a 	bl	8000000 <get_random>
 8004b6c:	f8d7 2130 	ldr.w	r2, [r7, #304]	; 0x130
 8004b70:	4603      	mov	r3, r0
 8004b72:	6851      	ldr	r1, [r2, #4]
 8004b74:	6810      	ldr	r0, [r2, #0]
 8004b76:	4058      	eors	r0, r3
 8004b78:	404b      	eors	r3, r1
 8004b7a:	e9c2 0300 	strd	r0, r3, [r2]
 8004b7e:	f7ff bb6f 	b.w	8004260 <cipher+0x248c>
 8004b82:	f108 0204 	add.w	r2, r8, #4
 8004b86:	f8c7 2130 	str.w	r2, [r7, #304]	; 0x130
 8004b8a:	f7fb fa39 	bl	8000000 <get_random>
 8004b8e:	f8d7 2130 	ldr.w	r2, [r7, #304]	; 0x130
 8004b92:	4603      	mov	r3, r0
 8004b94:	6851      	ldr	r1, [r2, #4]
 8004b96:	6810      	ldr	r0, [r2, #0]
 8004b98:	4058      	eors	r0, r3
 8004b9a:	404b      	eors	r3, r1
 8004b9c:	e9c2 0300 	strd	r0, r3, [r2]
 8004ba0:	e45a      	b.n	8004458 <cipher+0x2684>
 8004ba2:	f108 0204 	add.w	r2, r8, #4
 8004ba6:	f8c7 212c 	str.w	r2, [r7, #300]	; 0x12c
 8004baa:	f7fb fa29 	bl	8000000 <get_random>
 8004bae:	f8d7 212c 	ldr.w	r2, [r7, #300]	; 0x12c
 8004bb2:	4603      	mov	r3, r0
 8004bb4:	6851      	ldr	r1, [r2, #4]
 8004bb6:	6810      	ldr	r0, [r2, #0]
 8004bb8:	4058      	eors	r0, r3
 8004bba:	404b      	eors	r3, r1
 8004bbc:	e9c2 0300 	strd	r0, r3, [r2]
 8004bc0:	f7ff bae8 	b.w	8004194 <cipher+0x23c0>
 8004bc4:	f7fb fa1c 	bl	8000000 <get_random>
 8004bc8:	e9d9 1200 	ldrd	r1, r2, [r9]
 8004bcc:	4603      	mov	r3, r0
 8004bce:	4041      	eors	r1, r0
 8004bd0:	4053      	eors	r3, r2
 8004bd2:	e9c9 1300 	strd	r1, r3, [r9]
 8004bd6:	e4a2      	b.n	800451e <cipher+0x274a>
 8004bd8:	f7fb fa12 	bl	8000000 <get_random>
 8004bdc:	e9d8 1200 	ldrd	r1, r2, [r8]
 8004be0:	4603      	mov	r3, r0
 8004be2:	4041      	eors	r1, r0
 8004be4:	4053      	eors	r3, r2
 8004be6:	e9c8 1300 	strd	r1, r3, [r8]
 8004bea:	f7fe b888 	b.w	8002cfe <cipher+0xf2a>
 8004bee:	f7fb fa07 	bl	8000000 <get_random>
 8004bf2:	e9d8 1200 	ldrd	r1, r2, [r8]
 8004bf6:	4603      	mov	r3, r0
 8004bf8:	4041      	eors	r1, r0
 8004bfa:	4053      	eors	r3, r2
 8004bfc:	e9c8 1300 	strd	r1, r3, [r8]
 8004c00:	f7fd be86 	b.w	8002910 <cipher+0xb3c>
 8004c04:	f7fb f9fc 	bl	8000000 <get_random>
 8004c08:	e9d8 1200 	ldrd	r1, r2, [r8]
 8004c0c:	4603      	mov	r3, r0
 8004c0e:	4053      	eors	r3, r2
 8004c10:	4041      	eors	r1, r0
 8004c12:	e9c8 1300 	strd	r1, r3, [r8]
 8004c16:	f8d7 30b0 	ldr.w	r3, [r7, #176]	; 0xb0
 8004c1a:	f108 0208 	add.w	r2, r8, #8
 8004c1e:	1e99      	subs	r1, r3, #2
 8004c20:	e413      	b.n	800444a <cipher+0x2676>
 8004c22:	f7fb f9ed 	bl	8000000 <get_random>
 8004c26:	e9d8 1200 	ldrd	r1, r2, [r8]
 8004c2a:	4603      	mov	r3, r0
 8004c2c:	4053      	eors	r3, r2
 8004c2e:	4041      	eors	r1, r0
 8004c30:	e9c8 1300 	strd	r1, r3, [r8]
 8004c34:	6fbb      	ldr	r3, [r7, #120]	; 0x78
 8004c36:	eb08 0903 	add.w	r9, r8, r3
 8004c3a:	e466      	b.n	800450a <cipher+0x2736>
 8004c3c:	f8c7 2108 	str.w	r2, [r7, #264]	; 0x108
 8004c40:	f7fb f9de 	bl	8000000 <get_random>
 8004c44:	f8d7 2108 	ldr.w	r2, [r7, #264]	; 0x108
 8004c48:	4603      	mov	r3, r0
 8004c4a:	6851      	ldr	r1, [r2, #4]
 8004c4c:	6810      	ldr	r0, [r2, #0]
 8004c4e:	4058      	eors	r0, r3
 8004c50:	404b      	eors	r3, r1
 8004c52:	e9c2 0300 	strd	r0, r3, [r2]
 8004c56:	f7ff b8fd 	b.w	8003e54 <cipher+0x2080>
 8004c5a:	60ba      	str	r2, [r7, #8]
 8004c5c:	f7fb f9d0 	bl	8000000 <get_random>
 8004c60:	68ba      	ldr	r2, [r7, #8]
 8004c62:	4603      	mov	r3, r0
 8004c64:	6851      	ldr	r1, [r2, #4]
 8004c66:	6810      	ldr	r0, [r2, #0]
 8004c68:	4058      	eors	r0, r3
 8004c6a:	404b      	eors	r3, r1
 8004c6c:	e9c2 0300 	strd	r0, r3, [r2]
 8004c70:	f7fe bc78 	b.w	8003564 <cipher+0x1790>
 8004c74:	f7fb f9c4 	bl	8000000 <get_random>
 8004c78:	e9d8 1200 	ldrd	r1, r2, [r8]
 8004c7c:	4603      	mov	r3, r0
 8004c7e:	4041      	eors	r1, r0
 8004c80:	4053      	eors	r3, r2
 8004c82:	e9c8 1300 	strd	r1, r3, [r8]
 8004c86:	f7fe bddc 	b.w	8003842 <cipher+0x1a6e>
 8004c8a:	633a      	str	r2, [r7, #48]	; 0x30
 8004c8c:	f7fb f9b8 	bl	8000000 <get_random>
 8004c90:	6b3a      	ldr	r2, [r7, #48]	; 0x30
 8004c92:	4603      	mov	r3, r0
 8004c94:	6851      	ldr	r1, [r2, #4]
 8004c96:	6810      	ldr	r0, [r2, #0]
 8004c98:	4058      	eors	r0, r3
 8004c9a:	404b      	eors	r3, r1
 8004c9c:	e9c2 0300 	strd	r0, r3, [r2]
 8004ca0:	f7fe b8c3 	b.w	8002e2a <cipher+0x1056>
 8004ca4:	f7fb f9ac 	bl	8000000 <get_random>
 8004ca8:	e9d8 1200 	ldrd	r1, r2, [r8]
 8004cac:	4603      	mov	r3, r0
 8004cae:	4053      	eors	r3, r2
 8004cb0:	4041      	eors	r1, r0
 8004cb2:	e9c8 1300 	strd	r1, r3, [r8]
 8004cb6:	f8d7 30b0 	ldr.w	r3, [r7, #176]	; 0xb0
 8004cba:	f108 0208 	add.w	r2, r8, #8
 8004cbe:	1e99      	subs	r1, r3, #2
 8004cc0:	f7ff ba61 	b.w	8004186 <cipher+0x23b2>
 8004cc4:	f7fb f99c 	bl	8000000 <get_random>
 8004cc8:	e9d8 1200 	ldrd	r1, r2, [r8]
 8004ccc:	4603      	mov	r3, r0
 8004cce:	4053      	eors	r3, r2
 8004cd0:	4041      	eors	r1, r0
 8004cd2:	e9c8 1300 	strd	r1, r3, [r8]
 8004cd6:	f8d7 309c 	ldr.w	r3, [r7, #156]	; 0x9c
 8004cda:	f108 0208 	add.w	r2, r8, #8
 8004cde:	1e99      	subs	r1, r3, #2
 8004ce0:	f7ff bab7 	b.w	8004252 <cipher+0x247e>
 8004ce4:	f7fb f98c 	bl	8000000 <get_random>
 8004ce8:	e9d9 1200 	ldrd	r1, r2, [r9]
 8004cec:	4603      	mov	r3, r0
 8004cee:	4053      	eors	r3, r2
 8004cf0:	6b3a      	ldr	r2, [r7, #48]	; 0x30
 8004cf2:	4048      	eors	r0, r1
 8004cf4:	e9c9 0300 	strd	r0, r3, [r9]
 8004cf8:	1e91      	subs	r1, r2, #2
 8004cfa:	f109 0208 	add.w	r2, r9, #8
 8004cfe:	f7ff bb43 	b.w	8004388 <cipher+0x25b4>
 8004d02:	f7fb f97d 	bl	8000000 <get_random>
 8004d06:	e9d8 1200 	ldrd	r1, r2, [r8]
 8004d0a:	4603      	mov	r3, r0
 8004d0c:	4041      	eors	r1, r0
 8004d0e:	4053      	eors	r3, r2
 8004d10:	e9c8 1300 	strd	r1, r3, [r8]
 8004d14:	f7fd bbf9 	b.w	800250a <cipher+0x736>

08004d18 <report_done>:
 8004d18:	b508      	push	{r3, lr}
 8004d1a:	f7ff fffd 	bl	8004d18 <report_done>
 8004d1e:	bf00      	nop

08004d20 <RefreshIOS_rec.part.0>:
 8004d20:	e92d 4778 	stmdb	sp!, {r3, r4, r5, r6, r8, r9, sl, lr}
 8004d24:	ea4f 0851 	mov.w	r8, r1, lsr #1
 8004d28:	f1b8 0f01 	cmp.w	r8, #1
 8004d2c:	460c      	mov	r4, r1
 8004d2e:	461e      	mov	r6, r3
 8004d30:	4615      	mov	r5, r2
 8004d32:	d03e      	beq.n	8004db2 <RefreshIOS_rec.part.0+0x92>
 8004d34:	f1b8 0f02 	cmp.w	r8, #2
 8004d38:	4681      	mov	r9, r0
 8004d3a:	d02a      	beq.n	8004d92 <RefreshIOS_rec.part.0+0x72>
 8004d3c:	4641      	mov	r1, r8
 8004d3e:	f7ff ffef 	bl	8004d20 <RefreshIOS_rec.part.0>
 8004d42:	eba4 0108 	sub.w	r1, r4, r8
 8004d46:	2901      	cmp	r1, #1
 8004d48:	d00a      	beq.n	8004d60 <RefreshIOS_rec.part.0+0x40>
 8004d4a:	ea4f 0a86 	mov.w	sl, r6, lsl #2
 8004d4e:	fb0a 5408 	mla	r4, sl, r8, r5
 8004d52:	2902      	cmp	r1, #2
 8004d54:	d033      	beq.n	8004dbe <RefreshIOS_rec.part.0+0x9e>
 8004d56:	4622      	mov	r2, r4
 8004d58:	4648      	mov	r0, r9
 8004d5a:	4633      	mov	r3, r6
 8004d5c:	f7ff ffe0 	bl	8004d20 <RefreshIOS_rec.part.0>
 8004d60:	f1b8 0f00 	cmp.w	r8, #0
 8004d64:	d013      	beq.n	8004d8e <RefreshIOS_rec.part.0+0x6e>
 8004d66:	00b6      	lsls	r6, r6, #2
 8004d68:	2400      	movs	r4, #0
 8004d6a:	fb06 5a08 	mla	sl, r6, r8, r5
 8004d6e:	46a1      	mov	r9, r4
 8004d70:	f7fb f946 	bl	8000000 <get_random>
 8004d74:	592b      	ldr	r3, [r5, r4]
 8004d76:	4043      	eors	r3, r0
 8004d78:	512b      	str	r3, [r5, r4]
 8004d7a:	f85a 3004 	ldr.w	r3, [sl, r4]
 8004d7e:	f109 0901 	add.w	r9, r9, #1
 8004d82:	4058      	eors	r0, r3
 8004d84:	45c8      	cmp	r8, r9
 8004d86:	f84a 0004 	str.w	r0, [sl, r4]
 8004d8a:	4434      	add	r4, r6
 8004d8c:	d8f0      	bhi.n	8004d70 <RefreshIOS_rec.part.0+0x50>
 8004d8e:	e8bd 8778 	ldmia.w	sp!, {r3, r4, r5, r6, r8, r9, sl, pc}
 8004d92:	f7fb f935 	bl	8000000 <get_random>
 8004d96:	682b      	ldr	r3, [r5, #0]
 8004d98:	4043      	eors	r3, r0
 8004d9a:	602b      	str	r3, [r5, #0]
 8004d9c:	f855 3026 	ldr.w	r3, [r5, r6, lsl #2]
 8004da0:	4058      	eors	r0, r3
 8004da2:	1ea1      	subs	r1, r4, #2
 8004da4:	f845 0026 	str.w	r0, [r5, r6, lsl #2]
 8004da8:	ea4f 0a86 	mov.w	sl, r6, lsl #2
 8004dac:	eb05 04c6 	add.w	r4, r5, r6, lsl #3
 8004db0:	e7cf      	b.n	8004d52 <RefreshIOS_rec.part.0+0x32>
 8004db2:	2902      	cmp	r1, #2
 8004db4:	d0d7      	beq.n	8004d66 <RefreshIOS_rec.part.0+0x46>
 8004db6:	ea4f 0a83 	mov.w	sl, r3, lsl #2
 8004dba:	eb02 0483 	add.w	r4, r2, r3, lsl #2
 8004dbe:	f7fb f91f 	bl	8000000 <get_random>
 8004dc2:	6823      	ldr	r3, [r4, #0]
 8004dc4:	4043      	eors	r3, r0
 8004dc6:	6023      	str	r3, [r4, #0]
 8004dc8:	f854 300a 	ldr.w	r3, [r4, sl]
 8004dcc:	4058      	eors	r0, r3
 8004dce:	f844 000a 	str.w	r0, [r4, sl]
 8004dd2:	e7c5      	b.n	8004d60 <RefreshIOS_rec.part.0+0x40>

08004dd4 <seca2b_modp.constprop.0>:
 8004dd4:	e92d 4ff0 	stmdb	sp!, {r4, r5, r6, r7, r8, r9, sl, fp, lr}
 8004dd8:	b093      	sub	sp, #76	; 0x4c
 8004dda:	af04      	add	r7, sp, #16
 8004ddc:	2801      	cmp	r0, #1
 8004dde:	e9c7 1203 	strd	r1, r2, [r7, #12]
 8004de2:	4605      	mov	r5, r0
 8004de4:	617b      	str	r3, [r7, #20]
 8004de6:	f000 81e0 	beq.w	80051aa <seca2b_modp.constprop.0+0x3d6>
 8004dea:	086c      	lsrs	r4, r5, #1
 8004dec:	4668      	mov	r0, sp
 8004dee:	6078      	str	r0, [r7, #4]
 8004df0:	4620      	mov	r0, r4
 8004df2:	eb02 0984 	add.w	r9, r2, r4, lsl #2
 8004df6:	f7ff ffed 	bl	8004dd4 <seca2b_modp.constprop.0>
 8004dfa:	f8d7 a014 	ldr.w	sl, [r7, #20]
 8004dfe:	f8d7 800c 	ldr.w	r8, [r7, #12]
 8004e02:	eba5 0655 	sub.w	r6, r5, r5, lsr #1
 8004e06:	464a      	mov	r2, r9
 8004e08:	4630      	mov	r0, r6
 8004e0a:	4653      	mov	r3, sl
 8004e0c:	4641      	mov	r1, r8
 8004e0e:	62fe      	str	r6, [r7, #44]	; 0x2c
 8004e10:	f7ff ffe0 	bl	8004dd4 <seca2b_modp.constprop.0>
 8004e14:	2334      	movs	r3, #52	; 0x34
 8004e16:	fb03 f305 	mul.w	r3, r3, r5
 8004e1a:	3307      	adds	r3, #7
 8004e1c:	f023 0307 	bic.w	r3, r3, #7
 8004e20:	ebad 0d03 	sub.w	sp, sp, r3
 8004e24:	ae04      	add	r6, sp, #16
 8004e26:	ebad 0d03 	sub.w	sp, sp, r3
 8004e2a:	f10d 0b10 	add.w	fp, sp, #16
 8004e2e:	ebad 0d03 	sub.w	sp, sp, r3
 8004e32:	f8c7 a014 	str.w	sl, [r7, #20]
 8004e36:	f8cd a008 	str.w	sl, [sp, #8]
 8004e3a:	693a      	ldr	r2, [r7, #16]
 8004e3c:	f5c8 5300 	rsb	r3, r8, #8192	; 0x2000
 8004e40:	e9cd 5200 	strd	r5, r2, [sp]
 8004e44:	9303      	str	r3, [sp, #12]
 8004e46:	4620      	mov	r0, r4
 8004e48:	4633      	mov	r3, r6
 8004e4a:	220d      	movs	r2, #13
 8004e4c:	210c      	movs	r1, #12
 8004e4e:	f000 fbb1 	bl	80055b4 <secadd_constant.constprop.0>
 8004e52:	f04f 0800 	mov.w	r8, #0
 8004e56:	6af8      	ldr	r0, [r7, #44]	; 0x2c
 8004e58:	6979      	ldr	r1, [r7, #20]
 8004e5a:	637c      	str	r4, [r7, #52]	; 0x34
 8004e5c:	eb05 0245 	add.w	r2, r5, r5, lsl #1
 8004e60:	f10d 0c10 	add.w	ip, sp, #16
 8004e64:	0092      	lsls	r2, r2, #2
 8004e66:	46c2      	mov	sl, r8
 8004e68:	f8c7 c008 	str.w	ip, [r7, #8]
 8004e6c:	3801      	subs	r0, #1
 8004e6e:	f104 3cff 	add.w	ip, r4, #4294967295	; 0xffffffff
 8004e72:	633a      	str	r2, [r7, #48]	; 0x30
 8004e74:	f1ba 0f0c 	cmp.w	sl, #12
 8004e78:	ea4f 0281 	mov.w	r2, r1, lsl #2
 8004e7c:	464b      	mov	r3, r9
 8004e7e:	f8c7 c020 	str.w	ip, [r7, #32]
 8004e82:	61b8      	str	r0, [r7, #24]
 8004e84:	46c1      	mov	r9, r8
 8004e86:	61fa      	str	r2, [r7, #28]
 8004e88:	f040 80a7 	bne.w	8004fda <seca2b_modp.constprop.0+0x206>
 8004e8c:	2c00      	cmp	r4, #0
 8004e8e:	d045      	beq.n	8004f1c <seca2b_modp.constprop.0+0x148>
 8004e90:	6a3a      	ldr	r2, [r7, #32]
 8004e92:	eb0b 0088 	add.w	r0, fp, r8, lsl #2
 8004e96:	2a05      	cmp	r2, #5
 8004e98:	f3c0 0080 	ubfx	r0, r0, #2, #1
 8004e9c:	f240 818b 	bls.w	80051b6 <seca2b_modp.constprop.0+0x3e2>
 8004ea0:	b108      	cbz	r0, 8004ea6 <seca2b_modp.constprop.0+0xd2>
 8004ea2:	f84b 9028 	str.w	r9, [fp, r8, lsl #2]
 8004ea6:	e9c7 3409 	strd	r3, r4, [r7, #36]	; 0x24
 8004eaa:	eba4 0e00 	sub.w	lr, r4, r0
 8004eae:	eb00 0108 	add.w	r1, r0, r8
 8004eb2:	ea4f 0c5e 	mov.w	ip, lr, lsr #1
 8004eb6:	eb0b 0181 	add.w	r1, fp, r1, lsl #2
 8004eba:	2200      	movs	r2, #0
 8004ebc:	3201      	adds	r2, #1
 8004ebe:	2300      	movs	r3, #0
 8004ec0:	2400      	movs	r4, #0
 8004ec2:	4594      	cmp	ip, r2
 8004ec4:	e8e1 3402 	strd	r3, r4, [r1], #8
 8004ec8:	d1f8      	bne.n	8004ebc <seca2b_modp.constprop.0+0xe8>
 8004eca:	f02e 0201 	bic.w	r2, lr, #1
 8004ece:	4596      	cmp	lr, r2
 8004ed0:	e9d7 3409 	ldrd	r3, r4, [r7, #36]	; 0x24
 8004ed4:	4410      	add	r0, r2
 8004ed6:	d021      	beq.n	8004f1c <seca2b_modp.constprop.0+0x148>
 8004ed8:	eb00 0108 	add.w	r1, r0, r8
 8004edc:	1c42      	adds	r2, r0, #1
 8004ede:	4294      	cmp	r4, r2
 8004ee0:	f84b 9021 	str.w	r9, [fp, r1, lsl #2]
 8004ee4:	d91a      	bls.n	8004f1c <seca2b_modp.constprop.0+0x148>
 8004ee6:	4442      	add	r2, r8
 8004ee8:	1c81      	adds	r1, r0, #2
 8004eea:	428c      	cmp	r4, r1
 8004eec:	f84b 9022 	str.w	r9, [fp, r2, lsl #2]
 8004ef0:	d914      	bls.n	8004f1c <seca2b_modp.constprop.0+0x148>
 8004ef2:	4441      	add	r1, r8
 8004ef4:	1cc2      	adds	r2, r0, #3
 8004ef6:	4294      	cmp	r4, r2
 8004ef8:	f84b 9021 	str.w	r9, [fp, r1, lsl #2]
 8004efc:	d90e      	bls.n	8004f1c <seca2b_modp.constprop.0+0x148>
 8004efe:	4442      	add	r2, r8
 8004f00:	1d01      	adds	r1, r0, #4
 8004f02:	428c      	cmp	r4, r1
 8004f04:	f84b 9022 	str.w	r9, [fp, r2, lsl #2]
 8004f08:	d908      	bls.n	8004f1c <seca2b_modp.constprop.0+0x148>
 8004f0a:	4441      	add	r1, r8
 8004f0c:	3005      	adds	r0, #5
 8004f0e:	4284      	cmp	r4, r0
 8004f10:	f84b 9021 	str.w	r9, [fp, r1, lsl #2]
 8004f14:	d902      	bls.n	8004f1c <seca2b_modp.constprop.0+0x148>
 8004f16:	4440      	add	r0, r8
 8004f18:	f84b 9020 	str.w	r9, [fp, r0, lsl #2]
 8004f1c:	42a5      	cmp	r5, r4
 8004f1e:	d94d      	bls.n	8004fbc <seca2b_modp.constprop.0+0x1e8>
 8004f20:	f1ba 0f0c 	cmp.w	sl, #12
 8004f24:	d064      	beq.n	8004ff0 <seca2b_modp.constprop.0+0x21c>
 8004f26:	6b79      	ldr	r1, [r7, #52]	; 0x34
 8004f28:	69b8      	ldr	r0, [r7, #24]
 8004f2a:	eb06 0281 	add.w	r2, r6, r1, lsl #2
 8004f2e:	2805      	cmp	r0, #5
 8004f30:	f3c2 0280 	ubfx	r2, r2, #2, #1
 8004f34:	f240 814a 	bls.w	80051cc <seca2b_modp.constprop.0+0x3f8>
 8004f38:	2a00      	cmp	r2, #0
 8004f3a:	f000 813a 	beq.w	80051b2 <seca2b_modp.constprop.0+0x3de>
 8004f3e:	f846 9021 	str.w	r9, [r6, r1, lsl #2]
 8004f42:	1c60      	adds	r0, r4, #1
 8004f44:	6af9      	ldr	r1, [r7, #44]	; 0x2c
 8004f46:	eba1 0e02 	sub.w	lr, r1, r2
 8004f4a:	6b79      	ldr	r1, [r7, #52]	; 0x34
 8004f4c:	e9c7 3409 	strd	r3, r4, [r7, #36]	; 0x24
 8004f50:	440a      	add	r2, r1
 8004f52:	eb06 0282 	add.w	r2, r6, r2, lsl #2
 8004f56:	ea4f 0c5e 	mov.w	ip, lr, lsr #1
 8004f5a:	2100      	movs	r1, #0
 8004f5c:	3101      	adds	r1, #1
 8004f5e:	2300      	movs	r3, #0
 8004f60:	2400      	movs	r4, #0
 8004f62:	458c      	cmp	ip, r1
 8004f64:	e8e2 3402 	strd	r3, r4, [r2], #8
 8004f68:	d1f8      	bne.n	8004f5c <seca2b_modp.constprop.0+0x188>
 8004f6a:	f02e 0201 	bic.w	r2, lr, #1
 8004f6e:	4596      	cmp	lr, r2
 8004f70:	e9d7 3409 	ldrd	r3, r4, [r7, #36]	; 0x24
 8004f74:	4410      	add	r0, r2
 8004f76:	d021      	beq.n	8004fbc <seca2b_modp.constprop.0+0x1e8>
 8004f78:	eb00 0108 	add.w	r1, r0, r8
 8004f7c:	1c42      	adds	r2, r0, #1
 8004f7e:	4295      	cmp	r5, r2
 8004f80:	f846 9021 	str.w	r9, [r6, r1, lsl #2]
 8004f84:	d91a      	bls.n	8004fbc <seca2b_modp.constprop.0+0x1e8>
 8004f86:	4442      	add	r2, r8
 8004f88:	1c81      	adds	r1, r0, #2
 8004f8a:	428d      	cmp	r5, r1
 8004f8c:	f846 9022 	str.w	r9, [r6, r2, lsl #2]
 8004f90:	d914      	bls.n	8004fbc <seca2b_modp.constprop.0+0x1e8>
 8004f92:	4441      	add	r1, r8
 8004f94:	1cc2      	adds	r2, r0, #3
 8004f96:	4295      	cmp	r5, r2
 8004f98:	f846 9021 	str.w	r9, [r6, r1, lsl #2]
 8004f9c:	d90e      	bls.n	8004fbc <seca2b_modp.constprop.0+0x1e8>
 8004f9e:	4442      	add	r2, r8
 8004fa0:	1d01      	adds	r1, r0, #4
 8004fa2:	428d      	cmp	r5, r1
 8004fa4:	f846 9022 	str.w	r9, [r6, r2, lsl #2]
 8004fa8:	d908      	bls.n	8004fbc <seca2b_modp.constprop.0+0x1e8>
 8004faa:	4441      	add	r1, r8
 8004fac:	3005      	adds	r0, #5
 8004fae:	4285      	cmp	r5, r0
 8004fb0:	f846 9021 	str.w	r9, [r6, r1, lsl #2]
 8004fb4:	d902      	bls.n	8004fbc <seca2b_modp.constprop.0+0x1e8>
 8004fb6:	4440      	add	r0, r8
 8004fb8:	f846 9020 	str.w	r9, [r6, r0, lsl #2]
 8004fbc:	6b7a      	ldr	r2, [r7, #52]	; 0x34
 8004fbe:	442a      	add	r2, r5
 8004fc0:	f10a 0a01 	add.w	sl, sl, #1
 8004fc4:	637a      	str	r2, [r7, #52]	; 0x34
 8004fc6:	69fa      	ldr	r2, [r7, #28]
 8004fc8:	f1ba 0f0d 	cmp.w	sl, #13
 8004fcc:	44a8      	add	r8, r5
 8004fce:	4413      	add	r3, r2
 8004fd0:	d03e      	beq.n	8005050 <seca2b_modp.constprop.0+0x27c>
 8004fd2:	f1ba 0f0c 	cmp.w	sl, #12
 8004fd6:	f43f af59 	beq.w	8004e8c <seca2b_modp.constprop.0+0xb8>
 8004fda:	2201      	movs	r2, #1
 8004fdc:	9200      	str	r2, [sp, #0]
 8004fde:	6b79      	ldr	r1, [r7, #52]	; 0x34
 8004fe0:	62bb      	str	r3, [r7, #40]	; 0x28
 8004fe2:	6af8      	ldr	r0, [r7, #44]	; 0x2c
 8004fe4:	eb0b 0181 	add.w	r1, fp, r1, lsl #2
 8004fe8:	f000 feaf 	bl	8005d4a <copy_sharing_asm>
 8004fec:	6abb      	ldr	r3, [r7, #40]	; 0x28
 8004fee:	e74d      	b.n	8004e8c <seca2b_modp.constprop.0+0xb8>
 8004ff0:	6b3b      	ldr	r3, [r7, #48]	; 0x30
 8004ff2:	eb04 0c03 	add.w	ip, r4, r3
 8004ff6:	eb04 0308 	add.w	r3, r4, r8
 8004ffa:	eb0b 0c8c 	add.w	ip, fp, ip, lsl #2
 8004ffe:	eb06 0383 	add.w	r3, r6, r3, lsl #2
 8005002:	ea43 020c 	orr.w	r2, r3, ip
 8005006:	0752      	lsls	r2, r2, #29
 8005008:	f040 80d7 	bne.w	80051ba <seca2b_modp.constprop.0+0x3e6>
 800500c:	1e6a      	subs	r2, r5, #1
 800500e:	1b12      	subs	r2, r2, r4
 8005010:	2a0c      	cmp	r2, #12
 8005012:	f240 80d2 	bls.w	80051ba <seca2b_modp.constprop.0+0x3e6>
 8005016:	6afa      	ldr	r2, [r7, #44]	; 0x2c
 8005018:	f1ac 0c08 	sub.w	ip, ip, #8
 800501c:	ea4f 0e52 	mov.w	lr, r2, lsr #1
 8005020:	2000      	movs	r0, #0
 8005022:	2200      	movs	r2, #0
 8005024:	2100      	movs	r1, #0
 8005026:	3201      	adds	r2, #1
 8005028:	4596      	cmp	lr, r2
 800502a:	e9ec 0102 	strd	r0, r1, [ip, #8]!
 800502e:	e8e3 0102 	strd	r0, r1, [r3], #8
 8005032:	d1f8      	bne.n	8005026 <seca2b_modp.constprop.0+0x252>
 8005034:	6afa      	ldr	r2, [r7, #44]	; 0x2c
 8005036:	f022 0301 	bic.w	r3, r2, #1
 800503a:	429a      	cmp	r2, r3
 800503c:	441c      	add	r4, r3
 800503e:	d007      	beq.n	8005050 <seca2b_modp.constprop.0+0x27c>
 8005040:	6b3b      	ldr	r3, [r7, #48]	; 0x30
 8005042:	4423      	add	r3, r4
 8005044:	4444      	add	r4, r8
 8005046:	2200      	movs	r2, #0
 8005048:	f84b 2023 	str.w	r2, [fp, r3, lsl #2]
 800504c:	f846 2024 	str.w	r2, [r6, r4, lsl #2]
 8005050:	00ab      	lsls	r3, r5, #2
 8005052:	633b      	str	r3, [r7, #48]	; 0x30
 8005054:	3307      	adds	r3, #7
 8005056:	f023 0307 	bic.w	r3, r3, #7
 800505a:	f8c7 d01c 	str.w	sp, [r7, #28]
 800505e:	ebad 0d03 	sub.w	sp, sp, r3
 8005062:	f10d 0810 	add.w	r8, sp, #16
 8005066:	ebad 0d03 	sub.w	sp, sp, r3
 800506a:	f10d 0910 	add.w	r9, sp, #16
 800506e:	ebad 0d03 	sub.w	sp, sp, r3
 8005072:	2401      	movs	r4, #1
 8005074:	4641      	mov	r1, r8
 8005076:	465b      	mov	r3, fp
 8005078:	e9cd 6401 	strd	r6, r4, [sp, #4]
 800507c:	4622      	mov	r2, r4
 800507e:	4628      	mov	r0, r5
 8005080:	9400      	str	r4, [sp, #0]
 8005082:	f000 fd9d 	bl	8005bc0 <my_masked_and_asm>
 8005086:	6b3b      	ldr	r3, [r7, #48]	; 0x30
 8005088:	18f2      	adds	r2, r6, r3
 800508a:	62fa      	str	r2, [r7, #44]	; 0x2c
 800508c:	e9cd 6401 	strd	r6, r4, [sp, #4]
 8005090:	9400      	str	r4, [sp, #0]
 8005092:	6b3e      	ldr	r6, [r7, #48]	; 0x30
 8005094:	f8d7 a008 	ldr.w	sl, [r7, #8]
 8005098:	445e      	add	r6, fp
 800509a:	465b      	mov	r3, fp
 800509c:	4651      	mov	r1, sl
 800509e:	4622      	mov	r2, r4
 80050a0:	4628      	mov	r0, r5
 80050a2:	637e      	str	r6, [r7, #52]	; 0x34
 80050a4:	f000 fe27 	bl	8005cf6 <my_masked_xor_asm>
 80050a8:	a804      	add	r0, sp, #16
 80050aa:	62b8      	str	r0, [r7, #40]	; 0x28
 80050ac:	9402      	str	r4, [sp, #8]
 80050ae:	6afa      	ldr	r2, [r7, #44]	; 0x2c
 80050b0:	e9cd 4200 	strd	r4, r2, [sp]
 80050b4:	4606      	mov	r6, r0
 80050b6:	6b7b      	ldr	r3, [r7, #52]	; 0x34
 80050b8:	4649      	mov	r1, r9
 80050ba:	4622      	mov	r2, r4
 80050bc:	4628      	mov	r0, r5
 80050be:	f000 fe1a 	bl	8005cf6 <my_masked_xor_asm>
 80050c2:	6b3a      	ldr	r2, [r7, #48]	; 0x30
 80050c4:	9400      	str	r4, [sp, #0]
 80050c6:	e9cd 8401 	strd	r8, r4, [sp, #4]
 80050ca:	4492      	add	sl, r2
 80050cc:	4631      	mov	r1, r6
 80050ce:	6b7b      	ldr	r3, [r7, #52]	; 0x34
 80050d0:	4622      	mov	r2, r4
 80050d2:	4628      	mov	r0, r5
 80050d4:	f000 fe0f 	bl	8005cf6 <my_masked_xor_asm>
 80050d8:	e9cd 8401 	strd	r8, r4, [sp, #4]
 80050dc:	9400      	str	r4, [sp, #0]
 80050de:	6b3e      	ldr	r6, [r7, #48]	; 0x30
 80050e0:	4651      	mov	r1, sl
 80050e2:	198e      	adds	r6, r1, r6
 80050e4:	464b      	mov	r3, r9
 80050e6:	4622      	mov	r2, r4
 80050e8:	623e      	str	r6, [r7, #32]
 80050ea:	4628      	mov	r0, r5
 80050ec:	f000 fe03 	bl	8005cf6 <my_masked_xor_asm>
 80050f0:	e9d7 260b 	ldrd	r2, r6, [r7, #44]	; 0x2c
 80050f4:	eb0b 03c5 	add.w	r3, fp, r5, lsl #3
 80050f8:	eb02 0b06 	add.w	fp, r2, r6
 80050fc:	6b7e      	ldr	r6, [r7, #52]	; 0x34
 80050fe:	f8d7 a020 	ldr.w	sl, [r7, #32]
 8005102:	1b9b      	subs	r3, r3, r6
 8005104:	627b      	str	r3, [r7, #36]	; 0x24
 8005106:	230b      	movs	r3, #11
 8005108:	465e      	mov	r6, fp
 800510a:	62fb      	str	r3, [r7, #44]	; 0x2c
 800510c:	46c3      	mov	fp, r8
 800510e:	46a8      	mov	r8, r5
 8005110:	9402      	str	r4, [sp, #8]
 8005112:	6abd      	ldr	r5, [r7, #40]	; 0x28
 8005114:	464b      	mov	r3, r9
 8005116:	e9cd 4500 	strd	r4, r5, [sp]
 800511a:	2201      	movs	r2, #1
 800511c:	4659      	mov	r1, fp
 800511e:	4640      	mov	r0, r8
 8005120:	f000 fd4e 	bl	8005bc0 <my_masked_and_asm>
 8005124:	9402      	str	r4, [sp, #8]
 8005126:	6b7b      	ldr	r3, [r7, #52]	; 0x34
 8005128:	e9cd 4300 	strd	r4, r3, [sp]
 800512c:	6a7a      	ldr	r2, [r7, #36]	; 0x24
 800512e:	6b7b      	ldr	r3, [r7, #52]	; 0x34
 8005130:	4413      	add	r3, r2
 8005132:	637b      	str	r3, [r7, #52]	; 0x34
 8005134:	2201      	movs	r2, #1
 8005136:	465b      	mov	r3, fp
 8005138:	4659      	mov	r1, fp
 800513a:	4640      	mov	r0, r8
 800513c:	f000 fddb 	bl	8005cf6 <my_masked_xor_asm>
 8005140:	e9cd 6401 	strd	r6, r4, [sp, #4]
 8005144:	9400      	str	r4, [sp, #0]
 8005146:	6b7b      	ldr	r3, [r7, #52]	; 0x34
 8005148:	2201      	movs	r2, #1
 800514a:	4649      	mov	r1, r9
 800514c:	4640      	mov	r0, r8
 800514e:	f000 fdd2 	bl	8005cf6 <my_masked_xor_asm>
 8005152:	e9cd b401 	strd	fp, r4, [sp, #4]
 8005156:	9400      	str	r4, [sp, #0]
 8005158:	4629      	mov	r1, r5
 800515a:	6b7b      	ldr	r3, [r7, #52]	; 0x34
 800515c:	2201      	movs	r2, #1
 800515e:	4640      	mov	r0, r8
 8005160:	f000 fdc9 	bl	8005cf6 <my_masked_xor_asm>
 8005164:	e9cd b401 	strd	fp, r4, [sp, #4]
 8005168:	9400      	str	r4, [sp, #0]
 800516a:	464b      	mov	r3, r9
 800516c:	4651      	mov	r1, sl
 800516e:	2201      	movs	r2, #1
 8005170:	4640      	mov	r0, r8
 8005172:	6b3d      	ldr	r5, [r7, #48]	; 0x30
 8005174:	f000 fdbf 	bl	8005cf6 <my_masked_xor_asm>
 8005178:	6afb      	ldr	r3, [r7, #44]	; 0x2c
 800517a:	3b01      	subs	r3, #1
 800517c:	442e      	add	r6, r5
 800517e:	44aa      	add	sl, r5
 8005180:	62fb      	str	r3, [r7, #44]	; 0x2c
 8005182:	d1c5      	bne.n	8005110 <seca2b_modp.constprop.0+0x33c>
 8005184:	6b3b      	ldr	r3, [r7, #48]	; 0x30
 8005186:	6a3a      	ldr	r2, [r7, #32]
 8005188:	f8d7 d01c 	ldr.w	sp, [r7, #28]
 800518c:	4443      	add	r3, r8
 800518e:	eb02 03c3 	add.w	r3, r2, r3, lsl #3
 8005192:	9302      	str	r3, [sp, #8]
 8005194:	68fb      	ldr	r3, [r7, #12]
 8005196:	e9cd 8300 	strd	r8, r3, [sp]
 800519a:	4640      	mov	r0, r8
 800519c:	e9d7 1204 	ldrd	r1, r2, [r7, #16]
 80051a0:	68bb      	ldr	r3, [r7, #8]
 80051a2:	f000 f927 	bl	80053f4 <secadd_constant_bmsk.constprop.0>
 80051a6:	f8d7 d004 	ldr.w	sp, [r7, #4]
 80051aa:	373c      	adds	r7, #60	; 0x3c
 80051ac:	46bd      	mov	sp, r7
 80051ae:	e8bd 8ff0 	ldmia.w	sp!, {r4, r5, r6, r7, r8, r9, sl, fp, pc}
 80051b2:	4620      	mov	r0, r4
 80051b4:	e6c6      	b.n	8004f44 <seca2b_modp.constprop.0+0x170>
 80051b6:	2000      	movs	r0, #0
 80051b8:	e68e      	b.n	8004ed8 <seca2b_modp.constprop.0+0x104>
 80051ba:	2200      	movs	r2, #0
 80051bc:	3401      	adds	r4, #1
 80051be:	42a5      	cmp	r5, r4
 80051c0:	f84c 2b04 	str.w	r2, [ip], #4
 80051c4:	f843 2b04 	str.w	r2, [r3], #4
 80051c8:	d1f8      	bne.n	80051bc <seca2b_modp.constprop.0+0x3e8>
 80051ca:	e741      	b.n	8005050 <seca2b_modp.constprop.0+0x27c>
 80051cc:	4620      	mov	r0, r4
 80051ce:	e6d3      	b.n	8004f78 <seca2b_modp.constprop.0+0x1a4>

080051d0 <secadd_modp.constprop.0>:
 80051d0:	e92d 4ff0 	stmdb	sp!, {r4, r5, r6, r7, r8, r9, sl, fp, lr}
 80051d4:	2434      	movs	r4, #52	; 0x34
 80051d6:	fb04 f400 	mul.w	r4, r4, r0
 80051da:	3407      	adds	r4, #7
 80051dc:	0086      	lsls	r6, r0, #2
 80051de:	b095      	sub	sp, #84	; 0x54
 80051e0:	f024 0407 	bic.w	r4, r4, #7
 80051e4:	f106 0c07 	add.w	ip, r6, #7
 80051e8:	af04      	add	r7, sp, #16
 80051ea:	ebad 0d04 	sub.w	sp, sp, r4
 80051ee:	f02c 0c07 	bic.w	ip, ip, #7
 80051f2:	f10d 0e10 	add.w	lr, sp, #16
 80051f6:	ebad 0d04 	sub.w	sp, sp, r4
 80051fa:	f8c7 d018 	str.w	sp, [r7, #24]
 80051fe:	ac04      	add	r4, sp, #16
 8005200:	ebad 0d0c 	sub.w	sp, sp, ip
 8005204:	63be      	str	r6, [r7, #56]	; 0x38
 8005206:	ae04      	add	r6, sp, #16
 8005208:	ebad 0d0c 	sub.w	sp, sp, ip
 800520c:	f10d 0810 	add.w	r8, sp, #16
 8005210:	ebad 0d0c 	sub.w	sp, sp, ip
 8005214:	f8d7 b074 	ldr.w	fp, [r7, #116]	; 0x74
 8005218:	f8d7 9068 	ldr.w	r9, [r7, #104]	; 0x68
 800521c:	f8c7 e034 	str.w	lr, [r7, #52]	; 0x34
 8005220:	61fc      	str	r4, [r7, #28]
 8005222:	f8cd b004 	str.w	fp, [sp, #4]
 8005226:	4696      	mov	lr, r2
 8005228:	469c      	mov	ip, r3
 800522a:	6efa      	ldr	r2, [r7, #108]	; 0x6c
 800522c:	9200      	str	r2, [sp, #0]
 800522e:	2301      	movs	r3, #1
 8005230:	9302      	str	r3, [sp, #8]
 8005232:	6fbc      	ldr	r4, [r7, #120]	; 0x78
 8005234:	468a      	mov	sl, r1
 8005236:	eb0b 0484 	add.w	r4, fp, r4, lsl #2
 800523a:	e9c7 ce03 	strd	ip, lr, [r7, #12]
 800523e:	464b      	mov	r3, r9
 8005240:	4631      	mov	r1, r6
 8005242:	2201      	movs	r2, #1
 8005244:	f8c7 a024 	str.w	sl, [r7, #36]	; 0x24
 8005248:	63fc      	str	r4, [r7, #60]	; 0x3c
 800524a:	4605      	mov	r5, r0
 800524c:	f000 fcb8 	bl	8005bc0 <my_masked_and_asm>
 8005250:	2301      	movs	r3, #1
 8005252:	6f39      	ldr	r1, [r7, #112]	; 0x70
 8005254:	e9cd b301 	strd	fp, r3, [sp, #4]
 8005258:	eb09 0a81 	add.w	sl, r9, r1, lsl #2
 800525c:	6ef9      	ldr	r1, [r7, #108]	; 0x6c
 800525e:	9100      	str	r1, [sp, #0]
 8005260:	f8d7 b034 	ldr.w	fp, [r7, #52]	; 0x34
 8005264:	464b      	mov	r3, r9
 8005266:	4659      	mov	r1, fp
 8005268:	4628      	mov	r0, r5
 800526a:	2201      	movs	r2, #1
 800526c:	f000 fd43 	bl	8005cf6 <my_masked_xor_asm>
 8005270:	a804      	add	r0, sp, #16
 8005272:	2301      	movs	r3, #1
 8005274:	6338      	str	r0, [r7, #48]	; 0x30
 8005276:	9302      	str	r3, [sp, #8]
 8005278:	6bfa      	ldr	r2, [r7, #60]	; 0x3c
 800527a:	9201      	str	r2, [sp, #4]
 800527c:	4604      	mov	r4, r0
 800527e:	6ef8      	ldr	r0, [r7, #108]	; 0x6c
 8005280:	9000      	str	r0, [sp, #0]
 8005282:	4653      	mov	r3, sl
 8005284:	4641      	mov	r1, r8
 8005286:	4628      	mov	r0, r5
 8005288:	2201      	movs	r2, #1
 800528a:	f000 fd34 	bl	8005cf6 <my_masked_xor_asm>
 800528e:	6bbb      	ldr	r3, [r7, #56]	; 0x38
 8005290:	449b      	add	fp, r3
 8005292:	2301      	movs	r3, #1
 8005294:	e9cd 6301 	strd	r6, r3, [sp, #4]
 8005298:	6ef9      	ldr	r1, [r7, #108]	; 0x6c
 800529a:	9100      	str	r1, [sp, #0]
 800529c:	4653      	mov	r3, sl
 800529e:	4621      	mov	r1, r4
 80052a0:	4628      	mov	r0, r5
 80052a2:	2201      	movs	r2, #1
 80052a4:	f000 fd27 	bl	8005cf6 <my_masked_xor_asm>
 80052a8:	2301      	movs	r3, #1
 80052aa:	e9cd 6301 	strd	r6, r3, [sp, #4]
 80052ae:	9300      	str	r3, [sp, #0]
 80052b0:	6fbc      	ldr	r4, [r7, #120]	; 0x78
 80052b2:	00a4      	lsls	r4, r4, #2
 80052b4:	4659      	mov	r1, fp
 80052b6:	4643      	mov	r3, r8
 80052b8:	2201      	movs	r2, #1
 80052ba:	617c      	str	r4, [r7, #20]
 80052bc:	4628      	mov	r0, r5
 80052be:	f000 fd1a 	bl	8005cf6 <my_masked_xor_asm>
 80052c2:	6f39      	ldr	r1, [r7, #112]	; 0x70
 80052c4:	6bbb      	ldr	r3, [r7, #56]	; 0x38
 80052c6:	6bfa      	ldr	r2, [r7, #60]	; 0x3c
 80052c8:	f8c7 a004 	str.w	sl, [r7, #4]
 80052cc:	eb09 09c1 	add.w	r9, r9, r1, lsl #3
 80052d0:	449b      	add	fp, r3
 80052d2:	eba9 030a 	sub.w	r3, r9, sl
 80052d6:	623b      	str	r3, [r7, #32]
 80052d8:	008b      	lsls	r3, r1, #2
 80052da:	4422      	add	r2, r4
 80052dc:	60bb      	str	r3, [r7, #8]
 80052de:	230a      	movs	r3, #10
 80052e0:	46d1      	mov	r9, sl
 80052e2:	62fa      	str	r2, [r7, #44]	; 0x2c
 80052e4:	2401      	movs	r4, #1
 80052e6:	62bb      	str	r3, [r7, #40]	; 0x28
 80052e8:	63fe      	str	r6, [r7, #60]	; 0x3c
 80052ea:	46aa      	mov	sl, r5
 80052ec:	9402      	str	r4, [sp, #8]
 80052ee:	6b3e      	ldr	r6, [r7, #48]	; 0x30
 80052f0:	e9cd 4600 	strd	r4, r6, [sp]
 80052f4:	6bfd      	ldr	r5, [r7, #60]	; 0x3c
 80052f6:	4643      	mov	r3, r8
 80052f8:	4629      	mov	r1, r5
 80052fa:	2201      	movs	r2, #1
 80052fc:	4650      	mov	r0, sl
 80052fe:	f000 fc5f 	bl	8005bc0 <my_masked_and_asm>
 8005302:	6efa      	ldr	r2, [r7, #108]	; 0x6c
 8005304:	9400      	str	r4, [sp, #0]
 8005306:	e9cd 9201 	strd	r9, r2, [sp, #4]
 800530a:	6a3a      	ldr	r2, [r7, #32]
 800530c:	63fd      	str	r5, [r7, #60]	; 0x3c
 800530e:	4491      	add	r9, r2
 8005310:	462b      	mov	r3, r5
 8005312:	4629      	mov	r1, r5
 8005314:	2201      	movs	r2, #1
 8005316:	4650      	mov	r0, sl
 8005318:	f000 fced 	bl	8005cf6 <my_masked_xor_asm>
 800531c:	9402      	str	r4, [sp, #8]
 800531e:	6afd      	ldr	r5, [r7, #44]	; 0x2c
 8005320:	9501      	str	r5, [sp, #4]
 8005322:	6ef8      	ldr	r0, [r7, #108]	; 0x6c
 8005324:	9000      	str	r0, [sp, #0]
 8005326:	464b      	mov	r3, r9
 8005328:	2201      	movs	r2, #1
 800532a:	4641      	mov	r1, r8
 800532c:	4650      	mov	r0, sl
 800532e:	f000 fce2 	bl	8005cf6 <my_masked_xor_asm>
 8005332:	9402      	str	r4, [sp, #8]
 8005334:	6bfb      	ldr	r3, [r7, #60]	; 0x3c
 8005336:	9301      	str	r3, [sp, #4]
 8005338:	6ef8      	ldr	r0, [r7, #108]	; 0x6c
 800533a:	9000      	str	r0, [sp, #0]
 800533c:	4631      	mov	r1, r6
 800533e:	464b      	mov	r3, r9
 8005340:	2201      	movs	r2, #1
 8005342:	4650      	mov	r0, sl
 8005344:	f000 fcd7 	bl	8005cf6 <my_masked_xor_asm>
 8005348:	9402      	str	r4, [sp, #8]
 800534a:	6bfb      	ldr	r3, [r7, #60]	; 0x3c
 800534c:	e9cd 4300 	strd	r4, r3, [sp]
 8005350:	697e      	ldr	r6, [r7, #20]
 8005352:	4435      	add	r5, r6
 8005354:	4643      	mov	r3, r8
 8005356:	4659      	mov	r1, fp
 8005358:	62fd      	str	r5, [r7, #44]	; 0x2c
 800535a:	2201      	movs	r2, #1
 800535c:	4650      	mov	r0, sl
 800535e:	6bbd      	ldr	r5, [r7, #56]	; 0x38
 8005360:	f000 fcc9 	bl	8005cf6 <my_masked_xor_asm>
 8005364:	6abb      	ldr	r3, [r7, #40]	; 0x28
 8005366:	3b01      	subs	r3, #1
 8005368:	44ab      	add	fp, r5
 800536a:	62bb      	str	r3, [r7, #40]	; 0x28
 800536c:	d1be      	bne.n	80052ec <secadd_modp.constprop.0+0x11c>
 800536e:	4655      	mov	r5, sl
 8005370:	e9d7 a301 	ldrd	sl, r3, [r7, #4]
 8005374:	6f3a      	ldr	r2, [r7, #112]	; 0x70
 8005376:	6bfe      	ldr	r6, [r7, #60]	; 0x3c
 8005378:	9402      	str	r4, [sp, #8]
 800537a:	4413      	add	r3, r2
 800537c:	469c      	mov	ip, r3
 800537e:	6b3b      	ldr	r3, [r7, #48]	; 0x30
 8005380:	eb0a 0acc 	add.w	sl, sl, ip, lsl #3
 8005384:	e9cd 4300 	strd	r4, r3, [sp]
 8005388:	4631      	mov	r1, r6
 800538a:	4643      	mov	r3, r8
 800538c:	4628      	mov	r0, r5
 800538e:	2201      	movs	r2, #1
 8005390:	f000 fc16 	bl	8005bc0 <my_masked_and_asm>
 8005394:	f8cd a004 	str.w	sl, [sp, #4]
 8005398:	6efb      	ldr	r3, [r7, #108]	; 0x6c
 800539a:	9302      	str	r3, [sp, #8]
 800539c:	9400      	str	r4, [sp, #0]
 800539e:	4633      	mov	r3, r6
 80053a0:	6b7e      	ldr	r6, [r7, #52]	; 0x34
 80053a2:	eb05 0c45 	add.w	ip, r5, r5, lsl #1
 80053a6:	eb06 110c 	add.w	r1, r6, ip, lsl #4
 80053aa:	4628      	mov	r0, r5
 80053ac:	2201      	movs	r2, #1
 80053ae:	ea4f 140c 	mov.w	r4, ip, lsl #4
 80053b2:	f000 fca0 	bl	8005cf6 <my_masked_xor_asm>
 80053b6:	f8d7 d018 	ldr.w	sp, [r7, #24]
 80053ba:	6a7b      	ldr	r3, [r7, #36]	; 0x24
 80053bc:	9500      	str	r5, [sp, #0]
 80053be:	e9cd 6501 	strd	r6, r5, [sp, #4]
 80053c2:	f5c3 5300 	rsb	r3, r3, #8192	; 0x2000
 80053c6:	9303      	str	r3, [sp, #12]
 80053c8:	69fe      	ldr	r6, [r7, #28]
 80053ca:	220d      	movs	r2, #13
 80053cc:	4611      	mov	r1, r2
 80053ce:	4633      	mov	r3, r6
 80053d0:	4628      	mov	r0, r5
 80053d2:	4434      	add	r4, r6
 80053d4:	f000 f8ee 	bl	80055b4 <secadd_constant.constprop.0>
 80053d8:	9402      	str	r4, [sp, #8]
 80053da:	6a7a      	ldr	r2, [r7, #36]	; 0x24
 80053dc:	e9cd 5200 	strd	r5, r2, [sp]
 80053e0:	4633      	mov	r3, r6
 80053e2:	e9d7 2103 	ldrd	r2, r1, [r7, #12]
 80053e6:	4628      	mov	r0, r5
 80053e8:	f000 f804 	bl	80053f4 <secadd_constant_bmsk.constprop.0>
 80053ec:	3744      	adds	r7, #68	; 0x44
 80053ee:	46bd      	mov	sp, r7
 80053f0:	e8bd 8ff0 	ldmia.w	sp!, {r4, r5, r6, r7, r8, r9, sl, fp, pc}

080053f4 <secadd_constant_bmsk.constprop.0>:
 80053f4:	e92d 4ff0 	stmdb	sp!, {r4, r5, r6, r7, r8, r9, sl, fp, lr}
 80053f8:	0084      	lsls	r4, r0, #2
 80053fa:	b08b      	sub	sp, #44	; 0x2c
 80053fc:	3407      	adds	r4, #7
 80053fe:	af04      	add	r7, sp, #16
 8005400:	f024 0407 	bic.w	r4, r4, #7
 8005404:	f8c7 d004 	str.w	sp, [r7, #4]
 8005408:	ebad 0d04 	sub.w	sp, sp, r4
 800540c:	f10d 0910 	add.w	r9, sp, #16
 8005410:	ebad 0d04 	sub.w	sp, sp, r4
 8005414:	f10d 0b10 	add.w	fp, sp, #16
 8005418:	ebad 0d04 	sub.w	sp, sp, r4
 800541c:	60fa      	str	r2, [r7, #12]
 800541e:	aa04      	add	r2, sp, #16
 8005420:	60ba      	str	r2, [r7, #8]
 8005422:	6c7a      	ldr	r2, [r7, #68]	; 0x44
 8005424:	6179      	str	r1, [r7, #20]
 8005426:	f012 0201 	ands.w	r2, r2, #1
 800542a:	4680      	mov	r8, r0
 800542c:	469a      	mov	sl, r3
 800542e:	f040 80ac 	bne.w	800558a <secadd_constant_bmsk.constprop.0+0x196>
 8005432:	b3a8      	cbz	r0, 80054a0 <secadd_constant_bmsk.constprop.0+0xac>
 8005434:	1e43      	subs	r3, r0, #1
 8005436:	2b05      	cmp	r3, #5
 8005438:	f3c9 0580 	ubfx	r5, r9, #2, #1
 800543c:	d914      	bls.n	8005468 <secadd_constant_bmsk.constprop.0+0x74>
 800543e:	b10d      	cbz	r5, 8005444 <secadd_constant_bmsk.constprop.0+0x50>
 8005440:	f8c9 2000 	str.w	r2, [r9]
 8005444:	eba8 0605 	sub.w	r6, r8, r5
 8005448:	0874      	lsrs	r4, r6, #1
 800544a:	eb09 0385 	add.w	r3, r9, r5, lsl #2
 800544e:	2000      	movs	r0, #0
 8005450:	2100      	movs	r1, #0
 8005452:	3201      	adds	r2, #1
 8005454:	4294      	cmp	r4, r2
 8005456:	e8e3 0102 	strd	r0, r1, [r3], #8
 800545a:	d1fa      	bne.n	8005452 <secadd_constant_bmsk.constprop.0+0x5e>
 800545c:	f026 0301 	bic.w	r3, r6, #1
 8005460:	429e      	cmp	r6, r3
 8005462:	eb05 0203 	add.w	r2, r5, r3
 8005466:	d01b      	beq.n	80054a0 <secadd_constant_bmsk.constprop.0+0xac>
 8005468:	1c51      	adds	r1, r2, #1
 800546a:	2300      	movs	r3, #0
 800546c:	4588      	cmp	r8, r1
 800546e:	f849 3022 	str.w	r3, [r9, r2, lsl #2]
 8005472:	d915      	bls.n	80054a0 <secadd_constant_bmsk.constprop.0+0xac>
 8005474:	1c90      	adds	r0, r2, #2
 8005476:	4580      	cmp	r8, r0
 8005478:	f849 3021 	str.w	r3, [r9, r1, lsl #2]
 800547c:	d910      	bls.n	80054a0 <secadd_constant_bmsk.constprop.0+0xac>
 800547e:	1cd1      	adds	r1, r2, #3
 8005480:	4588      	cmp	r8, r1
 8005482:	f849 3020 	str.w	r3, [r9, r0, lsl #2]
 8005486:	d90b      	bls.n	80054a0 <secadd_constant_bmsk.constprop.0+0xac>
 8005488:	1d10      	adds	r0, r2, #4
 800548a:	4580      	cmp	r8, r0
 800548c:	f849 3021 	str.w	r3, [r9, r1, lsl #2]
 8005490:	d906      	bls.n	80054a0 <secadd_constant_bmsk.constprop.0+0xac>
 8005492:	3205      	adds	r2, #5
 8005494:	4590      	cmp	r8, r2
 8005496:	f849 3020 	str.w	r3, [r9, r0, lsl #2]
 800549a:	d901      	bls.n	80054a0 <secadd_constant_bmsk.constprop.0+0xac>
 800549c:	f849 3022 	str.w	r3, [r9, r2, lsl #2]
 80054a0:	2201      	movs	r2, #1
 80054a2:	9200      	str	r2, [sp, #0]
 80054a4:	6979      	ldr	r1, [r7, #20]
 80054a6:	4653      	mov	r3, sl
 80054a8:	4640      	mov	r0, r8
 80054aa:	f000 fc4e 	bl	8005d4a <copy_sharing_asm>
 80054ae:	6c3b      	ldr	r3, [r7, #64]	; 0x40
 80054b0:	eb0a 0583 	add.w	r5, sl, r3, lsl #2
 80054b4:	009b      	lsls	r3, r3, #2
 80054b6:	613b      	str	r3, [r7, #16]
 80054b8:	697b      	ldr	r3, [r7, #20]
 80054ba:	617d      	str	r5, [r7, #20]
 80054bc:	4619      	mov	r1, r3
 80054be:	68fb      	ldr	r3, [r7, #12]
 80054c0:	2601      	movs	r6, #1
 80054c2:	eb01 0a83 	add.w	sl, r1, r3, lsl #2
 80054c6:	009b      	lsls	r3, r3, #2
 80054c8:	60fb      	str	r3, [r7, #12]
 80054ca:	4634      	mov	r4, r6
 80054cc:	e036      	b.n	800553c <secadd_constant_bmsk.constprop.0+0x148>
 80054ce:	6cbd      	ldr	r5, [r7, #72]	; 0x48
 80054d0:	e9cd 4500 	strd	r4, r5, [sp]
 80054d4:	f000 fc0f 	bl	8005cf6 <my_masked_xor_asm>
 80054d8:	e9cd 9401 	strd	r9, r4, [sp, #4]
 80054dc:	9400      	str	r4, [sp, #0]
 80054de:	68bd      	ldr	r5, [r7, #8]
 80054e0:	697b      	ldr	r3, [r7, #20]
 80054e2:	2201      	movs	r2, #1
 80054e4:	4629      	mov	r1, r5
 80054e6:	4640      	mov	r0, r8
 80054e8:	f000 fc05 	bl	8005cf6 <my_masked_xor_asm>
 80054ec:	465b      	mov	r3, fp
 80054ee:	2201      	movs	r2, #1
 80054f0:	4651      	mov	r1, sl
 80054f2:	4640      	mov	r0, r8
 80054f4:	e9cd 9401 	strd	r9, r4, [sp, #4]
 80054f8:	9400      	str	r4, [sp, #0]
 80054fa:	f000 fbfc 	bl	8005cf6 <my_masked_xor_asm>
 80054fe:	2e0b      	cmp	r6, #11
 8005500:	465b      	mov	r3, fp
 8005502:	4649      	mov	r1, r9
 8005504:	4640      	mov	r0, r8
 8005506:	f04f 0201 	mov.w	r2, #1
 800550a:	d038      	beq.n	800557e <secadd_constant_bmsk.constprop.0+0x18a>
 800550c:	e9cd 5401 	strd	r5, r4, [sp, #4]
 8005510:	9400      	str	r4, [sp, #0]
 8005512:	f000 fb55 	bl	8005bc0 <my_masked_and_asm>
 8005516:	9402      	str	r4, [sp, #8]
 8005518:	697b      	ldr	r3, [r7, #20]
 800551a:	2201      	movs	r2, #1
 800551c:	e9cd 4300 	strd	r4, r3, [sp]
 8005520:	4649      	mov	r1, r9
 8005522:	464b      	mov	r3, r9
 8005524:	4640      	mov	r0, r8
 8005526:	f000 fbe6 	bl	8005cf6 <my_masked_xor_asm>
 800552a:	e9d7 3204 	ldrd	r3, r2, [r7, #16]
 800552e:	3601      	adds	r6, #1
 8005530:	441a      	add	r2, r3
 8005532:	68fb      	ldr	r3, [r7, #12]
 8005534:	617a      	str	r2, [r7, #20]
 8005536:	2e0c      	cmp	r6, #12
 8005538:	449a      	add	sl, r3
 800553a:	d020      	beq.n	800557e <secadd_constant_bmsk.constprop.0+0x18a>
 800553c:	6c7d      	ldr	r5, [r7, #68]	; 0x44
 800553e:	697b      	ldr	r3, [r7, #20]
 8005540:	9402      	str	r4, [sp, #8]
 8005542:	fa25 fc06 	lsr.w	ip, r5, r6
 8005546:	f01c 0f01 	tst.w	ip, #1
 800554a:	4659      	mov	r1, fp
 800554c:	4640      	mov	r0, r8
 800554e:	f04f 0201 	mov.w	r2, #1
 8005552:	d1bc      	bne.n	80054ce <secadd_constant_bmsk.constprop.0+0xda>
 8005554:	697d      	ldr	r5, [r7, #20]
 8005556:	464b      	mov	r3, r9
 8005558:	2201      	movs	r2, #1
 800555a:	4651      	mov	r1, sl
 800555c:	e9cd 4500 	strd	r4, r5, [sp]
 8005560:	f000 fbc9 	bl	8005cf6 <my_masked_xor_asm>
 8005564:	2e0b      	cmp	r6, #11
 8005566:	464b      	mov	r3, r9
 8005568:	f04f 0201 	mov.w	r2, #1
 800556c:	4649      	mov	r1, r9
 800556e:	4640      	mov	r0, r8
 8005570:	d005      	beq.n	800557e <secadd_constant_bmsk.constprop.0+0x18a>
 8005572:	e9cd 5401 	strd	r5, r4, [sp, #4]
 8005576:	9400      	str	r4, [sp, #0]
 8005578:	f000 fb22 	bl	8005bc0 <my_masked_and_asm>
 800557c:	e7d5      	b.n	800552a <secadd_constant_bmsk.constprop.0+0x136>
 800557e:	f8d7 d004 	ldr.w	sp, [r7, #4]
 8005582:	371c      	adds	r7, #28
 8005584:	46bd      	mov	sp, r7
 8005586:	e8bd 8ff0 	ldmia.w	sp!, {r4, r5, r6, r7, r8, r9, sl, fp, pc}
 800558a:	6cba      	ldr	r2, [r7, #72]	; 0x48
 800558c:	2401      	movs	r4, #1
 800558e:	e9cd 2401 	strd	r2, r4, [sp, #4]
 8005592:	4649      	mov	r1, r9
 8005594:	4622      	mov	r2, r4
 8005596:	9400      	str	r4, [sp, #0]
 8005598:	f000 fb12 	bl	8005bc0 <my_masked_and_asm>
 800559c:	9402      	str	r4, [sp, #8]
 800559e:	9400      	str	r4, [sp, #0]
 80055a0:	6cbb      	ldr	r3, [r7, #72]	; 0x48
 80055a2:	9301      	str	r3, [sp, #4]
 80055a4:	6979      	ldr	r1, [r7, #20]
 80055a6:	4622      	mov	r2, r4
 80055a8:	4653      	mov	r3, sl
 80055aa:	4640      	mov	r0, r8
 80055ac:	f000 fba3 	bl	8005cf6 <my_masked_xor_asm>
 80055b0:	e77d      	b.n	80054ae <secadd_constant_bmsk.constprop.0+0xba>
 80055b2:	bf00      	nop

080055b4 <secadd_constant.constprop.0>:
 80055b4:	e92d 4ff0 	stmdb	sp!, {r4, r5, r6, r7, r8, r9, sl, fp, lr}
 80055b8:	0084      	lsls	r4, r0, #2
 80055ba:	b08f      	sub	sp, #60	; 0x3c
 80055bc:	4680      	mov	r8, r0
 80055be:	af04      	add	r7, sp, #16
 80055c0:	1de0      	adds	r0, r4, #7
 80055c2:	f020 0007 	bic.w	r0, r0, #7
 80055c6:	f8c7 d000 	str.w	sp, [r7]
 80055ca:	ebad 0d00 	sub.w	sp, sp, r0
 80055ce:	f10d 0910 	add.w	r9, sp, #16
 80055d2:	ebad 0d00 	sub.w	sp, sp, r0
 80055d6:	f10d 0b10 	add.w	fp, sp, #16
 80055da:	ebad 0d00 	sub.w	sp, sp, r0
 80055de:	e9c7 3201 	strd	r3, r2, [r7, #4]
 80055e2:	ab04      	add	r3, sp, #16
 80055e4:	617b      	str	r3, [r7, #20]
 80055e6:	6dfb      	ldr	r3, [r7, #92]	; 0x5c
 80055e8:	f8d7 a054 	ldr.w	sl, [r7, #84]	; 0x54
 80055ec:	61b9      	str	r1, [r7, #24]
 80055ee:	f013 0301 	ands.w	r3, r3, #1
 80055f2:	f040 8117 	bne.w	8005824 <secadd_constant.constprop.0+0x270>
 80055f6:	f1b8 0f00 	cmp.w	r8, #0
 80055fa:	d036      	beq.n	800566a <secadd_constant.constprop.0+0xb6>
 80055fc:	f108 32ff 	add.w	r2, r8, #4294967295	; 0xffffffff
 8005600:	2a05      	cmp	r2, #5
 8005602:	f3c9 0580 	ubfx	r5, r9, #2, #1
 8005606:	d914      	bls.n	8005632 <secadd_constant.constprop.0+0x7e>
 8005608:	b10d      	cbz	r5, 800560e <secadd_constant.constprop.0+0x5a>
 800560a:	f8c9 3000 	str.w	r3, [r9]
 800560e:	eba8 0605 	sub.w	r6, r8, r5
 8005612:	0874      	lsrs	r4, r6, #1
 8005614:	eb09 0285 	add.w	r2, r9, r5, lsl #2
 8005618:	2000      	movs	r0, #0
 800561a:	2100      	movs	r1, #0
 800561c:	3301      	adds	r3, #1
 800561e:	429c      	cmp	r4, r3
 8005620:	e8e2 0102 	strd	r0, r1, [r2], #8
 8005624:	d1fa      	bne.n	800561c <secadd_constant.constprop.0+0x68>
 8005626:	f026 0201 	bic.w	r2, r6, #1
 800562a:	4296      	cmp	r6, r2
 800562c:	eb05 0302 	add.w	r3, r5, r2
 8005630:	d01b      	beq.n	800566a <secadd_constant.constprop.0+0xb6>
 8005632:	1c59      	adds	r1, r3, #1
 8005634:	2200      	movs	r2, #0
 8005636:	4588      	cmp	r8, r1
 8005638:	f849 2023 	str.w	r2, [r9, r3, lsl #2]
 800563c:	d915      	bls.n	800566a <secadd_constant.constprop.0+0xb6>
 800563e:	1c98      	adds	r0, r3, #2
 8005640:	4580      	cmp	r8, r0
 8005642:	f849 2021 	str.w	r2, [r9, r1, lsl #2]
 8005646:	d910      	bls.n	800566a <secadd_constant.constprop.0+0xb6>
 8005648:	1cd9      	adds	r1, r3, #3
 800564a:	4588      	cmp	r8, r1
 800564c:	f849 2020 	str.w	r2, [r9, r0, lsl #2]
 8005650:	d90b      	bls.n	800566a <secadd_constant.constprop.0+0xb6>
 8005652:	1d18      	adds	r0, r3, #4
 8005654:	4580      	cmp	r8, r0
 8005656:	f849 2021 	str.w	r2, [r9, r1, lsl #2]
 800565a:	d906      	bls.n	800566a <secadd_constant.constprop.0+0xb6>
 800565c:	3305      	adds	r3, #5
 800565e:	4598      	cmp	r8, r3
 8005660:	f849 2020 	str.w	r2, [r9, r0, lsl #2]
 8005664:	d901      	bls.n	800566a <secadd_constant.constprop.0+0xb6>
 8005666:	f849 2023 	str.w	r2, [r9, r3, lsl #2]
 800566a:	2201      	movs	r2, #1
 800566c:	9200      	str	r2, [sp, #0]
 800566e:	6879      	ldr	r1, [r7, #4]
 8005670:	4653      	mov	r3, sl
 8005672:	4640      	mov	r0, r8
 8005674:	f000 fb69 	bl	8005d4a <copy_sharing_asm>
 8005678:	69bb      	ldr	r3, [r7, #24]
 800567a:	2b01      	cmp	r3, #1
 800567c:	f240 80a7 	bls.w	80057ce <secadd_constant.constprop.0+0x21a>
 8005680:	6dbb      	ldr	r3, [r7, #88]	; 0x58
 8005682:	6d3a      	ldr	r2, [r7, #80]	; 0x50
 8005684:	eb0a 0583 	add.w	r5, sl, r3, lsl #2
 8005688:	009b      	lsls	r3, r3, #2
 800568a:	613b      	str	r3, [r7, #16]
 800568c:	69bb      	ldr	r3, [r7, #24]
 800568e:	3b01      	subs	r3, #1
 8005690:	61fb      	str	r3, [r7, #28]
 8005692:	6d3b      	ldr	r3, [r7, #80]	; 0x50
 8005694:	009b      	lsls	r3, r3, #2
 8005696:	60fb      	str	r3, [r7, #12]
 8005698:	687b      	ldr	r3, [r7, #4]
 800569a:	2601      	movs	r6, #1
 800569c:	e9c7 6508 	strd	r6, r5, [r7, #32]
 80056a0:	4634      	mov	r4, r6
 80056a2:	eb03 0a82 	add.w	sl, r3, r2, lsl #2
 80056a6:	e045      	b.n	8005734 <secadd_constant.constprop.0+0x180>
 80056a8:	9400      	str	r4, [sp, #0]
 80056aa:	f000 fb4e 	bl	8005d4a <copy_sharing_asm>
 80056ae:	e9cd 9401 	strd	r9, r4, [sp, #4]
 80056b2:	9400      	str	r4, [sp, #0]
 80056b4:	6a7b      	ldr	r3, [r7, #36]	; 0x24
 80056b6:	6979      	ldr	r1, [r7, #20]
 80056b8:	2201      	movs	r2, #1
 80056ba:	4640      	mov	r0, r8
 80056bc:	f000 fb1b 	bl	8005cf6 <my_masked_xor_asm>
 80056c0:	465b      	mov	r3, fp
 80056c2:	2201      	movs	r2, #1
 80056c4:	4651      	mov	r1, sl
 80056c6:	4640      	mov	r0, r8
 80056c8:	e9cd 9401 	strd	r9, r4, [sp, #4]
 80056cc:	9400      	str	r4, [sp, #0]
 80056ce:	f000 fb12 	bl	8005cf6 <my_masked_xor_asm>
 80056d2:	e9d7 6507 	ldrd	r6, r5, [r7, #28]
 80056d6:	f8db 2000 	ldr.w	r2, [fp]
 80056da:	f8da 3000 	ldr.w	r3, [sl]
 80056de:	ea6f 0c02 	mvn.w	ip, r2
 80056e2:	ea6f 0e03 	mvn.w	lr, r3
 80056e6:	42ae      	cmp	r6, r5
 80056e8:	465b      	mov	r3, fp
 80056ea:	4649      	mov	r1, r9
 80056ec:	4640      	mov	r0, r8
 80056ee:	f04f 0201 	mov.w	r2, #1
 80056f2:	f8cb c000 	str.w	ip, [fp]
 80056f6:	f8ca e000 	str.w	lr, [sl]
 80056fa:	d040      	beq.n	800577e <secadd_constant.constprop.0+0x1ca>
 80056fc:	9402      	str	r4, [sp, #8]
 80056fe:	697e      	ldr	r6, [r7, #20]
 8005700:	e9cd 4600 	strd	r4, r6, [sp]
 8005704:	f000 fa5c 	bl	8005bc0 <my_masked_and_asm>
 8005708:	9402      	str	r4, [sp, #8]
 800570a:	6a7b      	ldr	r3, [r7, #36]	; 0x24
 800570c:	2201      	movs	r2, #1
 800570e:	e9cd 4300 	strd	r4, r3, [sp]
 8005712:	4649      	mov	r1, r9
 8005714:	464b      	mov	r3, r9
 8005716:	4640      	mov	r0, r8
 8005718:	f000 faed 	bl	8005cf6 <my_masked_xor_asm>
 800571c:	693b      	ldr	r3, [r7, #16]
 800571e:	6a79      	ldr	r1, [r7, #36]	; 0x24
 8005720:	6a3a      	ldr	r2, [r7, #32]
 8005722:	4419      	add	r1, r3
 8005724:	68fb      	ldr	r3, [r7, #12]
 8005726:	6279      	str	r1, [r7, #36]	; 0x24
 8005728:	449a      	add	sl, r3
 800572a:	69bb      	ldr	r3, [r7, #24]
 800572c:	3201      	adds	r2, #1
 800572e:	4293      	cmp	r3, r2
 8005730:	623a      	str	r2, [r7, #32]
 8005732:	d04c      	beq.n	80057ce <secadd_constant.constprop.0+0x21a>
 8005734:	6dfe      	ldr	r6, [r7, #92]	; 0x5c
 8005736:	6a3d      	ldr	r5, [r7, #32]
 8005738:	6a7b      	ldr	r3, [r7, #36]	; 0x24
 800573a:	fa26 fc05 	lsr.w	ip, r6, r5
 800573e:	f01c 0f01 	tst.w	ip, #1
 8005742:	4659      	mov	r1, fp
 8005744:	4640      	mov	r0, r8
 8005746:	f04f 0201 	mov.w	r2, #1
 800574a:	d1ad      	bne.n	80056a8 <secadd_constant.constprop.0+0xf4>
 800574c:	9402      	str	r4, [sp, #8]
 800574e:	6a7b      	ldr	r3, [r7, #36]	; 0x24
 8005750:	2201      	movs	r2, #1
 8005752:	e9cd 4300 	strd	r4, r3, [sp]
 8005756:	4651      	mov	r1, sl
 8005758:	464b      	mov	r3, r9
 800575a:	f000 facc 	bl	8005cf6 <my_masked_xor_asm>
 800575e:	e9d7 3207 	ldrd	r3, r2, [r7, #28]
 8005762:	4293      	cmp	r3, r2
 8005764:	4649      	mov	r1, r9
 8005766:	464b      	mov	r3, r9
 8005768:	f04f 0201 	mov.w	r2, #1
 800576c:	4640      	mov	r0, r8
 800576e:	d034      	beq.n	80057da <secadd_constant.constprop.0+0x226>
 8005770:	9402      	str	r4, [sp, #8]
 8005772:	6a7d      	ldr	r5, [r7, #36]	; 0x24
 8005774:	e9cd 4500 	strd	r4, r5, [sp]
 8005778:	f000 fa22 	bl	8005bc0 <my_masked_and_asm>
 800577c:	e7ce      	b.n	800571c <secadd_constant.constprop.0+0x168>
 800577e:	68bb      	ldr	r3, [r7, #8]
 8005780:	6a7d      	ldr	r5, [r7, #36]	; 0x24
 8005782:	1e5a      	subs	r2, r3, #1
 8005784:	42b2      	cmp	r2, r6
 8005786:	d022      	beq.n	80057ce <secadd_constant.constprop.0+0x21a>
 8005788:	9402      	str	r4, [sp, #8]
 800578a:	697b      	ldr	r3, [r7, #20]
 800578c:	e9cd 4300 	strd	r4, r3, [sp]
 8005790:	69ba      	ldr	r2, [r7, #24]
 8005792:	6d39      	ldr	r1, [r7, #80]	; 0x50
 8005794:	465b      	mov	r3, fp
 8005796:	fb02 f601 	mul.w	r6, r2, r1
 800579a:	2201      	movs	r2, #1
 800579c:	4649      	mov	r1, r9
 800579e:	f000 fa0f 	bl	8005bc0 <my_masked_and_asm>
 80057a2:	e9cd 5401 	strd	r5, r4, [sp, #4]
 80057a6:	9400      	str	r4, [sp, #0]
 80057a8:	687c      	ldr	r4, [r7, #4]
 80057aa:	464b      	mov	r3, r9
 80057ac:	2201      	movs	r2, #1
 80057ae:	4640      	mov	r0, r8
 80057b0:	eb04 0186 	add.w	r1, r4, r6, lsl #2
 80057b4:	f000 fa9f 	bl	8005cf6 <my_masked_xor_asm>
 80057b8:	6dfb      	ldr	r3, [r7, #92]	; 0x5c
 80057ba:	69ba      	ldr	r2, [r7, #24]
 80057bc:	fa23 f202 	lsr.w	r2, r3, r2
 80057c0:	f854 3026 	ldr.w	r3, [r4, r6, lsl #2]
 80057c4:	f342 0200 	sbfx	r2, r2, #0, #1
 80057c8:	4053      	eors	r3, r2
 80057ca:	f844 3026 	str.w	r3, [r4, r6, lsl #2]
 80057ce:	f8d7 d000 	ldr.w	sp, [r7]
 80057d2:	372c      	adds	r7, #44	; 0x2c
 80057d4:	46bd      	mov	sp, r7
 80057d6:	e8bd 8ff0 	ldmia.w	sp!, {r4, r5, r6, r7, r8, r9, sl, fp, pc}
 80057da:	68bb      	ldr	r3, [r7, #8]
 80057dc:	6a7d      	ldr	r5, [r7, #36]	; 0x24
 80057de:	1e5a      	subs	r2, r3, #1
 80057e0:	69fb      	ldr	r3, [r7, #28]
 80057e2:	429a      	cmp	r2, r3
 80057e4:	d0f3      	beq.n	80057ce <secadd_constant.constprop.0+0x21a>
 80057e6:	69bb      	ldr	r3, [r7, #24]
 80057e8:	6d3a      	ldr	r2, [r7, #80]	; 0x50
 80057ea:	9400      	str	r4, [sp, #0]
 80057ec:	e9cd 5401 	strd	r5, r4, [sp, #4]
 80057f0:	687c      	ldr	r4, [r7, #4]
 80057f2:	fb03 f602 	mul.w	r6, r3, r2
 80057f6:	eb04 0186 	add.w	r1, r4, r6, lsl #2
 80057fa:	464b      	mov	r3, r9
 80057fc:	2201      	movs	r2, #1
 80057fe:	f000 f9df 	bl	8005bc0 <my_masked_and_asm>
 8005802:	6dfa      	ldr	r2, [r7, #92]	; 0x5c
 8005804:	69bb      	ldr	r3, [r7, #24]
 8005806:	fa22 f303 	lsr.w	r3, r2, r3
 800580a:	f854 2026 	ldr.w	r2, [r4, r6, lsl #2]
 800580e:	f343 0300 	sbfx	r3, r3, #0, #1
 8005812:	4053      	eors	r3, r2
 8005814:	f844 3026 	str.w	r3, [r4, r6, lsl #2]
 8005818:	f8d7 d000 	ldr.w	sp, [r7]
 800581c:	372c      	adds	r7, #44	; 0x2c
 800581e:	46bd      	mov	sp, r7
 8005820:	e8bd 8ff0 	ldmia.w	sp!, {r4, r5, r6, r7, r8, r9, sl, fp, pc}
 8005824:	f1b8 0f00 	cmp.w	r8, #0
 8005828:	d01d      	beq.n	8005866 <secadd_constant.constprop.0+0x2b2>
 800582a:	ea49 030a 	orr.w	r3, r9, sl
 800582e:	075b      	lsls	r3, r3, #29
 8005830:	d125      	bne.n	800587e <secadd_constant.constprop.0+0x2ca>
 8005832:	f108 33ff 	add.w	r3, r8, #4294967295	; 0xffffffff
 8005836:	2b0a      	cmp	r3, #10
 8005838:	d921      	bls.n	800587e <secadd_constant.constprop.0+0x2ca>
 800583a:	ea4f 0458 	mov.w	r4, r8, lsr #1
 800583e:	eb09 04c4 	add.w	r4, r9, r4, lsl #3
 8005842:	f1aa 0208 	sub.w	r2, sl, #8
 8005846:	464b      	mov	r3, r9
 8005848:	e9f2 0102 	ldrd	r0, r1, [r2, #8]!
 800584c:	e8e3 0102 	strd	r0, r1, [r3], #8
 8005850:	42a3      	cmp	r3, r4
 8005852:	d1f9      	bne.n	8005848 <secadd_constant.constprop.0+0x294>
 8005854:	f018 0f01 	tst.w	r8, #1
 8005858:	f028 0301 	bic.w	r3, r8, #1
 800585c:	d003      	beq.n	8005866 <secadd_constant.constprop.0+0x2b2>
 800585e:	f85a 2023 	ldr.w	r2, [sl, r3, lsl #2]
 8005862:	f849 2023 	str.w	r2, [r9, r3, lsl #2]
 8005866:	2201      	movs	r2, #1
 8005868:	9200      	str	r2, [sp, #0]
 800586a:	687c      	ldr	r4, [r7, #4]
 800586c:	4653      	mov	r3, sl
 800586e:	4621      	mov	r1, r4
 8005870:	4640      	mov	r0, r8
 8005872:	f000 fa6a 	bl	8005d4a <copy_sharing_asm>
 8005876:	6823      	ldr	r3, [r4, #0]
 8005878:	43db      	mvns	r3, r3
 800587a:	6023      	str	r3, [r4, #0]
 800587c:	e6fc      	b.n	8005678 <secadd_constant.constprop.0+0xc4>
 800587e:	f1aa 0304 	sub.w	r3, sl, #4
 8005882:	441c      	add	r4, r3
 8005884:	f1a9 0204 	sub.w	r2, r9, #4
 8005888:	f853 1f04 	ldr.w	r1, [r3, #4]!
 800588c:	f842 1f04 	str.w	r1, [r2, #4]!
 8005890:	42a3      	cmp	r3, r4
 8005892:	d1f9      	bne.n	8005888 <secadd_constant.constprop.0+0x2d4>
 8005894:	e7e7      	b.n	8005866 <secadd_constant.constprop.0+0x2b2>
 8005896:	bf00      	nop

08005898 <masked_dense2bitslice_opt.constprop.0>:
 8005898:	e92d 4f70 	stmdb	sp!, {r4, r5, r6, r8, r9, sl, fp, lr}
 800589c:	b0bc      	sub	sp, #240	; 0xf0
 800589e:	460d      	mov	r5, r1
 80058a0:	911b      	str	r1, [sp, #108]	; 0x6c
 80058a2:	4611      	mov	r1, r2
 80058a4:	4602      	mov	r2, r0
 80058a6:	901a      	str	r0, [sp, #104]	; 0x68
 80058a8:	9845      	ldr	r0, [sp, #276]	; 0x114
 80058aa:	2a00      	cmp	r2, #0
 80058ac:	f000 80ef 	beq.w	8005a8e <masked_dense2bitslice_opt.constprop.0+0x1f6>
 80058b0:	eb03 0243 	add.w	r2, r3, r3, lsl #1
 80058b4:	f06f 042b 	mvn.w	r4, #43	; 0x2b
 80058b8:	fb04 f303 	mul.w	r3, r4, r3
 80058bc:	eb05 1502 	add.w	r5, r5, r2, lsl #4
 80058c0:	18ec      	adds	r4, r5, r3
 80058c2:	9417      	str	r4, [sp, #92]	; 0x5c
 80058c4:	eb04 1402 	add.w	r4, r4, r2, lsl #4
 80058c8:	9416      	str	r4, [sp, #88]	; 0x58
 80058ca:	441c      	add	r4, r3
 80058cc:	9415      	str	r4, [sp, #84]	; 0x54
 80058ce:	eb04 1402 	add.w	r4, r4, r2, lsl #4
 80058d2:	9414      	str	r4, [sp, #80]	; 0x50
 80058d4:	441c      	add	r4, r3
 80058d6:	9413      	str	r4, [sp, #76]	; 0x4c
 80058d8:	eb04 1402 	add.w	r4, r4, r2, lsl #4
 80058dc:	9412      	str	r4, [sp, #72]	; 0x48
 80058de:	441c      	add	r4, r3
 80058e0:	9411      	str	r4, [sp, #68]	; 0x44
 80058e2:	eb04 1402 	add.w	r4, r4, r2, lsl #4
 80058e6:	9410      	str	r4, [sp, #64]	; 0x40
 80058e8:	441c      	add	r4, r3
 80058ea:	940f      	str	r4, [sp, #60]	; 0x3c
 80058ec:	eb04 1402 	add.w	r4, r4, r2, lsl #4
 80058f0:	940e      	str	r4, [sp, #56]	; 0x38
 80058f2:	441c      	add	r4, r3
 80058f4:	940d      	str	r4, [sp, #52]	; 0x34
 80058f6:	eb04 1402 	add.w	r4, r4, r2, lsl #4
 80058fa:	940c      	str	r4, [sp, #48]	; 0x30
 80058fc:	441c      	add	r4, r3
 80058fe:	940b      	str	r4, [sp, #44]	; 0x2c
 8005900:	eb04 1402 	add.w	r4, r4, r2, lsl #4
 8005904:	940a      	str	r4, [sp, #40]	; 0x28
 8005906:	441c      	add	r4, r3
 8005908:	9409      	str	r4, [sp, #36]	; 0x24
 800590a:	eb04 1402 	add.w	r4, r4, r2, lsl #4
 800590e:	9408      	str	r4, [sp, #32]
 8005910:	441c      	add	r4, r3
 8005912:	9407      	str	r4, [sp, #28]
 8005914:	eb04 1402 	add.w	r4, r4, r2, lsl #4
 8005918:	9406      	str	r4, [sp, #24]
 800591a:	441c      	add	r4, r3
 800591c:	9405      	str	r4, [sp, #20]
 800591e:	eb04 1402 	add.w	r4, r4, r2, lsl #4
 8005922:	18e3      	adds	r3, r4, r3
 8005924:	9303      	str	r3, [sp, #12]
 8005926:	f04f 0900 	mov.w	r9, #0
 800592a:	0089      	lsls	r1, r1, #2
 800592c:	eb03 1302 	add.w	r3, r3, r2, lsl #4
 8005930:	9518      	str	r5, [sp, #96]	; 0x60
 8005932:	9404      	str	r4, [sp, #16]
 8005934:	9119      	str	r1, [sp, #100]	; 0x64
 8005936:	9302      	str	r3, [sp, #8]
 8005938:	46cb      	mov	fp, r9
 800593a:	ea4f 0840 	mov.w	r8, r0, lsl #1
 800593e:	ea4f 1e80 	mov.w	lr, r0, lsl #6
 8005942:	f10d 0cec 	add.w	ip, sp, #236	; 0xec
 8005946:	9b44      	ldr	r3, [sp, #272]	; 0x110
 8005948:	a91b      	add	r1, sp, #108	; 0x6c
 800594a:	eb03 034b 	add.w	r3, r3, fp, lsl #1
 800594e:	f933 000e 	ldrsh.w	r0, [r3, lr]
 8005952:	f9b3 2000 	ldrsh.w	r2, [r3]
 8005956:	ea42 4200 	orr.w	r2, r2, r0, lsl #16
 800595a:	f841 2f04 	str.w	r2, [r1, #4]!
 800595e:	458c      	cmp	ip, r1
 8005960:	4443      	add	r3, r8
 8005962:	d1f4      	bne.n	800594e <masked_dense2bitslice_opt.constprop.0+0xb6>
 8005964:	f04f 0a05 	mov.w	sl, #5
 8005968:	f64f 75ff 	movw	r5, #65535	; 0xffff
 800596c:	2410      	movs	r4, #16
 800596e:	43e6      	mvns	r6, r4
 8005970:	2200      	movs	r2, #0
 8005972:	f8cd e004 	str.w	lr, [sp, #4]
 8005976:	ab1c      	add	r3, sp, #112	; 0x70
 8005978:	18a1      	adds	r1, r4, r2
 800597a:	a81c      	add	r0, sp, #112	; 0x70
 800597c:	f853 3022 	ldr.w	r3, [r3, r2, lsl #2]
 8005980:	f850 0021 	ldr.w	r0, [r0, r1, lsl #2]
 8005984:	40e3      	lsrs	r3, r4
 8005986:	4043      	eors	r3, r0
 8005988:	f10d 0e70 	add.w	lr, sp, #112	; 0x70
 800598c:	402b      	ands	r3, r5
 800598e:	4058      	eors	r0, r3
 8005990:	f84e 0021 	str.w	r0, [lr, r1, lsl #2]
 8005994:	f85e 0022 	ldr.w	r0, [lr, r2, lsl #2]
 8005998:	40a3      	lsls	r3, r4
 800599a:	3101      	adds	r1, #1
 800599c:	4043      	eors	r3, r0
 800599e:	f84e 3022 	str.w	r3, [lr, r2, lsl #2]
 80059a2:	ea01 0206 	and.w	r2, r1, r6
 80059a6:	2a1f      	cmp	r2, #31
 80059a8:	dde5      	ble.n	8005976 <masked_dense2bitslice_opt.constprop.0+0xde>
 80059aa:	1064      	asrs	r4, r4, #1
 80059ac:	fa05 f304 	lsl.w	r3, r5, r4
 80059b0:	f1ba 0a01 	subs.w	sl, sl, #1
 80059b4:	f8dd e004 	ldr.w	lr, [sp, #4]
 80059b8:	ea85 0503 	eor.w	r5, r5, r3
 80059bc:	d1d7      	bne.n	800596e <masked_dense2bitslice_opt.constprop.0+0xd6>
 80059be:	991b      	ldr	r1, [sp, #108]	; 0x6c
 80059c0:	9b1c      	ldr	r3, [sp, #112]	; 0x70
 80059c2:	f841 3009 	str.w	r3, [r1, r9]
 80059c6:	9918      	ldr	r1, [sp, #96]	; 0x60
 80059c8:	9a2c      	ldr	r2, [sp, #176]	; 0xb0
 80059ca:	f841 2009 	str.w	r2, [r1, r9]
 80059ce:	9917      	ldr	r1, [sp, #92]	; 0x5c
 80059d0:	9b1d      	ldr	r3, [sp, #116]	; 0x74
 80059d2:	f841 3009 	str.w	r3, [r1, r9]
 80059d6:	9916      	ldr	r1, [sp, #88]	; 0x58
 80059d8:	9a2d      	ldr	r2, [sp, #180]	; 0xb4
 80059da:	f841 2009 	str.w	r2, [r1, r9]
 80059de:	9915      	ldr	r1, [sp, #84]	; 0x54
 80059e0:	9b1e      	ldr	r3, [sp, #120]	; 0x78
 80059e2:	f841 3009 	str.w	r3, [r1, r9]
 80059e6:	9914      	ldr	r1, [sp, #80]	; 0x50
 80059e8:	9a2e      	ldr	r2, [sp, #184]	; 0xb8
 80059ea:	f841 2009 	str.w	r2, [r1, r9]
 80059ee:	9913      	ldr	r1, [sp, #76]	; 0x4c
 80059f0:	9b1f      	ldr	r3, [sp, #124]	; 0x7c
 80059f2:	f841 3009 	str.w	r3, [r1, r9]
 80059f6:	9912      	ldr	r1, [sp, #72]	; 0x48
 80059f8:	9a2f      	ldr	r2, [sp, #188]	; 0xbc
 80059fa:	f841 2009 	str.w	r2, [r1, r9]
 80059fe:	9911      	ldr	r1, [sp, #68]	; 0x44
 8005a00:	9b20      	ldr	r3, [sp, #128]	; 0x80
 8005a02:	f841 3009 	str.w	r3, [r1, r9]
 8005a06:	9910      	ldr	r1, [sp, #64]	; 0x40
 8005a08:	9a30      	ldr	r2, [sp, #192]	; 0xc0
 8005a0a:	9b21      	ldr	r3, [sp, #132]	; 0x84
 8005a0c:	f841 2009 	str.w	r2, [r1, r9]
 8005a10:	9a31      	ldr	r2, [sp, #196]	; 0xc4
 8005a12:	990f      	ldr	r1, [sp, #60]	; 0x3c
 8005a14:	f841 3009 	str.w	r3, [r1, r9]
 8005a18:	990e      	ldr	r1, [sp, #56]	; 0x38
 8005a1a:	9b22      	ldr	r3, [sp, #136]	; 0x88
 8005a1c:	f841 2009 	str.w	r2, [r1, r9]
 8005a20:	990d      	ldr	r1, [sp, #52]	; 0x34
 8005a22:	9a32      	ldr	r2, [sp, #200]	; 0xc8
 8005a24:	f841 3009 	str.w	r3, [r1, r9]
 8005a28:	990c      	ldr	r1, [sp, #48]	; 0x30
 8005a2a:	9b23      	ldr	r3, [sp, #140]	; 0x8c
 8005a2c:	f841 2009 	str.w	r2, [r1, r9]
 8005a30:	990b      	ldr	r1, [sp, #44]	; 0x2c
 8005a32:	9a33      	ldr	r2, [sp, #204]	; 0xcc
 8005a34:	f841 3009 	str.w	r3, [r1, r9]
 8005a38:	9b0a      	ldr	r3, [sp, #40]	; 0x28
 8005a3a:	9909      	ldr	r1, [sp, #36]	; 0x24
 8005a3c:	f843 2009 	str.w	r2, [r3, r9]
 8005a40:	9b24      	ldr	r3, [sp, #144]	; 0x90
 8005a42:	f841 3009 	str.w	r3, [r1, r9]
 8005a46:	9908      	ldr	r1, [sp, #32]
 8005a48:	9a34      	ldr	r2, [sp, #208]	; 0xd0
 8005a4a:	f841 2009 	str.w	r2, [r1, r9]
 8005a4e:	9907      	ldr	r1, [sp, #28]
 8005a50:	9b25      	ldr	r3, [sp, #148]	; 0x94
 8005a52:	f841 3009 	str.w	r3, [r1, r9]
 8005a56:	9906      	ldr	r1, [sp, #24]
 8005a58:	9a35      	ldr	r2, [sp, #212]	; 0xd4
 8005a5a:	f841 2009 	str.w	r2, [r1, r9]
 8005a5e:	9905      	ldr	r1, [sp, #20]
 8005a60:	9b26      	ldr	r3, [sp, #152]	; 0x98
 8005a62:	9a36      	ldr	r2, [sp, #216]	; 0xd8
 8005a64:	f841 3009 	str.w	r3, [r1, r9]
 8005a68:	9b27      	ldr	r3, [sp, #156]	; 0x9c
 8005a6a:	9904      	ldr	r1, [sp, #16]
 8005a6c:	f841 2009 	str.w	r2, [r1, r9]
 8005a70:	9903      	ldr	r1, [sp, #12]
 8005a72:	9a37      	ldr	r2, [sp, #220]	; 0xdc
 8005a74:	f841 3009 	str.w	r3, [r1, r9]
 8005a78:	9b02      	ldr	r3, [sp, #8]
 8005a7a:	f843 2009 	str.w	r2, [r3, r9]
 8005a7e:	9b19      	ldr	r3, [sp, #100]	; 0x64
 8005a80:	4499      	add	r9, r3
 8005a82:	9b1a      	ldr	r3, [sp, #104]	; 0x68
 8005a84:	f10b 0b01 	add.w	fp, fp, #1
 8005a88:	459b      	cmp	fp, r3
 8005a8a:	f47f af5c 	bne.w	8005946 <masked_dense2bitslice_opt.constprop.0+0xae>
 8005a8e:	b03c      	add	sp, #240	; 0xf0
 8005a90:	e8bd 8f70 	ldmia.w	sp!, {r4, r5, r6, r8, r9, sl, fp, pc}

08005a94 <initialize_local>:
 8005a94:	b430      	push	{r4, r5}
 8005a96:	b972      	cbnz	r2, 8005ab6 <initialize_local+0x22>
 8005a98:	3802      	subs	r0, #2
 8005a9a:	1c4d      	adds	r5, r1, #1
 8005a9c:	f811 4012 	ldrb.w	r4, [r1, r2, lsl #1]
 8005aa0:	f815 3012 	ldrb.w	r3, [r5, r2, lsl #1]
 8005aa4:	3201      	adds	r2, #1
 8005aa6:	ea43 2304 	orr.w	r3, r3, r4, lsl #8
 8005aaa:	2a20      	cmp	r2, #32
 8005aac:	f820 3f02 	strh.w	r3, [r0, #2]!
 8005ab0:	d1f4      	bne.n	8005a9c <initialize_local+0x8>
 8005ab2:	bc30      	pop	{r4, r5}
 8005ab4:	4770      	bx	lr
 8005ab6:	1e82      	subs	r2, r0, #2
 8005ab8:	303e      	adds	r0, #62	; 0x3e
 8005aba:	f891 4040 	ldrb.w	r4, [r1, #64]	; 0x40
 8005abe:	f891 3041 	ldrb.w	r3, [r1, #65]	; 0x41
 8005ac2:	ea43 2304 	orr.w	r3, r3, r4, lsl #8
 8005ac6:	f822 3f02 	strh.w	r3, [r2, #2]!
 8005aca:	4282      	cmp	r2, r0
 8005acc:	f101 0102 	add.w	r1, r1, #2
 8005ad0:	d1f3      	bne.n	8005aba <initialize_local+0x26>
 8005ad2:	bc30      	pop	{r4, r5}
 8005ad4:	4770      	bx	lr
 8005ad6:	bf00      	nop

08005ad8 <initialize_local_reverse>:
 8005ad8:	b410      	push	{r4}
 8005ada:	3902      	subs	r1, #2
 8005adc:	1c44      	adds	r4, r0, #1
 8005ade:	2300      	movs	r3, #0
 8005ae0:	f931 2f02 	ldrsh.w	r2, [r1, #2]!
 8005ae4:	1212      	asrs	r2, r2, #8
 8005ae6:	f800 2013 	strb.w	r2, [r0, r3, lsl #1]
 8005aea:	880a      	ldrh	r2, [r1, #0]
 8005aec:	f804 2013 	strb.w	r2, [r4, r3, lsl #1]
 8005af0:	3301      	adds	r3, #1
 8005af2:	2b80      	cmp	r3, #128	; 0x80
 8005af4:	d1f4      	bne.n	8005ae0 <initialize_local_reverse+0x8>
 8005af6:	bc10      	pop	{r4}
 8005af8:	4770      	bx	lr
 8005afa:	bf00      	nop

08005afc <main>:
 8005afc:	e92d 4f70 	stmdb	sp!, {r4, r5, r6, r8, r9, sl, fp, lr}
 8005b00:	f5ad 7d12 	sub.w	sp, sp, #584	; 0x248
 8005b04:	492c      	ldr	r1, [pc, #176]	; (8005bb8 <main+0xbc>)
 8005b06:	4d2d      	ldr	r5, [pc, #180]	; (8005bbc <main+0xc0>)
 8005b08:	2200      	movs	r2, #0
 8005b0a:	a802      	add	r0, sp, #8
 8005b0c:	f7ff ffc2 	bl	8005a94 <initialize_local>
 8005b10:	4929      	ldr	r1, [pc, #164]	; (8005bb8 <main+0xbc>)
 8005b12:	2201      	movs	r2, #1
 8005b14:	a812      	add	r0, sp, #72	; 0x48
 8005b16:	f7ff ffbd 	bl	8005a94 <initialize_local>
 8005b1a:	f50d 78a4 	add.w	r8, sp, #328	; 0x148
 8005b1e:	f10d 0a46 	add.w	sl, sp, #70	; 0x46
 8005b22:	4644      	mov	r4, r8
 8005b24:	4656      	mov	r6, sl
 8005b26:	f10d 0906 	add.w	r9, sp, #6
 8005b2a:	f640 5b01 	movw	fp, #3329	; 0xd01
 8005b2e:	f839 0f02 	ldrh.w	r0, [r9, #2]!
 8005b32:	f83a 1f02 	ldrh.w	r1, [sl, #2]!
 8005b36:	fba5 3200 	umull	r3, r2, r5, r0
 8005b3a:	fba5 c301 	umull	ip, r3, r5, r1
 8005b3e:	eba0 0e02 	sub.w	lr, r0, r2
 8005b42:	eba1 0c03 	sub.w	ip, r1, r3
 8005b46:	eb02 025e 	add.w	r2, r2, lr, lsr #1
 8005b4a:	eb03 035c 	add.w	r3, r3, ip, lsr #1
 8005b4e:	0ad2      	lsrs	r2, r2, #11
 8005b50:	0adb      	lsrs	r3, r3, #11
 8005b52:	fb0b 1313 	mls	r3, fp, r3, r1
 8005b56:	fb0b 0212 	mls	r2, fp, r2, r0
 8005b5a:	8022      	strh	r2, [r4, #0]
 8005b5c:	f8a4 3080 	strh.w	r3, [r4, #128]	; 0x80
 8005b60:	f7fa fa58 	bl	8000014 <rand32>
 8005b64:	8823      	ldrh	r3, [r4, #0]
 8005b66:	f3c0 000b 	ubfx	r0, r0, #0, #12
 8005b6a:	4043      	eors	r3, r0
 8005b6c:	8023      	strh	r3, [r4, #0]
 8005b6e:	8060      	strh	r0, [r4, #2]
 8005b70:	f7fa fa50 	bl	8000014 <rand32>
 8005b74:	f8b4 3080 	ldrh.w	r3, [r4, #128]	; 0x80
 8005b78:	f3c0 000b 	ubfx	r0, r0, #0, #12
 8005b7c:	4043      	eors	r3, r0
 8005b7e:	45b1      	cmp	r9, r6
 8005b80:	f8a4 0082 	strh.w	r0, [r4, #130]	; 0x82
 8005b84:	f8a4 3080 	strh.w	r3, [r4, #128]	; 0x80
 8005b88:	f104 0404 	add.w	r4, r4, #4
 8005b8c:	d1cf      	bne.n	8005b2e <main+0x32>
 8005b8e:	2402      	movs	r4, #2
 8005b90:	a922      	add	r1, sp, #136	; 0x88
 8005b92:	4623      	mov	r3, r4
 8005b94:	4620      	mov	r0, r4
 8005b96:	2201      	movs	r2, #1
 8005b98:	f8cd 8000 	str.w	r8, [sp]
 8005b9c:	9401      	str	r4, [sp, #4]
 8005b9e:	f7ff fe7b 	bl	8005898 <masked_dense2bitslice_opt.constprop.0>
 8005ba2:	aa22      	add	r2, sp, #136	; 0x88
 8005ba4:	4620      	mov	r0, r4
 8005ba6:	2301      	movs	r3, #1
 8005ba8:	f640 5101 	movw	r1, #3329	; 0xd01
 8005bac:	9400      	str	r4, [sp, #0]
 8005bae:	f7fc f911 	bl	8001dd4 <cipher>
 8005bb2:	f7ff f8b1 	bl	8004d18 <report_done>
 8005bb6:	bf00      	nop
 8005bb8:	20000004 	.word	0x20000004
 8005bbc:	3afb7681 	.word	0x3afb7681

08005bc0 <my_masked_and_asm>:
 8005bc0:	e92d 5ff0 	stmdb	sp!, {r4, r5, r6, r7, r8, r9, sl, fp, ip, lr}
 8005bc4:	9c0a      	ldr	r4, [sp, #40]	; 0x28
 8005bc6:	9d0b      	ldr	r5, [sp, #44]	; 0x2c
 8005bc8:	9e0c      	ldr	r6, [sp, #48]	; 0x30
 8005bca:	ea4f 0484 	mov.w	r4, r4, lsl #2
 8005bce:	ea4f 0686 	mov.w	r6, r6, lsl #2
 8005bd2:	4607      	mov	r7, r0
 8005bd4:	4698      	mov	r8, r3
 8005bd6:	b406      	push	{r1, r2}
 8005bd8:	b0a0      	sub	sp, #128	; 0x80
 8005bda:	941f      	str	r4, [sp, #124]	; 0x7c
 8005bdc:	f04f 0000 	mov.w	r0, #0

08005be0 <loop_ab>:
 8005be0:	fb00 f204 	mul.w	r2, r0, r4
 8005be4:	991f      	ldr	r1, [sp, #124]	; 0x7c
 8005be6:	f858 1002 	ldr.w	r1, [r8, r2]
 8005bea:	9a1f      	ldr	r2, [sp, #124]	; 0x7c
 8005bec:	fb00 f206 	mul.w	r2, r0, r6
 8005bf0:	58aa      	ldr	r2, [r5, r2]
 8005bf2:	ea02 0201 	and.w	r2, r2, r1
 8005bf6:	ea4f 0180 	mov.w	r1, r0, lsl #2
 8005bfa:	f84d 2001 	str.w	r2, [sp, r1]
 8005bfe:	911f      	str	r1, [sp, #124]	; 0x7c
 8005c00:	f04f 0200 	mov.w	r2, #0
 8005c04:	f100 0001 	add.w	r0, r0, #1
 8005c08:	4287      	cmp	r7, r0
 8005c0a:	d1e9      	bne.n	8005be0 <loop_ab>
 8005c0c:	2f01      	cmp	r7, #1
 8005c0e:	d056      	beq.n	8005cbe <my_out>
 8005c10:	f04f 0900 	mov.w	r9, #0

08005c14 <loop_cross_ext>:
 8005c14:	f109 0a01 	add.w	sl, r9, #1

08005c18 <loop_cross_in>:
 8005c18:	f7fa f9f2 	bl	8000000 <get_random>
 8005c1c:	fb0a f206 	mul.w	r2, sl, r6
 8005c20:	58aa      	ldr	r2, [r5, r2]
 8005c22:	9b1f      	ldr	r3, [sp, #124]	; 0x7c
 8005c24:	ea82 0200 	eor.w	r2, r2, r0
 8005c28:	fb09 f104 	mul.w	r1, r9, r4
 8005c2c:	f858 1001 	ldr.w	r1, [r8, r1]
 8005c30:	ea20 0301 	bic.w	r3, r0, r1
 8005c34:	901e      	str	r0, [sp, #120]	; 0x78
 8005c36:	f8cd 907c 	str.w	r9, [sp, #124]	; 0x7c
 8005c3a:	f04f 0000 	mov.w	r0, #0
 8005c3e:	ea01 0202 	and.w	r2, r1, r2
 8005c42:	ea4f 0189 	mov.w	r1, r9, lsl #2
 8005c46:	ea82 0303 	eor.w	r3, r2, r3
 8005c4a:	9a1f      	ldr	r2, [sp, #124]	; 0x7c
 8005c4c:	f85d 2001 	ldr.w	r2, [sp, r1]
 8005c50:	ea82 0203 	eor.w	r2, r2, r3
 8005c54:	f84d 2001 	str.w	r2, [sp, r1]
 8005c58:	911f      	str	r1, [sp, #124]	; 0x7c
 8005c5a:	f04f 0200 	mov.w	r2, #0
 8005c5e:	f04f 0300 	mov.w	r3, #0
 8005c62:	981e      	ldr	r0, [sp, #120]	; 0x78
 8005c64:	fb09 f206 	mul.w	r2, r9, r6
 8005c68:	58aa      	ldr	r2, [r5, r2]
 8005c6a:	9b1f      	ldr	r3, [sp, #124]	; 0x7c
 8005c6c:	ea82 0200 	eor.w	r2, r2, r0
 8005c70:	fb0a f104 	mul.w	r1, sl, r4
 8005c74:	f858 1001 	ldr.w	r1, [r8, r1]
 8005c78:	ea20 0301 	bic.w	r3, r0, r1
 8005c7c:	f04f 0000 	mov.w	r0, #0
 8005c80:	901e      	str	r0, [sp, #120]	; 0x78
 8005c82:	ea01 0202 	and.w	r2, r1, r2
 8005c86:	ea4f 018a 	mov.w	r1, sl, lsl #2
 8005c8a:	ea82 0303 	eor.w	r3, r2, r3
 8005c8e:	9a1f      	ldr	r2, [sp, #124]	; 0x7c
 8005c90:	f85d 2001 	ldr.w	r2, [sp, r1]
 8005c94:	ea82 0203 	eor.w	r2, r2, r3
 8005c98:	f84d 2001 	str.w	r2, [sp, r1]
 8005c9c:	911f      	str	r1, [sp, #124]	; 0x7c
 8005c9e:	f04f 0200 	mov.w	r2, #0
 8005ca2:	f04f 0300 	mov.w	r3, #0
 8005ca6:	f10a 0a01 	add.w	sl, sl, #1
 8005caa:	4557      	cmp	r7, sl
 8005cac:	d1b4      	bne.n	8005c18 <loop_cross_in>
 8005cae:	f1a7 0701 	sub.w	r7, r7, #1
 8005cb2:	f109 0901 	add.w	r9, r9, #1
 8005cb6:	454f      	cmp	r7, r9
 8005cb8:	f107 0701 	add.w	r7, r7, #1
 8005cbc:	d1aa      	bne.n	8005c14 <loop_cross_ext>

08005cbe <my_out>:
 8005cbe:	b020      	add	sp, #128	; 0x80
 8005cc0:	bc06      	pop	{r1, r2}
 8005cc2:	b406      	push	{r1, r2}
 8005cc4:	b0a0      	sub	sp, #128	; 0x80
 8005cc6:	f04f 0000 	mov.w	r0, #0
 8005cca:	ea4f 0282 	mov.w	r2, r2, lsl #2

08005cce <loop_cmp>:
 8005cce:	9c1f      	ldr	r4, [sp, #124]	; 0x7c
 8005cd0:	ea4f 0480 	mov.w	r4, r0, lsl #2
 8005cd4:	f85d 4004 	ldr.w	r4, [sp, r4]
 8005cd8:	fb00 f302 	mul.w	r3, r0, r2
 8005cdc:	50c8      	str	r0, [r1, r3]
 8005cde:	50cc      	str	r4, [r1, r3]
 8005ce0:	9b1f      	ldr	r3, [sp, #124]	; 0x7c
 8005ce2:	f100 0001 	add.w	r0, r0, #1
 8005ce6:	f04f 0400 	mov.w	r4, #0
 8005cea:	4287      	cmp	r7, r0
 8005cec:	d1ef      	bne.n	8005cce <loop_cmp>

08005cee <my_out_full>:
 8005cee:	b020      	add	sp, #128	; 0x80
 8005cf0:	bc06      	pop	{r1, r2}
 8005cf2:	e8bd 9ff0 	ldmia.w	sp!, {r4, r5, r6, r7, r8, r9, sl, fp, ip, pc}

08005cf6 <my_masked_xor_asm>:
 8005cf6:	e92d 5ff0 	stmdb	sp!, {r4, r5, r6, r7, r8, r9, sl, fp, ip, lr}
 8005cfa:	9c0a      	ldr	r4, [sp, #40]	; 0x28
 8005cfc:	9d0b      	ldr	r5, [sp, #44]	; 0x2c
 8005cfe:	9e0c      	ldr	r6, [sp, #48]	; 0x30
 8005d00:	ea4f 0080 	mov.w	r0, r0, lsl #2
 8005d04:	b081      	sub	sp, #4
 8005d06:	f04f 0700 	mov.w	r7, #0
 8005d0a:	9700      	str	r7, [sp, #0]

08005d0c <loop_ab_xor>:
 8005d0c:	f8dd 8000 	ldr.w	r8, [sp]
 8005d10:	fb07 f804 	mul.w	r8, r7, r4
 8005d14:	f853 8008 	ldr.w	r8, [r3, r8]
 8005d18:	f8dd 9000 	ldr.w	r9, [sp]
 8005d1c:	fb07 f906 	mul.w	r9, r7, r6
 8005d20:	f855 9009 	ldr.w	r9, [r5, r9]
 8005d24:	ea89 0908 	eor.w	r9, r9, r8
 8005d28:	fb07 f802 	mul.w	r8, r7, r2
 8005d2c:	9700      	str	r7, [sp, #0]
 8005d2e:	f841 7008 	str.w	r7, [r1, r8]
 8005d32:	f841 9008 	str.w	r9, [r1, r8]
 8005d36:	9f00      	ldr	r7, [sp, #0]
 8005d38:	f04f 0900 	mov.w	r9, #0
 8005d3c:	f107 0704 	add.w	r7, r7, #4
 8005d40:	4287      	cmp	r7, r0
 8005d42:	d1e3      	bne.n	8005d0c <loop_ab_xor>
 8005d44:	b001      	add	sp, #4
 8005d46:	e8bd 9ff0 	ldmia.w	sp!, {r4, r5, r6, r7, r8, r9, sl, fp, ip, pc}

08005d4a <copy_sharing_asm>:
 8005d4a:	b190      	cbz	r0, 8005d72 <cp_out>
 8005d4c:	b471      	push	{r0, r4, r5, r6}
 8005d4e:	0095      	lsls	r5, r2, #2
 8005d50:	9a04      	ldr	r2, [sp, #16]
 8005d52:	0096      	lsls	r6, r2, #2
 8005d54:	2200      	movs	r2, #0

08005d56 <copy_sharing_loop>:
 8005d56:	3201      	adds	r2, #1
 8005d58:	9c00      	ldr	r4, [sp, #0]
 8005d5a:	681c      	ldr	r4, [r3, #0]
 8005d5c:	9000      	str	r0, [sp, #0]
 8005d5e:	600c      	str	r4, [r1, #0]
 8005d60:	f04f 0400 	mov.w	r4, #0
 8005d64:	4290      	cmp	r0, r2
 8005d66:	4433      	add	r3, r6
 8005d68:	4429      	add	r1, r5
 8005d6a:	d1f4      	bne.n	8005d56 <copy_sharing_loop>
 8005d6c:	9000      	str	r0, [sp, #0]
 8005d6e:	bc71      	pop	{r0, r4, r5, r6}
 8005d70:	4770      	bx	lr

08005d72 <cp_out>:
 8005d72:	4770      	bx	lr
