
../../bin/binary.elf:     file format elf32-littlearm


Disassembly of section .text:

00008000 <deregister_tm_clones>:
    8000:	4803      	ldr	r0, [pc, #12]	; (8010 <deregister_tm_clones+0x10>)
    8002:	4b04      	ldr	r3, [pc, #16]	; (8014 <deregister_tm_clones+0x14>)
    8004:	4283      	cmp	r3, r0
    8006:	d002      	beq.n	800e <deregister_tm_clones+0xe>
    8008:	4b03      	ldr	r3, [pc, #12]	; (8018 <deregister_tm_clones+0x18>)
    800a:	b103      	cbz	r3, 800e <deregister_tm_clones+0xe>
    800c:	4718      	bx	r3
    800e:	4770      	bx	lr
    8010:	00020658 	.word	0x00020658
    8014:	00020658 	.word	0x00020658
    8018:	00000000 	.word	0x00000000

0000801c <register_tm_clones>:
    801c:	4805      	ldr	r0, [pc, #20]	; (8034 <register_tm_clones+0x18>)
    801e:	4906      	ldr	r1, [pc, #24]	; (8038 <register_tm_clones+0x1c>)
    8020:	1a0b      	subs	r3, r1, r0
    8022:	0fd9      	lsrs	r1, r3, #31
    8024:	eb01 01a3 	add.w	r1, r1, r3, asr #2
    8028:	1049      	asrs	r1, r1, #1
    802a:	d002      	beq.n	8032 <register_tm_clones+0x16>
    802c:	4b03      	ldr	r3, [pc, #12]	; (803c <register_tm_clones+0x20>)
    802e:	b103      	cbz	r3, 8032 <register_tm_clones+0x16>
    8030:	4718      	bx	r3
    8032:	4770      	bx	lr
    8034:	00020658 	.word	0x00020658
    8038:	00020658 	.word	0x00020658
    803c:	00000000 	.word	0x00000000

00008040 <__do_global_dtors_aux>:
    8040:	b510      	push	{r4, lr}
    8042:	4c06      	ldr	r4, [pc, #24]	; (805c <__do_global_dtors_aux+0x1c>)
    8044:	7823      	ldrb	r3, [r4, #0]
    8046:	b943      	cbnz	r3, 805a <__do_global_dtors_aux+0x1a>
    8048:	f7ff ffda 	bl	8000 <deregister_tm_clones>
    804c:	4b04      	ldr	r3, [pc, #16]	; (8060 <__do_global_dtors_aux+0x20>)
    804e:	b113      	cbz	r3, 8056 <__do_global_dtors_aux+0x16>
    8050:	4804      	ldr	r0, [pc, #16]	; (8064 <__do_global_dtors_aux+0x24>)
    8052:	f3af 8000 	nop.w
    8056:	2301      	movs	r3, #1
    8058:	7023      	strb	r3, [r4, #0]
    805a:	bd10      	pop	{r4, pc}
    805c:	0002065c 	.word	0x0002065c
    8060:	00000000 	.word	0x00000000
    8064:	0000afa4 	.word	0x0000afa4

00008068 <frame_dummy>:
    8068:	b508      	push	{r3, lr}
    806a:	4b04      	ldr	r3, [pc, #16]	; (807c <frame_dummy+0x14>)
    806c:	b11b      	cbz	r3, 8076 <frame_dummy+0xe>
    806e:	4904      	ldr	r1, [pc, #16]	; (8080 <frame_dummy+0x18>)
    8070:	4804      	ldr	r0, [pc, #16]	; (8084 <frame_dummy+0x1c>)
    8072:	f3af 8000 	nop.w
    8076:	e8bd 4008 	ldmia.w	sp!, {r3, lr}
    807a:	e7cf      	b.n	801c <register_tm_clones>
    807c:	00000000 	.word	0x00000000
    8080:	00020660 	.word	0x00020660
    8084:	0000afa4 	.word	0x0000afa4

00008088 <_stack_init>:
    8088:	f5a3 3a80 	sub.w	sl, r3, #65536	; 0x10000
    808c:	4770      	bx	lr
    808e:	bf00      	nop

00008090 <_mainCRTStartup>:
    8090:	4b15      	ldr	r3, [pc, #84]	; (80e8 <_mainCRTStartup+0x58>)
    8092:	2b00      	cmp	r3, #0
    8094:	bf08      	it	eq
    8096:	4b11      	ldreq	r3, [pc, #68]	; (80dc <_mainCRTStartup+0x4c>)
    8098:	469d      	mov	sp, r3
    809a:	f7ff fff5 	bl	8088 <_stack_init>
    809e:	2100      	movs	r1, #0
    80a0:	468b      	mov	fp, r1
    80a2:	460f      	mov	r7, r1
    80a4:	4811      	ldr	r0, [pc, #68]	; (80ec <_mainCRTStartup+0x5c>)
    80a6:	4a12      	ldr	r2, [pc, #72]	; (80f0 <_mainCRTStartup+0x60>)
    80a8:	1a12      	subs	r2, r2, r0
    80aa:	f002 fde1 	bl	ac70 <memset>
    80ae:	4b0c      	ldr	r3, [pc, #48]	; (80e0 <_mainCRTStartup+0x50>)
    80b0:	2b00      	cmp	r3, #0
    80b2:	d000      	beq.n	80b6 <_mainCRTStartup+0x26>
    80b4:	4798      	blx	r3
    80b6:	4b0b      	ldr	r3, [pc, #44]	; (80e4 <_mainCRTStartup+0x54>)
    80b8:	2b00      	cmp	r3, #0
    80ba:	d000      	beq.n	80be <_mainCRTStartup+0x2e>
    80bc:	4798      	blx	r3
    80be:	2000      	movs	r0, #0
    80c0:	2100      	movs	r1, #0
    80c2:	0004      	movs	r4, r0
    80c4:	000d      	movs	r5, r1
    80c6:	480b      	ldr	r0, [pc, #44]	; (80f4 <_mainCRTStartup+0x64>)
    80c8:	f002 fd82 	bl	abd0 <atexit>
    80cc:	f002 fdac 	bl	ac28 <__libc_init_array>
    80d0:	0020      	movs	r0, r4
    80d2:	0029      	movs	r1, r5
    80d4:	f002 feda 	bl	ae8c <main>
    80d8:	f002 fd80 	bl	abdc <exit>
    80dc:	00080000 	.word	0x00080000
	...
    80ec:	0002065c 	.word	0x0002065c
    80f0:	00020678 	.word	0x00020678
    80f4:	0000abfd 	.word	0x0000abfd

000080f8 <initialize_local>:
    80f8:	1c4b      	adds	r3, r1, #1
    80fa:	1ac3      	subs	r3, r0, r3
    80fc:	2b02      	cmp	r3, #2
    80fe:	d904      	bls.n	810a <initialize_local+0x12>
    8100:	680b      	ldr	r3, [r1, #0]
    8102:	6003      	str	r3, [r0, #0]
    8104:	684b      	ldr	r3, [r1, #4]
    8106:	6043      	str	r3, [r0, #4]
    8108:	4770      	bx	lr
    810a:	780b      	ldrb	r3, [r1, #0]
    810c:	7003      	strb	r3, [r0, #0]
    810e:	784b      	ldrb	r3, [r1, #1]
    8110:	7043      	strb	r3, [r0, #1]
    8112:	788b      	ldrb	r3, [r1, #2]
    8114:	7083      	strb	r3, [r0, #2]
    8116:	78cb      	ldrb	r3, [r1, #3]
    8118:	70c3      	strb	r3, [r0, #3]
    811a:	790b      	ldrb	r3, [r1, #4]
    811c:	7103      	strb	r3, [r0, #4]
    811e:	794b      	ldrb	r3, [r1, #5]
    8120:	7143      	strb	r3, [r0, #5]
    8122:	798b      	ldrb	r3, [r1, #6]
    8124:	7183      	strb	r3, [r0, #6]
    8126:	79cb      	ldrb	r3, [r1, #7]
    8128:	71c3      	strb	r3, [r0, #7]
    812a:	4770      	bx	lr

0000812c <leftRotate32>:
    812c:	f1c1 0120 	rsb	r1, r1, #32
    8130:	41c8      	rors	r0, r1
    8132:	4770      	bx	lr

00008134 <rightRotate32>:
    8134:	41c8      	rors	r0, r1
    8136:	4770      	bx	lr

00008138 <cipher>:
    8138:	f002 bcd2 	b.w	aae0 <masked_present>

0000813c <report_done>:
    813c:	b508      	push	{r3, lr}
    813e:	f7ff fffd 	bl	813c <report_done>
    8142:	bf00      	nop
	...

00008150 <A>:
    8150:	46d4      	mov	ip, sl
    8152:	46da      	mov	sl, fp
    8154:	ea81 0b0c 	eor.w	fp, r1, ip
    8158:	4770      	bx	lr
    815a:	bf00      	nop
    815c:	f3af 8000 	nop.w

00008160 <Ap>:
    8160:	4683      	mov	fp, r0
    8162:	460e      	mov	r6, r1
    8164:	4657      	mov	r7, sl
    8166:	46d8      	mov	r8, fp
    8168:	ea8b 0007 	eor.w	r0, fp, r7
    816c:	ea80 0008 	eor.w	r0, r0, r8
    8170:	4659      	mov	r1, fp
    8172:	ea8b 0b06 	eor.w	fp, fp, r6
    8176:	4770      	bx	lr
    8178:	f3af 8000 	nop.w
    817c:	f3af 8000 	nop.w

00008180 <App_a>:
    8180:	4610      	mov	r0, r2
    8182:	4619      	mov	r1, r3
    8184:	46a2      	mov	sl, r4
    8186:	46ab      	mov	fp, r5
    8188:	ea8a 030b 	eor.w	r3, sl, fp
    818c:	ea80 0401 	eor.w	r4, r0, r1
    8190:	ea84 040b 	eor.w	r4, r4, fp
    8194:	f04f 00ff 	mov.w	r0, #255	; 0xff
    8198:	ea4f 2000 	mov.w	r0, r0, lsl #8
    819c:	f080 00ff 	eor.w	r0, r0, #255	; 0xff
    81a0:	ea84 0400 	eor.w	r4, r4, r0
    81a4:	ea8a 0500 	eor.w	r5, sl, r0
    81a8:	4770      	bx	lr
    81aa:	bf00      	nop
    81ac:	f3af 8000 	nop.w

000081b0 <App_b>:
    81b0:	4630      	mov	r0, r6
    81b2:	4639      	mov	r1, r7
    81b4:	46c2      	mov	sl, r8
    81b6:	46cb      	mov	fp, r9
    81b8:	ea8a 070b 	eor.w	r7, sl, fp
    81bc:	ea80 0801 	eor.w	r8, r0, r1
    81c0:	ea88 080b 	eor.w	r8, r8, fp
    81c4:	46d1      	mov	r9, sl
    81c6:	4770      	bx	lr
    81c8:	f3af 8000 	nop.w
    81cc:	f3af 8000 	nop.w

000081d0 <Appp_a>:
    81d0:	4610      	mov	r0, r2
    81d2:	4619      	mov	r1, r3
    81d4:	46a2      	mov	sl, r4
    81d6:	46ab      	mov	fp, r5
    81d8:	ea80 0201 	eor.w	r2, r0, r1
    81dc:	4603      	mov	r3, r0
    81de:	ea80 0401 	eor.w	r4, r0, r1
    81e2:	ea84 040a 	eor.w	r4, r4, sl
    81e6:	ea84 040b 	eor.w	r4, r4, fp
    81ea:	f04f 0bff 	mov.w	fp, #255	; 0xff
    81ee:	ea4f 2b0b 	mov.w	fp, fp, lsl #8
    81f2:	f08b 0bff 	eor.w	fp, fp, #255	; 0xff
    81f6:	ea85 050b 	eor.w	r5, r5, fp
    81fa:	4770      	bx	lr
    81fc:	f3af 8000 	nop.w

00008200 <Appp_b>:
    8200:	4630      	mov	r0, r6
    8202:	4639      	mov	r1, r7
    8204:	46c2      	mov	sl, r8
    8206:	46cb      	mov	fp, r9
    8208:	ea80 0601 	eor.w	r6, r0, r1
    820c:	4607      	mov	r7, r0
    820e:	ea80 0801 	eor.w	r8, r0, r1
    8212:	ea88 080a 	eor.w	r8, r8, sl
    8216:	ea88 080b 	eor.w	r8, r8, fp
    821a:	4770      	bx	lr
    821c:	f3af 8000 	nop.w

00008220 <sbox_player>:
    8220:	b500      	push	{lr}
    8222:	b083      	sub	sp, #12
    8224:	9000      	str	r0, [sp, #0]
    8226:	9101      	str	r1, [sp, #4]
    8228:	f04f 0200 	mov.w	r2, #0
    822c:	f04f 0300 	mov.w	r3, #0
    8230:	f04f 0400 	mov.w	r4, #0
    8234:	f04f 0500 	mov.w	r5, #0
    8238:	f04f 0600 	mov.w	r6, #0
    823c:	f04f 0700 	mov.w	r7, #0
    8240:	f04f 0800 	mov.w	r8, #0
    8244:	f04f 0900 	mov.w	r9, #0
    8248:	f8d0 a004 	ldr.w	sl, [r0, #4]
    824c:	ea4f 7b1a 	mov.w	fp, sl, lsr #28
    8250:	f00b 0b01 	and.w	fp, fp, #1
    8254:	ea4f 2b0b 	mov.w	fp, fp, lsl #8
    8258:	ea42 020b 	orr.w	r2, r2, fp
    825c:	ea4f 6b1a 	mov.w	fp, sl, lsr #24
    8260:	f00b 0b01 	and.w	fp, fp, #1
    8264:	ea4f 2b4b 	mov.w	fp, fp, lsl #9
    8268:	ea42 020b 	orr.w	r2, r2, fp
    826c:	ea4f 5b1a 	mov.w	fp, sl, lsr #20
    8270:	f00b 0b01 	and.w	fp, fp, #1
    8274:	ea4f 2b8b 	mov.w	fp, fp, lsl #10
    8278:	ea42 020b 	orr.w	r2, r2, fp
    827c:	ea4f 4b1a 	mov.w	fp, sl, lsr #16
    8280:	f00b 0b01 	and.w	fp, fp, #1
    8284:	ea4f 2bcb 	mov.w	fp, fp, lsl #11
    8288:	ea42 020b 	orr.w	r2, r2, fp
    828c:	ea4f 3b1a 	mov.w	fp, sl, lsr #12
    8290:	f00b 0b01 	and.w	fp, fp, #1
    8294:	ea4f 3b0b 	mov.w	fp, fp, lsl #12
    8298:	ea42 020b 	orr.w	r2, r2, fp
    829c:	ea4f 2b1a 	mov.w	fp, sl, lsr #8
    82a0:	f00b 0b01 	and.w	fp, fp, #1
    82a4:	ea4f 3b4b 	mov.w	fp, fp, lsl #13
    82a8:	ea42 020b 	orr.w	r2, r2, fp
    82ac:	ea4f 1b1a 	mov.w	fp, sl, lsr #4
    82b0:	f00b 0b01 	and.w	fp, fp, #1
    82b4:	ea4f 3b8b 	mov.w	fp, fp, lsl #14
    82b8:	ea42 020b 	orr.w	r2, r2, fp
    82bc:	f00a 0b01 	and.w	fp, sl, #1
    82c0:	ea4f 3bcb 	mov.w	fp, fp, lsl #15
    82c4:	ea42 020b 	orr.w	r2, r2, fp
    82c8:	f8d0 a000 	ldr.w	sl, [r0]
    82cc:	ea4f 7b1a 	mov.w	fp, sl, lsr #28
    82d0:	f00b 0b01 	and.w	fp, fp, #1
    82d4:	ea4f 0b0b 	mov.w	fp, fp
    82d8:	ea42 020b 	orr.w	r2, r2, fp
    82dc:	ea4f 6b1a 	mov.w	fp, sl, lsr #24
    82e0:	f00b 0b01 	and.w	fp, fp, #1
    82e4:	ea4f 0b4b 	mov.w	fp, fp, lsl #1
    82e8:	ea42 020b 	orr.w	r2, r2, fp
    82ec:	ea4f 5b1a 	mov.w	fp, sl, lsr #20
    82f0:	f00b 0b01 	and.w	fp, fp, #1
    82f4:	ea4f 0b8b 	mov.w	fp, fp, lsl #2
    82f8:	ea42 020b 	orr.w	r2, r2, fp
    82fc:	ea4f 4b1a 	mov.w	fp, sl, lsr #16
    8300:	f00b 0b01 	and.w	fp, fp, #1
    8304:	ea4f 0bcb 	mov.w	fp, fp, lsl #3
    8308:	ea42 020b 	orr.w	r2, r2, fp
    830c:	ea4f 3b1a 	mov.w	fp, sl, lsr #12
    8310:	f00b 0b01 	and.w	fp, fp, #1
    8314:	ea4f 1b0b 	mov.w	fp, fp, lsl #4
    8318:	ea42 020b 	orr.w	r2, r2, fp
    831c:	ea4f 2b1a 	mov.w	fp, sl, lsr #8
    8320:	f00b 0b01 	and.w	fp, fp, #1
    8324:	ea4f 1b4b 	mov.w	fp, fp, lsl #5
    8328:	ea42 020b 	orr.w	r2, r2, fp
    832c:	ea4f 1b1a 	mov.w	fp, sl, lsr #4
    8330:	f00b 0b01 	and.w	fp, fp, #1
    8334:	ea4f 1b8b 	mov.w	fp, fp, lsl #6
    8338:	ea42 020b 	orr.w	r2, r2, fp
    833c:	f00a 0b01 	and.w	fp, sl, #1
    8340:	ea4f 1bcb 	mov.w	fp, fp, lsl #7
    8344:	ea42 020b 	orr.w	r2, r2, fp
    8348:	f8d0 a004 	ldr.w	sl, [r0, #4]
    834c:	ea4f 7b5a 	mov.w	fp, sl, lsr #29
    8350:	f00b 0b01 	and.w	fp, fp, #1
    8354:	ea4f 2b0b 	mov.w	fp, fp, lsl #8
    8358:	ea43 030b 	orr.w	r3, r3, fp
    835c:	ea4f 6b5a 	mov.w	fp, sl, lsr #25
    8360:	f00b 0b01 	and.w	fp, fp, #1
    8364:	ea4f 2b4b 	mov.w	fp, fp, lsl #9
    8368:	ea43 030b 	orr.w	r3, r3, fp
    836c:	ea4f 5b5a 	mov.w	fp, sl, lsr #21
    8370:	f00b 0b01 	and.w	fp, fp, #1
    8374:	ea4f 2b8b 	mov.w	fp, fp, lsl #10
    8378:	ea43 030b 	orr.w	r3, r3, fp
    837c:	ea4f 4b5a 	mov.w	fp, sl, lsr #17
    8380:	f00b 0b01 	and.w	fp, fp, #1
    8384:	ea4f 2bcb 	mov.w	fp, fp, lsl #11
    8388:	ea43 030b 	orr.w	r3, r3, fp
    838c:	ea4f 3b5a 	mov.w	fp, sl, lsr #13
    8390:	f00b 0b01 	and.w	fp, fp, #1
    8394:	ea4f 3b0b 	mov.w	fp, fp, lsl #12
    8398:	ea43 030b 	orr.w	r3, r3, fp
    839c:	ea4f 2b5a 	mov.w	fp, sl, lsr #9
    83a0:	f00b 0b01 	and.w	fp, fp, #1
    83a4:	ea4f 3b4b 	mov.w	fp, fp, lsl #13
    83a8:	ea43 030b 	orr.w	r3, r3, fp
    83ac:	ea4f 1b5a 	mov.w	fp, sl, lsr #5
    83b0:	f00b 0b01 	and.w	fp, fp, #1
    83b4:	ea4f 3b8b 	mov.w	fp, fp, lsl #14
    83b8:	ea43 030b 	orr.w	r3, r3, fp
    83bc:	ea4f 0b5a 	mov.w	fp, sl, lsr #1
    83c0:	f00b 0b01 	and.w	fp, fp, #1
    83c4:	ea4f 3bcb 	mov.w	fp, fp, lsl #15
    83c8:	ea43 030b 	orr.w	r3, r3, fp
    83cc:	f8d0 a000 	ldr.w	sl, [r0]
    83d0:	ea4f 7b5a 	mov.w	fp, sl, lsr #29
    83d4:	f00b 0b01 	and.w	fp, fp, #1
    83d8:	ea4f 0b0b 	mov.w	fp, fp
    83dc:	ea43 030b 	orr.w	r3, r3, fp
    83e0:	ea4f 6b5a 	mov.w	fp, sl, lsr #25
    83e4:	f00b 0b01 	and.w	fp, fp, #1
    83e8:	ea4f 0b4b 	mov.w	fp, fp, lsl #1
    83ec:	ea43 030b 	orr.w	r3, r3, fp
    83f0:	ea4f 5b5a 	mov.w	fp, sl, lsr #21
    83f4:	f00b 0b01 	and.w	fp, fp, #1
    83f8:	ea4f 0b8b 	mov.w	fp, fp, lsl #2
    83fc:	ea43 030b 	orr.w	r3, r3, fp
    8400:	ea4f 4b5a 	mov.w	fp, sl, lsr #17
    8404:	f00b 0b01 	and.w	fp, fp, #1
    8408:	ea4f 0bcb 	mov.w	fp, fp, lsl #3
    840c:	ea43 030b 	orr.w	r3, r3, fp
    8410:	ea4f 3b5a 	mov.w	fp, sl, lsr #13
    8414:	f00b 0b01 	and.w	fp, fp, #1
    8418:	ea4f 1b0b 	mov.w	fp, fp, lsl #4
    841c:	ea43 030b 	orr.w	r3, r3, fp
    8420:	ea4f 2b5a 	mov.w	fp, sl, lsr #9
    8424:	f00b 0b01 	and.w	fp, fp, #1
    8428:	ea4f 1b4b 	mov.w	fp, fp, lsl #5
    842c:	ea43 030b 	orr.w	r3, r3, fp
    8430:	ea4f 1b5a 	mov.w	fp, sl, lsr #5
    8434:	f00b 0b01 	and.w	fp, fp, #1
    8438:	ea4f 1b8b 	mov.w	fp, fp, lsl #6
    843c:	ea43 030b 	orr.w	r3, r3, fp
    8440:	ea4f 0b5a 	mov.w	fp, sl, lsr #1
    8444:	f00b 0b01 	and.w	fp, fp, #1
    8448:	ea4f 1bcb 	mov.w	fp, fp, lsl #7
    844c:	ea43 030b 	orr.w	r3, r3, fp
    8450:	f8d0 a004 	ldr.w	sl, [r0, #4]
    8454:	ea4f 7b9a 	mov.w	fp, sl, lsr #30
    8458:	f00b 0b01 	and.w	fp, fp, #1
    845c:	ea4f 2b0b 	mov.w	fp, fp, lsl #8
    8460:	ea44 040b 	orr.w	r4, r4, fp
    8464:	ea4f 6b9a 	mov.w	fp, sl, lsr #26
    8468:	f00b 0b01 	and.w	fp, fp, #1
    846c:	ea4f 2b4b 	mov.w	fp, fp, lsl #9
    8470:	ea44 040b 	orr.w	r4, r4, fp
    8474:	ea4f 5b9a 	mov.w	fp, sl, lsr #22
    8478:	f00b 0b01 	and.w	fp, fp, #1
    847c:	ea4f 2b8b 	mov.w	fp, fp, lsl #10
    8480:	ea44 040b 	orr.w	r4, r4, fp
    8484:	ea4f 4b9a 	mov.w	fp, sl, lsr #18
    8488:	f00b 0b01 	and.w	fp, fp, #1
    848c:	ea4f 2bcb 	mov.w	fp, fp, lsl #11
    8490:	ea44 040b 	orr.w	r4, r4, fp
    8494:	ea4f 3b9a 	mov.w	fp, sl, lsr #14
    8498:	f00b 0b01 	and.w	fp, fp, #1
    849c:	ea4f 3b0b 	mov.w	fp, fp, lsl #12
    84a0:	ea44 040b 	orr.w	r4, r4, fp
    84a4:	ea4f 2b9a 	mov.w	fp, sl, lsr #10
    84a8:	f00b 0b01 	and.w	fp, fp, #1
    84ac:	ea4f 3b4b 	mov.w	fp, fp, lsl #13
    84b0:	ea44 040b 	orr.w	r4, r4, fp
    84b4:	ea4f 1b9a 	mov.w	fp, sl, lsr #6
    84b8:	f00b 0b01 	and.w	fp, fp, #1
    84bc:	ea4f 3b8b 	mov.w	fp, fp, lsl #14
    84c0:	ea44 040b 	orr.w	r4, r4, fp
    84c4:	ea4f 0b9a 	mov.w	fp, sl, lsr #2
    84c8:	f00b 0b01 	and.w	fp, fp, #1
    84cc:	ea4f 3bcb 	mov.w	fp, fp, lsl #15
    84d0:	ea44 040b 	orr.w	r4, r4, fp
    84d4:	f8d0 a000 	ldr.w	sl, [r0]
    84d8:	ea4f 7b9a 	mov.w	fp, sl, lsr #30
    84dc:	f00b 0b01 	and.w	fp, fp, #1
    84e0:	ea4f 0b0b 	mov.w	fp, fp
    84e4:	ea44 040b 	orr.w	r4, r4, fp
    84e8:	ea4f 6b9a 	mov.w	fp, sl, lsr #26
    84ec:	f00b 0b01 	and.w	fp, fp, #1
    84f0:	ea4f 0b4b 	mov.w	fp, fp, lsl #1
    84f4:	ea44 040b 	orr.w	r4, r4, fp
    84f8:	ea4f 5b9a 	mov.w	fp, sl, lsr #22
    84fc:	f00b 0b01 	and.w	fp, fp, #1
    8500:	ea4f 0b8b 	mov.w	fp, fp, lsl #2
    8504:	ea44 040b 	orr.w	r4, r4, fp
    8508:	ea4f 4b9a 	mov.w	fp, sl, lsr #18
    850c:	f00b 0b01 	and.w	fp, fp, #1
    8510:	ea4f 0bcb 	mov.w	fp, fp, lsl #3
    8514:	ea44 040b 	orr.w	r4, r4, fp
    8518:	ea4f 3b9a 	mov.w	fp, sl, lsr #14
    851c:	f00b 0b01 	and.w	fp, fp, #1
    8520:	ea4f 1b0b 	mov.w	fp, fp, lsl #4
    8524:	ea44 040b 	orr.w	r4, r4, fp
    8528:	ea4f 2b9a 	mov.w	fp, sl, lsr #10
    852c:	f00b 0b01 	and.w	fp, fp, #1
    8530:	ea4f 1b4b 	mov.w	fp, fp, lsl #5
    8534:	ea44 040b 	orr.w	r4, r4, fp
    8538:	ea4f 1b9a 	mov.w	fp, sl, lsr #6
    853c:	f00b 0b01 	and.w	fp, fp, #1
    8540:	ea4f 1b8b 	mov.w	fp, fp, lsl #6
    8544:	ea44 040b 	orr.w	r4, r4, fp
    8548:	ea4f 0b9a 	mov.w	fp, sl, lsr #2
    854c:	f00b 0b01 	and.w	fp, fp, #1
    8550:	ea4f 1bcb 	mov.w	fp, fp, lsl #7
    8554:	ea44 040b 	orr.w	r4, r4, fp
    8558:	f8d0 a004 	ldr.w	sl, [r0, #4]
    855c:	ea4f 7bda 	mov.w	fp, sl, lsr #31
    8560:	f00b 0b01 	and.w	fp, fp, #1
    8564:	ea4f 2b0b 	mov.w	fp, fp, lsl #8
    8568:	ea45 050b 	orr.w	r5, r5, fp
    856c:	ea4f 6bda 	mov.w	fp, sl, lsr #27
    8570:	f00b 0b01 	and.w	fp, fp, #1
    8574:	ea4f 2b4b 	mov.w	fp, fp, lsl #9
    8578:	ea45 050b 	orr.w	r5, r5, fp
    857c:	ea4f 5bda 	mov.w	fp, sl, lsr #23
    8580:	f00b 0b01 	and.w	fp, fp, #1
    8584:	ea4f 2b8b 	mov.w	fp, fp, lsl #10
    8588:	ea45 050b 	orr.w	r5, r5, fp
    858c:	ea4f 4bda 	mov.w	fp, sl, lsr #19
    8590:	f00b 0b01 	and.w	fp, fp, #1
    8594:	ea4f 2bcb 	mov.w	fp, fp, lsl #11
    8598:	ea45 050b 	orr.w	r5, r5, fp
    859c:	ea4f 3bda 	mov.w	fp, sl, lsr #15
    85a0:	f00b 0b01 	and.w	fp, fp, #1
    85a4:	ea4f 3b0b 	mov.w	fp, fp, lsl #12
    85a8:	ea45 050b 	orr.w	r5, r5, fp
    85ac:	ea4f 2bda 	mov.w	fp, sl, lsr #11
    85b0:	f00b 0b01 	and.w	fp, fp, #1
    85b4:	ea4f 3b4b 	mov.w	fp, fp, lsl #13
    85b8:	ea45 050b 	orr.w	r5, r5, fp
    85bc:	ea4f 1bda 	mov.w	fp, sl, lsr #7
    85c0:	f00b 0b01 	and.w	fp, fp, #1
    85c4:	ea4f 3b8b 	mov.w	fp, fp, lsl #14
    85c8:	ea45 050b 	orr.w	r5, r5, fp
    85cc:	ea4f 0bda 	mov.w	fp, sl, lsr #3
    85d0:	f00b 0b01 	and.w	fp, fp, #1
    85d4:	ea4f 3bcb 	mov.w	fp, fp, lsl #15
    85d8:	ea45 050b 	orr.w	r5, r5, fp
    85dc:	f8d0 a000 	ldr.w	sl, [r0]
    85e0:	ea4f 7bda 	mov.w	fp, sl, lsr #31
    85e4:	f00b 0b01 	and.w	fp, fp, #1
    85e8:	ea4f 0b0b 	mov.w	fp, fp
    85ec:	ea45 050b 	orr.w	r5, r5, fp
    85f0:	ea4f 6bda 	mov.w	fp, sl, lsr #27
    85f4:	f00b 0b01 	and.w	fp, fp, #1
    85f8:	ea4f 0b4b 	mov.w	fp, fp, lsl #1
    85fc:	ea45 050b 	orr.w	r5, r5, fp
    8600:	ea4f 5bda 	mov.w	fp, sl, lsr #23
    8604:	f00b 0b01 	and.w	fp, fp, #1
    8608:	ea4f 0b8b 	mov.w	fp, fp, lsl #2
    860c:	ea45 050b 	orr.w	r5, r5, fp
    8610:	ea4f 4bda 	mov.w	fp, sl, lsr #19
    8614:	f00b 0b01 	and.w	fp, fp, #1
    8618:	ea4f 0bcb 	mov.w	fp, fp, lsl #3
    861c:	ea45 050b 	orr.w	r5, r5, fp
    8620:	ea4f 3bda 	mov.w	fp, sl, lsr #15
    8624:	f00b 0b01 	and.w	fp, fp, #1
    8628:	ea4f 1b0b 	mov.w	fp, fp, lsl #4
    862c:	ea45 050b 	orr.w	r5, r5, fp
    8630:	ea4f 2bda 	mov.w	fp, sl, lsr #11
    8634:	f00b 0b01 	and.w	fp, fp, #1
    8638:	ea4f 1b4b 	mov.w	fp, fp, lsl #5
    863c:	ea45 050b 	orr.w	r5, r5, fp
    8640:	ea4f 1bda 	mov.w	fp, sl, lsr #7
    8644:	f00b 0b01 	and.w	fp, fp, #1
    8648:	ea4f 1b8b 	mov.w	fp, fp, lsl #6
    864c:	ea45 050b 	orr.w	r5, r5, fp
    8650:	ea4f 0bda 	mov.w	fp, sl, lsr #3
    8654:	f00b 0b01 	and.w	fp, fp, #1
    8658:	ea4f 1bcb 	mov.w	fp, fp, lsl #7
    865c:	ea45 050b 	orr.w	r5, r5, fp
    8660:	f8d1 a004 	ldr.w	sl, [r1, #4]
    8664:	ea4f 5bda 	mov.w	fp, sl, lsr #23
    8668:	f00b 0b01 	and.w	fp, fp, #1
    866c:	ea4f 2b0b 	mov.w	fp, fp, lsl #8
    8670:	ea46 060b 	orr.w	r6, r6, fp
    8674:	ea4f 4bda 	mov.w	fp, sl, lsr #19
    8678:	f00b 0b01 	and.w	fp, fp, #1
    867c:	ea4f 2b4b 	mov.w	fp, fp, lsl #9
    8680:	ea46 060b 	orr.w	r6, r6, fp
    8684:	ea4f 3bda 	mov.w	fp, sl, lsr #15
    8688:	f00b 0b01 	and.w	fp, fp, #1
    868c:	ea4f 2b8b 	mov.w	fp, fp, lsl #10
    8690:	ea46 060b 	orr.w	r6, r6, fp
    8694:	ea4f 2bda 	mov.w	fp, sl, lsr #11
    8698:	f00b 0b01 	and.w	fp, fp, #1
    869c:	ea4f 2bcb 	mov.w	fp, fp, lsl #11
    86a0:	ea46 060b 	orr.w	r6, r6, fp
    86a4:	ea4f 1bda 	mov.w	fp, sl, lsr #7
    86a8:	f00b 0b01 	and.w	fp, fp, #1
    86ac:	ea4f 3b0b 	mov.w	fp, fp, lsl #12
    86b0:	ea46 060b 	orr.w	r6, r6, fp
    86b4:	ea4f 0bda 	mov.w	fp, sl, lsr #3
    86b8:	f00b 0b01 	and.w	fp, fp, #1
    86bc:	ea4f 3b4b 	mov.w	fp, fp, lsl #13
    86c0:	ea46 060b 	orr.w	r6, r6, fp
    86c4:	ea4f 7bda 	mov.w	fp, sl, lsr #31
    86c8:	f00b 0b01 	and.w	fp, fp, #1
    86cc:	ea4f 3b8b 	mov.w	fp, fp, lsl #14
    86d0:	ea46 060b 	orr.w	r6, r6, fp
    86d4:	ea4f 6bda 	mov.w	fp, sl, lsr #27
    86d8:	f00b 0b01 	and.w	fp, fp, #1
    86dc:	ea4f 3bcb 	mov.w	fp, fp, lsl #15
    86e0:	ea46 060b 	orr.w	r6, r6, fp
    86e4:	f8d1 a000 	ldr.w	sl, [r1]
    86e8:	ea4f 5bda 	mov.w	fp, sl, lsr #23
    86ec:	f00b 0b01 	and.w	fp, fp, #1
    86f0:	ea4f 0b0b 	mov.w	fp, fp
    86f4:	ea46 060b 	orr.w	r6, r6, fp
    86f8:	ea4f 4bda 	mov.w	fp, sl, lsr #19
    86fc:	f00b 0b01 	and.w	fp, fp, #1
    8700:	ea4f 0b4b 	mov.w	fp, fp, lsl #1
    8704:	ea46 060b 	orr.w	r6, r6, fp
    8708:	ea4f 3bda 	mov.w	fp, sl, lsr #15
    870c:	f00b 0b01 	and.w	fp, fp, #1
    8710:	ea4f 0b8b 	mov.w	fp, fp, lsl #2
    8714:	ea46 060b 	orr.w	r6, r6, fp
    8718:	ea4f 2bda 	mov.w	fp, sl, lsr #11
    871c:	f00b 0b01 	and.w	fp, fp, #1
    8720:	ea4f 0bcb 	mov.w	fp, fp, lsl #3
    8724:	ea46 060b 	orr.w	r6, r6, fp
    8728:	ea4f 1bda 	mov.w	fp, sl, lsr #7
    872c:	f00b 0b01 	and.w	fp, fp, #1
    8730:	ea4f 1b0b 	mov.w	fp, fp, lsl #4
    8734:	ea46 060b 	orr.w	r6, r6, fp
    8738:	ea4f 0bda 	mov.w	fp, sl, lsr #3
    873c:	f00b 0b01 	and.w	fp, fp, #1
    8740:	ea4f 1b4b 	mov.w	fp, fp, lsl #5
    8744:	ea46 060b 	orr.w	r6, r6, fp
    8748:	ea4f 7bda 	mov.w	fp, sl, lsr #31
    874c:	f00b 0b01 	and.w	fp, fp, #1
    8750:	ea4f 1b8b 	mov.w	fp, fp, lsl #6
    8754:	ea46 060b 	orr.w	r6, r6, fp
    8758:	ea4f 6bda 	mov.w	fp, sl, lsr #27
    875c:	f00b 0b01 	and.w	fp, fp, #1
    8760:	ea4f 1bcb 	mov.w	fp, fp, lsl #7
    8764:	ea46 060b 	orr.w	r6, r6, fp
    8768:	f8d1 a004 	ldr.w	sl, [r1, #4]
    876c:	ea4f 6b1a 	mov.w	fp, sl, lsr #24
    8770:	f00b 0b01 	and.w	fp, fp, #1
    8774:	ea4f 2b0b 	mov.w	fp, fp, lsl #8
    8778:	ea47 070b 	orr.w	r7, r7, fp
    877c:	ea4f 5b1a 	mov.w	fp, sl, lsr #20
    8780:	f00b 0b01 	and.w	fp, fp, #1
    8784:	ea4f 2b4b 	mov.w	fp, fp, lsl #9
    8788:	ea47 070b 	orr.w	r7, r7, fp
    878c:	ea4f 4b1a 	mov.w	fp, sl, lsr #16
    8790:	f00b 0b01 	and.w	fp, fp, #1
    8794:	ea4f 2b8b 	mov.w	fp, fp, lsl #10
    8798:	ea47 070b 	orr.w	r7, r7, fp
    879c:	ea4f 3b1a 	mov.w	fp, sl, lsr #12
    87a0:	f00b 0b01 	and.w	fp, fp, #1
    87a4:	ea4f 2bcb 	mov.w	fp, fp, lsl #11
    87a8:	ea47 070b 	orr.w	r7, r7, fp
    87ac:	ea4f 2b1a 	mov.w	fp, sl, lsr #8
    87b0:	f00b 0b01 	and.w	fp, fp, #1
    87b4:	ea4f 3b0b 	mov.w	fp, fp, lsl #12
    87b8:	ea47 070b 	orr.w	r7, r7, fp
    87bc:	ea4f 1b1a 	mov.w	fp, sl, lsr #4
    87c0:	f00b 0b01 	and.w	fp, fp, #1
    87c4:	ea4f 3b4b 	mov.w	fp, fp, lsl #13
    87c8:	ea47 070b 	orr.w	r7, r7, fp
    87cc:	ea4f 0b0a 	mov.w	fp, sl
    87d0:	f00b 0b01 	and.w	fp, fp, #1
    87d4:	ea4f 3b8b 	mov.w	fp, fp, lsl #14
    87d8:	ea47 070b 	orr.w	r7, r7, fp
    87dc:	ea4f 7b1a 	mov.w	fp, sl, lsr #28
    87e0:	f00b 0b01 	and.w	fp, fp, #1
    87e4:	ea4f 3bcb 	mov.w	fp, fp, lsl #15
    87e8:	ea47 070b 	orr.w	r7, r7, fp
    87ec:	f8d1 a000 	ldr.w	sl, [r1]
    87f0:	ea4f 6b1a 	mov.w	fp, sl, lsr #24
    87f4:	f00b 0b01 	and.w	fp, fp, #1
    87f8:	ea4f 0b0b 	mov.w	fp, fp
    87fc:	ea47 070b 	orr.w	r7, r7, fp
    8800:	ea4f 5b1a 	mov.w	fp, sl, lsr #20
    8804:	f00b 0b01 	and.w	fp, fp, #1
    8808:	ea4f 0b4b 	mov.w	fp, fp, lsl #1
    880c:	ea47 070b 	orr.w	r7, r7, fp
    8810:	ea4f 4b1a 	mov.w	fp, sl, lsr #16
    8814:	f00b 0b01 	and.w	fp, fp, #1
    8818:	ea4f 0b8b 	mov.w	fp, fp, lsl #2
    881c:	ea47 070b 	orr.w	r7, r7, fp
    8820:	ea4f 3b1a 	mov.w	fp, sl, lsr #12
    8824:	f00b 0b01 	and.w	fp, fp, #1
    8828:	ea4f 0bcb 	mov.w	fp, fp, lsl #3
    882c:	ea47 070b 	orr.w	r7, r7, fp
    8830:	ea4f 2b1a 	mov.w	fp, sl, lsr #8
    8834:	f00b 0b01 	and.w	fp, fp, #1
    8838:	ea4f 1b0b 	mov.w	fp, fp, lsl #4
    883c:	ea47 070b 	orr.w	r7, r7, fp
    8840:	ea4f 1b1a 	mov.w	fp, sl, lsr #4
    8844:	f00b 0b01 	and.w	fp, fp, #1
    8848:	ea4f 1b4b 	mov.w	fp, fp, lsl #5
    884c:	ea47 070b 	orr.w	r7, r7, fp
    8850:	ea4f 0b0a 	mov.w	fp, sl
    8854:	f00b 0b01 	and.w	fp, fp, #1
    8858:	ea4f 1b8b 	mov.w	fp, fp, lsl #6
    885c:	ea47 070b 	orr.w	r7, r7, fp
    8860:	ea4f 7b1a 	mov.w	fp, sl, lsr #28
    8864:	f00b 0b01 	and.w	fp, fp, #1
    8868:	ea4f 1bcb 	mov.w	fp, fp, lsl #7
    886c:	ea47 070b 	orr.w	r7, r7, fp
    8870:	f8d1 a004 	ldr.w	sl, [r1, #4]
    8874:	ea4f 6b5a 	mov.w	fp, sl, lsr #25
    8878:	f00b 0b01 	and.w	fp, fp, #1
    887c:	ea4f 2b0b 	mov.w	fp, fp, lsl #8
    8880:	ea48 080b 	orr.w	r8, r8, fp
    8884:	ea4f 5b5a 	mov.w	fp, sl, lsr #21
    8888:	f00b 0b01 	and.w	fp, fp, #1
    888c:	ea4f 2b4b 	mov.w	fp, fp, lsl #9
    8890:	ea48 080b 	orr.w	r8, r8, fp
    8894:	ea4f 4b5a 	mov.w	fp, sl, lsr #17
    8898:	f00b 0b01 	and.w	fp, fp, #1
    889c:	ea4f 2b8b 	mov.w	fp, fp, lsl #10
    88a0:	ea48 080b 	orr.w	r8, r8, fp
    88a4:	ea4f 3b5a 	mov.w	fp, sl, lsr #13
    88a8:	f00b 0b01 	and.w	fp, fp, #1
    88ac:	ea4f 2bcb 	mov.w	fp, fp, lsl #11
    88b0:	ea48 080b 	orr.w	r8, r8, fp
    88b4:	ea4f 2b5a 	mov.w	fp, sl, lsr #9
    88b8:	f00b 0b01 	and.w	fp, fp, #1
    88bc:	ea4f 3b0b 	mov.w	fp, fp, lsl #12
    88c0:	ea48 080b 	orr.w	r8, r8, fp
    88c4:	ea4f 1b5a 	mov.w	fp, sl, lsr #5
    88c8:	f00b 0b01 	and.w	fp, fp, #1
    88cc:	ea4f 3b4b 	mov.w	fp, fp, lsl #13
    88d0:	ea48 080b 	orr.w	r8, r8, fp
    88d4:	ea4f 0b5a 	mov.w	fp, sl, lsr #1
    88d8:	f00b 0b01 	and.w	fp, fp, #1
    88dc:	ea4f 3b8b 	mov.w	fp, fp, lsl #14
    88e0:	ea48 080b 	orr.w	r8, r8, fp
    88e4:	ea4f 7b5a 	mov.w	fp, sl, lsr #29
    88e8:	f00b 0b01 	and.w	fp, fp, #1
    88ec:	ea4f 3bcb 	mov.w	fp, fp, lsl #15
    88f0:	ea48 080b 	orr.w	r8, r8, fp
    88f4:	f8d1 a000 	ldr.w	sl, [r1]
    88f8:	ea4f 6b5a 	mov.w	fp, sl, lsr #25
    88fc:	f00b 0b01 	and.w	fp, fp, #1
    8900:	ea4f 0b0b 	mov.w	fp, fp
    8904:	ea48 080b 	orr.w	r8, r8, fp
    8908:	ea4f 5b5a 	mov.w	fp, sl, lsr #21
    890c:	f00b 0b01 	and.w	fp, fp, #1
    8910:	ea4f 0b4b 	mov.w	fp, fp, lsl #1
    8914:	ea48 080b 	orr.w	r8, r8, fp
    8918:	ea4f 4b5a 	mov.w	fp, sl, lsr #17
    891c:	f00b 0b01 	and.w	fp, fp, #1
    8920:	ea4f 0b8b 	mov.w	fp, fp, lsl #2
    8924:	ea48 080b 	orr.w	r8, r8, fp
    8928:	ea4f 3b5a 	mov.w	fp, sl, lsr #13
    892c:	f00b 0b01 	and.w	fp, fp, #1
    8930:	ea4f 0bcb 	mov.w	fp, fp, lsl #3
    8934:	ea48 080b 	orr.w	r8, r8, fp
    8938:	ea4f 2b5a 	mov.w	fp, sl, lsr #9
    893c:	f00b 0b01 	and.w	fp, fp, #1
    8940:	ea4f 1b0b 	mov.w	fp, fp, lsl #4
    8944:	ea48 080b 	orr.w	r8, r8, fp
    8948:	ea4f 1b5a 	mov.w	fp, sl, lsr #5
    894c:	f00b 0b01 	and.w	fp, fp, #1
    8950:	ea4f 1b4b 	mov.w	fp, fp, lsl #5
    8954:	ea48 080b 	orr.w	r8, r8, fp
    8958:	ea4f 0b5a 	mov.w	fp, sl, lsr #1
    895c:	f00b 0b01 	and.w	fp, fp, #1
    8960:	ea4f 1b8b 	mov.w	fp, fp, lsl #6
    8964:	ea48 080b 	orr.w	r8, r8, fp
    8968:	ea4f 7b5a 	mov.w	fp, sl, lsr #29
    896c:	f00b 0b01 	and.w	fp, fp, #1
    8970:	ea4f 1bcb 	mov.w	fp, fp, lsl #7
    8974:	ea48 080b 	orr.w	r8, r8, fp
    8978:	f8d1 a004 	ldr.w	sl, [r1, #4]
    897c:	ea4f 6b9a 	mov.w	fp, sl, lsr #26
    8980:	f00b 0b01 	and.w	fp, fp, #1
    8984:	ea4f 2b0b 	mov.w	fp, fp, lsl #8
    8988:	ea49 090b 	orr.w	r9, r9, fp
    898c:	ea4f 5b9a 	mov.w	fp, sl, lsr #22
    8990:	f00b 0b01 	and.w	fp, fp, #1
    8994:	ea4f 2b4b 	mov.w	fp, fp, lsl #9
    8998:	ea49 090b 	orr.w	r9, r9, fp
    899c:	ea4f 4b9a 	mov.w	fp, sl, lsr #18
    89a0:	f00b 0b01 	and.w	fp, fp, #1
    89a4:	ea4f 2b8b 	mov.w	fp, fp, lsl #10
    89a8:	ea49 090b 	orr.w	r9, r9, fp
    89ac:	ea4f 3b9a 	mov.w	fp, sl, lsr #14
    89b0:	f00b 0b01 	and.w	fp, fp, #1
    89b4:	ea4f 2bcb 	mov.w	fp, fp, lsl #11
    89b8:	ea49 090b 	orr.w	r9, r9, fp
    89bc:	ea4f 2b9a 	mov.w	fp, sl, lsr #10
    89c0:	f00b 0b01 	and.w	fp, fp, #1
    89c4:	ea4f 3b0b 	mov.w	fp, fp, lsl #12
    89c8:	ea49 090b 	orr.w	r9, r9, fp
    89cc:	ea4f 1b9a 	mov.w	fp, sl, lsr #6
    89d0:	f00b 0b01 	and.w	fp, fp, #1
    89d4:	ea4f 3b4b 	mov.w	fp, fp, lsl #13
    89d8:	ea49 090b 	orr.w	r9, r9, fp
    89dc:	ea4f 0b9a 	mov.w	fp, sl, lsr #2
    89e0:	f00b 0b01 	and.w	fp, fp, #1
    89e4:	ea4f 3b8b 	mov.w	fp, fp, lsl #14
    89e8:	ea49 090b 	orr.w	r9, r9, fp
    89ec:	ea4f 7b9a 	mov.w	fp, sl, lsr #30
    89f0:	f00b 0b01 	and.w	fp, fp, #1
    89f4:	ea4f 3bcb 	mov.w	fp, fp, lsl #15
    89f8:	ea49 090b 	orr.w	r9, r9, fp
    89fc:	f8d1 a000 	ldr.w	sl, [r1]
    8a00:	ea4f 6b9a 	mov.w	fp, sl, lsr #26
    8a04:	f00b 0b01 	and.w	fp, fp, #1
    8a08:	ea4f 0b0b 	mov.w	fp, fp
    8a0c:	ea49 090b 	orr.w	r9, r9, fp
    8a10:	ea4f 5b9a 	mov.w	fp, sl, lsr #22
    8a14:	f00b 0b01 	and.w	fp, fp, #1
    8a18:	ea4f 0b4b 	mov.w	fp, fp, lsl #1
    8a1c:	ea49 090b 	orr.w	r9, r9, fp
    8a20:	ea4f 4b9a 	mov.w	fp, sl, lsr #18
    8a24:	f00b 0b01 	and.w	fp, fp, #1
    8a28:	ea4f 0b8b 	mov.w	fp, fp, lsl #2
    8a2c:	ea49 090b 	orr.w	r9, r9, fp
    8a30:	ea4f 3b9a 	mov.w	fp, sl, lsr #14
    8a34:	f00b 0b01 	and.w	fp, fp, #1
    8a38:	ea4f 0bcb 	mov.w	fp, fp, lsl #3
    8a3c:	ea49 090b 	orr.w	r9, r9, fp
    8a40:	ea4f 2b9a 	mov.w	fp, sl, lsr #10
    8a44:	f00b 0b01 	and.w	fp, fp, #1
    8a48:	ea4f 1b0b 	mov.w	fp, fp, lsl #4
    8a4c:	ea49 090b 	orr.w	r9, r9, fp
    8a50:	ea4f 1b9a 	mov.w	fp, sl, lsr #6
    8a54:	f00b 0b01 	and.w	fp, fp, #1
    8a58:	ea4f 1b4b 	mov.w	fp, fp, lsl #5
    8a5c:	ea49 090b 	orr.w	r9, r9, fp
    8a60:	ea4f 0b9a 	mov.w	fp, sl, lsr #2
    8a64:	f00b 0b01 	and.w	fp, fp, #1
    8a68:	ea4f 1b8b 	mov.w	fp, fp, lsl #6
    8a6c:	ea49 090b 	orr.w	r9, r9, fp
    8a70:	ea4f 7b9a 	mov.w	fp, sl, lsr #30
    8a74:	f00b 0b01 	and.w	fp, fp, #1
    8a78:	ea4f 1bcb 	mov.w	fp, fp, lsl #7
    8a7c:	ea49 090b 	orr.w	r9, r9, fp
    8a80:	4610      	mov	r0, r2
    8a82:	4619      	mov	r1, r3
    8a84:	46a2      	mov	sl, r4
    8a86:	46ab      	mov	fp, r5
    8a88:	f7ff fb62 	bl	8150 <A>
    8a8c:	4602      	mov	r2, r0
    8a8e:	460b      	mov	r3, r1
    8a90:	4654      	mov	r4, sl
    8a92:	465d      	mov	r5, fp
    8a94:	4630      	mov	r0, r6
    8a96:	4639      	mov	r1, r7
    8a98:	46c2      	mov	sl, r8
    8a9a:	46cb      	mov	fp, r9
    8a9c:	f7ff fb58 	bl	8150 <A>
    8aa0:	4606      	mov	r6, r0
    8aa2:	460f      	mov	r7, r1
    8aa4:	46d0      	mov	r8, sl
    8aa6:	46d9      	mov	r9, fp
    8aa8:	ea05 0e03 	and.w	lr, r5, r3
    8aac:	ea84 040e 	eor.w	r4, r4, lr
    8ab0:	f005 00ff 	and.w	r0, r5, #255	; 0xff
    8ab4:	ea4f 2115 	mov.w	r1, r5, lsr #8
    8ab8:	f000 0c03 	and.w	ip, r0, #3
    8abc:	ea4f 1c8c 	mov.w	ip, ip, lsl #6
    8ac0:	f000 00fc 	and.w	r0, r0, #252	; 0xfc
    8ac4:	ea4f 0090 	mov.w	r0, r0, lsr #2
    8ac8:	ea80 000c 	eor.w	r0, r0, ip
    8acc:	f000 00ff 	and.w	r0, r0, #255	; 0xff
    8ad0:	f04f 0c00 	mov.w	ip, #0
    8ad4:	f001 0c03 	and.w	ip, r1, #3
    8ad8:	ea4f 1c8c 	mov.w	ip, ip, lsl #6
    8adc:	f001 01fc 	and.w	r1, r1, #252	; 0xfc
    8ae0:	ea4f 0191 	mov.w	r1, r1, lsr #2
    8ae4:	ea81 010c 	eor.w	r1, r1, ip
    8ae8:	f001 01ff 	and.w	r1, r1, #255	; 0xff
    8aec:	f04f 0c00 	mov.w	ip, #0
    8af0:	ea4f 2101 	mov.w	r1, r1, lsl #8
    8af4:	ea80 0501 	eor.w	r5, r0, r1
    8af8:	f04f 0000 	mov.w	r0, #0
    8afc:	f04f 0100 	mov.w	r1, #0
    8b00:	f007 00ff 	and.w	r0, r7, #255	; 0xff
    8b04:	ea4f 2117 	mov.w	r1, r7, lsr #8
    8b08:	f000 0c01 	and.w	ip, r0, #1
    8b0c:	ea4f 1ccc 	mov.w	ip, ip, lsl #7
    8b10:	f000 00fe 	and.w	r0, r0, #254	; 0xfe
    8b14:	ea4f 0050 	mov.w	r0, r0, lsr #1
    8b18:	ea80 000c 	eor.w	r0, r0, ip
    8b1c:	f000 00ff 	and.w	r0, r0, #255	; 0xff
    8b20:	f04f 0c00 	mov.w	ip, #0
    8b24:	f001 0c01 	and.w	ip, r1, #1
    8b28:	ea4f 1ccc 	mov.w	ip, ip, lsl #7
    8b2c:	f001 01fe 	and.w	r1, r1, #254	; 0xfe
    8b30:	ea4f 0151 	mov.w	r1, r1, lsr #1
    8b34:	ea81 010c 	eor.w	r1, r1, ip
    8b38:	f001 01ff 	and.w	r1, r1, #255	; 0xff
    8b3c:	f04f 0c00 	mov.w	ip, #0
    8b40:	ea4f 2101 	mov.w	r1, r1, lsl #8
    8b44:	ea80 0701 	eor.w	r7, r0, r1
    8b48:	f04f 0000 	mov.w	r0, #0
    8b4c:	f04f 0100 	mov.w	r1, #0
    8b50:	ea05 0e07 	and.w	lr, r5, r7
    8b54:	f005 00ff 	and.w	r0, r5, #255	; 0xff
    8b58:	ea4f 2115 	mov.w	r1, r5, lsr #8
    8b5c:	f000 0cc0 	and.w	ip, r0, #192	; 0xc0
    8b60:	ea4f 1c9c 	mov.w	ip, ip, lsr #6
    8b64:	f000 003f 	and.w	r0, r0, #63	; 0x3f
    8b68:	ea4f 0080 	mov.w	r0, r0, lsl #2
    8b6c:	ea80 000c 	eor.w	r0, r0, ip
    8b70:	f000 00ff 	and.w	r0, r0, #255	; 0xff
    8b74:	f04f 0c00 	mov.w	ip, #0
    8b78:	f001 0cc0 	and.w	ip, r1, #192	; 0xc0
    8b7c:	ea4f 1c9c 	mov.w	ip, ip, lsr #6
    8b80:	f001 013f 	and.w	r1, r1, #63	; 0x3f
    8b84:	ea4f 0181 	mov.w	r1, r1, lsl #2
    8b88:	ea81 010c 	eor.w	r1, r1, ip
    8b8c:	f001 01ff 	and.w	r1, r1, #255	; 0xff
    8b90:	f04f 0c00 	mov.w	ip, #0
    8b94:	ea4f 2101 	mov.w	r1, r1, lsl #8
    8b98:	ea80 0501 	eor.w	r5, r0, r1
    8b9c:	f04f 0000 	mov.w	r0, #0
    8ba0:	f04f 0100 	mov.w	r1, #0
    8ba4:	f007 00ff 	and.w	r0, r7, #255	; 0xff
    8ba8:	ea4f 2117 	mov.w	r1, r7, lsr #8
    8bac:	f000 0c80 	and.w	ip, r0, #128	; 0x80
    8bb0:	ea4f 1cdc 	mov.w	ip, ip, lsr #7
    8bb4:	f000 007f 	and.w	r0, r0, #127	; 0x7f
    8bb8:	ea4f 0040 	mov.w	r0, r0, lsl #1
    8bbc:	ea80 000c 	eor.w	r0, r0, ip
    8bc0:	f000 00ff 	and.w	r0, r0, #255	; 0xff
    8bc4:	f04f 0c00 	mov.w	ip, #0
    8bc8:	f001 0c80 	and.w	ip, r1, #128	; 0x80
    8bcc:	ea4f 1cdc 	mov.w	ip, ip, lsr #7
    8bd0:	f001 017f 	and.w	r1, r1, #127	; 0x7f
    8bd4:	ea4f 0141 	mov.w	r1, r1, lsl #1
    8bd8:	ea81 010c 	eor.w	r1, r1, ip
    8bdc:	f001 01ff 	and.w	r1, r1, #255	; 0xff
    8be0:	f04f 0c00 	mov.w	ip, #0
    8be4:	ea4f 2101 	mov.w	r1, r1, lsl #8
    8be8:	ea80 0701 	eor.w	r7, r0, r1
    8bec:	f04f 0000 	mov.w	r0, #0
    8bf0:	f04f 0100 	mov.w	r1, #0
    8bf4:	f004 00ff 	and.w	r0, r4, #255	; 0xff
    8bf8:	ea4f 2114 	mov.w	r1, r4, lsr #8
    8bfc:	f000 0c03 	and.w	ip, r0, #3
    8c00:	ea4f 1c8c 	mov.w	ip, ip, lsl #6
    8c04:	f000 00fc 	and.w	r0, r0, #252	; 0xfc
    8c08:	ea4f 0090 	mov.w	r0, r0, lsr #2
    8c0c:	ea80 000c 	eor.w	r0, r0, ip
    8c10:	f000 00ff 	and.w	r0, r0, #255	; 0xff
    8c14:	f04f 0c00 	mov.w	ip, #0
    8c18:	f001 0c03 	and.w	ip, r1, #3
    8c1c:	ea4f 1c8c 	mov.w	ip, ip, lsl #6
    8c20:	f001 01fc 	and.w	r1, r1, #252	; 0xfc
    8c24:	ea4f 0191 	mov.w	r1, r1, lsr #2
    8c28:	ea81 010c 	eor.w	r1, r1, ip
    8c2c:	f001 01ff 	and.w	r1, r1, #255	; 0xff
    8c30:	f04f 0c00 	mov.w	ip, #0
    8c34:	ea4f 2101 	mov.w	r1, r1, lsl #8
    8c38:	ea80 0401 	eor.w	r4, r0, r1
    8c3c:	f04f 0000 	mov.w	r0, #0
    8c40:	f04f 0100 	mov.w	r1, #0
    8c44:	ea84 040e 	eor.w	r4, r4, lr
    8c48:	f004 00ff 	and.w	r0, r4, #255	; 0xff
    8c4c:	ea4f 2114 	mov.w	r1, r4, lsr #8
    8c50:	f000 0cc0 	and.w	ip, r0, #192	; 0xc0
    8c54:	ea4f 1c9c 	mov.w	ip, ip, lsr #6
    8c58:	f000 003f 	and.w	r0, r0, #63	; 0x3f
    8c5c:	ea4f 0080 	mov.w	r0, r0, lsl #2
    8c60:	ea80 000c 	eor.w	r0, r0, ip
    8c64:	f000 00ff 	and.w	r0, r0, #255	; 0xff
    8c68:	f04f 0c00 	mov.w	ip, #0
    8c6c:	f001 0cc0 	and.w	ip, r1, #192	; 0xc0
    8c70:	ea4f 1c9c 	mov.w	ip, ip, lsr #6
    8c74:	f001 013f 	and.w	r1, r1, #63	; 0x3f
    8c78:	ea4f 0181 	mov.w	r1, r1, lsl #2
    8c7c:	ea81 010c 	eor.w	r1, r1, ip
    8c80:	f001 01ff 	and.w	r1, r1, #255	; 0xff
    8c84:	f04f 0c00 	mov.w	ip, #0
    8c88:	ea4f 2101 	mov.w	r1, r1, lsl #8
    8c8c:	ea80 0401 	eor.w	r4, r0, r1
    8c90:	f04f 0000 	mov.w	r0, #0
    8c94:	f04f 0100 	mov.w	r1, #0
    8c98:	ea09 0e07 	and.w	lr, r9, r7
    8c9c:	ea88 080e 	eor.w	r8, r8, lr
    8ca0:	f003 00ff 	and.w	r0, r3, #255	; 0xff
    8ca4:	ea4f 2113 	mov.w	r1, r3, lsr #8
    8ca8:	f000 0c03 	and.w	ip, r0, #3
    8cac:	ea4f 1c8c 	mov.w	ip, ip, lsl #6
    8cb0:	f000 00fc 	and.w	r0, r0, #252	; 0xfc
    8cb4:	ea4f 0090 	mov.w	r0, r0, lsr #2
    8cb8:	ea80 000c 	eor.w	r0, r0, ip
    8cbc:	f000 00ff 	and.w	r0, r0, #255	; 0xff
    8cc0:	f04f 0c00 	mov.w	ip, #0
    8cc4:	f001 0c03 	and.w	ip, r1, #3
    8cc8:	ea4f 1c8c 	mov.w	ip, ip, lsl #6
    8ccc:	f001 01fc 	and.w	r1, r1, #252	; 0xfc
    8cd0:	ea4f 0191 	mov.w	r1, r1, lsr #2
    8cd4:	ea81 010c 	eor.w	r1, r1, ip
    8cd8:	f001 01ff 	and.w	r1, r1, #255	; 0xff
    8cdc:	f04f 0c00 	mov.w	ip, #0
    8ce0:	ea4f 2101 	mov.w	r1, r1, lsl #8
    8ce4:	ea80 0301 	eor.w	r3, r0, r1
    8ce8:	f04f 0000 	mov.w	r0, #0
    8cec:	f04f 0100 	mov.w	r1, #0
    8cf0:	f009 00ff 	and.w	r0, r9, #255	; 0xff
    8cf4:	ea4f 2119 	mov.w	r1, r9, lsr #8
    8cf8:	f000 0c01 	and.w	ip, r0, #1
    8cfc:	ea4f 1ccc 	mov.w	ip, ip, lsl #7
    8d00:	f000 00fe 	and.w	r0, r0, #254	; 0xfe
    8d04:	ea4f 0050 	mov.w	r0, r0, lsr #1
    8d08:	ea80 000c 	eor.w	r0, r0, ip
    8d0c:	f000 00ff 	and.w	r0, r0, #255	; 0xff
    8d10:	f04f 0c00 	mov.w	ip, #0
    8d14:	f001 0c01 	and.w	ip, r1, #1
    8d18:	ea4f 1ccc 	mov.w	ip, ip, lsl #7
    8d1c:	f001 01fe 	and.w	r1, r1, #254	; 0xfe
    8d20:	ea4f 0151 	mov.w	r1, r1, lsr #1
    8d24:	ea81 010c 	eor.w	r1, r1, ip
    8d28:	f001 01ff 	and.w	r1, r1, #255	; 0xff
    8d2c:	f04f 0c00 	mov.w	ip, #0
    8d30:	ea4f 2101 	mov.w	r1, r1, lsl #8
    8d34:	ea80 0901 	eor.w	r9, r0, r1
    8d38:	f04f 0000 	mov.w	r0, #0
    8d3c:	f04f 0100 	mov.w	r1, #0
    8d40:	ea03 0e09 	and.w	lr, r3, r9
    8d44:	f003 00ff 	and.w	r0, r3, #255	; 0xff
    8d48:	ea4f 2113 	mov.w	r1, r3, lsr #8
    8d4c:	f000 0cc0 	and.w	ip, r0, #192	; 0xc0
    8d50:	ea4f 1c9c 	mov.w	ip, ip, lsr #6
    8d54:	f000 003f 	and.w	r0, r0, #63	; 0x3f
    8d58:	ea4f 0080 	mov.w	r0, r0, lsl #2
    8d5c:	ea80 000c 	eor.w	r0, r0, ip
    8d60:	f000 00ff 	and.w	r0, r0, #255	; 0xff
    8d64:	f04f 0c00 	mov.w	ip, #0
    8d68:	f001 0cc0 	and.w	ip, r1, #192	; 0xc0
    8d6c:	ea4f 1c9c 	mov.w	ip, ip, lsr #6
    8d70:	f001 013f 	and.w	r1, r1, #63	; 0x3f
    8d74:	ea4f 0181 	mov.w	r1, r1, lsl #2
    8d78:	ea81 010c 	eor.w	r1, r1, ip
    8d7c:	f001 01ff 	and.w	r1, r1, #255	; 0xff
    8d80:	f04f 0c00 	mov.w	ip, #0
    8d84:	ea4f 2101 	mov.w	r1, r1, lsl #8
    8d88:	ea80 0301 	eor.w	r3, r0, r1
    8d8c:	f04f 0000 	mov.w	r0, #0
    8d90:	f04f 0100 	mov.w	r1, #0
    8d94:	f009 00ff 	and.w	r0, r9, #255	; 0xff
    8d98:	ea4f 2119 	mov.w	r1, r9, lsr #8
    8d9c:	f000 0c80 	and.w	ip, r0, #128	; 0x80
    8da0:	ea4f 1cdc 	mov.w	ip, ip, lsr #7
    8da4:	f000 007f 	and.w	r0, r0, #127	; 0x7f
    8da8:	ea4f 0040 	mov.w	r0, r0, lsl #1
    8dac:	ea80 000c 	eor.w	r0, r0, ip
    8db0:	f000 00ff 	and.w	r0, r0, #255	; 0xff
    8db4:	f04f 0c00 	mov.w	ip, #0
    8db8:	f001 0c80 	and.w	ip, r1, #128	; 0x80
    8dbc:	ea4f 1cdc 	mov.w	ip, ip, lsr #7
    8dc0:	f001 017f 	and.w	r1, r1, #127	; 0x7f
    8dc4:	ea4f 0141 	mov.w	r1, r1, lsl #1
    8dc8:	ea81 010c 	eor.w	r1, r1, ip
    8dcc:	f001 01ff 	and.w	r1, r1, #255	; 0xff
    8dd0:	f04f 0c00 	mov.w	ip, #0
    8dd4:	ea4f 2101 	mov.w	r1, r1, lsl #8
    8dd8:	ea80 0901 	eor.w	r9, r0, r1
    8ddc:	f04f 0000 	mov.w	r0, #0
    8de0:	f04f 0100 	mov.w	r1, #0
    8de4:	f008 00ff 	and.w	r0, r8, #255	; 0xff
    8de8:	ea4f 2118 	mov.w	r1, r8, lsr #8
    8dec:	f000 0c01 	and.w	ip, r0, #1
    8df0:	ea4f 1ccc 	mov.w	ip, ip, lsl #7
    8df4:	f000 00fe 	and.w	r0, r0, #254	; 0xfe
    8df8:	ea4f 0050 	mov.w	r0, r0, lsr #1
    8dfc:	ea80 000c 	eor.w	r0, r0, ip
    8e00:	f000 00ff 	and.w	r0, r0, #255	; 0xff
    8e04:	f04f 0c00 	mov.w	ip, #0
    8e08:	f001 0c01 	and.w	ip, r1, #1
    8e0c:	ea4f 1ccc 	mov.w	ip, ip, lsl #7
    8e10:	f001 01fe 	and.w	r1, r1, #254	; 0xfe
    8e14:	ea4f 0151 	mov.w	r1, r1, lsr #1
    8e18:	ea81 010c 	eor.w	r1, r1, ip
    8e1c:	f001 01ff 	and.w	r1, r1, #255	; 0xff
    8e20:	f04f 0c00 	mov.w	ip, #0
    8e24:	ea4f 2101 	mov.w	r1, r1, lsl #8
    8e28:	ea80 0801 	eor.w	r8, r0, r1
    8e2c:	f04f 0000 	mov.w	r0, #0
    8e30:	f04f 0100 	mov.w	r1, #0
    8e34:	ea88 080e 	eor.w	r8, r8, lr
    8e38:	f008 00ff 	and.w	r0, r8, #255	; 0xff
    8e3c:	ea4f 2118 	mov.w	r1, r8, lsr #8
    8e40:	f000 0c80 	and.w	ip, r0, #128	; 0x80
    8e44:	ea4f 1cdc 	mov.w	ip, ip, lsr #7
    8e48:	f000 007f 	and.w	r0, r0, #127	; 0x7f
    8e4c:	ea4f 0040 	mov.w	r0, r0, lsl #1
    8e50:	ea80 000c 	eor.w	r0, r0, ip
    8e54:	f000 00ff 	and.w	r0, r0, #255	; 0xff
    8e58:	f04f 0c00 	mov.w	ip, #0
    8e5c:	f001 0c80 	and.w	ip, r1, #128	; 0x80
    8e60:	ea4f 1cdc 	mov.w	ip, ip, lsr #7
    8e64:	f001 017f 	and.w	r1, r1, #127	; 0x7f
    8e68:	ea4f 0141 	mov.w	r1, r1, lsl #1
    8e6c:	ea81 010c 	eor.w	r1, r1, ip
    8e70:	f001 01ff 	and.w	r1, r1, #255	; 0xff
    8e74:	f04f 0c00 	mov.w	ip, #0
    8e78:	ea4f 2101 	mov.w	r1, r1, lsl #8
    8e7c:	ea80 0801 	eor.w	r8, r0, r1
    8e80:	f04f 0000 	mov.w	r0, #0
    8e84:	f04f 0100 	mov.w	r1, #0
    8e88:	ea05 0e04 	and.w	lr, r5, r4
    8e8c:	ea83 030e 	eor.w	r3, r3, lr
    8e90:	f005 00ff 	and.w	r0, r5, #255	; 0xff
    8e94:	ea4f 2115 	mov.w	r1, r5, lsr #8
    8e98:	f000 0c03 	and.w	ip, r0, #3
    8e9c:	ea4f 1c8c 	mov.w	ip, ip, lsl #6
    8ea0:	f000 00fc 	and.w	r0, r0, #252	; 0xfc
    8ea4:	ea4f 0090 	mov.w	r0, r0, lsr #2
    8ea8:	ea80 000c 	eor.w	r0, r0, ip
    8eac:	f000 00ff 	and.w	r0, r0, #255	; 0xff
    8eb0:	f04f 0c00 	mov.w	ip, #0
    8eb4:	f001 0c03 	and.w	ip, r1, #3
    8eb8:	ea4f 1c8c 	mov.w	ip, ip, lsl #6
    8ebc:	f001 01fc 	and.w	r1, r1, #252	; 0xfc
    8ec0:	ea4f 0191 	mov.w	r1, r1, lsr #2
    8ec4:	ea81 010c 	eor.w	r1, r1, ip
    8ec8:	f001 01ff 	and.w	r1, r1, #255	; 0xff
    8ecc:	f04f 0c00 	mov.w	ip, #0
    8ed0:	ea4f 2101 	mov.w	r1, r1, lsl #8
    8ed4:	ea80 0501 	eor.w	r5, r0, r1
    8ed8:	f04f 0000 	mov.w	r0, #0
    8edc:	f04f 0100 	mov.w	r1, #0
    8ee0:	f008 00ff 	and.w	r0, r8, #255	; 0xff
    8ee4:	ea4f 2118 	mov.w	r1, r8, lsr #8
    8ee8:	f000 0c01 	and.w	ip, r0, #1
    8eec:	ea4f 1ccc 	mov.w	ip, ip, lsl #7
    8ef0:	f000 00fe 	and.w	r0, r0, #254	; 0xfe
    8ef4:	ea4f 0050 	mov.w	r0, r0, lsr #1
    8ef8:	ea80 000c 	eor.w	r0, r0, ip
    8efc:	f000 00ff 	and.w	r0, r0, #255	; 0xff
    8f00:	f04f 0c00 	mov.w	ip, #0
    8f04:	f001 0c01 	and.w	ip, r1, #1
    8f08:	ea4f 1ccc 	mov.w	ip, ip, lsl #7
    8f0c:	f001 01fe 	and.w	r1, r1, #254	; 0xfe
    8f10:	ea4f 0151 	mov.w	r1, r1, lsr #1
    8f14:	ea81 010c 	eor.w	r1, r1, ip
    8f18:	f001 01ff 	and.w	r1, r1, #255	; 0xff
    8f1c:	f04f 0c00 	mov.w	ip, #0
    8f20:	ea4f 2101 	mov.w	r1, r1, lsl #8
    8f24:	ea80 0801 	eor.w	r8, r0, r1
    8f28:	f04f 0000 	mov.w	r0, #0
    8f2c:	f04f 0100 	mov.w	r1, #0
    8f30:	ea05 0e08 	and.w	lr, r5, r8
    8f34:	f005 00ff 	and.w	r0, r5, #255	; 0xff
    8f38:	ea4f 2115 	mov.w	r1, r5, lsr #8
    8f3c:	f000 0cc0 	and.w	ip, r0, #192	; 0xc0
    8f40:	ea4f 1c9c 	mov.w	ip, ip, lsr #6
    8f44:	f000 003f 	and.w	r0, r0, #63	; 0x3f
    8f48:	ea4f 0080 	mov.w	r0, r0, lsl #2
    8f4c:	ea80 000c 	eor.w	r0, r0, ip
    8f50:	f000 00ff 	and.w	r0, r0, #255	; 0xff
    8f54:	f04f 0c00 	mov.w	ip, #0
    8f58:	f001 0cc0 	and.w	ip, r1, #192	; 0xc0
    8f5c:	ea4f 1c9c 	mov.w	ip, ip, lsr #6
    8f60:	f001 013f 	and.w	r1, r1, #63	; 0x3f
    8f64:	ea4f 0181 	mov.w	r1, r1, lsl #2
    8f68:	ea81 010c 	eor.w	r1, r1, ip
    8f6c:	f001 01ff 	and.w	r1, r1, #255	; 0xff
    8f70:	f04f 0c00 	mov.w	ip, #0
    8f74:	ea4f 2101 	mov.w	r1, r1, lsl #8
    8f78:	ea80 0501 	eor.w	r5, r0, r1
    8f7c:	f04f 0000 	mov.w	r0, #0
    8f80:	f04f 0100 	mov.w	r1, #0
    8f84:	f008 00ff 	and.w	r0, r8, #255	; 0xff
    8f88:	ea4f 2118 	mov.w	r1, r8, lsr #8
    8f8c:	f000 0c80 	and.w	ip, r0, #128	; 0x80
    8f90:	ea4f 1cdc 	mov.w	ip, ip, lsr #7
    8f94:	f000 007f 	and.w	r0, r0, #127	; 0x7f
    8f98:	ea4f 0040 	mov.w	r0, r0, lsl #1
    8f9c:	ea80 000c 	eor.w	r0, r0, ip
    8fa0:	f000 00ff 	and.w	r0, r0, #255	; 0xff
    8fa4:	f04f 0c00 	mov.w	ip, #0
    8fa8:	f001 0c80 	and.w	ip, r1, #128	; 0x80
    8fac:	ea4f 1cdc 	mov.w	ip, ip, lsr #7
    8fb0:	f001 017f 	and.w	r1, r1, #127	; 0x7f
    8fb4:	ea4f 0141 	mov.w	r1, r1, lsl #1
    8fb8:	ea81 010c 	eor.w	r1, r1, ip
    8fbc:	f001 01ff 	and.w	r1, r1, #255	; 0xff
    8fc0:	f04f 0c00 	mov.w	ip, #0
    8fc4:	ea4f 2101 	mov.w	r1, r1, lsl #8
    8fc8:	ea80 0801 	eor.w	r8, r0, r1
    8fcc:	f04f 0000 	mov.w	r0, #0
    8fd0:	f04f 0100 	mov.w	r1, #0
    8fd4:	f003 00ff 	and.w	r0, r3, #255	; 0xff
    8fd8:	ea4f 2113 	mov.w	r1, r3, lsr #8
    8fdc:	f000 0c03 	and.w	ip, r0, #3
    8fe0:	ea4f 1c8c 	mov.w	ip, ip, lsl #6
    8fe4:	f000 00fc 	and.w	r0, r0, #252	; 0xfc
    8fe8:	ea4f 0090 	mov.w	r0, r0, lsr #2
    8fec:	ea80 000c 	eor.w	r0, r0, ip
    8ff0:	f000 00ff 	and.w	r0, r0, #255	; 0xff
    8ff4:	f04f 0c00 	mov.w	ip, #0
    8ff8:	f001 0c03 	and.w	ip, r1, #3
    8ffc:	ea4f 1c8c 	mov.w	ip, ip, lsl #6
    9000:	f001 01fc 	and.w	r1, r1, #252	; 0xfc
    9004:	ea4f 0191 	mov.w	r1, r1, lsr #2
    9008:	ea81 010c 	eor.w	r1, r1, ip
    900c:	f001 01ff 	and.w	r1, r1, #255	; 0xff
    9010:	f04f 0c00 	mov.w	ip, #0
    9014:	ea4f 2101 	mov.w	r1, r1, lsl #8
    9018:	ea80 0301 	eor.w	r3, r0, r1
    901c:	f04f 0000 	mov.w	r0, #0
    9020:	f04f 0100 	mov.w	r1, #0
    9024:	ea83 030e 	eor.w	r3, r3, lr
    9028:	f003 00ff 	and.w	r0, r3, #255	; 0xff
    902c:	ea4f 2113 	mov.w	r1, r3, lsr #8
    9030:	f000 0cc0 	and.w	ip, r0, #192	; 0xc0
    9034:	ea4f 1c9c 	mov.w	ip, ip, lsr #6
    9038:	f000 003f 	and.w	r0, r0, #63	; 0x3f
    903c:	ea4f 0080 	mov.w	r0, r0, lsl #2
    9040:	ea80 000c 	eor.w	r0, r0, ip
    9044:	f000 00ff 	and.w	r0, r0, #255	; 0xff
    9048:	f04f 0c00 	mov.w	ip, #0
    904c:	f001 0cc0 	and.w	ip, r1, #192	; 0xc0
    9050:	ea4f 1c9c 	mov.w	ip, ip, lsr #6
    9054:	f001 013f 	and.w	r1, r1, #63	; 0x3f
    9058:	ea4f 0181 	mov.w	r1, r1, lsl #2
    905c:	ea81 010c 	eor.w	r1, r1, ip
    9060:	f001 01ff 	and.w	r1, r1, #255	; 0xff
    9064:	f04f 0c00 	mov.w	ip, #0
    9068:	ea4f 2101 	mov.w	r1, r1, lsl #8
    906c:	ea80 0301 	eor.w	r3, r0, r1
    9070:	f04f 0000 	mov.w	r0, #0
    9074:	f04f 0100 	mov.w	r1, #0
    9078:	ea09 0e08 	and.w	lr, r9, r8
    907c:	ea87 070e 	eor.w	r7, r7, lr
    9080:	f004 00ff 	and.w	r0, r4, #255	; 0xff
    9084:	ea4f 2114 	mov.w	r1, r4, lsr #8
    9088:	f000 0c03 	and.w	ip, r0, #3
    908c:	ea4f 1c8c 	mov.w	ip, ip, lsl #6
    9090:	f000 00fc 	and.w	r0, r0, #252	; 0xfc
    9094:	ea4f 0090 	mov.w	r0, r0, lsr #2
    9098:	ea80 000c 	eor.w	r0, r0, ip
    909c:	f000 00ff 	and.w	r0, r0, #255	; 0xff
    90a0:	f04f 0c00 	mov.w	ip, #0
    90a4:	f001 0c03 	and.w	ip, r1, #3
    90a8:	ea4f 1c8c 	mov.w	ip, ip, lsl #6
    90ac:	f001 01fc 	and.w	r1, r1, #252	; 0xfc
    90b0:	ea4f 0191 	mov.w	r1, r1, lsr #2
    90b4:	ea81 010c 	eor.w	r1, r1, ip
    90b8:	f001 01ff 	and.w	r1, r1, #255	; 0xff
    90bc:	f04f 0c00 	mov.w	ip, #0
    90c0:	ea4f 2101 	mov.w	r1, r1, lsl #8
    90c4:	ea80 0401 	eor.w	r4, r0, r1
    90c8:	f04f 0000 	mov.w	r0, #0
    90cc:	f04f 0100 	mov.w	r1, #0
    90d0:	f009 00ff 	and.w	r0, r9, #255	; 0xff
    90d4:	ea4f 2119 	mov.w	r1, r9, lsr #8
    90d8:	f000 0c01 	and.w	ip, r0, #1
    90dc:	ea4f 1ccc 	mov.w	ip, ip, lsl #7
    90e0:	f000 00fe 	and.w	r0, r0, #254	; 0xfe
    90e4:	ea4f 0050 	mov.w	r0, r0, lsr #1
    90e8:	ea80 000c 	eor.w	r0, r0, ip
    90ec:	f000 00ff 	and.w	r0, r0, #255	; 0xff
    90f0:	f04f 0c00 	mov.w	ip, #0
    90f4:	f001 0c01 	and.w	ip, r1, #1
    90f8:	ea4f 1ccc 	mov.w	ip, ip, lsl #7
    90fc:	f001 01fe 	and.w	r1, r1, #254	; 0xfe
    9100:	ea4f 0151 	mov.w	r1, r1, lsr #1
    9104:	ea81 010c 	eor.w	r1, r1, ip
    9108:	f001 01ff 	and.w	r1, r1, #255	; 0xff
    910c:	f04f 0c00 	mov.w	ip, #0
    9110:	ea4f 2101 	mov.w	r1, r1, lsl #8
    9114:	ea80 0901 	eor.w	r9, r0, r1
    9118:	f04f 0000 	mov.w	r0, #0
    911c:	f04f 0100 	mov.w	r1, #0
    9120:	ea04 0e09 	and.w	lr, r4, r9
    9124:	f004 00ff 	and.w	r0, r4, #255	; 0xff
    9128:	ea4f 2114 	mov.w	r1, r4, lsr #8
    912c:	f000 0cc0 	and.w	ip, r0, #192	; 0xc0
    9130:	ea4f 1c9c 	mov.w	ip, ip, lsr #6
    9134:	f000 003f 	and.w	r0, r0, #63	; 0x3f
    9138:	ea4f 0080 	mov.w	r0, r0, lsl #2
    913c:	ea80 000c 	eor.w	r0, r0, ip
    9140:	f000 00ff 	and.w	r0, r0, #255	; 0xff
    9144:	f04f 0c00 	mov.w	ip, #0
    9148:	f001 0cc0 	and.w	ip, r1, #192	; 0xc0
    914c:	ea4f 1c9c 	mov.w	ip, ip, lsr #6
    9150:	f001 013f 	and.w	r1, r1, #63	; 0x3f
    9154:	ea4f 0181 	mov.w	r1, r1, lsl #2
    9158:	ea81 010c 	eor.w	r1, r1, ip
    915c:	f001 01ff 	and.w	r1, r1, #255	; 0xff
    9160:	f04f 0c00 	mov.w	ip, #0
    9164:	ea4f 2101 	mov.w	r1, r1, lsl #8
    9168:	ea80 0401 	eor.w	r4, r0, r1
    916c:	f04f 0000 	mov.w	r0, #0
    9170:	f04f 0100 	mov.w	r1, #0
    9174:	f009 00ff 	and.w	r0, r9, #255	; 0xff
    9178:	ea4f 2119 	mov.w	r1, r9, lsr #8
    917c:	f000 0c80 	and.w	ip, r0, #128	; 0x80
    9180:	ea4f 1cdc 	mov.w	ip, ip, lsr #7
    9184:	f000 007f 	and.w	r0, r0, #127	; 0x7f
    9188:	ea4f 0040 	mov.w	r0, r0, lsl #1
    918c:	ea80 000c 	eor.w	r0, r0, ip
    9190:	f000 00ff 	and.w	r0, r0, #255	; 0xff
    9194:	f04f 0c00 	mov.w	ip, #0
    9198:	f001 0c80 	and.w	ip, r1, #128	; 0x80
    919c:	ea4f 1cdc 	mov.w	ip, ip, lsr #7
    91a0:	f001 017f 	and.w	r1, r1, #127	; 0x7f
    91a4:	ea4f 0141 	mov.w	r1, r1, lsl #1
    91a8:	ea81 010c 	eor.w	r1, r1, ip
    91ac:	f001 01ff 	and.w	r1, r1, #255	; 0xff
    91b0:	f04f 0c00 	mov.w	ip, #0
    91b4:	ea4f 2101 	mov.w	r1, r1, lsl #8
    91b8:	ea80 0901 	eor.w	r9, r0, r1
    91bc:	f04f 0000 	mov.w	r0, #0
    91c0:	f04f 0100 	mov.w	r1, #0
    91c4:	f007 00ff 	and.w	r0, r7, #255	; 0xff
    91c8:	ea4f 2117 	mov.w	r1, r7, lsr #8
    91cc:	f000 0c01 	and.w	ip, r0, #1
    91d0:	ea4f 1ccc 	mov.w	ip, ip, lsl #7
    91d4:	f000 00fe 	and.w	r0, r0, #254	; 0xfe
    91d8:	ea4f 0050 	mov.w	r0, r0, lsr #1
    91dc:	ea80 000c 	eor.w	r0, r0, ip
    91e0:	f000 00ff 	and.w	r0, r0, #255	; 0xff
    91e4:	f04f 0c00 	mov.w	ip, #0
    91e8:	f001 0c01 	and.w	ip, r1, #1
    91ec:	ea4f 1ccc 	mov.w	ip, ip, lsl #7
    91f0:	f001 01fe 	and.w	r1, r1, #254	; 0xfe
    91f4:	ea4f 0151 	mov.w	r1, r1, lsr #1
    91f8:	ea81 010c 	eor.w	r1, r1, ip
    91fc:	f001 01ff 	and.w	r1, r1, #255	; 0xff
    9200:	f04f 0c00 	mov.w	ip, #0
    9204:	ea4f 2101 	mov.w	r1, r1, lsl #8
    9208:	ea80 0701 	eor.w	r7, r0, r1
    920c:	f04f 0000 	mov.w	r0, #0
    9210:	f04f 0100 	mov.w	r1, #0
    9214:	ea87 070e 	eor.w	r7, r7, lr
    9218:	f007 00ff 	and.w	r0, r7, #255	; 0xff
    921c:	ea4f 2117 	mov.w	r1, r7, lsr #8
    9220:	f000 0c80 	and.w	ip, r0, #128	; 0x80
    9224:	ea4f 1cdc 	mov.w	ip, ip, lsr #7
    9228:	f000 007f 	and.w	r0, r0, #127	; 0x7f
    922c:	ea4f 0040 	mov.w	r0, r0, lsl #1
    9230:	ea80 000c 	eor.w	r0, r0, ip
    9234:	f000 00ff 	and.w	r0, r0, #255	; 0xff
    9238:	f04f 0c00 	mov.w	ip, #0
    923c:	f001 0c80 	and.w	ip, r1, #128	; 0x80
    9240:	ea4f 1cdc 	mov.w	ip, ip, lsr #7
    9244:	f001 017f 	and.w	r1, r1, #127	; 0x7f
    9248:	ea4f 0141 	mov.w	r1, r1, lsl #1
    924c:	ea81 010c 	eor.w	r1, r1, ip
    9250:	f001 01ff 	and.w	r1, r1, #255	; 0xff
    9254:	f04f 0c00 	mov.w	ip, #0
    9258:	ea4f 2101 	mov.w	r1, r1, lsl #8
    925c:	ea80 0701 	eor.w	r7, r0, r1
    9260:	f04f 0000 	mov.w	r0, #0
    9264:	f04f 0100 	mov.w	r1, #0
    9268:	f7fe ff8a 	bl	8180 <App_a>
    926c:	f7fe ffa0 	bl	81b0 <App_b>
    9270:	f7fe ffae 	bl	81d0 <Appp_a>
    9274:	f7fe ffc4 	bl	8200 <Appp_b>
    9278:	4610      	mov	r0, r2
    927a:	4619      	mov	r1, r3
    927c:	46a2      	mov	sl, r4
    927e:	46ab      	mov	fp, r5
    9280:	f7fe ff66 	bl	8150 <A>
    9284:	4602      	mov	r2, r0
    9286:	460b      	mov	r3, r1
    9288:	4654      	mov	r4, sl
    928a:	465d      	mov	r5, fp
    928c:	4630      	mov	r0, r6
    928e:	4639      	mov	r1, r7
    9290:	46c2      	mov	sl, r8
    9292:	46cb      	mov	fp, r9
    9294:	f7fe ff5c 	bl	8150 <A>
    9298:	4606      	mov	r6, r0
    929a:	460f      	mov	r7, r1
    929c:	46d0      	mov	r8, sl
    929e:	46d9      	mov	r9, fp
    92a0:	ea05 0e03 	and.w	lr, r5, r3
    92a4:	ea84 040e 	eor.w	r4, r4, lr
    92a8:	f005 00ff 	and.w	r0, r5, #255	; 0xff
    92ac:	ea4f 2115 	mov.w	r1, r5, lsr #8
    92b0:	f000 0c03 	and.w	ip, r0, #3
    92b4:	ea4f 1c8c 	mov.w	ip, ip, lsl #6
    92b8:	f000 00fc 	and.w	r0, r0, #252	; 0xfc
    92bc:	ea4f 0090 	mov.w	r0, r0, lsr #2
    92c0:	ea80 000c 	eor.w	r0, r0, ip
    92c4:	f000 00ff 	and.w	r0, r0, #255	; 0xff
    92c8:	f04f 0c00 	mov.w	ip, #0
    92cc:	f001 0c03 	and.w	ip, r1, #3
    92d0:	ea4f 1c8c 	mov.w	ip, ip, lsl #6
    92d4:	f001 01fc 	and.w	r1, r1, #252	; 0xfc
    92d8:	ea4f 0191 	mov.w	r1, r1, lsr #2
    92dc:	ea81 010c 	eor.w	r1, r1, ip
    92e0:	f001 01ff 	and.w	r1, r1, #255	; 0xff
    92e4:	f04f 0c00 	mov.w	ip, #0
    92e8:	ea4f 2101 	mov.w	r1, r1, lsl #8
    92ec:	ea80 0501 	eor.w	r5, r0, r1
    92f0:	f04f 0000 	mov.w	r0, #0
    92f4:	f04f 0100 	mov.w	r1, #0
    92f8:	f007 00ff 	and.w	r0, r7, #255	; 0xff
    92fc:	ea4f 2117 	mov.w	r1, r7, lsr #8
    9300:	f000 0c01 	and.w	ip, r0, #1
    9304:	ea4f 1ccc 	mov.w	ip, ip, lsl #7
    9308:	f000 00fe 	and.w	r0, r0, #254	; 0xfe
    930c:	ea4f 0050 	mov.w	r0, r0, lsr #1
    9310:	ea80 000c 	eor.w	r0, r0, ip
    9314:	f000 00ff 	and.w	r0, r0, #255	; 0xff
    9318:	f04f 0c00 	mov.w	ip, #0
    931c:	f001 0c01 	and.w	ip, r1, #1
    9320:	ea4f 1ccc 	mov.w	ip, ip, lsl #7
    9324:	f001 01fe 	and.w	r1, r1, #254	; 0xfe
    9328:	ea4f 0151 	mov.w	r1, r1, lsr #1
    932c:	ea81 010c 	eor.w	r1, r1, ip
    9330:	f001 01ff 	and.w	r1, r1, #255	; 0xff
    9334:	f04f 0c00 	mov.w	ip, #0
    9338:	ea4f 2101 	mov.w	r1, r1, lsl #8
    933c:	ea80 0701 	eor.w	r7, r0, r1
    9340:	f04f 0000 	mov.w	r0, #0
    9344:	f04f 0100 	mov.w	r1, #0
    9348:	ea05 0e07 	and.w	lr, r5, r7
    934c:	f005 00ff 	and.w	r0, r5, #255	; 0xff
    9350:	ea4f 2115 	mov.w	r1, r5, lsr #8
    9354:	f000 0cc0 	and.w	ip, r0, #192	; 0xc0
    9358:	ea4f 1c9c 	mov.w	ip, ip, lsr #6
    935c:	f000 003f 	and.w	r0, r0, #63	; 0x3f
    9360:	ea4f 0080 	mov.w	r0, r0, lsl #2
    9364:	ea80 000c 	eor.w	r0, r0, ip
    9368:	f000 00ff 	and.w	r0, r0, #255	; 0xff
    936c:	f04f 0c00 	mov.w	ip, #0
    9370:	f001 0cc0 	and.w	ip, r1, #192	; 0xc0
    9374:	ea4f 1c9c 	mov.w	ip, ip, lsr #6
    9378:	f001 013f 	and.w	r1, r1, #63	; 0x3f
    937c:	ea4f 0181 	mov.w	r1, r1, lsl #2
    9380:	ea81 010c 	eor.w	r1, r1, ip
    9384:	f001 01ff 	and.w	r1, r1, #255	; 0xff
    9388:	f04f 0c00 	mov.w	ip, #0
    938c:	ea4f 2101 	mov.w	r1, r1, lsl #8
    9390:	ea80 0501 	eor.w	r5, r0, r1
    9394:	f04f 0000 	mov.w	r0, #0
    9398:	f04f 0100 	mov.w	r1, #0
    939c:	f007 00ff 	and.w	r0, r7, #255	; 0xff
    93a0:	ea4f 2117 	mov.w	r1, r7, lsr #8
    93a4:	f000 0c80 	and.w	ip, r0, #128	; 0x80
    93a8:	ea4f 1cdc 	mov.w	ip, ip, lsr #7
    93ac:	f000 007f 	and.w	r0, r0, #127	; 0x7f
    93b0:	ea4f 0040 	mov.w	r0, r0, lsl #1
    93b4:	ea80 000c 	eor.w	r0, r0, ip
    93b8:	f000 00ff 	and.w	r0, r0, #255	; 0xff
    93bc:	f04f 0c00 	mov.w	ip, #0
    93c0:	f001 0c80 	and.w	ip, r1, #128	; 0x80
    93c4:	ea4f 1cdc 	mov.w	ip, ip, lsr #7
    93c8:	f001 017f 	and.w	r1, r1, #127	; 0x7f
    93cc:	ea4f 0141 	mov.w	r1, r1, lsl #1
    93d0:	ea81 010c 	eor.w	r1, r1, ip
    93d4:	f001 01ff 	and.w	r1, r1, #255	; 0xff
    93d8:	f04f 0c00 	mov.w	ip, #0
    93dc:	ea4f 2101 	mov.w	r1, r1, lsl #8
    93e0:	ea80 0701 	eor.w	r7, r0, r1
    93e4:	f04f 0000 	mov.w	r0, #0
    93e8:	f04f 0100 	mov.w	r1, #0
    93ec:	f004 00ff 	and.w	r0, r4, #255	; 0xff
    93f0:	ea4f 2114 	mov.w	r1, r4, lsr #8
    93f4:	f000 0c03 	and.w	ip, r0, #3
    93f8:	ea4f 1c8c 	mov.w	ip, ip, lsl #6
    93fc:	f000 00fc 	and.w	r0, r0, #252	; 0xfc
    9400:	ea4f 0090 	mov.w	r0, r0, lsr #2
    9404:	ea80 000c 	eor.w	r0, r0, ip
    9408:	f000 00ff 	and.w	r0, r0, #255	; 0xff
    940c:	f04f 0c00 	mov.w	ip, #0
    9410:	f001 0c03 	and.w	ip, r1, #3
    9414:	ea4f 1c8c 	mov.w	ip, ip, lsl #6
    9418:	f001 01fc 	and.w	r1, r1, #252	; 0xfc
    941c:	ea4f 0191 	mov.w	r1, r1, lsr #2
    9420:	ea81 010c 	eor.w	r1, r1, ip
    9424:	f001 01ff 	and.w	r1, r1, #255	; 0xff
    9428:	f04f 0c00 	mov.w	ip, #0
    942c:	ea4f 2101 	mov.w	r1, r1, lsl #8
    9430:	ea80 0401 	eor.w	r4, r0, r1
    9434:	f04f 0000 	mov.w	r0, #0
    9438:	f04f 0100 	mov.w	r1, #0
    943c:	ea84 040e 	eor.w	r4, r4, lr
    9440:	f004 00ff 	and.w	r0, r4, #255	; 0xff
    9444:	ea4f 2114 	mov.w	r1, r4, lsr #8
    9448:	f000 0cc0 	and.w	ip, r0, #192	; 0xc0
    944c:	ea4f 1c9c 	mov.w	ip, ip, lsr #6
    9450:	f000 003f 	and.w	r0, r0, #63	; 0x3f
    9454:	ea4f 0080 	mov.w	r0, r0, lsl #2
    9458:	ea80 000c 	eor.w	r0, r0, ip
    945c:	f000 00ff 	and.w	r0, r0, #255	; 0xff
    9460:	f04f 0c00 	mov.w	ip, #0
    9464:	f001 0cc0 	and.w	ip, r1, #192	; 0xc0
    9468:	ea4f 1c9c 	mov.w	ip, ip, lsr #6
    946c:	f001 013f 	and.w	r1, r1, #63	; 0x3f
    9470:	ea4f 0181 	mov.w	r1, r1, lsl #2
    9474:	ea81 010c 	eor.w	r1, r1, ip
    9478:	f001 01ff 	and.w	r1, r1, #255	; 0xff
    947c:	f04f 0c00 	mov.w	ip, #0
    9480:	ea4f 2101 	mov.w	r1, r1, lsl #8
    9484:	ea80 0401 	eor.w	r4, r0, r1
    9488:	f04f 0000 	mov.w	r0, #0
    948c:	f04f 0100 	mov.w	r1, #0
    9490:	ea09 0e07 	and.w	lr, r9, r7
    9494:	ea88 080e 	eor.w	r8, r8, lr
    9498:	f003 00ff 	and.w	r0, r3, #255	; 0xff
    949c:	ea4f 2113 	mov.w	r1, r3, lsr #8
    94a0:	f000 0c03 	and.w	ip, r0, #3
    94a4:	ea4f 1c8c 	mov.w	ip, ip, lsl #6
    94a8:	f000 00fc 	and.w	r0, r0, #252	; 0xfc
    94ac:	ea4f 0090 	mov.w	r0, r0, lsr #2
    94b0:	ea80 000c 	eor.w	r0, r0, ip
    94b4:	f000 00ff 	and.w	r0, r0, #255	; 0xff
    94b8:	f04f 0c00 	mov.w	ip, #0
    94bc:	f001 0c03 	and.w	ip, r1, #3
    94c0:	ea4f 1c8c 	mov.w	ip, ip, lsl #6
    94c4:	f001 01fc 	and.w	r1, r1, #252	; 0xfc
    94c8:	ea4f 0191 	mov.w	r1, r1, lsr #2
    94cc:	ea81 010c 	eor.w	r1, r1, ip
    94d0:	f001 01ff 	and.w	r1, r1, #255	; 0xff
    94d4:	f04f 0c00 	mov.w	ip, #0
    94d8:	ea4f 2101 	mov.w	r1, r1, lsl #8
    94dc:	ea80 0301 	eor.w	r3, r0, r1
    94e0:	f04f 0000 	mov.w	r0, #0
    94e4:	f04f 0100 	mov.w	r1, #0
    94e8:	f009 00ff 	and.w	r0, r9, #255	; 0xff
    94ec:	ea4f 2119 	mov.w	r1, r9, lsr #8
    94f0:	f000 0c01 	and.w	ip, r0, #1
    94f4:	ea4f 1ccc 	mov.w	ip, ip, lsl #7
    94f8:	f000 00fe 	and.w	r0, r0, #254	; 0xfe
    94fc:	ea4f 0050 	mov.w	r0, r0, lsr #1
    9500:	ea80 000c 	eor.w	r0, r0, ip
    9504:	f000 00ff 	and.w	r0, r0, #255	; 0xff
    9508:	f04f 0c00 	mov.w	ip, #0
    950c:	f001 0c01 	and.w	ip, r1, #1
    9510:	ea4f 1ccc 	mov.w	ip, ip, lsl #7
    9514:	f001 01fe 	and.w	r1, r1, #254	; 0xfe
    9518:	ea4f 0151 	mov.w	r1, r1, lsr #1
    951c:	ea81 010c 	eor.w	r1, r1, ip
    9520:	f001 01ff 	and.w	r1, r1, #255	; 0xff
    9524:	f04f 0c00 	mov.w	ip, #0
    9528:	ea4f 2101 	mov.w	r1, r1, lsl #8
    952c:	ea80 0901 	eor.w	r9, r0, r1
    9530:	f04f 0000 	mov.w	r0, #0
    9534:	f04f 0100 	mov.w	r1, #0
    9538:	ea03 0e09 	and.w	lr, r3, r9
    953c:	f003 00ff 	and.w	r0, r3, #255	; 0xff
    9540:	ea4f 2113 	mov.w	r1, r3, lsr #8
    9544:	f000 0cc0 	and.w	ip, r0, #192	; 0xc0
    9548:	ea4f 1c9c 	mov.w	ip, ip, lsr #6
    954c:	f000 003f 	and.w	r0, r0, #63	; 0x3f
    9550:	ea4f 0080 	mov.w	r0, r0, lsl #2
    9554:	ea80 000c 	eor.w	r0, r0, ip
    9558:	f000 00ff 	and.w	r0, r0, #255	; 0xff
    955c:	f04f 0c00 	mov.w	ip, #0
    9560:	f001 0cc0 	and.w	ip, r1, #192	; 0xc0
    9564:	ea4f 1c9c 	mov.w	ip, ip, lsr #6
    9568:	f001 013f 	and.w	r1, r1, #63	; 0x3f
    956c:	ea4f 0181 	mov.w	r1, r1, lsl #2
    9570:	ea81 010c 	eor.w	r1, r1, ip
    9574:	f001 01ff 	and.w	r1, r1, #255	; 0xff
    9578:	f04f 0c00 	mov.w	ip, #0
    957c:	ea4f 2101 	mov.w	r1, r1, lsl #8
    9580:	ea80 0301 	eor.w	r3, r0, r1
    9584:	f04f 0000 	mov.w	r0, #0
    9588:	f04f 0100 	mov.w	r1, #0
    958c:	f009 00ff 	and.w	r0, r9, #255	; 0xff
    9590:	ea4f 2119 	mov.w	r1, r9, lsr #8
    9594:	f000 0c80 	and.w	ip, r0, #128	; 0x80
    9598:	ea4f 1cdc 	mov.w	ip, ip, lsr #7
    959c:	f000 007f 	and.w	r0, r0, #127	; 0x7f
    95a0:	ea4f 0040 	mov.w	r0, r0, lsl #1
    95a4:	ea80 000c 	eor.w	r0, r0, ip
    95a8:	f000 00ff 	and.w	r0, r0, #255	; 0xff
    95ac:	f04f 0c00 	mov.w	ip, #0
    95b0:	f001 0c80 	and.w	ip, r1, #128	; 0x80
    95b4:	ea4f 1cdc 	mov.w	ip, ip, lsr #7
    95b8:	f001 017f 	and.w	r1, r1, #127	; 0x7f
    95bc:	ea4f 0141 	mov.w	r1, r1, lsl #1
    95c0:	ea81 010c 	eor.w	r1, r1, ip
    95c4:	f001 01ff 	and.w	r1, r1, #255	; 0xff
    95c8:	f04f 0c00 	mov.w	ip, #0
    95cc:	ea4f 2101 	mov.w	r1, r1, lsl #8
    95d0:	ea80 0901 	eor.w	r9, r0, r1
    95d4:	f04f 0000 	mov.w	r0, #0
    95d8:	f04f 0100 	mov.w	r1, #0
    95dc:	f008 00ff 	and.w	r0, r8, #255	; 0xff
    95e0:	ea4f 2118 	mov.w	r1, r8, lsr #8
    95e4:	f000 0c01 	and.w	ip, r0, #1
    95e8:	ea4f 1ccc 	mov.w	ip, ip, lsl #7
    95ec:	f000 00fe 	and.w	r0, r0, #254	; 0xfe
    95f0:	ea4f 0050 	mov.w	r0, r0, lsr #1
    95f4:	ea80 000c 	eor.w	r0, r0, ip
    95f8:	f000 00ff 	and.w	r0, r0, #255	; 0xff
    95fc:	f04f 0c00 	mov.w	ip, #0
    9600:	f001 0c01 	and.w	ip, r1, #1
    9604:	ea4f 1ccc 	mov.w	ip, ip, lsl #7
    9608:	f001 01fe 	and.w	r1, r1, #254	; 0xfe
    960c:	ea4f 0151 	mov.w	r1, r1, lsr #1
    9610:	ea81 010c 	eor.w	r1, r1, ip
    9614:	f001 01ff 	and.w	r1, r1, #255	; 0xff
    9618:	f04f 0c00 	mov.w	ip, #0
    961c:	ea4f 2101 	mov.w	r1, r1, lsl #8
    9620:	ea80 0801 	eor.w	r8, r0, r1
    9624:	f04f 0000 	mov.w	r0, #0
    9628:	f04f 0100 	mov.w	r1, #0
    962c:	ea88 080e 	eor.w	r8, r8, lr
    9630:	f008 00ff 	and.w	r0, r8, #255	; 0xff
    9634:	ea4f 2118 	mov.w	r1, r8, lsr #8
    9638:	f000 0c80 	and.w	ip, r0, #128	; 0x80
    963c:	ea4f 1cdc 	mov.w	ip, ip, lsr #7
    9640:	f000 007f 	and.w	r0, r0, #127	; 0x7f
    9644:	ea4f 0040 	mov.w	r0, r0, lsl #1
    9648:	ea80 000c 	eor.w	r0, r0, ip
    964c:	f000 00ff 	and.w	r0, r0, #255	; 0xff
    9650:	f04f 0c00 	mov.w	ip, #0
    9654:	f001 0c80 	and.w	ip, r1, #128	; 0x80
    9658:	ea4f 1cdc 	mov.w	ip, ip, lsr #7
    965c:	f001 017f 	and.w	r1, r1, #127	; 0x7f
    9660:	ea4f 0141 	mov.w	r1, r1, lsl #1
    9664:	ea81 010c 	eor.w	r1, r1, ip
    9668:	f001 01ff 	and.w	r1, r1, #255	; 0xff
    966c:	f04f 0c00 	mov.w	ip, #0
    9670:	ea4f 2101 	mov.w	r1, r1, lsl #8
    9674:	ea80 0801 	eor.w	r8, r0, r1
    9678:	f04f 0000 	mov.w	r0, #0
    967c:	f04f 0100 	mov.w	r1, #0
    9680:	ea05 0e04 	and.w	lr, r5, r4
    9684:	ea83 030e 	eor.w	r3, r3, lr
    9688:	f005 00ff 	and.w	r0, r5, #255	; 0xff
    968c:	ea4f 2115 	mov.w	r1, r5, lsr #8
    9690:	f000 0c03 	and.w	ip, r0, #3
    9694:	ea4f 1c8c 	mov.w	ip, ip, lsl #6
    9698:	f000 00fc 	and.w	r0, r0, #252	; 0xfc
    969c:	ea4f 0090 	mov.w	r0, r0, lsr #2
    96a0:	ea80 000c 	eor.w	r0, r0, ip
    96a4:	f000 00ff 	and.w	r0, r0, #255	; 0xff
    96a8:	f04f 0c00 	mov.w	ip, #0
    96ac:	f001 0c03 	and.w	ip, r1, #3
    96b0:	ea4f 1c8c 	mov.w	ip, ip, lsl #6
    96b4:	f001 01fc 	and.w	r1, r1, #252	; 0xfc
    96b8:	ea4f 0191 	mov.w	r1, r1, lsr #2
    96bc:	ea81 010c 	eor.w	r1, r1, ip
    96c0:	f001 01ff 	and.w	r1, r1, #255	; 0xff
    96c4:	f04f 0c00 	mov.w	ip, #0
    96c8:	ea4f 2101 	mov.w	r1, r1, lsl #8
    96cc:	ea80 0501 	eor.w	r5, r0, r1
    96d0:	f04f 0000 	mov.w	r0, #0
    96d4:	f04f 0100 	mov.w	r1, #0
    96d8:	f008 00ff 	and.w	r0, r8, #255	; 0xff
    96dc:	ea4f 2118 	mov.w	r1, r8, lsr #8
    96e0:	f000 0c01 	and.w	ip, r0, #1
    96e4:	ea4f 1ccc 	mov.w	ip, ip, lsl #7
    96e8:	f000 00fe 	and.w	r0, r0, #254	; 0xfe
    96ec:	ea4f 0050 	mov.w	r0, r0, lsr #1
    96f0:	ea80 000c 	eor.w	r0, r0, ip
    96f4:	f000 00ff 	and.w	r0, r0, #255	; 0xff
    96f8:	f04f 0c00 	mov.w	ip, #0
    96fc:	f001 0c01 	and.w	ip, r1, #1
    9700:	ea4f 1ccc 	mov.w	ip, ip, lsl #7
    9704:	f001 01fe 	and.w	r1, r1, #254	; 0xfe
    9708:	ea4f 0151 	mov.w	r1, r1, lsr #1
    970c:	ea81 010c 	eor.w	r1, r1, ip
    9710:	f001 01ff 	and.w	r1, r1, #255	; 0xff
    9714:	f04f 0c00 	mov.w	ip, #0
    9718:	ea4f 2101 	mov.w	r1, r1, lsl #8
    971c:	ea80 0801 	eor.w	r8, r0, r1
    9720:	f04f 0000 	mov.w	r0, #0
    9724:	f04f 0100 	mov.w	r1, #0
    9728:	ea05 0e08 	and.w	lr, r5, r8
    972c:	f005 00ff 	and.w	r0, r5, #255	; 0xff
    9730:	ea4f 2115 	mov.w	r1, r5, lsr #8
    9734:	f000 0cc0 	and.w	ip, r0, #192	; 0xc0
    9738:	ea4f 1c9c 	mov.w	ip, ip, lsr #6
    973c:	f000 003f 	and.w	r0, r0, #63	; 0x3f
    9740:	ea4f 0080 	mov.w	r0, r0, lsl #2
    9744:	ea80 000c 	eor.w	r0, r0, ip
    9748:	f000 00ff 	and.w	r0, r0, #255	; 0xff
    974c:	f04f 0c00 	mov.w	ip, #0
    9750:	f001 0cc0 	and.w	ip, r1, #192	; 0xc0
    9754:	ea4f 1c9c 	mov.w	ip, ip, lsr #6
    9758:	f001 013f 	and.w	r1, r1, #63	; 0x3f
    975c:	ea4f 0181 	mov.w	r1, r1, lsl #2
    9760:	ea81 010c 	eor.w	r1, r1, ip
    9764:	f001 01ff 	and.w	r1, r1, #255	; 0xff
    9768:	f04f 0c00 	mov.w	ip, #0
    976c:	ea4f 2101 	mov.w	r1, r1, lsl #8
    9770:	ea80 0501 	eor.w	r5, r0, r1
    9774:	f04f 0000 	mov.w	r0, #0
    9778:	f04f 0100 	mov.w	r1, #0
    977c:	f008 00ff 	and.w	r0, r8, #255	; 0xff
    9780:	ea4f 2118 	mov.w	r1, r8, lsr #8
    9784:	f000 0c80 	and.w	ip, r0, #128	; 0x80
    9788:	ea4f 1cdc 	mov.w	ip, ip, lsr #7
    978c:	f000 007f 	and.w	r0, r0, #127	; 0x7f
    9790:	ea4f 0040 	mov.w	r0, r0, lsl #1
    9794:	ea80 000c 	eor.w	r0, r0, ip
    9798:	f000 00ff 	and.w	r0, r0, #255	; 0xff
    979c:	f04f 0c00 	mov.w	ip, #0
    97a0:	f001 0c80 	and.w	ip, r1, #128	; 0x80
    97a4:	ea4f 1cdc 	mov.w	ip, ip, lsr #7
    97a8:	f001 017f 	and.w	r1, r1, #127	; 0x7f
    97ac:	ea4f 0141 	mov.w	r1, r1, lsl #1
    97b0:	ea81 010c 	eor.w	r1, r1, ip
    97b4:	f001 01ff 	and.w	r1, r1, #255	; 0xff
    97b8:	f04f 0c00 	mov.w	ip, #0
    97bc:	ea4f 2101 	mov.w	r1, r1, lsl #8
    97c0:	ea80 0801 	eor.w	r8, r0, r1
    97c4:	f04f 0000 	mov.w	r0, #0
    97c8:	f04f 0100 	mov.w	r1, #0
    97cc:	f003 00ff 	and.w	r0, r3, #255	; 0xff
    97d0:	ea4f 2113 	mov.w	r1, r3, lsr #8
    97d4:	f000 0c03 	and.w	ip, r0, #3
    97d8:	ea4f 1c8c 	mov.w	ip, ip, lsl #6
    97dc:	f000 00fc 	and.w	r0, r0, #252	; 0xfc
    97e0:	ea4f 0090 	mov.w	r0, r0, lsr #2
    97e4:	ea80 000c 	eor.w	r0, r0, ip
    97e8:	f000 00ff 	and.w	r0, r0, #255	; 0xff
    97ec:	f04f 0c00 	mov.w	ip, #0
    97f0:	f001 0c03 	and.w	ip, r1, #3
    97f4:	ea4f 1c8c 	mov.w	ip, ip, lsl #6
    97f8:	f001 01fc 	and.w	r1, r1, #252	; 0xfc
    97fc:	ea4f 0191 	mov.w	r1, r1, lsr #2
    9800:	ea81 010c 	eor.w	r1, r1, ip
    9804:	f001 01ff 	and.w	r1, r1, #255	; 0xff
    9808:	f04f 0c00 	mov.w	ip, #0
    980c:	ea4f 2101 	mov.w	r1, r1, lsl #8
    9810:	ea80 0301 	eor.w	r3, r0, r1
    9814:	f04f 0000 	mov.w	r0, #0
    9818:	f04f 0100 	mov.w	r1, #0
    981c:	ea83 030e 	eor.w	r3, r3, lr
    9820:	f003 00ff 	and.w	r0, r3, #255	; 0xff
    9824:	ea4f 2113 	mov.w	r1, r3, lsr #8
    9828:	f000 0cc0 	and.w	ip, r0, #192	; 0xc0
    982c:	ea4f 1c9c 	mov.w	ip, ip, lsr #6
    9830:	f000 003f 	and.w	r0, r0, #63	; 0x3f
    9834:	ea4f 0080 	mov.w	r0, r0, lsl #2
    9838:	ea80 000c 	eor.w	r0, r0, ip
    983c:	f000 00ff 	and.w	r0, r0, #255	; 0xff
    9840:	f04f 0c00 	mov.w	ip, #0
    9844:	f001 0cc0 	and.w	ip, r1, #192	; 0xc0
    9848:	ea4f 1c9c 	mov.w	ip, ip, lsr #6
    984c:	f001 013f 	and.w	r1, r1, #63	; 0x3f
    9850:	ea4f 0181 	mov.w	r1, r1, lsl #2
    9854:	ea81 010c 	eor.w	r1, r1, ip
    9858:	f001 01ff 	and.w	r1, r1, #255	; 0xff
    985c:	f04f 0c00 	mov.w	ip, #0
    9860:	ea4f 2101 	mov.w	r1, r1, lsl #8
    9864:	ea80 0301 	eor.w	r3, r0, r1
    9868:	f04f 0000 	mov.w	r0, #0
    986c:	f04f 0100 	mov.w	r1, #0
    9870:	ea09 0e08 	and.w	lr, r9, r8
    9874:	ea87 070e 	eor.w	r7, r7, lr
    9878:	f004 00ff 	and.w	r0, r4, #255	; 0xff
    987c:	ea4f 2114 	mov.w	r1, r4, lsr #8
    9880:	f000 0c03 	and.w	ip, r0, #3
    9884:	ea4f 1c8c 	mov.w	ip, ip, lsl #6
    9888:	f000 00fc 	and.w	r0, r0, #252	; 0xfc
    988c:	ea4f 0090 	mov.w	r0, r0, lsr #2
    9890:	ea80 000c 	eor.w	r0, r0, ip
    9894:	f000 00ff 	and.w	r0, r0, #255	; 0xff
    9898:	f04f 0c00 	mov.w	ip, #0
    989c:	f001 0c03 	and.w	ip, r1, #3
    98a0:	ea4f 1c8c 	mov.w	ip, ip, lsl #6
    98a4:	f001 01fc 	and.w	r1, r1, #252	; 0xfc
    98a8:	ea4f 0191 	mov.w	r1, r1, lsr #2
    98ac:	ea81 010c 	eor.w	r1, r1, ip
    98b0:	f001 01ff 	and.w	r1, r1, #255	; 0xff
    98b4:	f04f 0c00 	mov.w	ip, #0
    98b8:	ea4f 2101 	mov.w	r1, r1, lsl #8
    98bc:	ea80 0401 	eor.w	r4, r0, r1
    98c0:	f04f 0000 	mov.w	r0, #0
    98c4:	f04f 0100 	mov.w	r1, #0
    98c8:	f009 00ff 	and.w	r0, r9, #255	; 0xff
    98cc:	ea4f 2119 	mov.w	r1, r9, lsr #8
    98d0:	f000 0c01 	and.w	ip, r0, #1
    98d4:	ea4f 1ccc 	mov.w	ip, ip, lsl #7
    98d8:	f000 00fe 	and.w	r0, r0, #254	; 0xfe
    98dc:	ea4f 0050 	mov.w	r0, r0, lsr #1
    98e0:	ea80 000c 	eor.w	r0, r0, ip
    98e4:	f000 00ff 	and.w	r0, r0, #255	; 0xff
    98e8:	f04f 0c00 	mov.w	ip, #0
    98ec:	f001 0c01 	and.w	ip, r1, #1
    98f0:	ea4f 1ccc 	mov.w	ip, ip, lsl #7
    98f4:	f001 01fe 	and.w	r1, r1, #254	; 0xfe
    98f8:	ea4f 0151 	mov.w	r1, r1, lsr #1
    98fc:	ea81 010c 	eor.w	r1, r1, ip
    9900:	f001 01ff 	and.w	r1, r1, #255	; 0xff
    9904:	f04f 0c00 	mov.w	ip, #0
    9908:	ea4f 2101 	mov.w	r1, r1, lsl #8
    990c:	ea80 0901 	eor.w	r9, r0, r1
    9910:	f04f 0000 	mov.w	r0, #0
    9914:	f04f 0100 	mov.w	r1, #0
    9918:	ea04 0e09 	and.w	lr, r4, r9
    991c:	f004 00ff 	and.w	r0, r4, #255	; 0xff
    9920:	ea4f 2114 	mov.w	r1, r4, lsr #8
    9924:	f000 0cc0 	and.w	ip, r0, #192	; 0xc0
    9928:	ea4f 1c9c 	mov.w	ip, ip, lsr #6
    992c:	f000 003f 	and.w	r0, r0, #63	; 0x3f
    9930:	ea4f 0080 	mov.w	r0, r0, lsl #2
    9934:	ea80 000c 	eor.w	r0, r0, ip
    9938:	f000 00ff 	and.w	r0, r0, #255	; 0xff
    993c:	f04f 0c00 	mov.w	ip, #0
    9940:	f001 0cc0 	and.w	ip, r1, #192	; 0xc0
    9944:	ea4f 1c9c 	mov.w	ip, ip, lsr #6
    9948:	f001 013f 	and.w	r1, r1, #63	; 0x3f
    994c:	ea4f 0181 	mov.w	r1, r1, lsl #2
    9950:	ea81 010c 	eor.w	r1, r1, ip
    9954:	f001 01ff 	and.w	r1, r1, #255	; 0xff
    9958:	f04f 0c00 	mov.w	ip, #0
    995c:	ea4f 2101 	mov.w	r1, r1, lsl #8
    9960:	ea80 0401 	eor.w	r4, r0, r1
    9964:	f04f 0000 	mov.w	r0, #0
    9968:	f04f 0100 	mov.w	r1, #0
    996c:	f009 00ff 	and.w	r0, r9, #255	; 0xff
    9970:	ea4f 2119 	mov.w	r1, r9, lsr #8
    9974:	f000 0c80 	and.w	ip, r0, #128	; 0x80
    9978:	ea4f 1cdc 	mov.w	ip, ip, lsr #7
    997c:	f000 007f 	and.w	r0, r0, #127	; 0x7f
    9980:	ea4f 0040 	mov.w	r0, r0, lsl #1
    9984:	ea80 000c 	eor.w	r0, r0, ip
    9988:	f000 00ff 	and.w	r0, r0, #255	; 0xff
    998c:	f04f 0c00 	mov.w	ip, #0
    9990:	f001 0c80 	and.w	ip, r1, #128	; 0x80
    9994:	ea4f 1cdc 	mov.w	ip, ip, lsr #7
    9998:	f001 017f 	and.w	r1, r1, #127	; 0x7f
    999c:	ea4f 0141 	mov.w	r1, r1, lsl #1
    99a0:	ea81 010c 	eor.w	r1, r1, ip
    99a4:	f001 01ff 	and.w	r1, r1, #255	; 0xff
    99a8:	f04f 0c00 	mov.w	ip, #0
    99ac:	ea4f 2101 	mov.w	r1, r1, lsl #8
    99b0:	ea80 0901 	eor.w	r9, r0, r1
    99b4:	f04f 0000 	mov.w	r0, #0
    99b8:	f04f 0100 	mov.w	r1, #0
    99bc:	f007 00ff 	and.w	r0, r7, #255	; 0xff
    99c0:	ea4f 2117 	mov.w	r1, r7, lsr #8
    99c4:	f000 0c01 	and.w	ip, r0, #1
    99c8:	ea4f 1ccc 	mov.w	ip, ip, lsl #7
    99cc:	f000 00fe 	and.w	r0, r0, #254	; 0xfe
    99d0:	ea4f 0050 	mov.w	r0, r0, lsr #1
    99d4:	ea80 000c 	eor.w	r0, r0, ip
    99d8:	f000 00ff 	and.w	r0, r0, #255	; 0xff
    99dc:	f04f 0c00 	mov.w	ip, #0
    99e0:	f001 0c01 	and.w	ip, r1, #1
    99e4:	ea4f 1ccc 	mov.w	ip, ip, lsl #7
    99e8:	f001 01fe 	and.w	r1, r1, #254	; 0xfe
    99ec:	ea4f 0151 	mov.w	r1, r1, lsr #1
    99f0:	ea81 010c 	eor.w	r1, r1, ip
    99f4:	f001 01ff 	and.w	r1, r1, #255	; 0xff
    99f8:	f04f 0c00 	mov.w	ip, #0
    99fc:	ea4f 2101 	mov.w	r1, r1, lsl #8
    9a00:	ea80 0701 	eor.w	r7, r0, r1
    9a04:	f04f 0000 	mov.w	r0, #0
    9a08:	f04f 0100 	mov.w	r1, #0
    9a0c:	ea87 070e 	eor.w	r7, r7, lr
    9a10:	f007 00ff 	and.w	r0, r7, #255	; 0xff
    9a14:	ea4f 2117 	mov.w	r1, r7, lsr #8
    9a18:	f000 0c80 	and.w	ip, r0, #128	; 0x80
    9a1c:	ea4f 1cdc 	mov.w	ip, ip, lsr #7
    9a20:	f000 007f 	and.w	r0, r0, #127	; 0x7f
    9a24:	ea4f 0040 	mov.w	r0, r0, lsl #1
    9a28:	ea80 000c 	eor.w	r0, r0, ip
    9a2c:	f000 00ff 	and.w	r0, r0, #255	; 0xff
    9a30:	f04f 0c00 	mov.w	ip, #0
    9a34:	f001 0c80 	and.w	ip, r1, #128	; 0x80
    9a38:	ea4f 1cdc 	mov.w	ip, ip, lsr #7
    9a3c:	f001 017f 	and.w	r1, r1, #127	; 0x7f
    9a40:	ea4f 0141 	mov.w	r1, r1, lsl #1
    9a44:	ea81 010c 	eor.w	r1, r1, ip
    9a48:	f001 01ff 	and.w	r1, r1, #255	; 0xff
    9a4c:	f04f 0c00 	mov.w	ip, #0
    9a50:	ea4f 2101 	mov.w	r1, r1, lsl #8
    9a54:	ea80 0701 	eor.w	r7, r0, r1
    9a58:	f04f 0000 	mov.w	r0, #0
    9a5c:	f04f 0100 	mov.w	r1, #0
    9a60:	f7fe fb8e 	bl	8180 <App_a>
    9a64:	f7fe fba4 	bl	81b0 <App_b>
    9a68:	f04f 0a00 	mov.w	sl, #0
    9a6c:	f04f 0b00 	mov.w	fp, #0
    9a70:	9800      	ldr	r0, [sp, #0]
    9a72:	9901      	ldr	r1, [sp, #4]
    9a74:	f8c0 a000 	str.w	sl, [r0]
    9a78:	f8c0 a004 	str.w	sl, [r0, #4]
    9a7c:	f8c1 a000 	str.w	sl, [r1]
    9a80:	f8c1 a004 	str.w	sl, [r1, #4]
    9a84:	ea4f 2b12 	mov.w	fp, r2, lsr #8
    9a88:	f00b 0b01 	and.w	fp, fp, #1
    9a8c:	ea4f 7b0b 	mov.w	fp, fp, lsl #28
    9a90:	ea8a 0a0b 	eor.w	sl, sl, fp
    9a94:	ea4f 2b52 	mov.w	fp, r2, lsr #9
    9a98:	f00b 0b01 	and.w	fp, fp, #1
    9a9c:	ea4f 6b0b 	mov.w	fp, fp, lsl #24
    9aa0:	ea8a 0a0b 	eor.w	sl, sl, fp
    9aa4:	ea4f 2b92 	mov.w	fp, r2, lsr #10
    9aa8:	f00b 0b01 	and.w	fp, fp, #1
    9aac:	ea4f 5b0b 	mov.w	fp, fp, lsl #20
    9ab0:	ea8a 0a0b 	eor.w	sl, sl, fp
    9ab4:	ea4f 2bd2 	mov.w	fp, r2, lsr #11
    9ab8:	f00b 0b01 	and.w	fp, fp, #1
    9abc:	ea4f 4b0b 	mov.w	fp, fp, lsl #16
    9ac0:	ea8a 0a0b 	eor.w	sl, sl, fp
    9ac4:	ea4f 3b12 	mov.w	fp, r2, lsr #12
    9ac8:	f00b 0b01 	and.w	fp, fp, #1
    9acc:	ea4f 3b0b 	mov.w	fp, fp, lsl #12
    9ad0:	ea8a 0a0b 	eor.w	sl, sl, fp
    9ad4:	ea4f 3b52 	mov.w	fp, r2, lsr #13
    9ad8:	f00b 0b01 	and.w	fp, fp, #1
    9adc:	ea4f 2b0b 	mov.w	fp, fp, lsl #8
    9ae0:	ea8a 0a0b 	eor.w	sl, sl, fp
    9ae4:	ea4f 3b92 	mov.w	fp, r2, lsr #14
    9ae8:	f00b 0b01 	and.w	fp, fp, #1
    9aec:	ea4f 1b0b 	mov.w	fp, fp, lsl #4
    9af0:	ea8a 0a0b 	eor.w	sl, sl, fp
    9af4:	ea4f 3bd2 	mov.w	fp, r2, lsr #15
    9af8:	f00b 0b01 	and.w	fp, fp, #1
    9afc:	ea8a 0a0b 	eor.w	sl, sl, fp
    9b00:	ea4f 2b13 	mov.w	fp, r3, lsr #8
    9b04:	f00b 0b01 	and.w	fp, fp, #1
    9b08:	ea4f 7b4b 	mov.w	fp, fp, lsl #29
    9b0c:	ea8a 0a0b 	eor.w	sl, sl, fp
    9b10:	ea4f 2b53 	mov.w	fp, r3, lsr #9
    9b14:	f00b 0b01 	and.w	fp, fp, #1
    9b18:	ea4f 6b4b 	mov.w	fp, fp, lsl #25
    9b1c:	ea8a 0a0b 	eor.w	sl, sl, fp
    9b20:	ea4f 2b93 	mov.w	fp, r3, lsr #10
    9b24:	f00b 0b01 	and.w	fp, fp, #1
    9b28:	ea4f 5b4b 	mov.w	fp, fp, lsl #21
    9b2c:	ea8a 0a0b 	eor.w	sl, sl, fp
    9b30:	ea4f 2bd3 	mov.w	fp, r3, lsr #11
    9b34:	f00b 0b01 	and.w	fp, fp, #1
    9b38:	ea4f 4b4b 	mov.w	fp, fp, lsl #17
    9b3c:	ea8a 0a0b 	eor.w	sl, sl, fp
    9b40:	ea4f 3b13 	mov.w	fp, r3, lsr #12
    9b44:	f00b 0b01 	and.w	fp, fp, #1
    9b48:	ea4f 3b4b 	mov.w	fp, fp, lsl #13
    9b4c:	ea8a 0a0b 	eor.w	sl, sl, fp
    9b50:	ea4f 3b53 	mov.w	fp, r3, lsr #13
    9b54:	f00b 0b01 	and.w	fp, fp, #1
    9b58:	ea4f 2b4b 	mov.w	fp, fp, lsl #9
    9b5c:	ea8a 0a0b 	eor.w	sl, sl, fp
    9b60:	ea4f 3b93 	mov.w	fp, r3, lsr #14
    9b64:	f00b 0b01 	and.w	fp, fp, #1
    9b68:	ea4f 1b4b 	mov.w	fp, fp, lsl #5
    9b6c:	ea8a 0a0b 	eor.w	sl, sl, fp
    9b70:	ea4f 3bd3 	mov.w	fp, r3, lsr #15
    9b74:	f00b 0b01 	and.w	fp, fp, #1
    9b78:	ea4f 0b4b 	mov.w	fp, fp, lsl #1
    9b7c:	ea8a 0a0b 	eor.w	sl, sl, fp
    9b80:	ea4f 2b14 	mov.w	fp, r4, lsr #8
    9b84:	f00b 0b01 	and.w	fp, fp, #1
    9b88:	ea4f 7b8b 	mov.w	fp, fp, lsl #30
    9b8c:	ea8a 0a0b 	eor.w	sl, sl, fp
    9b90:	ea4f 2b54 	mov.w	fp, r4, lsr #9
    9b94:	f00b 0b01 	and.w	fp, fp, #1
    9b98:	ea4f 6b8b 	mov.w	fp, fp, lsl #26
    9b9c:	ea8a 0a0b 	eor.w	sl, sl, fp
    9ba0:	ea4f 2b94 	mov.w	fp, r4, lsr #10
    9ba4:	f00b 0b01 	and.w	fp, fp, #1
    9ba8:	ea4f 5b8b 	mov.w	fp, fp, lsl #22
    9bac:	ea8a 0a0b 	eor.w	sl, sl, fp
    9bb0:	ea4f 2bd4 	mov.w	fp, r4, lsr #11
    9bb4:	f00b 0b01 	and.w	fp, fp, #1
    9bb8:	ea4f 4b8b 	mov.w	fp, fp, lsl #18
    9bbc:	ea8a 0a0b 	eor.w	sl, sl, fp
    9bc0:	ea4f 3b14 	mov.w	fp, r4, lsr #12
    9bc4:	f00b 0b01 	and.w	fp, fp, #1
    9bc8:	ea4f 3b8b 	mov.w	fp, fp, lsl #14
    9bcc:	ea8a 0a0b 	eor.w	sl, sl, fp
    9bd0:	ea4f 3b54 	mov.w	fp, r4, lsr #13
    9bd4:	f00b 0b01 	and.w	fp, fp, #1
    9bd8:	ea4f 2b8b 	mov.w	fp, fp, lsl #10
    9bdc:	ea8a 0a0b 	eor.w	sl, sl, fp
    9be0:	ea4f 3b94 	mov.w	fp, r4, lsr #14
    9be4:	f00b 0b01 	and.w	fp, fp, #1
    9be8:	ea4f 1b8b 	mov.w	fp, fp, lsl #6
    9bec:	ea8a 0a0b 	eor.w	sl, sl, fp
    9bf0:	ea4f 3bd4 	mov.w	fp, r4, lsr #15
    9bf4:	f00b 0b01 	and.w	fp, fp, #1
    9bf8:	ea4f 0b8b 	mov.w	fp, fp, lsl #2
    9bfc:	ea8a 0a0b 	eor.w	sl, sl, fp
    9c00:	ea4f 2b15 	mov.w	fp, r5, lsr #8
    9c04:	f00b 0b01 	and.w	fp, fp, #1
    9c08:	ea4f 7bcb 	mov.w	fp, fp, lsl #31
    9c0c:	ea8a 0a0b 	eor.w	sl, sl, fp
    9c10:	ea4f 2b55 	mov.w	fp, r5, lsr #9
    9c14:	f00b 0b01 	and.w	fp, fp, #1
    9c18:	ea4f 6bcb 	mov.w	fp, fp, lsl #27
    9c1c:	ea8a 0a0b 	eor.w	sl, sl, fp
    9c20:	ea4f 2b95 	mov.w	fp, r5, lsr #10
    9c24:	f00b 0b01 	and.w	fp, fp, #1
    9c28:	ea4f 5bcb 	mov.w	fp, fp, lsl #23
    9c2c:	ea8a 0a0b 	eor.w	sl, sl, fp
    9c30:	ea4f 2bd5 	mov.w	fp, r5, lsr #11
    9c34:	f00b 0b01 	and.w	fp, fp, #1
    9c38:	ea4f 4bcb 	mov.w	fp, fp, lsl #19
    9c3c:	ea8a 0a0b 	eor.w	sl, sl, fp
    9c40:	ea4f 3b15 	mov.w	fp, r5, lsr #12
    9c44:	f00b 0b01 	and.w	fp, fp, #1
    9c48:	ea4f 3bcb 	mov.w	fp, fp, lsl #15
    9c4c:	ea8a 0a0b 	eor.w	sl, sl, fp
    9c50:	ea4f 3b55 	mov.w	fp, r5, lsr #13
    9c54:	f00b 0b01 	and.w	fp, fp, #1
    9c58:	ea4f 2bcb 	mov.w	fp, fp, lsl #11
    9c5c:	ea8a 0a0b 	eor.w	sl, sl, fp
    9c60:	ea4f 3b95 	mov.w	fp, r5, lsr #14
    9c64:	f00b 0b01 	and.w	fp, fp, #1
    9c68:	ea4f 1bcb 	mov.w	fp, fp, lsl #7
    9c6c:	ea8a 0a0b 	eor.w	sl, sl, fp
    9c70:	ea4f 3bd5 	mov.w	fp, r5, lsr #15
    9c74:	f00b 0b01 	and.w	fp, fp, #1
    9c78:	ea4f 0bcb 	mov.w	fp, fp, lsl #3
    9c7c:	ea8a 0a0b 	eor.w	sl, sl, fp
    9c80:	f04f 0c00 	mov.w	ip, #0
    9c84:	ea4f 0b02 	mov.w	fp, r2
    9c88:	f00b 0b01 	and.w	fp, fp, #1
    9c8c:	ea4f 7b0b 	mov.w	fp, fp, lsl #28
    9c90:	ea8c 0c0b 	eor.w	ip, ip, fp
    9c94:	ea4f 0b52 	mov.w	fp, r2, lsr #1
    9c98:	f00b 0b01 	and.w	fp, fp, #1
    9c9c:	ea4f 6b0b 	mov.w	fp, fp, lsl #24
    9ca0:	ea8c 0c0b 	eor.w	ip, ip, fp
    9ca4:	ea4f 0b92 	mov.w	fp, r2, lsr #2
    9ca8:	f00b 0b01 	and.w	fp, fp, #1
    9cac:	ea4f 5b0b 	mov.w	fp, fp, lsl #20
    9cb0:	ea8c 0c0b 	eor.w	ip, ip, fp
    9cb4:	ea4f 0bd2 	mov.w	fp, r2, lsr #3
    9cb8:	f00b 0b01 	and.w	fp, fp, #1
    9cbc:	ea4f 4b0b 	mov.w	fp, fp, lsl #16
    9cc0:	ea8c 0c0b 	eor.w	ip, ip, fp
    9cc4:	ea4f 1b12 	mov.w	fp, r2, lsr #4
    9cc8:	f00b 0b01 	and.w	fp, fp, #1
    9ccc:	ea4f 3b0b 	mov.w	fp, fp, lsl #12
    9cd0:	ea8c 0c0b 	eor.w	ip, ip, fp
    9cd4:	ea4f 1b52 	mov.w	fp, r2, lsr #5
    9cd8:	f00b 0b01 	and.w	fp, fp, #1
    9cdc:	ea4f 2b0b 	mov.w	fp, fp, lsl #8
    9ce0:	ea8c 0c0b 	eor.w	ip, ip, fp
    9ce4:	ea4f 1b92 	mov.w	fp, r2, lsr #6
    9ce8:	f00b 0b01 	and.w	fp, fp, #1
    9cec:	ea4f 1b0b 	mov.w	fp, fp, lsl #4
    9cf0:	ea8c 0c0b 	eor.w	ip, ip, fp
    9cf4:	ea4f 1bd2 	mov.w	fp, r2, lsr #7
    9cf8:	f00b 0b01 	and.w	fp, fp, #1
    9cfc:	ea8c 0c0b 	eor.w	ip, ip, fp
    9d00:	ea4f 0b03 	mov.w	fp, r3
    9d04:	f00b 0b01 	and.w	fp, fp, #1
    9d08:	ea4f 7b4b 	mov.w	fp, fp, lsl #29
    9d0c:	ea8c 0c0b 	eor.w	ip, ip, fp
    9d10:	ea4f 0b53 	mov.w	fp, r3, lsr #1
    9d14:	f00b 0b01 	and.w	fp, fp, #1
    9d18:	ea4f 6b4b 	mov.w	fp, fp, lsl #25
    9d1c:	ea8c 0c0b 	eor.w	ip, ip, fp
    9d20:	ea4f 0b93 	mov.w	fp, r3, lsr #2
    9d24:	f00b 0b01 	and.w	fp, fp, #1
    9d28:	ea4f 5b4b 	mov.w	fp, fp, lsl #21
    9d2c:	ea8c 0c0b 	eor.w	ip, ip, fp
    9d30:	ea4f 0bd3 	mov.w	fp, r3, lsr #3
    9d34:	f00b 0b01 	and.w	fp, fp, #1
    9d38:	ea4f 4b4b 	mov.w	fp, fp, lsl #17
    9d3c:	ea8c 0c0b 	eor.w	ip, ip, fp
    9d40:	ea4f 1b13 	mov.w	fp, r3, lsr #4
    9d44:	f00b 0b01 	and.w	fp, fp, #1
    9d48:	ea4f 3b4b 	mov.w	fp, fp, lsl #13
    9d4c:	ea8c 0c0b 	eor.w	ip, ip, fp
    9d50:	ea4f 1b53 	mov.w	fp, r3, lsr #5
    9d54:	f00b 0b01 	and.w	fp, fp, #1
    9d58:	ea4f 2b4b 	mov.w	fp, fp, lsl #9
    9d5c:	ea8c 0c0b 	eor.w	ip, ip, fp
    9d60:	ea4f 1b93 	mov.w	fp, r3, lsr #6
    9d64:	f00b 0b01 	and.w	fp, fp, #1
    9d68:	ea4f 1b4b 	mov.w	fp, fp, lsl #5
    9d6c:	ea8c 0c0b 	eor.w	ip, ip, fp
    9d70:	ea4f 1bd3 	mov.w	fp, r3, lsr #7
    9d74:	f00b 0b01 	and.w	fp, fp, #1
    9d78:	ea4f 0b4b 	mov.w	fp, fp, lsl #1
    9d7c:	ea8c 0c0b 	eor.w	ip, ip, fp
    9d80:	ea4f 0b04 	mov.w	fp, r4
    9d84:	f00b 0b01 	and.w	fp, fp, #1
    9d88:	ea4f 7b8b 	mov.w	fp, fp, lsl #30
    9d8c:	ea8c 0c0b 	eor.w	ip, ip, fp
    9d90:	ea4f 0b54 	mov.w	fp, r4, lsr #1
    9d94:	f00b 0b01 	and.w	fp, fp, #1
    9d98:	ea4f 6b8b 	mov.w	fp, fp, lsl #26
    9d9c:	ea8c 0c0b 	eor.w	ip, ip, fp
    9da0:	ea4f 0b94 	mov.w	fp, r4, lsr #2
    9da4:	f00b 0b01 	and.w	fp, fp, #1
    9da8:	ea4f 5b8b 	mov.w	fp, fp, lsl #22
    9dac:	ea8c 0c0b 	eor.w	ip, ip, fp
    9db0:	ea4f 0bd4 	mov.w	fp, r4, lsr #3
    9db4:	f00b 0b01 	and.w	fp, fp, #1
    9db8:	ea4f 4b8b 	mov.w	fp, fp, lsl #18
    9dbc:	ea8c 0c0b 	eor.w	ip, ip, fp
    9dc0:	ea4f 1b14 	mov.w	fp, r4, lsr #4
    9dc4:	f00b 0b01 	and.w	fp, fp, #1
    9dc8:	ea4f 3b8b 	mov.w	fp, fp, lsl #14
    9dcc:	ea8c 0c0b 	eor.w	ip, ip, fp
    9dd0:	ea4f 1b54 	mov.w	fp, r4, lsr #5
    9dd4:	f00b 0b01 	and.w	fp, fp, #1
    9dd8:	ea4f 2b8b 	mov.w	fp, fp, lsl #10
    9ddc:	ea8c 0c0b 	eor.w	ip, ip, fp
    9de0:	ea4f 1b94 	mov.w	fp, r4, lsr #6
    9de4:	f00b 0b01 	and.w	fp, fp, #1
    9de8:	ea4f 1b8b 	mov.w	fp, fp, lsl #6
    9dec:	ea8c 0c0b 	eor.w	ip, ip, fp
    9df0:	ea4f 1bd4 	mov.w	fp, r4, lsr #7
    9df4:	f00b 0b01 	and.w	fp, fp, #1
    9df8:	ea4f 0b8b 	mov.w	fp, fp, lsl #2
    9dfc:	ea8c 0c0b 	eor.w	ip, ip, fp
    9e00:	ea4f 0b05 	mov.w	fp, r5
    9e04:	f00b 0b01 	and.w	fp, fp, #1
    9e08:	ea4f 7bcb 	mov.w	fp, fp, lsl #31
    9e0c:	ea8c 0c0b 	eor.w	ip, ip, fp
    9e10:	ea4f 0b55 	mov.w	fp, r5, lsr #1
    9e14:	f00b 0b01 	and.w	fp, fp, #1
    9e18:	ea4f 6bcb 	mov.w	fp, fp, lsl #27
    9e1c:	ea8c 0c0b 	eor.w	ip, ip, fp
    9e20:	ea4f 0b95 	mov.w	fp, r5, lsr #2
    9e24:	f00b 0b01 	and.w	fp, fp, #1
    9e28:	ea4f 5bcb 	mov.w	fp, fp, lsl #23
    9e2c:	ea8c 0c0b 	eor.w	ip, ip, fp
    9e30:	ea4f 0bd5 	mov.w	fp, r5, lsr #3
    9e34:	f00b 0b01 	and.w	fp, fp, #1
    9e38:	ea4f 4bcb 	mov.w	fp, fp, lsl #19
    9e3c:	ea8c 0c0b 	eor.w	ip, ip, fp
    9e40:	ea4f 1b15 	mov.w	fp, r5, lsr #4
    9e44:	f00b 0b01 	and.w	fp, fp, #1
    9e48:	ea4f 3bcb 	mov.w	fp, fp, lsl #15
    9e4c:	ea8c 0c0b 	eor.w	ip, ip, fp
    9e50:	ea4f 1b55 	mov.w	fp, r5, lsr #5
    9e54:	f00b 0b01 	and.w	fp, fp, #1
    9e58:	ea4f 2bcb 	mov.w	fp, fp, lsl #11
    9e5c:	ea8c 0c0b 	eor.w	ip, ip, fp
    9e60:	ea4f 1b95 	mov.w	fp, r5, lsr #6
    9e64:	f00b 0b01 	and.w	fp, fp, #1
    9e68:	ea4f 1bcb 	mov.w	fp, fp, lsl #7
    9e6c:	ea8c 0c0b 	eor.w	ip, ip, fp
    9e70:	ea4f 1bd5 	mov.w	fp, r5, lsr #7
    9e74:	f00b 0b01 	and.w	fp, fp, #1
    9e78:	ea4f 0bcb 	mov.w	fp, fp, lsl #3
    9e7c:	ea8c 0c0b 	eor.w	ip, ip, fp
    9e80:	f04f 0200 	mov.w	r2, #0
    9e84:	f04f 0300 	mov.w	r3, #0
    9e88:	f04f 0400 	mov.w	r4, #0
    9e8c:	f04f 0500 	mov.w	r5, #0
    9e90:	4662      	mov	r2, ip
    9e92:	4653      	mov	r3, sl
    9e94:	ea84 0a05 	eor.w	sl, r4, r5
    9e98:	ea84 0b05 	eor.w	fp, r4, r5
    9e9c:	ea84 0c05 	eor.w	ip, r4, r5
    9ea0:	f04f 0a00 	mov.w	sl, #0
    9ea4:	ea4f 2b16 	mov.w	fp, r6, lsr #8
    9ea8:	f00b 0b01 	and.w	fp, fp, #1
    9eac:	ea4f 5bcb 	mov.w	fp, fp, lsl #23
    9eb0:	ea8a 0a0b 	eor.w	sl, sl, fp
    9eb4:	ea4f 2b56 	mov.w	fp, r6, lsr #9
    9eb8:	f00b 0b01 	and.w	fp, fp, #1
    9ebc:	ea4f 4bcb 	mov.w	fp, fp, lsl #19
    9ec0:	ea8a 0a0b 	eor.w	sl, sl, fp
    9ec4:	ea4f 2b96 	mov.w	fp, r6, lsr #10
    9ec8:	f00b 0b01 	and.w	fp, fp, #1
    9ecc:	ea4f 3bcb 	mov.w	fp, fp, lsl #15
    9ed0:	ea8a 0a0b 	eor.w	sl, sl, fp
    9ed4:	ea4f 2bd6 	mov.w	fp, r6, lsr #11
    9ed8:	f00b 0b01 	and.w	fp, fp, #1
    9edc:	ea4f 2bcb 	mov.w	fp, fp, lsl #11
    9ee0:	ea8a 0a0b 	eor.w	sl, sl, fp
    9ee4:	ea4f 3b16 	mov.w	fp, r6, lsr #12
    9ee8:	f00b 0b01 	and.w	fp, fp, #1
    9eec:	ea4f 1bcb 	mov.w	fp, fp, lsl #7
    9ef0:	ea8a 0a0b 	eor.w	sl, sl, fp
    9ef4:	ea4f 3b56 	mov.w	fp, r6, lsr #13
    9ef8:	f00b 0b01 	and.w	fp, fp, #1
    9efc:	ea4f 0bcb 	mov.w	fp, fp, lsl #3
    9f00:	ea8a 0a0b 	eor.w	sl, sl, fp
    9f04:	ea4f 3b96 	mov.w	fp, r6, lsr #14
    9f08:	f00b 0b01 	and.w	fp, fp, #1
    9f0c:	ea4f 7bcb 	mov.w	fp, fp, lsl #31
    9f10:	ea8a 0a0b 	eor.w	sl, sl, fp
    9f14:	ea4f 3bd6 	mov.w	fp, r6, lsr #15
    9f18:	f00b 0b01 	and.w	fp, fp, #1
    9f1c:	ea4f 6bcb 	mov.w	fp, fp, lsl #27
    9f20:	ea8a 0a0b 	eor.w	sl, sl, fp
    9f24:	ea4f 2b17 	mov.w	fp, r7, lsr #8
    9f28:	f00b 0b01 	and.w	fp, fp, #1
    9f2c:	ea4f 6b0b 	mov.w	fp, fp, lsl #24
    9f30:	ea8a 0a0b 	eor.w	sl, sl, fp
    9f34:	ea4f 2b57 	mov.w	fp, r7, lsr #9
    9f38:	f00b 0b01 	and.w	fp, fp, #1
    9f3c:	ea4f 5b0b 	mov.w	fp, fp, lsl #20
    9f40:	ea8a 0a0b 	eor.w	sl, sl, fp
    9f44:	ea4f 2b97 	mov.w	fp, r7, lsr #10
    9f48:	f00b 0b01 	and.w	fp, fp, #1
    9f4c:	ea4f 4b0b 	mov.w	fp, fp, lsl #16
    9f50:	ea8a 0a0b 	eor.w	sl, sl, fp
    9f54:	ea4f 2bd7 	mov.w	fp, r7, lsr #11
    9f58:	f00b 0b01 	and.w	fp, fp, #1
    9f5c:	ea4f 3b0b 	mov.w	fp, fp, lsl #12
    9f60:	ea8a 0a0b 	eor.w	sl, sl, fp
    9f64:	ea4f 3b17 	mov.w	fp, r7, lsr #12
    9f68:	f00b 0b01 	and.w	fp, fp, #1
    9f6c:	ea4f 2b0b 	mov.w	fp, fp, lsl #8
    9f70:	ea8a 0a0b 	eor.w	sl, sl, fp
    9f74:	ea4f 3b57 	mov.w	fp, r7, lsr #13
    9f78:	f00b 0b01 	and.w	fp, fp, #1
    9f7c:	ea4f 1b0b 	mov.w	fp, fp, lsl #4
    9f80:	ea8a 0a0b 	eor.w	sl, sl, fp
    9f84:	ea4f 3b97 	mov.w	fp, r7, lsr #14
    9f88:	f00b 0b01 	and.w	fp, fp, #1
    9f8c:	ea4f 0b0b 	mov.w	fp, fp
    9f90:	ea8a 0a0b 	eor.w	sl, sl, fp
    9f94:	ea4f 3bd7 	mov.w	fp, r7, lsr #15
    9f98:	f00b 0b01 	and.w	fp, fp, #1
    9f9c:	ea4f 7b0b 	mov.w	fp, fp, lsl #28
    9fa0:	ea8a 0a0b 	eor.w	sl, sl, fp
    9fa4:	ea4f 2b18 	mov.w	fp, r8, lsr #8
    9fa8:	f00b 0b01 	and.w	fp, fp, #1
    9fac:	ea4f 6b4b 	mov.w	fp, fp, lsl #25
    9fb0:	ea8a 0a0b 	eor.w	sl, sl, fp
    9fb4:	ea4f 2b58 	mov.w	fp, r8, lsr #9
    9fb8:	f00b 0b01 	and.w	fp, fp, #1
    9fbc:	ea4f 5b4b 	mov.w	fp, fp, lsl #21
    9fc0:	ea8a 0a0b 	eor.w	sl, sl, fp
    9fc4:	ea4f 2b98 	mov.w	fp, r8, lsr #10
    9fc8:	f00b 0b01 	and.w	fp, fp, #1
    9fcc:	ea4f 4b4b 	mov.w	fp, fp, lsl #17
    9fd0:	ea8a 0a0b 	eor.w	sl, sl, fp
    9fd4:	ea4f 2bd8 	mov.w	fp, r8, lsr #11
    9fd8:	f00b 0b01 	and.w	fp, fp, #1
    9fdc:	ea4f 3b4b 	mov.w	fp, fp, lsl #13
    9fe0:	ea8a 0a0b 	eor.w	sl, sl, fp
    9fe4:	ea4f 3b18 	mov.w	fp, r8, lsr #12
    9fe8:	f00b 0b01 	and.w	fp, fp, #1
    9fec:	ea4f 2b4b 	mov.w	fp, fp, lsl #9
    9ff0:	ea8a 0a0b 	eor.w	sl, sl, fp
    9ff4:	ea4f 3b58 	mov.w	fp, r8, lsr #13
    9ff8:	f00b 0b01 	and.w	fp, fp, #1
    9ffc:	ea4f 1b4b 	mov.w	fp, fp, lsl #5
    a000:	ea8a 0a0b 	eor.w	sl, sl, fp
    a004:	ea4f 3b98 	mov.w	fp, r8, lsr #14
    a008:	f00b 0b01 	and.w	fp, fp, #1
    a00c:	ea4f 0b4b 	mov.w	fp, fp, lsl #1
    a010:	ea8a 0a0b 	eor.w	sl, sl, fp
    a014:	ea4f 3bd8 	mov.w	fp, r8, lsr #15
    a018:	f00b 0b01 	and.w	fp, fp, #1
    a01c:	ea4f 7b4b 	mov.w	fp, fp, lsl #29
    a020:	ea8a 0a0b 	eor.w	sl, sl, fp
    a024:	ea4f 2b19 	mov.w	fp, r9, lsr #8
    a028:	f00b 0b01 	and.w	fp, fp, #1
    a02c:	ea4f 6b8b 	mov.w	fp, fp, lsl #26
    a030:	ea8a 0a0b 	eor.w	sl, sl, fp
    a034:	ea4f 2b59 	mov.w	fp, r9, lsr #9
    a038:	f00b 0b01 	and.w	fp, fp, #1
    a03c:	ea4f 5b8b 	mov.w	fp, fp, lsl #22
    a040:	ea8a 0a0b 	eor.w	sl, sl, fp
    a044:	ea4f 2b99 	mov.w	fp, r9, lsr #10
    a048:	f00b 0b01 	and.w	fp, fp, #1
    a04c:	ea4f 4b8b 	mov.w	fp, fp, lsl #18
    a050:	ea8a 0a0b 	eor.w	sl, sl, fp
    a054:	ea4f 2bd9 	mov.w	fp, r9, lsr #11
    a058:	f00b 0b01 	and.w	fp, fp, #1
    a05c:	ea4f 3b8b 	mov.w	fp, fp, lsl #14
    a060:	ea8a 0a0b 	eor.w	sl, sl, fp
    a064:	ea4f 3b19 	mov.w	fp, r9, lsr #12
    a068:	f00b 0b01 	and.w	fp, fp, #1
    a06c:	ea4f 2b8b 	mov.w	fp, fp, lsl #10
    a070:	ea8a 0a0b 	eor.w	sl, sl, fp
    a074:	ea4f 3b59 	mov.w	fp, r9, lsr #13
    a078:	f00b 0b01 	and.w	fp, fp, #1
    a07c:	ea4f 1b8b 	mov.w	fp, fp, lsl #6
    a080:	ea8a 0a0b 	eor.w	sl, sl, fp
    a084:	ea4f 3b99 	mov.w	fp, r9, lsr #14
    a088:	f00b 0b01 	and.w	fp, fp, #1
    a08c:	ea4f 0b8b 	mov.w	fp, fp, lsl #2
    a090:	ea8a 0a0b 	eor.w	sl, sl, fp
    a094:	ea4f 3bd9 	mov.w	fp, r9, lsr #15
    a098:	f00b 0b01 	and.w	fp, fp, #1
    a09c:	ea4f 7b8b 	mov.w	fp, fp, lsl #30
    a0a0:	ea8a 0a0b 	eor.w	sl, sl, fp
    a0a4:	f04f 0c00 	mov.w	ip, #0
    a0a8:	ea4f 0b06 	mov.w	fp, r6
    a0ac:	f00b 0b01 	and.w	fp, fp, #1
    a0b0:	ea4f 5bcb 	mov.w	fp, fp, lsl #23
    a0b4:	ea8c 0c0b 	eor.w	ip, ip, fp
    a0b8:	ea4f 0b56 	mov.w	fp, r6, lsr #1
    a0bc:	f00b 0b01 	and.w	fp, fp, #1
    a0c0:	ea4f 4bcb 	mov.w	fp, fp, lsl #19
    a0c4:	ea8c 0c0b 	eor.w	ip, ip, fp
    a0c8:	ea4f 0b96 	mov.w	fp, r6, lsr #2
    a0cc:	f00b 0b01 	and.w	fp, fp, #1
    a0d0:	ea4f 3bcb 	mov.w	fp, fp, lsl #15
    a0d4:	ea8c 0c0b 	eor.w	ip, ip, fp
    a0d8:	ea4f 0bd6 	mov.w	fp, r6, lsr #3
    a0dc:	f00b 0b01 	and.w	fp, fp, #1
    a0e0:	ea4f 2bcb 	mov.w	fp, fp, lsl #11
    a0e4:	ea8c 0c0b 	eor.w	ip, ip, fp
    a0e8:	ea4f 1b16 	mov.w	fp, r6, lsr #4
    a0ec:	f00b 0b01 	and.w	fp, fp, #1
    a0f0:	ea4f 1bcb 	mov.w	fp, fp, lsl #7
    a0f4:	ea8c 0c0b 	eor.w	ip, ip, fp
    a0f8:	ea4f 1b56 	mov.w	fp, r6, lsr #5
    a0fc:	f00b 0b01 	and.w	fp, fp, #1
    a100:	ea4f 0bcb 	mov.w	fp, fp, lsl #3
    a104:	ea8c 0c0b 	eor.w	ip, ip, fp
    a108:	ea4f 1b96 	mov.w	fp, r6, lsr #6
    a10c:	f00b 0b01 	and.w	fp, fp, #1
    a110:	ea4f 7bcb 	mov.w	fp, fp, lsl #31
    a114:	ea8c 0c0b 	eor.w	ip, ip, fp
    a118:	ea4f 1bd6 	mov.w	fp, r6, lsr #7
    a11c:	f00b 0b01 	and.w	fp, fp, #1
    a120:	ea4f 6bcb 	mov.w	fp, fp, lsl #27
    a124:	ea8c 0c0b 	eor.w	ip, ip, fp
    a128:	ea4f 0b07 	mov.w	fp, r7
    a12c:	f00b 0b01 	and.w	fp, fp, #1
    a130:	ea4f 6b0b 	mov.w	fp, fp, lsl #24
    a134:	ea8c 0c0b 	eor.w	ip, ip, fp
    a138:	ea4f 0b57 	mov.w	fp, r7, lsr #1
    a13c:	f00b 0b01 	and.w	fp, fp, #1
    a140:	ea4f 5b0b 	mov.w	fp, fp, lsl #20
    a144:	ea8c 0c0b 	eor.w	ip, ip, fp
    a148:	ea4f 0b97 	mov.w	fp, r7, lsr #2
    a14c:	f00b 0b01 	and.w	fp, fp, #1
    a150:	ea4f 4b0b 	mov.w	fp, fp, lsl #16
    a154:	ea8c 0c0b 	eor.w	ip, ip, fp
    a158:	ea4f 0bd7 	mov.w	fp, r7, lsr #3
    a15c:	f00b 0b01 	and.w	fp, fp, #1
    a160:	ea4f 3b0b 	mov.w	fp, fp, lsl #12
    a164:	ea8c 0c0b 	eor.w	ip, ip, fp
    a168:	ea4f 1b17 	mov.w	fp, r7, lsr #4
    a16c:	f00b 0b01 	and.w	fp, fp, #1
    a170:	ea4f 2b0b 	mov.w	fp, fp, lsl #8
    a174:	ea8c 0c0b 	eor.w	ip, ip, fp
    a178:	ea4f 1b57 	mov.w	fp, r7, lsr #5
    a17c:	f00b 0b01 	and.w	fp, fp, #1
    a180:	ea4f 1b0b 	mov.w	fp, fp, lsl #4
    a184:	ea8c 0c0b 	eor.w	ip, ip, fp
    a188:	ea4f 1b97 	mov.w	fp, r7, lsr #6
    a18c:	f00b 0b01 	and.w	fp, fp, #1
    a190:	ea4f 0b0b 	mov.w	fp, fp
    a194:	ea8c 0c0b 	eor.w	ip, ip, fp
    a198:	ea4f 1bd7 	mov.w	fp, r7, lsr #7
    a19c:	f00b 0b01 	and.w	fp, fp, #1
    a1a0:	ea4f 7b0b 	mov.w	fp, fp, lsl #28
    a1a4:	ea8c 0c0b 	eor.w	ip, ip, fp
    a1a8:	ea4f 0b08 	mov.w	fp, r8
    a1ac:	f00b 0b01 	and.w	fp, fp, #1
    a1b0:	ea4f 6b4b 	mov.w	fp, fp, lsl #25
    a1b4:	ea8c 0c0b 	eor.w	ip, ip, fp
    a1b8:	ea4f 0b58 	mov.w	fp, r8, lsr #1
    a1bc:	f00b 0b01 	and.w	fp, fp, #1
    a1c0:	ea4f 5b4b 	mov.w	fp, fp, lsl #21
    a1c4:	ea8c 0c0b 	eor.w	ip, ip, fp
    a1c8:	ea4f 0b98 	mov.w	fp, r8, lsr #2
    a1cc:	f00b 0b01 	and.w	fp, fp, #1
    a1d0:	ea4f 4b4b 	mov.w	fp, fp, lsl #17
    a1d4:	ea8c 0c0b 	eor.w	ip, ip, fp
    a1d8:	ea4f 0bd8 	mov.w	fp, r8, lsr #3
    a1dc:	f00b 0b01 	and.w	fp, fp, #1
    a1e0:	ea4f 3b4b 	mov.w	fp, fp, lsl #13
    a1e4:	ea8c 0c0b 	eor.w	ip, ip, fp
    a1e8:	ea4f 1b18 	mov.w	fp, r8, lsr #4
    a1ec:	f00b 0b01 	and.w	fp, fp, #1
    a1f0:	ea4f 2b4b 	mov.w	fp, fp, lsl #9
    a1f4:	ea8c 0c0b 	eor.w	ip, ip, fp
    a1f8:	ea4f 1b58 	mov.w	fp, r8, lsr #5
    a1fc:	f00b 0b01 	and.w	fp, fp, #1
    a200:	ea4f 1b4b 	mov.w	fp, fp, lsl #5
    a204:	ea8c 0c0b 	eor.w	ip, ip, fp
    a208:	ea4f 1b98 	mov.w	fp, r8, lsr #6
    a20c:	f00b 0b01 	and.w	fp, fp, #1
    a210:	ea4f 0b4b 	mov.w	fp, fp, lsl #1
    a214:	ea8c 0c0b 	eor.w	ip, ip, fp
    a218:	ea4f 1bd8 	mov.w	fp, r8, lsr #7
    a21c:	f00b 0b01 	and.w	fp, fp, #1
    a220:	ea4f 7b4b 	mov.w	fp, fp, lsl #29
    a224:	ea8c 0c0b 	eor.w	ip, ip, fp
    a228:	ea4f 0b09 	mov.w	fp, r9
    a22c:	f00b 0b01 	and.w	fp, fp, #1
    a230:	ea4f 6b8b 	mov.w	fp, fp, lsl #26
    a234:	ea8c 0c0b 	eor.w	ip, ip, fp
    a238:	ea4f 0b59 	mov.w	fp, r9, lsr #1
    a23c:	f00b 0b01 	and.w	fp, fp, #1
    a240:	ea4f 5b8b 	mov.w	fp, fp, lsl #22
    a244:	ea8c 0c0b 	eor.w	ip, ip, fp
    a248:	ea4f 0b99 	mov.w	fp, r9, lsr #2
    a24c:	f00b 0b01 	and.w	fp, fp, #1
    a250:	ea4f 4b8b 	mov.w	fp, fp, lsl #18
    a254:	ea8c 0c0b 	eor.w	ip, ip, fp
    a258:	ea4f 0bd9 	mov.w	fp, r9, lsr #3
    a25c:	f00b 0b01 	and.w	fp, fp, #1
    a260:	ea4f 3b8b 	mov.w	fp, fp, lsl #14
    a264:	ea8c 0c0b 	eor.w	ip, ip, fp
    a268:	ea4f 1b19 	mov.w	fp, r9, lsr #4
    a26c:	f00b 0b01 	and.w	fp, fp, #1
    a270:	ea4f 2b8b 	mov.w	fp, fp, lsl #10
    a274:	ea8c 0c0b 	eor.w	ip, ip, fp
    a278:	ea4f 1b59 	mov.w	fp, r9, lsr #5
    a27c:	f00b 0b01 	and.w	fp, fp, #1
    a280:	ea4f 1b8b 	mov.w	fp, fp, lsl #6
    a284:	ea8c 0c0b 	eor.w	ip, ip, fp
    a288:	ea4f 1b99 	mov.w	fp, r9, lsr #6
    a28c:	f00b 0b01 	and.w	fp, fp, #1
    a290:	ea4f 0b8b 	mov.w	fp, fp, lsl #2
    a294:	ea8c 0c0b 	eor.w	ip, ip, fp
    a298:	ea4f 1bd9 	mov.w	fp, r9, lsr #7
    a29c:	f00b 0b01 	and.w	fp, fp, #1
    a2a0:	ea4f 7b8b 	mov.w	fp, fp, lsl #30
    a2a4:	ea8c 0c0b 	eor.w	ip, ip, fp
    a2a8:	f04f 0600 	mov.w	r6, #0
    a2ac:	f04f 0700 	mov.w	r7, #0
    a2b0:	ea86 0807 	eor.w	r8, r6, r7
    a2b4:	ea86 0907 	eor.w	r9, r6, r7
    a2b8:	4666      	mov	r6, ip
    a2ba:	ea88 0c09 	eor.w	ip, r8, r9
    a2be:	4657      	mov	r7, sl
    a2c0:	ea88 0a09 	eor.w	sl, r8, r9
    a2c4:	f04f 0800 	mov.w	r8, #0
    a2c8:	f04f 0900 	mov.w	r9, #0
    a2cc:	ea4f 7ad6 	mov.w	sl, r6, lsr #31
    a2d0:	f00a 0a01 	and.w	sl, sl, #1
    a2d4:	ea4f 78ca 	mov.w	r8, sl, lsl #31
    a2d8:	ea4f 7a17 	mov.w	sl, r7, lsr #28
    a2dc:	f00a 0a01 	and.w	sl, sl, #1
    a2e0:	ea4f 7a8a 	mov.w	sl, sl, lsl #30
    a2e4:	ea48 080a 	orr.w	r8, r8, sl
    a2e8:	ea4f 6a17 	mov.w	sl, r7, lsr #24
    a2ec:	f00a 0a01 	and.w	sl, sl, #1
    a2f0:	ea4f 7a4a 	mov.w	sl, sl, lsl #29
    a2f4:	ea48 080a 	orr.w	r8, r8, sl
    a2f8:	ea4f 5a17 	mov.w	sl, r7, lsr #20
    a2fc:	f00a 0a01 	and.w	sl, sl, #1
    a300:	ea4f 7a0a 	mov.w	sl, sl, lsl #28
    a304:	ea48 080a 	orr.w	r8, r8, sl
    a308:	ea4f 4a17 	mov.w	sl, r7, lsr #16
    a30c:	f00a 0a01 	and.w	sl, sl, #1
    a310:	ea4f 6aca 	mov.w	sl, sl, lsl #27
    a314:	ea48 080a 	orr.w	r8, r8, sl
    a318:	ea4f 3a17 	mov.w	sl, r7, lsr #12
    a31c:	f00a 0a01 	and.w	sl, sl, #1
    a320:	ea4f 6a8a 	mov.w	sl, sl, lsl #26
    a324:	ea48 080a 	orr.w	r8, r8, sl
    a328:	ea4f 2a17 	mov.w	sl, r7, lsr #8
    a32c:	f00a 0a01 	and.w	sl, sl, #1
    a330:	ea4f 6a4a 	mov.w	sl, sl, lsl #25
    a334:	ea48 080a 	orr.w	r8, r8, sl
    a338:	ea4f 1a17 	mov.w	sl, r7, lsr #4
    a33c:	f00a 0a01 	and.w	sl, sl, #1
    a340:	ea4f 6a0a 	mov.w	sl, sl, lsl #24
    a344:	ea48 080a 	orr.w	r8, r8, sl
    a348:	ea4f 0a07 	mov.w	sl, r7
    a34c:	f00a 0a01 	and.w	sl, sl, #1
    a350:	ea4f 5aca 	mov.w	sl, sl, lsl #23
    a354:	ea48 080a 	orr.w	r8, r8, sl
    a358:	ea4f 7a16 	mov.w	sl, r6, lsr #28
    a35c:	f00a 0a01 	and.w	sl, sl, #1
    a360:	ea4f 5a8a 	mov.w	sl, sl, lsl #22
    a364:	ea48 080a 	orr.w	r8, r8, sl
    a368:	ea4f 6a16 	mov.w	sl, r6, lsr #24
    a36c:	f00a 0a01 	and.w	sl, sl, #1
    a370:	ea4f 5a4a 	mov.w	sl, sl, lsl #21
    a374:	ea48 080a 	orr.w	r8, r8, sl
    a378:	ea4f 5a16 	mov.w	sl, r6, lsr #20
    a37c:	f00a 0a01 	and.w	sl, sl, #1
    a380:	ea4f 5a0a 	mov.w	sl, sl, lsl #20
    a384:	ea48 080a 	orr.w	r8, r8, sl
    a388:	ea4f 4a16 	mov.w	sl, r6, lsr #16
    a38c:	f00a 0a01 	and.w	sl, sl, #1
    a390:	ea4f 4aca 	mov.w	sl, sl, lsl #19
    a394:	ea48 080a 	orr.w	r8, r8, sl
    a398:	ea4f 3a16 	mov.w	sl, r6, lsr #12
    a39c:	f00a 0a01 	and.w	sl, sl, #1
    a3a0:	ea4f 4a8a 	mov.w	sl, sl, lsl #18
    a3a4:	ea48 080a 	orr.w	r8, r8, sl
    a3a8:	ea4f 2a16 	mov.w	sl, r6, lsr #8
    a3ac:	f00a 0a01 	and.w	sl, sl, #1
    a3b0:	ea4f 4a4a 	mov.w	sl, sl, lsl #17
    a3b4:	ea48 080a 	orr.w	r8, r8, sl
    a3b8:	ea4f 1a16 	mov.w	sl, r6, lsr #4
    a3bc:	f00a 0a01 	and.w	sl, sl, #1
    a3c0:	ea4f 4a0a 	mov.w	sl, sl, lsl #16
    a3c4:	ea48 080a 	orr.w	r8, r8, sl
    a3c8:	ea4f 0a06 	mov.w	sl, r6
    a3cc:	f00a 0a01 	and.w	sl, sl, #1
    a3d0:	ea4f 3aca 	mov.w	sl, sl, lsl #15
    a3d4:	ea48 080a 	orr.w	r8, r8, sl
    a3d8:	ea4f 6ad7 	mov.w	sl, r7, lsr #27
    a3dc:	f00a 0a01 	and.w	sl, sl, #1
    a3e0:	ea4f 3a8a 	mov.w	sl, sl, lsl #14
    a3e4:	ea48 080a 	orr.w	r8, r8, sl
    a3e8:	ea4f 5ad7 	mov.w	sl, r7, lsr #23
    a3ec:	f00a 0a01 	and.w	sl, sl, #1
    a3f0:	ea4f 3a4a 	mov.w	sl, sl, lsl #13
    a3f4:	ea48 080a 	orr.w	r8, r8, sl
    a3f8:	ea4f 4ad7 	mov.w	sl, r7, lsr #19
    a3fc:	f00a 0a01 	and.w	sl, sl, #1
    a400:	ea4f 3a0a 	mov.w	sl, sl, lsl #12
    a404:	ea48 080a 	orr.w	r8, r8, sl
    a408:	ea4f 3ad7 	mov.w	sl, r7, lsr #15
    a40c:	f00a 0a01 	and.w	sl, sl, #1
    a410:	ea4f 2aca 	mov.w	sl, sl, lsl #11
    a414:	ea48 080a 	orr.w	r8, r8, sl
    a418:	ea4f 2ad7 	mov.w	sl, r7, lsr #11
    a41c:	f00a 0a01 	and.w	sl, sl, #1
    a420:	ea4f 2a8a 	mov.w	sl, sl, lsl #10
    a424:	ea48 080a 	orr.w	r8, r8, sl
    a428:	ea4f 1ad7 	mov.w	sl, r7, lsr #7
    a42c:	f00a 0a01 	and.w	sl, sl, #1
    a430:	ea4f 2a4a 	mov.w	sl, sl, lsl #9
    a434:	ea48 080a 	orr.w	r8, r8, sl
    a438:	ea4f 0ad7 	mov.w	sl, r7, lsr #3
    a43c:	f00a 0a01 	and.w	sl, sl, #1
    a440:	ea4f 2a0a 	mov.w	sl, sl, lsl #8
    a444:	ea48 080a 	orr.w	r8, r8, sl
    a448:	ea4f 7ad7 	mov.w	sl, r7, lsr #31
    a44c:	f00a 0a01 	and.w	sl, sl, #1
    a450:	ea4f 1aca 	mov.w	sl, sl, lsl #7
    a454:	ea48 080a 	orr.w	r8, r8, sl
    a458:	ea4f 6ad6 	mov.w	sl, r6, lsr #27
    a45c:	f00a 0a01 	and.w	sl, sl, #1
    a460:	ea4f 1a8a 	mov.w	sl, sl, lsl #6
    a464:	ea48 080a 	orr.w	r8, r8, sl
    a468:	ea4f 5ad6 	mov.w	sl, r6, lsr #23
    a46c:	f00a 0a01 	and.w	sl, sl, #1
    a470:	ea4f 1a4a 	mov.w	sl, sl, lsl #5
    a474:	ea48 080a 	orr.w	r8, r8, sl
    a478:	ea4f 4ad6 	mov.w	sl, r6, lsr #19
    a47c:	f00a 0a01 	and.w	sl, sl, #1
    a480:	ea4f 1a0a 	mov.w	sl, sl, lsl #4
    a484:	ea48 080a 	orr.w	r8, r8, sl
    a488:	ea4f 3ad6 	mov.w	sl, r6, lsr #15
    a48c:	f00a 0a01 	and.w	sl, sl, #1
    a490:	ea4f 0aca 	mov.w	sl, sl, lsl #3
    a494:	ea48 080a 	orr.w	r8, r8, sl
    a498:	ea4f 2ad6 	mov.w	sl, r6, lsr #11
    a49c:	f00a 0a01 	and.w	sl, sl, #1
    a4a0:	ea4f 0a8a 	mov.w	sl, sl, lsl #2
    a4a4:	ea48 080a 	orr.w	r8, r8, sl
    a4a8:	ea4f 1ad6 	mov.w	sl, r6, lsr #7
    a4ac:	f00a 0a01 	and.w	sl, sl, #1
    a4b0:	ea4f 0a4a 	mov.w	sl, sl, lsl #1
    a4b4:	ea48 080a 	orr.w	r8, r8, sl
    a4b8:	ea4f 0ad6 	mov.w	sl, r6, lsr #3
    a4bc:	f00a 0a01 	and.w	sl, sl, #1
    a4c0:	ea4f 0a0a 	mov.w	sl, sl
    a4c4:	ea48 080a 	orr.w	r8, r8, sl
    a4c8:	ea4f 0a56 	mov.w	sl, r6, lsr #1
    a4cc:	f00a 0a01 	and.w	sl, sl, #1
    a4d0:	ea4f 79ca 	mov.w	r9, sl, lsl #31
    a4d4:	ea4f 7a97 	mov.w	sl, r7, lsr #30
    a4d8:	f00a 0a01 	and.w	sl, sl, #1
    a4dc:	ea4f 7a8a 	mov.w	sl, sl, lsl #30
    a4e0:	ea49 090a 	orr.w	r9, r9, sl
    a4e4:	ea4f 6a97 	mov.w	sl, r7, lsr #26
    a4e8:	f00a 0a01 	and.w	sl, sl, #1
    a4ec:	ea4f 7a4a 	mov.w	sl, sl, lsl #29
    a4f0:	ea49 090a 	orr.w	r9, r9, sl
    a4f4:	ea4f 5a97 	mov.w	sl, r7, lsr #22
    a4f8:	f00a 0a01 	and.w	sl, sl, #1
    a4fc:	ea4f 7a0a 	mov.w	sl, sl, lsl #28
    a500:	ea49 090a 	orr.w	r9, r9, sl
    a504:	ea4f 4a97 	mov.w	sl, r7, lsr #18
    a508:	f00a 0a01 	and.w	sl, sl, #1
    a50c:	ea4f 6aca 	mov.w	sl, sl, lsl #27
    a510:	ea49 090a 	orr.w	r9, r9, sl
    a514:	ea4f 3a97 	mov.w	sl, r7, lsr #14
    a518:	f00a 0a01 	and.w	sl, sl, #1
    a51c:	ea4f 6a8a 	mov.w	sl, sl, lsl #26
    a520:	ea49 090a 	orr.w	r9, r9, sl
    a524:	ea4f 2a97 	mov.w	sl, r7, lsr #10
    a528:	f00a 0a01 	and.w	sl, sl, #1
    a52c:	ea4f 6a4a 	mov.w	sl, sl, lsl #25
    a530:	ea49 090a 	orr.w	r9, r9, sl
    a534:	ea4f 1a97 	mov.w	sl, r7, lsr #6
    a538:	f00a 0a01 	and.w	sl, sl, #1
    a53c:	ea4f 6a0a 	mov.w	sl, sl, lsl #24
    a540:	ea49 090a 	orr.w	r9, r9, sl
    a544:	ea4f 0a97 	mov.w	sl, r7, lsr #2
    a548:	f00a 0a01 	and.w	sl, sl, #1
    a54c:	ea4f 5aca 	mov.w	sl, sl, lsl #23
    a550:	ea49 090a 	orr.w	r9, r9, sl
    a554:	ea4f 7a96 	mov.w	sl, r6, lsr #30
    a558:	f00a 0a01 	and.w	sl, sl, #1
    a55c:	ea4f 5a8a 	mov.w	sl, sl, lsl #22
    a560:	ea49 090a 	orr.w	r9, r9, sl
    a564:	ea4f 6a96 	mov.w	sl, r6, lsr #26
    a568:	f00a 0a01 	and.w	sl, sl, #1
    a56c:	ea4f 5a4a 	mov.w	sl, sl, lsl #21
    a570:	ea49 090a 	orr.w	r9, r9, sl
    a574:	ea4f 5a96 	mov.w	sl, r6, lsr #22
    a578:	f00a 0a01 	and.w	sl, sl, #1
    a57c:	ea4f 5a0a 	mov.w	sl, sl, lsl #20
    a580:	ea49 090a 	orr.w	r9, r9, sl
    a584:	ea4f 4a96 	mov.w	sl, r6, lsr #18
    a588:	f00a 0a01 	and.w	sl, sl, #1
    a58c:	ea4f 4aca 	mov.w	sl, sl, lsl #19
    a590:	ea49 090a 	orr.w	r9, r9, sl
    a594:	ea4f 3a96 	mov.w	sl, r6, lsr #14
    a598:	f00a 0a01 	and.w	sl, sl, #1
    a59c:	ea4f 4a8a 	mov.w	sl, sl, lsl #18
    a5a0:	ea49 090a 	orr.w	r9, r9, sl
    a5a4:	ea4f 2a96 	mov.w	sl, r6, lsr #10
    a5a8:	f00a 0a01 	and.w	sl, sl, #1
    a5ac:	ea4f 4a4a 	mov.w	sl, sl, lsl #17
    a5b0:	ea49 090a 	orr.w	r9, r9, sl
    a5b4:	ea4f 1a96 	mov.w	sl, r6, lsr #6
    a5b8:	f00a 0a01 	and.w	sl, sl, #1
    a5bc:	ea4f 4a0a 	mov.w	sl, sl, lsl #16
    a5c0:	ea49 090a 	orr.w	r9, r9, sl
    a5c4:	ea4f 0a96 	mov.w	sl, r6, lsr #2
    a5c8:	f00a 0a01 	and.w	sl, sl, #1
    a5cc:	ea4f 3aca 	mov.w	sl, sl, lsl #15
    a5d0:	ea49 090a 	orr.w	r9, r9, sl
    a5d4:	ea4f 7a57 	mov.w	sl, r7, lsr #29
    a5d8:	f00a 0a01 	and.w	sl, sl, #1
    a5dc:	ea4f 3a8a 	mov.w	sl, sl, lsl #14
    a5e0:	ea49 090a 	orr.w	r9, r9, sl
    a5e4:	ea4f 6a57 	mov.w	sl, r7, lsr #25
    a5e8:	f00a 0a01 	and.w	sl, sl, #1
    a5ec:	ea4f 3a4a 	mov.w	sl, sl, lsl #13
    a5f0:	ea49 090a 	orr.w	r9, r9, sl
    a5f4:	ea4f 5a57 	mov.w	sl, r7, lsr #21
    a5f8:	f00a 0a01 	and.w	sl, sl, #1
    a5fc:	ea4f 3a0a 	mov.w	sl, sl, lsl #12
    a600:	ea49 090a 	orr.w	r9, r9, sl
    a604:	ea4f 4a57 	mov.w	sl, r7, lsr #17
    a608:	f00a 0a01 	and.w	sl, sl, #1
    a60c:	ea4f 2aca 	mov.w	sl, sl, lsl #11
    a610:	ea49 090a 	orr.w	r9, r9, sl
    a614:	ea4f 3a57 	mov.w	sl, r7, lsr #13
    a618:	f00a 0a01 	and.w	sl, sl, #1
    a61c:	ea4f 2a8a 	mov.w	sl, sl, lsl #10
    a620:	ea49 090a 	orr.w	r9, r9, sl
    a624:	ea4f 2a57 	mov.w	sl, r7, lsr #9
    a628:	f00a 0a01 	and.w	sl, sl, #1
    a62c:	ea4f 2a4a 	mov.w	sl, sl, lsl #9
    a630:	ea49 090a 	orr.w	r9, r9, sl
    a634:	ea4f 1a57 	mov.w	sl, r7, lsr #5
    a638:	f00a 0a01 	and.w	sl, sl, #1
    a63c:	ea4f 2a0a 	mov.w	sl, sl, lsl #8
    a640:	ea49 090a 	orr.w	r9, r9, sl
    a644:	ea4f 0a57 	mov.w	sl, r7, lsr #1
    a648:	f00a 0a01 	and.w	sl, sl, #1
    a64c:	ea4f 1aca 	mov.w	sl, sl, lsl #7
    a650:	ea49 090a 	orr.w	r9, r9, sl
    a654:	ea4f 7a56 	mov.w	sl, r6, lsr #29
    a658:	f00a 0a01 	and.w	sl, sl, #1
    a65c:	ea4f 1a8a 	mov.w	sl, sl, lsl #6
    a660:	ea49 090a 	orr.w	r9, r9, sl
    a664:	ea4f 6a56 	mov.w	sl, r6, lsr #25
    a668:	f00a 0a01 	and.w	sl, sl, #1
    a66c:	ea4f 1a4a 	mov.w	sl, sl, lsl #5
    a670:	ea49 090a 	orr.w	r9, r9, sl
    a674:	ea4f 5a56 	mov.w	sl, r6, lsr #21
    a678:	f00a 0a01 	and.w	sl, sl, #1
    a67c:	ea4f 1a0a 	mov.w	sl, sl, lsl #4
    a680:	ea49 090a 	orr.w	r9, r9, sl
    a684:	ea4f 4a56 	mov.w	sl, r6, lsr #17
    a688:	f00a 0a01 	and.w	sl, sl, #1
    a68c:	ea4f 0aca 	mov.w	sl, sl, lsl #3
    a690:	ea49 090a 	orr.w	r9, r9, sl
    a694:	ea4f 3a56 	mov.w	sl, r6, lsr #13
    a698:	f00a 0a01 	and.w	sl, sl, #1
    a69c:	ea4f 0a8a 	mov.w	sl, sl, lsl #2
    a6a0:	ea49 090a 	orr.w	r9, r9, sl
    a6a4:	ea4f 2a56 	mov.w	sl, r6, lsr #9
    a6a8:	f00a 0a01 	and.w	sl, sl, #1
    a6ac:	ea4f 0a4a 	mov.w	sl, sl, lsl #1
    a6b0:	ea49 090a 	orr.w	r9, r9, sl
    a6b4:	ea4f 1a56 	mov.w	sl, r6, lsr #5
    a6b8:	f00a 0a01 	and.w	sl, sl, #1
    a6bc:	ea4f 0a0a 	mov.w	sl, sl
    a6c0:	ea49 090a 	orr.w	r9, r9, sl
    a6c4:	f8c1 8000 	str.w	r8, [r1]
    a6c8:	f8c1 9004 	str.w	r9, [r1, #4]
    a6cc:	f04f 0600 	mov.w	r6, #0
    a6d0:	f04f 0700 	mov.w	r7, #0
    a6d4:	ea86 0807 	eor.w	r8, r6, r7
    a6d8:	ea86 0907 	eor.w	r9, r6, r7
    a6dc:	ea86 0a07 	eor.w	sl, r6, r7
    a6e0:	f04f 0400 	mov.w	r4, #0
    a6e4:	f04f 0500 	mov.w	r5, #0
    a6e8:	f002 0401 	and.w	r4, r2, #1
    a6ec:	ea4f 0a52 	mov.w	sl, r2, lsr #1
    a6f0:	f00a 0a01 	and.w	sl, sl, #1
    a6f4:	ea4f 4a0a 	mov.w	sl, sl, lsl #16
    a6f8:	ea44 040a 	orr.w	r4, r4, sl
    a6fc:	ea4f 0a92 	mov.w	sl, r2, lsr #2
    a700:	f00a 0a01 	and.w	sl, sl, #1
    a704:	ea45 050a 	orr.w	r5, r5, sl
    a708:	ea4f 0ad2 	mov.w	sl, r2, lsr #3
    a70c:	f00a 0a01 	and.w	sl, sl, #1
    a710:	ea4f 4a0a 	mov.w	sl, sl, lsl #16
    a714:	ea45 050a 	orr.w	r5, r5, sl
    a718:	ea4f 1a12 	mov.w	sl, r2, lsr #4
    a71c:	f00a 0a01 	and.w	sl, sl, #1
    a720:	ea4f 0a4a 	mov.w	sl, sl, lsl #1
    a724:	ea44 040a 	orr.w	r4, r4, sl
    a728:	ea4f 1a52 	mov.w	sl, r2, lsr #5
    a72c:	f00a 0a01 	and.w	sl, sl, #1
    a730:	ea4f 4a4a 	mov.w	sl, sl, lsl #17
    a734:	ea44 040a 	orr.w	r4, r4, sl
    a738:	ea4f 1a92 	mov.w	sl, r2, lsr #6
    a73c:	f00a 0a01 	and.w	sl, sl, #1
    a740:	ea4f 0a4a 	mov.w	sl, sl, lsl #1
    a744:	ea45 050a 	orr.w	r5, r5, sl
    a748:	ea4f 1ad2 	mov.w	sl, r2, lsr #7
    a74c:	f00a 0a01 	and.w	sl, sl, #1
    a750:	ea4f 4a4a 	mov.w	sl, sl, lsl #17
    a754:	ea45 050a 	orr.w	r5, r5, sl
    a758:	ea4f 2a12 	mov.w	sl, r2, lsr #8
    a75c:	f00a 0a01 	and.w	sl, sl, #1
    a760:	ea4f 0a8a 	mov.w	sl, sl, lsl #2
    a764:	ea44 040a 	orr.w	r4, r4, sl
    a768:	ea4f 2a52 	mov.w	sl, r2, lsr #9
    a76c:	f00a 0a01 	and.w	sl, sl, #1
    a770:	ea4f 4a8a 	mov.w	sl, sl, lsl #18
    a774:	ea44 040a 	orr.w	r4, r4, sl
    a778:	ea4f 2a92 	mov.w	sl, r2, lsr #10
    a77c:	f00a 0a01 	and.w	sl, sl, #1
    a780:	ea4f 0a8a 	mov.w	sl, sl, lsl #2
    a784:	ea45 050a 	orr.w	r5, r5, sl
    a788:	ea4f 2ad2 	mov.w	sl, r2, lsr #11
    a78c:	f00a 0a01 	and.w	sl, sl, #1
    a790:	ea4f 4a8a 	mov.w	sl, sl, lsl #18
    a794:	ea45 050a 	orr.w	r5, r5, sl
    a798:	ea4f 3a12 	mov.w	sl, r2, lsr #12
    a79c:	f00a 0a01 	and.w	sl, sl, #1
    a7a0:	ea4f 0aca 	mov.w	sl, sl, lsl #3
    a7a4:	ea44 040a 	orr.w	r4, r4, sl
    a7a8:	ea4f 3a52 	mov.w	sl, r2, lsr #13
    a7ac:	f00a 0a01 	and.w	sl, sl, #1
    a7b0:	ea4f 4aca 	mov.w	sl, sl, lsl #19
    a7b4:	ea44 040a 	orr.w	r4, r4, sl
    a7b8:	ea4f 3a92 	mov.w	sl, r2, lsr #14
    a7bc:	f00a 0a01 	and.w	sl, sl, #1
    a7c0:	ea4f 0aca 	mov.w	sl, sl, lsl #3
    a7c4:	ea45 050a 	orr.w	r5, r5, sl
    a7c8:	ea4f 3ad2 	mov.w	sl, r2, lsr #15
    a7cc:	f00a 0a01 	and.w	sl, sl, #1
    a7d0:	ea4f 4aca 	mov.w	sl, sl, lsl #19
    a7d4:	ea45 050a 	orr.w	r5, r5, sl
    a7d8:	ea4f 4a12 	mov.w	sl, r2, lsr #16
    a7dc:	f00a 0a01 	and.w	sl, sl, #1
    a7e0:	ea4f 1a0a 	mov.w	sl, sl, lsl #4
    a7e4:	ea44 040a 	orr.w	r4, r4, sl
    a7e8:	ea4f 4a52 	mov.w	sl, r2, lsr #17
    a7ec:	f00a 0a01 	and.w	sl, sl, #1
    a7f0:	ea4f 5a0a 	mov.w	sl, sl, lsl #20
    a7f4:	ea44 040a 	orr.w	r4, r4, sl
    a7f8:	ea4f 4a92 	mov.w	sl, r2, lsr #18
    a7fc:	f00a 0a01 	and.w	sl, sl, #1
    a800:	ea4f 1a0a 	mov.w	sl, sl, lsl #4
    a804:	ea45 050a 	orr.w	r5, r5, sl
    a808:	ea4f 4ad2 	mov.w	sl, r2, lsr #19
    a80c:	f00a 0a01 	and.w	sl, sl, #1
    a810:	ea4f 5a0a 	mov.w	sl, sl, lsl #20
    a814:	ea45 050a 	orr.w	r5, r5, sl
    a818:	ea4f 5a12 	mov.w	sl, r2, lsr #20
    a81c:	f00a 0a01 	and.w	sl, sl, #1
    a820:	ea4f 1a4a 	mov.w	sl, sl, lsl #5
    a824:	ea44 040a 	orr.w	r4, r4, sl
    a828:	ea4f 5a52 	mov.w	sl, r2, lsr #21
    a82c:	f00a 0a01 	and.w	sl, sl, #1
    a830:	ea4f 5a4a 	mov.w	sl, sl, lsl #21
    a834:	ea44 040a 	orr.w	r4, r4, sl
    a838:	ea4f 5a92 	mov.w	sl, r2, lsr #22
    a83c:	f00a 0a01 	and.w	sl, sl, #1
    a840:	ea4f 1a4a 	mov.w	sl, sl, lsl #5
    a844:	ea45 050a 	orr.w	r5, r5, sl
    a848:	ea4f 5ad2 	mov.w	sl, r2, lsr #23
    a84c:	f00a 0a01 	and.w	sl, sl, #1
    a850:	ea4f 5a4a 	mov.w	sl, sl, lsl #21
    a854:	ea45 050a 	orr.w	r5, r5, sl
    a858:	ea4f 6a12 	mov.w	sl, r2, lsr #24
    a85c:	f00a 0a01 	and.w	sl, sl, #1
    a860:	ea4f 1a8a 	mov.w	sl, sl, lsl #6
    a864:	ea44 040a 	orr.w	r4, r4, sl
    a868:	ea4f 6a52 	mov.w	sl, r2, lsr #25
    a86c:	f00a 0a01 	and.w	sl, sl, #1
    a870:	ea4f 5a8a 	mov.w	sl, sl, lsl #22
    a874:	ea44 040a 	orr.w	r4, r4, sl
    a878:	ea4f 6a92 	mov.w	sl, r2, lsr #26
    a87c:	f00a 0a01 	and.w	sl, sl, #1
    a880:	ea4f 1a8a 	mov.w	sl, sl, lsl #6
    a884:	ea45 050a 	orr.w	r5, r5, sl
    a888:	ea4f 6ad2 	mov.w	sl, r2, lsr #27
    a88c:	f00a 0a01 	and.w	sl, sl, #1
    a890:	ea4f 5a8a 	mov.w	sl, sl, lsl #22
    a894:	ea45 050a 	orr.w	r5, r5, sl
    a898:	ea4f 7a12 	mov.w	sl, r2, lsr #28
    a89c:	f00a 0a01 	and.w	sl, sl, #1
    a8a0:	ea4f 1aca 	mov.w	sl, sl, lsl #7
    a8a4:	ea44 040a 	orr.w	r4, r4, sl
    a8a8:	ea4f 7a52 	mov.w	sl, r2, lsr #29
    a8ac:	f00a 0a01 	and.w	sl, sl, #1
    a8b0:	ea4f 5aca 	mov.w	sl, sl, lsl #23
    a8b4:	ea44 040a 	orr.w	r4, r4, sl
    a8b8:	ea4f 7a92 	mov.w	sl, r2, lsr #30
    a8bc:	f00a 0a01 	and.w	sl, sl, #1
    a8c0:	ea4f 1aca 	mov.w	sl, sl, lsl #7
    a8c4:	ea45 050a 	orr.w	r5, r5, sl
    a8c8:	ea4f 7ad2 	mov.w	sl, r2, lsr #31
    a8cc:	f00a 0a01 	and.w	sl, sl, #1
    a8d0:	ea4f 5aca 	mov.w	sl, sl, lsl #23
    a8d4:	ea45 050a 	orr.w	r5, r5, sl
    a8d8:	f003 0a01 	and.w	sl, r3, #1
    a8dc:	ea4f 2a0a 	mov.w	sl, sl, lsl #8
    a8e0:	ea44 040a 	orr.w	r4, r4, sl
    a8e4:	ea4f 0a53 	mov.w	sl, r3, lsr #1
    a8e8:	f00a 0a01 	and.w	sl, sl, #1
    a8ec:	ea4f 6a0a 	mov.w	sl, sl, lsl #24
    a8f0:	ea44 040a 	orr.w	r4, r4, sl
    a8f4:	ea4f 0a93 	mov.w	sl, r3, lsr #2
    a8f8:	f00a 0a01 	and.w	sl, sl, #1
    a8fc:	ea4f 2a0a 	mov.w	sl, sl, lsl #8
    a900:	ea45 050a 	orr.w	r5, r5, sl
    a904:	ea4f 0ad3 	mov.w	sl, r3, lsr #3
    a908:	f00a 0a01 	and.w	sl, sl, #1
    a90c:	ea4f 6a0a 	mov.w	sl, sl, lsl #24
    a910:	ea45 050a 	orr.w	r5, r5, sl
    a914:	ea4f 1a13 	mov.w	sl, r3, lsr #4
    a918:	f00a 0a01 	and.w	sl, sl, #1
    a91c:	ea4f 2a4a 	mov.w	sl, sl, lsl #9
    a920:	ea44 040a 	orr.w	r4, r4, sl
    a924:	ea4f 1a53 	mov.w	sl, r3, lsr #5
    a928:	f00a 0a01 	and.w	sl, sl, #1
    a92c:	ea4f 6a4a 	mov.w	sl, sl, lsl #25
    a930:	ea44 040a 	orr.w	r4, r4, sl
    a934:	ea4f 1a93 	mov.w	sl, r3, lsr #6
    a938:	f00a 0a01 	and.w	sl, sl, #1
    a93c:	ea4f 2a4a 	mov.w	sl, sl, lsl #9
    a940:	ea45 050a 	orr.w	r5, r5, sl
    a944:	ea4f 1ad3 	mov.w	sl, r3, lsr #7
    a948:	f00a 0a01 	and.w	sl, sl, #1
    a94c:	ea4f 6a4a 	mov.w	sl, sl, lsl #25
    a950:	ea45 050a 	orr.w	r5, r5, sl
    a954:	ea4f 2a13 	mov.w	sl, r3, lsr #8
    a958:	f00a 0a01 	and.w	sl, sl, #1
    a95c:	ea4f 2a8a 	mov.w	sl, sl, lsl #10
    a960:	ea44 040a 	orr.w	r4, r4, sl
    a964:	ea4f 2a53 	mov.w	sl, r3, lsr #9
    a968:	f00a 0a01 	and.w	sl, sl, #1
    a96c:	ea4f 6a8a 	mov.w	sl, sl, lsl #26
    a970:	ea44 040a 	orr.w	r4, r4, sl
    a974:	ea4f 2a93 	mov.w	sl, r3, lsr #10
    a978:	f00a 0a01 	and.w	sl, sl, #1
    a97c:	ea4f 2a8a 	mov.w	sl, sl, lsl #10
    a980:	ea45 050a 	orr.w	r5, r5, sl
    a984:	ea4f 2ad3 	mov.w	sl, r3, lsr #11
    a988:	f00a 0a01 	and.w	sl, sl, #1
    a98c:	ea4f 6a8a 	mov.w	sl, sl, lsl #26
    a990:	ea45 050a 	orr.w	r5, r5, sl
    a994:	ea4f 3a13 	mov.w	sl, r3, lsr #12
    a998:	f00a 0a01 	and.w	sl, sl, #1
    a99c:	ea4f 2aca 	mov.w	sl, sl, lsl #11
    a9a0:	ea44 040a 	orr.w	r4, r4, sl
    a9a4:	ea4f 3a53 	mov.w	sl, r3, lsr #13
    a9a8:	f00a 0a01 	and.w	sl, sl, #1
    a9ac:	ea4f 6aca 	mov.w	sl, sl, lsl #27
    a9b0:	ea44 040a 	orr.w	r4, r4, sl
    a9b4:	ea4f 3a93 	mov.w	sl, r3, lsr #14
    a9b8:	f00a 0a01 	and.w	sl, sl, #1
    a9bc:	ea4f 2aca 	mov.w	sl, sl, lsl #11
    a9c0:	ea45 050a 	orr.w	r5, r5, sl
    a9c4:	ea4f 3ad3 	mov.w	sl, r3, lsr #15
    a9c8:	f00a 0a01 	and.w	sl, sl, #1
    a9cc:	ea4f 6aca 	mov.w	sl, sl, lsl #27
    a9d0:	ea45 050a 	orr.w	r5, r5, sl
    a9d4:	ea4f 4a13 	mov.w	sl, r3, lsr #16
    a9d8:	f00a 0a01 	and.w	sl, sl, #1
    a9dc:	ea4f 3a0a 	mov.w	sl, sl, lsl #12
    a9e0:	ea44 040a 	orr.w	r4, r4, sl
    a9e4:	ea4f 4a53 	mov.w	sl, r3, lsr #17
    a9e8:	f00a 0a01 	and.w	sl, sl, #1
    a9ec:	ea4f 7a0a 	mov.w	sl, sl, lsl #28
    a9f0:	ea44 040a 	orr.w	r4, r4, sl
    a9f4:	ea4f 4a93 	mov.w	sl, r3, lsr #18
    a9f8:	f00a 0a01 	and.w	sl, sl, #1
    a9fc:	ea4f 3a0a 	mov.w	sl, sl, lsl #12
    aa00:	ea45 050a 	orr.w	r5, r5, sl
    aa04:	ea4f 4ad3 	mov.w	sl, r3, lsr #19
    aa08:	f00a 0a01 	and.w	sl, sl, #1
    aa0c:	ea4f 7a0a 	mov.w	sl, sl, lsl #28
    aa10:	ea45 050a 	orr.w	r5, r5, sl
    aa14:	ea4f 5a13 	mov.w	sl, r3, lsr #20
    aa18:	f00a 0a01 	and.w	sl, sl, #1
    aa1c:	ea4f 3a4a 	mov.w	sl, sl, lsl #13
    aa20:	ea44 040a 	orr.w	r4, r4, sl
    aa24:	ea4f 5a53 	mov.w	sl, r3, lsr #21
    aa28:	f00a 0a01 	and.w	sl, sl, #1
    aa2c:	ea4f 7a4a 	mov.w	sl, sl, lsl #29
    aa30:	ea44 040a 	orr.w	r4, r4, sl
    aa34:	ea4f 5a93 	mov.w	sl, r3, lsr #22
    aa38:	f00a 0a01 	and.w	sl, sl, #1
    aa3c:	ea4f 3a4a 	mov.w	sl, sl, lsl #13
    aa40:	ea45 050a 	orr.w	r5, r5, sl
    aa44:	ea4f 5ad3 	mov.w	sl, r3, lsr #23
    aa48:	f00a 0a01 	and.w	sl, sl, #1
    aa4c:	ea4f 7a4a 	mov.w	sl, sl, lsl #29
    aa50:	ea45 050a 	orr.w	r5, r5, sl
    aa54:	ea4f 6a13 	mov.w	sl, r3, lsr #24
    aa58:	f00a 0a01 	and.w	sl, sl, #1
    aa5c:	ea4f 3a8a 	mov.w	sl, sl, lsl #14
    aa60:	ea44 040a 	orr.w	r4, r4, sl
    aa64:	ea4f 6a53 	mov.w	sl, r3, lsr #25
    aa68:	f00a 0a01 	and.w	sl, sl, #1
    aa6c:	ea4f 7a8a 	mov.w	sl, sl, lsl #30
    aa70:	ea44 040a 	orr.w	r4, r4, sl
    aa74:	ea4f 6a93 	mov.w	sl, r3, lsr #26
    aa78:	f00a 0a01 	and.w	sl, sl, #1
    aa7c:	ea4f 3a8a 	mov.w	sl, sl, lsl #14
    aa80:	ea45 050a 	orr.w	r5, r5, sl
    aa84:	ea4f 6ad3 	mov.w	sl, r3, lsr #27
    aa88:	f00a 0a01 	and.w	sl, sl, #1
    aa8c:	ea4f 7a8a 	mov.w	sl, sl, lsl #30
    aa90:	ea45 050a 	orr.w	r5, r5, sl
    aa94:	ea4f 7a13 	mov.w	sl, r3, lsr #28
    aa98:	f00a 0a01 	and.w	sl, sl, #1
    aa9c:	ea4f 3aca 	mov.w	sl, sl, lsl #15
    aaa0:	ea44 040a 	orr.w	r4, r4, sl
    aaa4:	ea4f 7a53 	mov.w	sl, r3, lsr #29
    aaa8:	f00a 0a01 	and.w	sl, sl, #1
    aaac:	ea4f 7aca 	mov.w	sl, sl, lsl #31
    aab0:	ea44 040a 	orr.w	r4, r4, sl
    aab4:	ea4f 7a93 	mov.w	sl, r3, lsr #30
    aab8:	f00a 0a01 	and.w	sl, sl, #1
    aabc:	ea4f 3aca 	mov.w	sl, sl, lsl #15
    aac0:	ea45 050a 	orr.w	r5, r5, sl
    aac4:	ea4f 7ad3 	mov.w	sl, r3, lsr #31
    aac8:	f00a 0a01 	and.w	sl, sl, #1
    aacc:	ea4f 7aca 	mov.w	sl, sl, lsl #31
    aad0:	ea45 050a 	orr.w	r5, r5, sl
    aad4:	6004      	str	r4, [r0, #0]
    aad6:	6045      	str	r5, [r0, #4]
    aad8:	b003      	add	sp, #12
    aada:	f85d eb04 	ldr.w	lr, [sp], #4
    aade:	4770      	bx	lr

0000aae0 <masked_present>:
    aae0:	f8dd a000 	ldr.w	sl, [sp]
    aae4:	f8dd b004 	ldr.w	fp, [sp, #4]
    aae8:	e92d 4ff0 	stmdb	sp!, {r4, r5, r6, r7, r8, r9, sl, fp, lr}
    aaec:	b08f      	sub	sp, #60	; 0x3c
    aaee:	4694      	mov	ip, r2
    aaf0:	469e      	mov	lr, r3
    aaf2:	9000      	str	r0, [sp, #0]
    aaf4:	9101      	str	r1, [sp, #4]
    aaf6:	f8cd c008 	str.w	ip, [sp, #8]
    aafa:	f8cd e00c 	str.w	lr, [sp, #12]
    aafe:	f8cd a010 	str.w	sl, [sp, #16]
    ab02:	f8cd b014 	str.w	fp, [sp, #20]
    ab06:	f04f 0a00 	mov.w	sl, #0
    ab0a:	f8cd a018 	str.w	sl, [sp, #24]
    ab0e:	f04f 0b00 	mov.w	fp, #0
    ab12:	f8cd b01c 	str.w	fp, [sp, #28]

0000ab16 <loopT>:
    ab16:	6842      	ldr	r2, [r0, #4]
    ab18:	684e      	ldr	r6, [r1, #4]
    ab1a:	f8dd c008 	ldr.w	ip, [sp, #8]
    ab1e:	f8dd e00c 	ldr.w	lr, [sp, #12]
    ab22:	f8dd a010 	ldr.w	sl, [sp, #16]
    ab26:	f8dd b014 	ldr.w	fp, [sp, #20]
    ab2a:	9d07      	ldr	r5, [sp, #28]
    ab2c:	eb05 040c 	add.w	r4, r5, ip
    ab30:	6823      	ldr	r3, [r4, #0]
    ab32:	eb05 040e 	add.w	r4, r5, lr
    ab36:	6827      	ldr	r7, [r4, #0]
    ab38:	ea82 0203 	eor.w	r2, r2, r3
    ab3c:	ea86 0607 	eor.w	r6, r6, r7
    ab40:	6042      	str	r2, [r0, #4]
    ab42:	604e      	str	r6, [r1, #4]
    ab44:	6802      	ldr	r2, [r0, #0]
    ab46:	680e      	ldr	r6, [r1, #0]
    ab48:	eb05 040a 	add.w	r4, r5, sl
    ab4c:	6823      	ldr	r3, [r4, #0]
    ab4e:	eb05 040b 	add.w	r4, r5, fp
    ab52:	6827      	ldr	r7, [r4, #0]
    ab54:	ea82 0203 	eor.w	r2, r2, r3
    ab58:	ea86 0607 	eor.w	r6, r6, r7
    ab5c:	6002      	str	r2, [r0, #0]
    ab5e:	600e      	str	r6, [r1, #0]
    ab60:	f105 0504 	add.w	r5, r5, #4
    ab64:	9507      	str	r5, [sp, #28]
    ab66:	f7fd fb5b 	bl	8220 <sbox_player>
    ab6a:	f8dd a018 	ldr.w	sl, [sp, #24]
    ab6e:	f10a 0a01 	add.w	sl, sl, #1
    ab72:	f8cd a018 	str.w	sl, [sp, #24]
    ab76:	f1ba 0f1f 	cmp.w	sl, #31
    ab7a:	dbcc      	blt.n	ab16 <loopT>
    ab7c:	6842      	ldr	r2, [r0, #4]
    ab7e:	684e      	ldr	r6, [r1, #4]
    ab80:	f8dd c008 	ldr.w	ip, [sp, #8]
    ab84:	f8dd e00c 	ldr.w	lr, [sp, #12]
    ab88:	f8dd a010 	ldr.w	sl, [sp, #16]
    ab8c:	f8dd b014 	ldr.w	fp, [sp, #20]
    ab90:	9d07      	ldr	r5, [sp, #28]
    ab92:	eb05 040c 	add.w	r4, r5, ip
    ab96:	6823      	ldr	r3, [r4, #0]
    ab98:	eb05 040e 	add.w	r4, r5, lr
    ab9c:	6827      	ldr	r7, [r4, #0]
    ab9e:	ea82 0203 	eor.w	r2, r2, r3
    aba2:	ea86 0607 	eor.w	r6, r6, r7
    aba6:	6042      	str	r2, [r0, #4]
    aba8:	604e      	str	r6, [r1, #4]
    abaa:	6802      	ldr	r2, [r0, #0]
    abac:	680e      	ldr	r6, [r1, #0]
    abae:	eb05 040a 	add.w	r4, r5, sl
    abb2:	6823      	ldr	r3, [r4, #0]
    abb4:	eb05 040b 	add.w	r4, r5, fp
    abb8:	6827      	ldr	r7, [r4, #0]
    abba:	ea82 0203 	eor.w	r2, r2, r3
    abbe:	ea86 0607 	eor.w	r6, r6, r7
    abc2:	6002      	str	r2, [r0, #0]
    abc4:	600e      	str	r6, [r1, #0]
    abc6:	b00f      	add	sp, #60	; 0x3c
    abc8:	e8bd 4ff0 	ldmia.w	sp!, {r4, r5, r6, r7, r8, r9, sl, fp, lr}
    abcc:	4770      	bx	lr
    abce:	bf00      	nop

0000abd0 <atexit>:
    abd0:	2300      	movs	r3, #0
    abd2:	4601      	mov	r1, r0
    abd4:	461a      	mov	r2, r3
    abd6:	4618      	mov	r0, r3
    abd8:	f000 b89c 	b.w	ad14 <__register_exitproc>

0000abdc <exit>:
    abdc:	b508      	push	{r3, lr}
    abde:	2100      	movs	r1, #0
    abe0:	4604      	mov	r4, r0
    abe2:	f000 f8c9 	bl	ad78 <__call_exitprocs>
    abe6:	4b04      	ldr	r3, [pc, #16]	; (abf8 <exit+0x1c>)
    abe8:	6818      	ldr	r0, [r3, #0]
    abea:	6bc3      	ldr	r3, [r0, #60]	; 0x3c
    abec:	b103      	cbz	r3, abf0 <exit+0x14>
    abee:	4798      	blx	r3
    abf0:	4620      	mov	r0, r4
    abf2:	f000 f93f 	bl	ae74 <_etext>
    abf6:	bf00      	nop
    abf8:	0000ae4c 	.word	0x0000ae4c

0000abfc <__libc_fini_array>:
    abfc:	b538      	push	{r3, r4, r5, lr}
    abfe:	4b08      	ldr	r3, [pc, #32]	; (ac20 <__libc_fini_array+0x24>)
    ac00:	4d08      	ldr	r5, [pc, #32]	; (ac24 <__libc_fini_array+0x28>)
    ac02:	1b5b      	subs	r3, r3, r5
    ac04:	109c      	asrs	r4, r3, #2
    ac06:	d007      	beq.n	ac18 <__libc_fini_array+0x1c>
    ac08:	3b04      	subs	r3, #4
    ac0a:	441d      	add	r5, r3
    ac0c:	3c01      	subs	r4, #1
    ac0e:	f855 3904 	ldr.w	r3, [r5], #-4
    ac12:	4798      	blx	r3
    ac14:	2c00      	cmp	r4, #0
    ac16:	d1f9      	bne.n	ac0c <__libc_fini_array+0x10>
    ac18:	e8bd 4038 	ldmia.w	sp!, {r3, r4, r5, lr}
    ac1c:	f000 b930 	b.w	ae80 <_fini>
	...

0000ac28 <__libc_init_array>:
    ac28:	b570      	push	{r4, r5, r6, lr}
    ac2a:	4e0d      	ldr	r6, [pc, #52]	; (ac60 <__libc_init_array+0x38>)
    ac2c:	4d0d      	ldr	r5, [pc, #52]	; (ac64 <__libc_init_array+0x3c>)
    ac2e:	1b76      	subs	r6, r6, r5
    ac30:	10b6      	asrs	r6, r6, #2
    ac32:	d006      	beq.n	ac42 <__libc_init_array+0x1a>
    ac34:	2400      	movs	r4, #0
    ac36:	f855 3b04 	ldr.w	r3, [r5], #4
    ac3a:	3401      	adds	r4, #1
    ac3c:	4798      	blx	r3
    ac3e:	42a6      	cmp	r6, r4
    ac40:	d1f9      	bne.n	ac36 <__libc_init_array+0xe>
    ac42:	4e09      	ldr	r6, [pc, #36]	; (ac68 <__libc_init_array+0x40>)
    ac44:	4d09      	ldr	r5, [pc, #36]	; (ac6c <__libc_init_array+0x44>)
    ac46:	f000 f915 	bl	ae74 <_etext>
    ac4a:	1b76      	subs	r6, r6, r5
    ac4c:	10b6      	asrs	r6, r6, #2
    ac4e:	d006      	beq.n	ac5e <__libc_init_array+0x36>
    ac50:	2400      	movs	r4, #0
    ac52:	f855 3b04 	ldr.w	r3, [r5], #4
    ac56:	3401      	adds	r4, #1
    ac58:	4798      	blx	r3
    ac5a:	42a6      	cmp	r6, r4
    ac5c:	d1f9      	bne.n	ac52 <__libc_init_array+0x2a>
    ac5e:	bd70      	pop	{r4, r5, r6, pc}
	...

0000ac70 <memset>:
    ac70:	0783      	lsls	r3, r0, #30
    ac72:	b530      	push	{r4, r5, lr}
    ac74:	d048      	beq.n	ad08 <memset+0x98>
    ac76:	1e54      	subs	r4, r2, #1
    ac78:	2a00      	cmp	r2, #0
    ac7a:	d03f      	beq.n	acfc <memset+0x8c>
    ac7c:	4603      	mov	r3, r0
    ac7e:	b2ca      	uxtb	r2, r1
    ac80:	e001      	b.n	ac86 <memset+0x16>
    ac82:	3c01      	subs	r4, #1
    ac84:	d33a      	bcc.n	acfc <memset+0x8c>
    ac86:	f803 2b01 	strb.w	r2, [r3], #1
    ac8a:	079d      	lsls	r5, r3, #30
    ac8c:	d1f9      	bne.n	ac82 <memset+0x12>
    ac8e:	2c03      	cmp	r4, #3
    ac90:	d92d      	bls.n	acee <memset+0x7e>
    ac92:	b2cd      	uxtb	r5, r1
    ac94:	ea45 2505 	orr.w	r5, r5, r5, lsl #8
    ac98:	2c0f      	cmp	r4, #15
    ac9a:	ea45 4505 	orr.w	r5, r5, r5, lsl #16
    ac9e:	d936      	bls.n	ad0e <memset+0x9e>
    aca0:	f1a4 0210 	sub.w	r2, r4, #16
    aca4:	f022 0c0f 	bic.w	ip, r2, #15
    aca8:	f103 0e20 	add.w	lr, r3, #32
    acac:	44e6      	add	lr, ip
    acae:	ea4f 1c12 	mov.w	ip, r2, lsr #4
    acb2:	f103 0210 	add.w	r2, r3, #16
    acb6:	e942 5504 	strd	r5, r5, [r2, #-16]
    acba:	e942 5502 	strd	r5, r5, [r2, #-8]
    acbe:	3210      	adds	r2, #16
    acc0:	4572      	cmp	r2, lr
    acc2:	d1f8      	bne.n	acb6 <memset+0x46>
    acc4:	f10c 0201 	add.w	r2, ip, #1
    acc8:	f014 0f0c 	tst.w	r4, #12
    accc:	eb03 1202 	add.w	r2, r3, r2, lsl #4
    acd0:	f004 0c0f 	and.w	ip, r4, #15
    acd4:	d013      	beq.n	acfe <memset+0x8e>
    acd6:	f1ac 0304 	sub.w	r3, ip, #4
    acda:	f023 0303 	bic.w	r3, r3, #3
    acde:	3304      	adds	r3, #4
    ace0:	4413      	add	r3, r2
    ace2:	f842 5b04 	str.w	r5, [r2], #4
    ace6:	4293      	cmp	r3, r2
    ace8:	d1fb      	bne.n	ace2 <memset+0x72>
    acea:	f00c 0403 	and.w	r4, ip, #3
    acee:	b12c      	cbz	r4, acfc <memset+0x8c>
    acf0:	b2ca      	uxtb	r2, r1
    acf2:	441c      	add	r4, r3
    acf4:	f803 2b01 	strb.w	r2, [r3], #1
    acf8:	429c      	cmp	r4, r3
    acfa:	d1fb      	bne.n	acf4 <memset+0x84>
    acfc:	bd30      	pop	{r4, r5, pc}
    acfe:	4664      	mov	r4, ip
    ad00:	4613      	mov	r3, r2
    ad02:	2c00      	cmp	r4, #0
    ad04:	d1f4      	bne.n	acf0 <memset+0x80>
    ad06:	e7f9      	b.n	acfc <memset+0x8c>
    ad08:	4603      	mov	r3, r0
    ad0a:	4614      	mov	r4, r2
    ad0c:	e7bf      	b.n	ac8e <memset+0x1e>
    ad0e:	461a      	mov	r2, r3
    ad10:	46a4      	mov	ip, r4
    ad12:	e7e0      	b.n	acd6 <memset+0x66>

0000ad14 <__register_exitproc>:
    ad14:	b570      	push	{r4, r5, r6, lr}
    ad16:	4c17      	ldr	r4, [pc, #92]	; (ad74 <__register_exitproc+0x60>)
    ad18:	6825      	ldr	r5, [r4, #0]
    ad1a:	f8d5 4148 	ldr.w	r4, [r5, #328]	; 0x148
    ad1e:	b1dc      	cbz	r4, ad58 <__register_exitproc+0x44>
    ad20:	6865      	ldr	r5, [r4, #4]
    ad22:	2d1f      	cmp	r5, #31
    ad24:	dc23      	bgt.n	ad6e <__register_exitproc+0x5a>
    ad26:	b180      	cbz	r0, ad4a <__register_exitproc+0x36>
    ad28:	f04f 0c01 	mov.w	ip, #1
    ad2c:	eb04 0e85 	add.w	lr, r4, r5, lsl #2
    ad30:	f8ce 2088 	str.w	r2, [lr, #136]	; 0x88
    ad34:	f8d4 6188 	ldr.w	r6, [r4, #392]	; 0x188
    ad38:	fa0c f205 	lsl.w	r2, ip, r5
    ad3c:	4316      	orrs	r6, r2
    ad3e:	2802      	cmp	r0, #2
    ad40:	f8c4 6188 	str.w	r6, [r4, #392]	; 0x188
    ad44:	f8ce 3108 	str.w	r3, [lr, #264]	; 0x108
    ad48:	d00b      	beq.n	ad62 <__register_exitproc+0x4e>
    ad4a:	1c6b      	adds	r3, r5, #1
    ad4c:	3502      	adds	r5, #2
    ad4e:	6063      	str	r3, [r4, #4]
    ad50:	2000      	movs	r0, #0
    ad52:	f844 1025 	str.w	r1, [r4, r5, lsl #2]
    ad56:	bd70      	pop	{r4, r5, r6, pc}
    ad58:	f505 74a6 	add.w	r4, r5, #332	; 0x14c
    ad5c:	f8c5 4148 	str.w	r4, [r5, #328]	; 0x148
    ad60:	e7de      	b.n	ad20 <__register_exitproc+0xc>
    ad62:	f8d4 318c 	ldr.w	r3, [r4, #396]	; 0x18c
    ad66:	4313      	orrs	r3, r2
    ad68:	f8c4 318c 	str.w	r3, [r4, #396]	; 0x18c
    ad6c:	e7ed      	b.n	ad4a <__register_exitproc+0x36>
    ad6e:	f04f 30ff 	mov.w	r0, #4294967295	; 0xffffffff
    ad72:	bd70      	pop	{r4, r5, r6, pc}
    ad74:	0000ae4c 	.word	0x0000ae4c

0000ad78 <__call_exitprocs>:
    ad78:	e92d 4ff0 	stmdb	sp!, {r4, r5, r6, r7, r8, r9, sl, fp, lr}
    ad7c:	4b29      	ldr	r3, [pc, #164]	; (ae24 <__call_exitprocs+0xac>)
    ad7e:	b083      	sub	sp, #12
    ad80:	681f      	ldr	r7, [r3, #0]
    ad82:	9001      	str	r0, [sp, #4]
    ad84:	f8d7 6148 	ldr.w	r6, [r7, #328]	; 0x148
    ad88:	b1b6      	cbz	r6, adb8 <__call_exitprocs+0x40>
    ad8a:	468b      	mov	fp, r1
    ad8c:	f04f 0801 	mov.w	r8, #1
    ad90:	f04f 0900 	mov.w	r9, #0
    ad94:	6874      	ldr	r4, [r6, #4]
    ad96:	1e65      	subs	r5, r4, #1
    ad98:	d40e      	bmi.n	adb8 <__call_exitprocs+0x40>
    ad9a:	3401      	adds	r4, #1
    ad9c:	eb06 0484 	add.w	r4, r6, r4, lsl #2
    ada0:	f1bb 0f00 	cmp.w	fp, #0
    ada4:	d00b      	beq.n	adbe <__call_exitprocs+0x46>
    ada6:	f8d4 3100 	ldr.w	r3, [r4, #256]	; 0x100
    adaa:	455b      	cmp	r3, fp
    adac:	d007      	beq.n	adbe <__call_exitprocs+0x46>
    adae:	3d01      	subs	r5, #1
    adb0:	1c6b      	adds	r3, r5, #1
    adb2:	f1a4 0404 	sub.w	r4, r4, #4
    adb6:	d1f3      	bne.n	ada0 <__call_exitprocs+0x28>
    adb8:	b003      	add	sp, #12
    adba:	e8bd 8ff0 	ldmia.w	sp!, {r4, r5, r6, r7, r8, r9, sl, fp, pc}
    adbe:	6873      	ldr	r3, [r6, #4]
    adc0:	6822      	ldr	r2, [r4, #0]
    adc2:	3b01      	subs	r3, #1
    adc4:	42ab      	cmp	r3, r5
    adc6:	bf0c      	ite	eq
    adc8:	6075      	streq	r5, [r6, #4]
    adca:	f8c4 9000 	strne.w	r9, [r4]
    adce:	2a00      	cmp	r2, #0
    add0:	d0ed      	beq.n	adae <__call_exitprocs+0x36>
    add2:	f8d6 0188 	ldr.w	r0, [r6, #392]	; 0x188
    add6:	fa08 f105 	lsl.w	r1, r8, r5
    adda:	4201      	tst	r1, r0
    addc:	f8d6 a004 	ldr.w	sl, [r6, #4]
    ade0:	d10b      	bne.n	adfa <__call_exitprocs+0x82>
    ade2:	4790      	blx	r2
    ade4:	6872      	ldr	r2, [r6, #4]
    ade6:	4552      	cmp	r2, sl
    ade8:	d112      	bne.n	ae10 <__call_exitprocs+0x98>
    adea:	f8d7 3148 	ldr.w	r3, [r7, #328]	; 0x148
    adee:	42b3      	cmp	r3, r6
    adf0:	d0dd      	beq.n	adae <__call_exitprocs+0x36>
    adf2:	461e      	mov	r6, r3
    adf4:	2e00      	cmp	r6, #0
    adf6:	d1cd      	bne.n	ad94 <__call_exitprocs+0x1c>
    adf8:	e7de      	b.n	adb8 <__call_exitprocs+0x40>
    adfa:	f8d6 018c 	ldr.w	r0, [r6, #396]	; 0x18c
    adfe:	4201      	tst	r1, r0
    ae00:	d10b      	bne.n	ae1a <__call_exitprocs+0xa2>
    ae02:	f8d4 1080 	ldr.w	r1, [r4, #128]	; 0x80
    ae06:	9801      	ldr	r0, [sp, #4]
    ae08:	4790      	blx	r2
    ae0a:	6872      	ldr	r2, [r6, #4]
    ae0c:	4552      	cmp	r2, sl
    ae0e:	d0ec      	beq.n	adea <__call_exitprocs+0x72>
    ae10:	f8d7 6148 	ldr.w	r6, [r7, #328]	; 0x148
    ae14:	2e00      	cmp	r6, #0
    ae16:	d1bd      	bne.n	ad94 <__call_exitprocs+0x1c>
    ae18:	e7ce      	b.n	adb8 <__call_exitprocs+0x40>
    ae1a:	f8d4 0080 	ldr.w	r0, [r4, #128]	; 0x80
    ae1e:	4790      	blx	r2
    ae20:	e7e0      	b.n	ade4 <__call_exitprocs+0x6c>
    ae22:	bf00      	nop
    ae24:	0000ae4c 	.word	0x0000ae4c

0000ae28 <all_implied_fbits>:
    ae28:	3d0a3d3a 3d243d0f 3d023d32 3d133d05     :=.=.=$=2=.=.=.=
    ae38:	3d0c3d0d 3d113d23 3d013d26 3d083d17     .=.=#=.=&=.=.=.=
    ae48:	00003d09                                .=..

0000ae4c <_global_impure_ptr>:
    ae4c:	00020228                                (...

0000ae50 <all_implied_fbits>:
    ae50:	3d0a3d3a 3d243d0f 3d023d32 3d133d05     :=.=.=$=2=.=.=.=
    ae60:	3d0c3d0d 3d113d23 3d013d26 3d083d17     .=.=#=.=&=.=.=.=
    ae70:	00003d09                                .=..

Disassembly of section .init:

0000ae74 <_init>:
    ae74:	b5f8      	push	{r3, r4, r5, r6, r7, lr}
    ae76:	bf00      	nop
    ae78:	bcf8      	pop	{r3, r4, r5, r6, r7}
    ae7a:	bc08      	pop	{r3}
    ae7c:	469e      	mov	lr, r3
    ae7e:	4770      	bx	lr

Disassembly of section .fini:

0000ae80 <_fini>:
    ae80:	b5f8      	push	{r3, r4, r5, r6, r7, lr}
    ae82:	bf00      	nop
    ae84:	bcf8      	pop	{r3, r4, r5, r6, r7}
    ae86:	bc08      	pop	{r3}
    ae88:	469e      	mov	lr, r3
    ae8a:	4770      	bx	lr

Disassembly of section .text.startup:

0000ae8c <main>:
    ae8c:	b570      	push	{r4, r5, r6, lr}
    ae8e:	493d      	ldr	r1, [pc, #244]	; (af84 <main+0xf8>)
    ae90:	b088      	sub	sp, #32
    ae92:	a802      	add	r0, sp, #8
    ae94:	f7fd f930 	bl	80f8 <initialize_local>
    ae98:	3108      	adds	r1, #8
    ae9a:	a804      	add	r0, sp, #16
    ae9c:	f7fd f92c 	bl	80f8 <initialize_local>
    aea0:	4939      	ldr	r1, [pc, #228]	; (af88 <main+0xfc>)
    aea2:	9b04      	ldr	r3, [sp, #16]
    aea4:	f101 0c80 	add.w	ip, r1, #128	; 0x80
    aea8:	4666      	mov	r6, ip
    aeaa:	9a05      	ldr	r2, [sp, #20]
    aeac:	ea4f 0373 	mov.w	r3, r3, ror #1
    aeb0:	ea4f 0272 	mov.w	r2, r2, ror #1
    aeb4:	e9cd 3204 	strd	r3, r2, [sp, #16]
    aeb8:	f501 7580 	add.w	r5, r1, #256	; 0x100
    aebc:	f501 7ec0 	add.w	lr, r1, #384	; 0x180
    aec0:	f85c 2f04 	ldr.w	r2, [ip, #4]!
    aec4:	f85e 3f04 	ldr.w	r3, [lr, #4]!
    aec8:	f851 4f04 	ldr.w	r4, [r1, #4]!
    aecc:	f855 0f04 	ldr.w	r0, [r5, #4]!
    aed0:	4054      	eors	r4, r2
    aed2:	4058      	eors	r0, r3
    aed4:	ea4f 0272 	mov.w	r2, r2, ror #1
    aed8:	ea4f 0373 	mov.w	r3, r3, ror #1
    aedc:	42b1      	cmp	r1, r6
    aede:	600c      	str	r4, [r1, #0]
    aee0:	f8cc 2000 	str.w	r2, [ip]
    aee4:	6028      	str	r0, [r5, #0]
    aee6:	f8ce 3000 	str.w	r3, [lr]
    aeea:	d1e9      	bne.n	aec0 <main+0x34>
    aeec:	4a27      	ldr	r2, [pc, #156]	; (af8c <main+0x100>)
    aeee:	a904      	add	r1, sp, #16
    aef0:	f1a2 0380 	sub.w	r3, r2, #128	; 0x80
    aef4:	e9cd 3200 	strd	r3, r2, [sp]
    aef8:	a802      	add	r0, sp, #8
    aefa:	f5a2 7380 	sub.w	r3, r2, #256	; 0x100
    aefe:	f5a2 72c0 	sub.w	r2, r2, #384	; 0x180
    af02:	f7fd f919 	bl	8138 <cipher>
    af06:	e9dd 2304 	ldrd	r2, r3, [sp, #16]
    af0a:	f89d 0008 	ldrb.w	r0, [sp, #8]
    af0e:	f89d 5009 	ldrb.w	r5, [sp, #9]
    af12:	ea80 70f2 	eor.w	r0, r0, r2, ror #31
    af16:	f89d 100c 	ldrb.w	r1, [sp, #12]
    af1a:	b2c0      	uxtb	r0, r0
    af1c:	f3c2 14c7 	ubfx	r4, r2, #7, #8
    af20:	f89d e00a 	ldrb.w	lr, [sp, #10]
    af24:	f89d c00b 	ldrb.w	ip, [sp, #11]
    af28:	f88d 0018 	strb.w	r0, [sp, #24]
    af2c:	406c      	eors	r4, r5
    af2e:	ea81 71f3 	eor.w	r1, r1, r3, ror #31
    af32:	f3c2 30c7 	ubfx	r0, r2, #15, #8
    af36:	f3c2 52c7 	ubfx	r2, r2, #23, #8
    af3a:	f88d 4019 	strb.w	r4, [sp, #25]
    af3e:	b2c9      	uxtb	r1, r1
    af40:	ea82 020c 	eor.w	r2, r2, ip
    af44:	f89d 600d 	ldrb.w	r6, [sp, #13]
    af48:	f89d 500e 	ldrb.w	r5, [sp, #14]
    af4c:	f89d 400f 	ldrb.w	r4, [sp, #15]
    af50:	ea80 000e 	eor.w	r0, r0, lr
    af54:	f88d 001a 	strb.w	r0, [sp, #26]
    af58:	f88d 201b 	strb.w	r2, [sp, #27]
    af5c:	f88d 101c 	strb.w	r1, [sp, #28]
    af60:	f3c3 32c7 	ubfx	r2, r3, #15, #8
    af64:	f3c3 11c7 	ubfx	r1, r3, #7, #8
    af68:	f3c3 53c7 	ubfx	r3, r3, #23, #8
    af6c:	4071      	eors	r1, r6
    af6e:	406a      	eors	r2, r5
    af70:	4063      	eors	r3, r4
    af72:	f88d 101d 	strb.w	r1, [sp, #29]
    af76:	f88d 201e 	strb.w	r2, [sp, #30]
    af7a:	f88d 301f 	strb.w	r3, [sp, #31]
    af7e:	f7fd f8dd 	bl	813c <report_done>
    af82:	bf00      	nop
    af84:	0002020c 	.word	0x0002020c
    af88:	00020008 	.word	0x00020008
    af8c:	0002018c 	.word	0x0002018c

0000af90 <register_fini>:
    af90:	4b02      	ldr	r3, [pc, #8]	; (af9c <register_fini+0xc>)
    af92:	b113      	cbz	r3, af9a <register_fini+0xa>
    af94:	4802      	ldr	r0, [pc, #8]	; (afa0 <register_fini+0x10>)
    af96:	f7ff be1b 	b.w	abd0 <atexit>
    af9a:	4770      	bx	lr
    af9c:	00000000 	.word	0x00000000
    afa0:	0000abfd 	.word	0x0000abfd
